ARM GAS  C:\Users\CHRIST~1\AppData\Local\Temp\ccqTL7es.s 			page 1


   1              		.cpu cortex-m4
   2              		.eabi_attribute 27, 1
   3              		.eabi_attribute 28, 1
   4              		.eabi_attribute 20, 1
   5              		.eabi_attribute 21, 1
   6              		.eabi_attribute 23, 3
   7              		.eabi_attribute 24, 1
   8              		.eabi_attribute 25, 1
   9              		.eabi_attribute 26, 1
  10              		.eabi_attribute 30, 2
  11              		.eabi_attribute 34, 1
  12              		.eabi_attribute 18, 4
  13              		.file	"app.c"
  14              		.text
  15              	.Ltext0:
  16              		.cfi_sections	.debug_frame
  17              		.section	.text.app_get_configuration,"ax",%progbits
  18              		.align	1
  19              		.p2align 4,,15
  20              		.global	app_get_configuration
  21              		.syntax unified
  22              		.thumb
  23              		.thumb_func
  24              		.fpu fpv4-sp-d16
  25              		.type	app_get_configuration, %function
  26              	app_get_configuration:
  27              	.LFB256:
  28              		.file 1 "applications/app.c"
  29              		.loc 1 30 0
  30              		.cfi_startproc
  31              		@ args = 0, pretend = 0, frame = 0
  32              		@ frame_needed = 0, uses_anonymous_args = 0
  33              		@ link register save eliminated.
  34              		.loc 1 32 0
  35 0000 0048     		ldr	r0, .L2
  36 0002 7047     		bx	lr
  37              	.L3:
  38              		.align	2
  39              	.L2:
  40 0004 00000000 		.word	.LANCHOR0
  41              		.cfi_endproc
  42              	.LFE256:
  43              		.size	app_get_configuration, .-app_get_configuration
  44              		.section	.text.app_set_configuration,"ax",%progbits
  45              		.align	1
  46              		.p2align 4,,15
  47              		.global	app_set_configuration
  48              		.syntax unified
  49              		.thumb
  50              		.thumb_func
  51              		.fpu fpv4-sp-d16
  52              		.type	app_set_configuration, %function
  53              	app_set_configuration:
  54              	.LFB257:
  55              		.loc 1 40 0
  56              		.cfi_startproc
  57              		@ args = 0, pretend = 0, frame = 0
ARM GAS  C:\Users\CHRIST~1\AppData\Local\Temp\ccqTL7es.s 			page 2


  58              		@ frame_needed = 0, uses_anonymous_args = 0
  59              	.LVL0:
  60 0000 38B5     		push	{r3, r4, r5, lr}
  61              		.cfi_def_cfa_offset 16
  62              		.cfi_offset 3, -16
  63              		.cfi_offset 4, -12
  64              		.cfi_offset 5, -8
  65              		.cfi_offset 14, -4
  66              		.loc 1 48 0
  67 0002 2A4D     		ldr	r5, .L18
  68              		.loc 1 41 0
  69 0004 0146     		mov	r1, r0
  70 0006 C822     		movs	r2, #200
  71 0008 2948     		ldr	r0, .L18+4
  72              	.LVL1:
  73 000a FFF7FEFF 		bl	memcpy
  74              	.LVL2:
  75              		.loc 1 43 0
  76 000e FFF7FEFF 		bl	app_ppm_stop
  77              	.LVL3:
  78              		.loc 1 44 0
  79 0012 FFF7FEFF 		bl	app_adc_stop
  80              	.LVL4:
  81              		.loc 1 45 0
  82 0016 FFF7FEFF 		bl	app_uartcomm_stop
  83              	.LVL5:
  84              		.loc 1 46 0
  85 001a FFF7FEFF 		bl	app_nunchuk_stop
  86              	.LVL6:
  87              		.loc 1 48 0
  88 001e 2B78     		ldrb	r3, [r5]	@ zero_extendqisi2
  89 0020 1BB3     		cbz	r3, .L17
  90              	.L5:
  91              		.loc 1 56 0
  92 0022 234C     		ldr	r4, .L18+4
  93 0024 237D     		ldrb	r3, [r4, #20]	@ zero_extendqisi2
  94 0026 013B     		subs	r3, r3, #1
  95 0028 062B     		cmp	r3, #6
  96 002a 0CD8     		bhi	.L6
  97 002c DFE803F0 		tbb	[pc, r3]
  98              	.L8:
  99 0030 28       		.byte	(.L7-.L8)/2
 100 0031 2B       		.byte	(.L9-.L8)/2
 101 0032 2F       		.byte	(.L10-.L8)/2
 102 0033 34       		.byte	(.L11-.L8)/2
 103 0034 04       		.byte	(.L12-.L8)/2
 104 0035 3B       		.byte	(.L13-.L8)/2
 105 0036 20       		.byte	(.L14-.L8)/2
 106 0037 00       		.p2align 1
 107              	.L12:
 108              		.loc 1 77 0
 109 0038 FFF7FEFF 		bl	hw_stop_i2c
 110              	.LVL7:
 111              		.loc 1 78 0
 112 003c 0020     		movs	r0, #0
 113 003e FFF7FEFF 		bl	app_adc_start
 114              	.LVL8:
ARM GAS  C:\Users\CHRIST~1\AppData\Local\Temp\ccqTL7es.s 			page 3


 115              		.loc 1 79 0
 116 0042 FFF7FEFF 		bl	app_uartcomm_start
 117              	.LVL9:
 118              	.L6:
 119              		.loc 1 104 0
 120 0046 1B48     		ldr	r0, .L18+8
 121 0048 FFF7FEFF 		bl	app_ppm_configure
 122              	.LVL10:
 123              		.loc 1 105 0
 124 004c 1A48     		ldr	r0, .L18+12
 125 004e FFF7FEFF 		bl	app_adc_configure
 126              	.LVL11:
 127              		.loc 1 106 0
 128 0052 D4F89400 		ldr	r0, [r4, #148]
 129 0056 FFF7FEFF 		bl	app_uartcomm_configure
 130              	.LVL12:
 131              		.loc 1 107 0
 132 005a 1848     		ldr	r0, .L18+16
 133 005c FFF7FEFF 		bl	app_nunchuk_configure
 134              	.LVL13:
 135              		.loc 1 113 0
 136 0060 1748     		ldr	r0, .L18+20
 137              		.loc 1 114 0
 138 0062 BDE83840 		pop	{r3, r4, r5, lr}
 139              		.cfi_remember_state
 140              		.cfi_restore 14
 141              		.cfi_restore 5
 142              		.cfi_restore 4
 143              		.cfi_restore 3
 144              		.cfi_def_cfa_offset 0
 145              		.loc 1 113 0
 146 0066 FFF7FEBF 		b	rfhelp_update_conf
 147              	.LVL14:
 148              	.L17:
 149              		.cfi_restore_state
 150              		.loc 1 49 0
 151 006a FFF7FEFF 		bl	nrf_driver_stop
 152              	.LVL15:
 153 006e D8E7     		b	.L5
 154              	.L14:
 155              		.loc 1 87 0
 156 0070 2B78     		ldrb	r3, [r5]	@ zero_extendqisi2
 157 0072 002B     		cmp	r3, #0
 158 0074 E7D1     		bne	.L6
 159              		.loc 1 88 0
 160 0076 FFF7FEFF 		bl	nrf_driver_init
 161              	.LVL16:
 162              		.loc 1 89 0
 163 007a FFF7FEFF 		bl	rfhelp_restart
 164              	.LVL17:
 165 007e E2E7     		b	.L6
 166              	.L7:
 167              		.loc 1 58 0
 168 0080 FFF7FEFF 		bl	app_ppm_start
 169              	.LVL18:
 170              		.loc 1 59 0
 171 0084 DFE7     		b	.L6
ARM GAS  C:\Users\CHRIST~1\AppData\Local\Temp\ccqTL7es.s 			page 4


 172              	.L9:
 173              		.loc 1 62 0
 174 0086 0120     		movs	r0, #1
 175 0088 FFF7FEFF 		bl	app_adc_start
 176              	.LVL19:
 177              		.loc 1 63 0
 178 008c DBE7     		b	.L6
 179              	.L10:
 180              		.loc 1 66 0
 181 008e FFF7FEFF 		bl	hw_stop_i2c
 182              	.LVL20:
 183              		.loc 1 67 0
 184 0092 FFF7FEFF 		bl	app_uartcomm_start
 185              	.LVL21:
 186              		.loc 1 68 0
 187 0096 D6E7     		b	.L6
 188              	.L11:
 189              		.loc 1 71 0
 190 0098 FFF7FEFF 		bl	hw_stop_i2c
 191              	.LVL22:
 192              		.loc 1 72 0
 193 009c FFF7FEFF 		bl	app_ppm_start
 194              	.LVL23:
 195              		.loc 1 73 0
 196 00a0 FFF7FEFF 		bl	app_uartcomm_start
 197              	.LVL24:
 198              		.loc 1 74 0
 199 00a4 CFE7     		b	.L6
 200              	.L13:
 201              		.loc 1 83 0
 202 00a6 FFF7FEFF 		bl	app_nunchuk_start
 203              	.LVL25:
 204              		.loc 1 84 0
 205 00aa CCE7     		b	.L6
 206              	.L19:
 207              		.align	2
 208              	.L18:
 209 00ac 00000000 		.word	conf_general_permanent_nrf_found
 210 00b0 00000000 		.word	.LANCHOR0
 211 00b4 18000000 		.word	.LANCHOR0+24
 212 00b8 50000000 		.word	.LANCHOR0+80
 213 00bc 98000000 		.word	.LANCHOR0+152
 214 00c0 BC000000 		.word	.LANCHOR0+188
 215              		.cfi_endproc
 216              	.LFE257:
 217              		.size	app_set_configuration, .-app_set_configuration
 218              		.section	.bss.appconf,"aw",%nobits
 219              		.align	2
 220              		.set	.LANCHOR0,. + 0
 221              		.type	appconf, %object
 222              		.size	appconf, 200
 223              	appconf:
 224 0000 00000000 		.space	200
 224      00000000 
 224      00000000 
 224      00000000 
 224      00000000 
ARM GAS  C:\Users\CHRIST~1\AppData\Local\Temp\ccqTL7es.s 			page 5


 225              		.text
 226              	.Letext0:
 227              		.file 2 "c:\\program files (x86)\\gnu tools arm embedded\\6 2017-q2-update\\arm-none-eabi\\include
 228              		.file 3 "c:\\program files (x86)\\gnu tools arm embedded\\6 2017-q2-update\\arm-none-eabi\\include
 229              		.file 4 "c:\\program files (x86)\\gnu tools arm embedded\\6 2017-q2-update\\lib\\gcc\\arm-none-eab
 230              		.file 5 "ChibiOS_3.0.2/os/rt/ports/ARMCMx/compilers/GCC/chtypes.h"
 231              		.file 6 "ChibiOS_3.0.2/os/rt/include/chsystypes.h"
 232              		.file 7 "ChibiOS_3.0.2/os/rt/include/chschd.h"
 233              		.file 8 "ChibiOS_3.0.2/os/ext/CMSIS/include/core_cm4.h"
 234              		.file 9 "ChibiOS_3.0.2/os/ext/CMSIS/ST/system_stm32f4xx.h"
 235              		.file 10 "ChibiOS_3.0.2/os/ext/CMSIS/ST/stm32f407xx.h"
 236              		.file 11 "ChibiOS_3.0.2/os/rt/ports/ARMCMx/chcore.h"
 237              		.file 12 "ChibiOS_3.0.2/os/rt/ports/ARMCMx/chcore_v7m.h"
 238              		.file 13 "ChibiOS_3.0.2/os/rt/include/chtm.h"
 239              		.file 14 "ChibiOS_3.0.2/os/rt/include/chsem.h"
 240              		.file 15 "ChibiOS_3.0.2/os/rt/include/chmtx.h"
 241              		.file 16 "ChibiOS_3.0.2/os/rt/include/chregistry.h"
 242              		.file 17 "ChibiOS_3.0.2/os/rt/include/chevents.h"
 243              		.file 18 "ChibiOS_3.0.2/os/rt/include/chqueues.h"
 244              		.file 19 "./datatypes.h"
 245              		.file 20 "./conf_general.h"
 246              		.file 21 "ChibiOS_3.0.2/os/hal/ports/STM32/STM32F4xx/stm32_dma.h"
 247              		.file 22 "ChibiOS_3.0.2/os/hal/ports/STM32/LLD/GPIOv2/pal_lld.h"
 248              		.file 23 "ChibiOS_3.0.2/os/hal/include/can.h"
 249              		.file 24 "ChibiOS_3.0.2/os/hal/ports/STM32/LLD/can_lld.h"
 250              		.file 25 "ChibiOS_3.0.2/os/hal/include/i2c.h"
 251              		.file 26 "ChibiOS_3.0.2/os/hal/ports/STM32/LLD/I2Cv1/i2c_lld.h"
 252              		.file 27 "ChibiOS_3.0.2/os/hal/include/icu.h"
 253              		.file 28 "ChibiOS_3.0.2/os/hal/ports/STM32/LLD/TIMv1/icu_lld.h"
 254              		.file 29 "ChibiOS_3.0.2/os/hal/ports/STM32/LLD/TIMv1/stm32_tim.h"
 255              		.file 30 "ChibiOS_3.0.2/os/hal/include/spi.h"
 256              		.file 31 "ChibiOS_3.0.2/os/hal/ports/STM32/LLD/SPIv1/spi_lld.h"
 257              		.file 32 "ChibiOS_3.0.2/os/hal/include/uart.h"
 258              		.file 33 "ChibiOS_3.0.2/os/hal/ports/STM32/LLD/USARTv1/uart_lld.h"
 259              		.file 34 "ChibiOS_3.0.2/os/hal/include/usb.h"
 260              		.file 35 "ChibiOS_3.0.2/os/hal/ports/STM32/LLD/OTGv1/usb_lld.h"
 261              		.file 36 "ChibiOS_3.0.2/os/hal/ports/STM32/LLD/OTGv1/stm32_otg.h"
 262              		.file 37 "applications/app.h"
 263              		.file 38 "hwconf/hw.h"
 264              		.file 39 "nrf/rfhelp.h"
 265              		.file 40 "nrf/nrf_driver.h"