ARM GAS  C:\Users\CHRIST~1\AppData\Local\Temp\ccqtfmR0.s 			page 1


   1              		.cpu cortex-m4
   2              		.eabi_attribute 27, 1
   3              		.eabi_attribute 28, 1
   4              		.eabi_attribute 20, 1
   5              		.eabi_attribute 21, 1
   6              		.eabi_attribute 23, 3
   7              		.eabi_attribute 24, 1
   8              		.eabi_attribute 25, 1
   9              		.eabi_attribute 26, 1
  10              		.eabi_attribute 30, 2
  11              		.eabi_attribute 34, 1
  12              		.eabi_attribute 18, 4
  13              		.file	"app_adc.c"
  14              		.text
  15              	.Ltext0:
  16              		.cfi_sections	.debug_frame
  17              		.section	.text.adc_thread,"ax",%progbits
  18              		.align	1
  19              		.p2align 4,,15
  20              		.syntax unified
  21              		.thumb
  22              		.thumb_func
  23              		.fpu fpv4-sp-d16
  24              		.type	adc_thread, %function
  25              	adc_thread:
  26              	.LFB263:
  27              		.file 1 "applications/app_adc.c"
  28              		.loc 1 88 0
  29              		.cfi_startproc
  30              		@ args = 0, pretend = 0, frame = 16
  31              		@ frame_needed = 0, uses_anonymous_args = 0
  32              	.LVL0:
  33 0000 2DE9F04F 		push	{r4, r5, r6, r7, r8, r9, r10, fp, lr}
  34              		.cfi_def_cfa_offset 36
  35              		.cfi_offset 4, -36
  36              		.cfi_offset 5, -32
  37              		.cfi_offset 6, -28
  38              		.cfi_offset 7, -24
  39              		.cfi_offset 8, -20
  40              		.cfi_offset 9, -16
  41              		.cfi_offset 10, -12
  42              		.cfi_offset 11, -8
  43              		.cfi_offset 14, -4
  44              		.loc 1 94 0
  45 0004 CE4B     		ldr	r3, .L216
  46              	.LBB63:
  47              	.LBB64:
  48              		.file 2 "ChibiOS_3.0.2/os/rt/include/chregistry.h"
  49              		.loc 2 135 0
  50 0006 DFF89883 		ldr	r8, .L216+96
  51              	.LBE64:
  52              	.LBE63:
  53              		.loc 1 94 0
  54 000a 1B78     		ldrb	r3, [r3]	@ zero_extendqisi2
  55              	.LBB67:
  56              	.LBB65:
  57              		.loc 2 135 0
ARM GAS  C:\Users\CHRIST~1\AppData\Local\Temp\ccqtfmR0.s 			page 2


  58 000c D8F81820 		ldr	r2, [r8, #24]
  59 0010 CC49     		ldr	r1, .L216+4
  60              	.LBE65:
  61              	.LBE67:
  62              		.loc 1 88 0
  63 0012 2DED0A8B 		vpush.64	{d8, d9, d10, d11, d12}
  64              		.cfi_def_cfa_offset 76
  65              		.cfi_offset 80, -76
  66              		.cfi_offset 81, -72
  67              		.cfi_offset 82, -68
  68              		.cfi_offset 83, -64
  69              		.cfi_offset 84, -60
  70              		.cfi_offset 85, -56
  71              		.cfi_offset 86, -52
  72              		.cfi_offset 87, -48
  73              		.cfi_offset 88, -44
  74              		.cfi_offset 89, -40
  75              	.LBB68:
  76              	.LBB66:
  77              		.loc 2 135 0
  78 0016 9161     		str	r1, [r2, #24]
  79              	.LVL1:
  80              	.LBE66:
  81              	.LBE68:
  82              		.loc 1 88 0
  83 0018 85B0     		sub	sp, sp, #20
  84              		.cfi_def_cfa_offset 96
  85              		.loc 1 95 0
  86 001a 2022     		movs	r2, #32
  87              		.loc 1 94 0
  88 001c 002B     		cmp	r3, #0
  89 001e 00F04284 		beq	.L2
  90              		.loc 1 95 0
  91 0022 4021     		movs	r1, #64
  92 0024 C848     		ldr	r0, .L216+8
  93              	.LVL2:
  94 0026 FFF7FEFF 		bl	_pal_lld_setgroupmode
  95              	.LVL3:
  96              		.loc 1 96 0
  97 002a 2022     		movs	r2, #32
  98 002c 8021     		movs	r1, #128
  99 002e C648     		ldr	r0, .L216+8
 100 0030 FFF7FEFF 		bl	_pal_lld_setgroupmode
 101              	.LVL4:
 102              	.L3:
 103              		.loc 1 101 0
 104 0034 C54A     		ldr	r2, .L216+12
 105 0036 C64C     		ldr	r4, .L216+16
 106              	.LBB69:
 107              		.loc 1 120 0
 108 0038 9FEDC68A 		vldr.32	s16, .L216+20
 109              		.loc 1 125 0
 110 003c DFEDC69A 		vldr.32	s19, .L216+24
 111              	.LBB70:
 112              	.LBB71:
 113              	.LBB72:
 114              		.loc 1 447 0
ARM GAS  C:\Users\CHRIST~1\AppData\Local\Temp\ccqtfmR0.s 			page 3


 115 0040 DFEDC68A 		vldr.32	s17, .L216+28
 116 0044 9FEDC69A 		vldr.32	s18, .L216+32
 117              	.LBE72:
 118              	.LBE71:
 119              	.LBE70:
 120              	.LBE69:
 121              		.loc 1 101 0
 122 0048 0123     		movs	r3, #1
 123 004a 1370     		strb	r3, [r2]
 124              	.L105:
 125              	.LBB162:
 126              		.loc 1 105 0
 127 004c 236C     		ldr	r3, [r4, #64]
 128 004e 42F21075 		movw	r5, #10000
 129 0052 B5FBF3F5 		udiv	r5, r5, r3
 130              	.LVL5:
 131              		.loc 1 109 0
 132 0056 002D     		cmp	r5, #0
 133 0058 08BF     		it	eq
 134 005a 0125     		moveq	r5, #1
 135              	.LVL6:
 136              		.loc 1 111 0
 137 005c 2846     		mov	r0, r5
 138 005e FFF7FEFF 		bl	chThdSleep
 139              	.LVL7:
 140              		.loc 1 113 0
 141 0062 C04B     		ldr	r3, .L216+36
 142 0064 1B78     		ldrb	r3, [r3]	@ zero_extendqisi2
 143 0066 03F0FF09 		and	r9, r3, #255
 144 006a 002B     		cmp	r3, #0
 145 006c 40F0F583 		bne	.L206
 146              		.loc 1 119 0
 147 0070 FFF7FEFF 		bl	mc_interface_get_fault
 148              	.LVL8:
 149 0074 10B1     		cbz	r0, .L6
 150              		.loc 1 120 0
 151 0076 BC4B     		ldr	r3, .L216+40
 152 0078 83ED008A 		vstr.32	s16, [r3]
 153              	.L6:
 154              		.loc 1 124 0
 155 007c BB4E     		ldr	r6, .L216+44
 156              		.loc 1 126 0
 157 007e 9FEDBC0A 		vldr.32	s0, .L216+48
 158              		.loc 1 124 0
 159 0082 B38A     		ldrh	r3, [r6, #20]
 160              		.loc 1 128 0
 161 0084 BB4A     		ldr	r2, .L216+52
 162              		.loc 1 124 0
 163 0086 9BB2     		uxth	r3, r3
 164 0088 07EE903A 		vmov	s15, r3	@ int
 165 008c B8EE677A 		vcvt.f32.u32	s14, s15
 166              		.loc 1 125 0
 167 0090 C7EE297A 		vdiv.f32	s15, s14, s19
 168              		.loc 1 126 0
 169 0094 27EE800A 		vmul.f32	s0, s15, s0
 170              		.loc 1 128 0
 171 0098 82ED000A 		vstr.32	s0, [r2]
ARM GAS  C:\Users\CHRIST~1\AppData\Local\Temp\ccqtfmR0.s 			page 4


 172              		.loc 1 131 0
 173 009c 237F     		ldrb	r3, [r4, #28]	@ zero_extendqisi2
 174              		.loc 1 126 0
 175 009e 8DED020A 		vstr.32	s0, [sp, #8]
 176              		.loc 1 131 0
 177 00a2 F3B1     		cbz	r3, .L7
 178              	.LBB81:
 179              		.loc 1 135 0
 180 00a4 B44A     		ldr	r2, .L216+56
 181 00a6 B54B     		ldr	r3, .L216+60
 182 00a8 1068     		ldr	r0, [r2]
 183              	.LBE81:
 184              		.loc 1 109 0
 185 00aa DFEDAA7A 		vldr.32	s15, .L216+20
 186              	.LBB83:
 187              		.loc 1 135 0
 188 00ae 411C     		adds	r1, r0, #1
 189 00b0 03EB8003 		add	r3, r3, r0, lsl #2
 190              		.loc 1 136 0
 191 00b4 0429     		cmp	r1, #4
 192              		.loc 1 135 0
 193 00b6 83ED000A 		vstr.32	s0, [r3]
 194              		.loc 1 137 0
 195 00ba C8BF     		it	gt
 196 00bc 0023     		movgt	r3, #0
 197              		.loc 1 135 0
 198 00be 1160     		str	r1, [r2]
 199              		.loc 1 137 0
 200 00c0 C8BF     		it	gt
 201 00c2 1360     		strgt	r3, [r2]
 202              	.LVL9:
 203 00c4 AD4B     		ldr	r3, .L216+60
 204 00c6 03F11402 		add	r2, r3, #20
 205              	.LVL10:
 206              	.L9:
 207              	.LBB82:
 208              		.loc 1 142 0 discriminator 3
 209 00ca B3EC017A 		vldmia.32	r3!, {s14}
 210              		.loc 1 141 0 discriminator 3
 211 00ce 9342     		cmp	r3, r2
 212              		.loc 1 142 0 discriminator 3
 213 00d0 77EE877A 		vadd.f32	s15, s15, s14
 214              		.loc 1 141 0 discriminator 3
 215 00d4 F9D1     		bne	.L9
 216              	.LBE82:
 217              		.loc 1 144 0
 218 00d6 B1EE047A 		vmov.f32	s14, #5.0e+0
 219 00da 87EE870A 		vdiv.f32	s0, s15, s14
 220 00de 8DED020A 		vstr.32	s0, [sp, #8]
 221              	.L7:
 222              	.LBE83:
 223              		.loc 1 148 0
 224 00e2 2378     		ldrb	r3, [r4]	@ zero_extendqisi2
 225 00e4 DBB2     		uxtb	r3, r3
 226 00e6 092B     		cmp	r3, #9
 227 00e8 00F25E81 		bhi	.L10
 228 00ec 0122     		movs	r2, #1
ARM GAS  C:\Users\CHRIST~1\AppData\Local\Temp\ccqtfmR0.s 			page 5


 229 00ee 02FA03F3 		lsl	r3, r2, r3
 230 00f2 13F4097F 		tst	r3, #548
 231 00f6 00F05781 		beq	.L10
 232              		.loc 1 153 0
 233 00fa D4ED047A 		vldr.32	s15, [r4, #16]
 234 00fe B4EEE70A 		vcmpe.f32	s0, s15
 235 0102 F1EE10FA 		vmrs	APSR_nzcv, FPSCR
 236 0106 40F17783 		bpl	.L196
 237              		.loc 1 154 0
 238 010a D4ED020A 		vldr.32	s1, [r4, #8]
 239 010e 94ED041A 		vldr.32	s2, [r4, #16]
 240 0112 B6EE002A 		vmov.f32	s4, #5.0e-1
 241 0116 F0EE481A 		vmov.f32	s3, s16
 242 011a FFF7FEFF 		bl	utils_map
 243              	.LVL11:
 244 011e 8DED020A 		vstr.32	s0, [sp, #8]
 245              	.L13:
 246              		.loc 1 169 0
 247 0122 02A8     		add	r0, sp, #8
 248 0124 F7EE000A 		vmov.f32	s1, #1.0e+0
 249 0128 B0EE480A 		vmov.f32	s0, s16
 250 012c FFF7FEFF 		bl	utils_truncate_number
 251              	.LVL12:
 252              		.loc 1 172 0
 253 0130 94F82030 		ldrb	r3, [r4, #32]	@ zero_extendqisi2
 254              		.loc 1 173 0
 255 0134 DDED027A 		vldr.32	s15, [sp, #8]
 256              		.loc 1 172 0
 257 0138 2BB1     		cbz	r3, .L15
 258              		.loc 1 173 0
 259 013a B7EE007A 		vmov.f32	s14, #1.0e+0
 260 013e 77EE677A 		vsub.f32	s15, s14, s15
 261 0142 CDED027A 		vstr.32	s15, [sp, #8]
 262              	.L15:
 263              		.loc 1 176 0
 264 0146 8E4B     		ldr	r3, .L216+64
 265              		.loc 1 182 0
 266 0148 9FED890A 		vldr.32	s0, .L216+48
 267              		.loc 1 176 0
 268 014c C3ED007A 		vstr.32	s15, [r3]
 269              		.loc 1 180 0
 270 0150 F389     		ldrh	r3, [r6, #14]
 271              		.loc 1 187 0
 272 0152 8C4A     		ldr	r2, .L216+68
 273              		.loc 1 180 0
 274 0154 9BB2     		uxth	r3, r3
 275 0156 07EE903A 		vmov	s15, r3	@ int
 276 015a B8EE677A 		vcvt.f32.u32	s14, s15
 277              		.loc 1 181 0
 278 015e C7EE297A 		vdiv.f32	s15, s14, s19
 279              		.loc 1 182 0
 280 0162 27EE800A 		vmul.f32	s0, s15, s0
 281              		.loc 1 187 0
 282 0166 82ED000A 		vstr.32	s0, [r2]
 283              		.loc 1 190 0
 284 016a 237F     		ldrb	r3, [r4, #28]	@ zero_extendqisi2
 285              		.loc 1 182 0
ARM GAS  C:\Users\CHRIST~1\AppData\Local\Temp\ccqtfmR0.s 			page 6


 286 016c 8DED030A 		vstr.32	s0, [sp, #12]
 287              		.loc 1 190 0
 288 0170 F3B1     		cbz	r3, .L16
 289              	.LBB84:
 290              		.loc 1 194 0
 291 0172 854A     		ldr	r2, .L216+72
 292 0174 854B     		ldr	r3, .L216+76
 293 0176 1068     		ldr	r0, [r2]
 294              	.LBE84:
 295              		.loc 1 109 0
 296 0178 DFED767A 		vldr.32	s15, .L216+20
 297              	.LBB86:
 298              		.loc 1 194 0
 299 017c 411C     		adds	r1, r0, #1
 300 017e 03EB8003 		add	r3, r3, r0, lsl #2
 301              		.loc 1 195 0
 302 0182 0429     		cmp	r1, #4
 303              		.loc 1 194 0
 304 0184 83ED000A 		vstr.32	s0, [r3]
 305              		.loc 1 196 0
 306 0188 C8BF     		it	gt
 307 018a 0023     		movgt	r3, #0
 308              		.loc 1 194 0
 309 018c 1160     		str	r1, [r2]
 310              		.loc 1 196 0
 311 018e C8BF     		it	gt
 312 0190 1360     		strgt	r3, [r2]
 313              	.LVL13:
 314 0192 7E4B     		ldr	r3, .L216+76
 315 0194 03F11402 		add	r2, r3, #20
 316              	.LVL14:
 317              	.L18:
 318              	.LBB85:
 319              		.loc 1 201 0 discriminator 3
 320 0198 B3EC017A 		vldmia.32	r3!, {s14}
 321              		.loc 1 200 0 discriminator 3
 322 019c 9342     		cmp	r3, r2
 323              		.loc 1 201 0 discriminator 3
 324 019e 77EE877A 		vadd.f32	s15, s15, s14
 325              		.loc 1 200 0 discriminator 3
 326 01a2 F9D1     		bne	.L18
 327              	.LBE85:
 328              		.loc 1 203 0
 329 01a4 B1EE047A 		vmov.f32	s14, #5.0e+0
 330 01a8 87EE870A 		vdiv.f32	s0, s15, s14
 331 01ac 8DED030A 		vstr.32	s0, [sp, #12]
 332              	.L16:
 333              	.LBE86:
 334              		.loc 1 207 0
 335 01b0 D4ED050A 		vldr.32	s1, [r4, #20]
 336 01b4 94ED061A 		vldr.32	s2, [r4, #24]
 337 01b8 B7EE002A 		vmov.f32	s4, #1.0e+0
 338 01bc F0EE481A 		vmov.f32	s3, s16
 339 01c0 FFF7FEFF 		bl	utils_map
 340              	.LVL15:
 341 01c4 04A8     		add	r0, sp, #16
 342 01c6 20ED010A 		vstmdb.32	r0!, {s0}
ARM GAS  C:\Users\CHRIST~1\AppData\Local\Temp\ccqtfmR0.s 			page 7


 343              		.loc 1 208 0
 344 01ca F7EE000A 		vmov.f32	s1, #1.0e+0
 345 01ce B0EE480A 		vmov.f32	s0, s16
 346 01d2 FFF7FEFF 		bl	utils_truncate_number
 347              	.LVL16:
 348              		.loc 1 211 0
 349 01d6 94F82130 		ldrb	r3, [r4, #33]	@ zero_extendqisi2
 350              		.loc 1 212 0
 351 01da DDED037A 		vldr.32	s15, [sp, #12]
 352              		.loc 1 211 0
 353 01de 2BB1     		cbz	r3, .L20
 354              		.loc 1 212 0
 355 01e0 B7EE007A 		vmov.f32	s14, #1.0e+0
 356 01e4 77EE677A 		vsub.f32	s15, s14, s15
 357 01e8 CDED037A 		vstr.32	s15, [sp, #12]
 358              	.L20:
 359              		.loc 1 215 0
 360 01ec 684B     		ldr	r3, .L216+80
 361 01ee C3ED007A 		vstr.32	s15, [r3]
 362              	.LVL17:
 363              		.loc 1 220 0
 364 01f2 534B     		ldr	r3, .L216
 365 01f4 1B78     		ldrb	r3, [r3]	@ zero_extendqisi2
 366 01f6 03F0FF02 		and	r2, r3, #255
 367 01fa 002B     		cmp	r3, #0
 368 01fc 00F0E180 		beq	.L21
 369              		.loc 1 221 0
 370 0200 514B     		ldr	r3, .L216+8
 371 0202 1F69     		ldr	r7, [r3, #16]
 372              		.loc 1 222 0
 373 0204 A37F     		ldrb	r3, [r4, #30]	@ zero_extendqisi2
 374              		.loc 1 221 0
 375 0206 BF09     		lsrs	r7, r7, #6
 376              	.LVL18:
 377              		.loc 1 222 0
 378 0208 03B9     		cbnz	r3, .L202
 379 020a FF43     		mvns	r7, r7
 380              	.LVL19:
 381              	.L202:
 382              		.loc 1 225 0
 383 020c 4E4B     		ldr	r3, .L216+8
 384 020e 1E69     		ldr	r6, [r3, #16]
 385              		.loc 1 226 0
 386 0210 E37F     		ldrb	r3, [r4, #31]	@ zero_extendqisi2
 387              		.loc 1 225 0
 388 0212 F609     		lsrs	r6, r6, #7
 389 0214 07F00107 		and	r7, r7, #1
 390              	.LVL20:
 391 0218 F243     		mvns	r2, r6
 392              	.LVL21:
 393              		.loc 1 226 0
 394 021a 002B     		cmp	r3, #0
 395 021c 00F0E780 		beq	.L203
 396              		.loc 1 227 0
 397 0220 06F00106 		and	r6, r6, #1
 398              	.LVL22:
 399              	.L25:
ARM GAS  C:\Users\CHRIST~1\AppData\Local\Temp\ccqtfmR0.s 			page 8


 400              		.loc 1 246 0
 401 0224 2378     		ldrb	r3, [r4]	@ zero_extendqisi2
 402 0226 DBB2     		uxtb	r3, r3
 403 0228 0A2B     		cmp	r3, #10
 404 022a 13D8     		bhi	.L30
 405 022c 0122     		movs	r2, #1
 406 022e 02FA03F3 		lsl	r3, r2, r3
 407 0232 13F4896F 		tst	r3, #1096
 408 0236 40F0DE81 		bne	.L31
 409 023a 13F4097F 		tst	r3, #548
 410 023e 40F00183 		bne	.L32
 411 0242 13F0900F 		tst	r3, #144
 412 0246 05D0     		beq	.L30
 413              		.loc 1 257 0
 414 0248 9DED027A 		vldr.32	s14, [sp, #8]
 415 024c 77EE677A 		vsub.f32	s15, s14, s15
 416 0250 CDED027A 		vstr.32	s15, [sp, #8]
 417              	.L30:
 418              		.loc 1 274 0
 419 0254 94ED010A 		vldr.32	s0, [r4, #4]
 420              		.loc 1 282 0
 421 0258 DFF848A1 		ldr	r10, .L216+100
 422              		.loc 1 274 0
 423 025c 02A8     		add	r0, sp, #8
 424 025e F7EE000A 		vmov.f32	s1, #1.0e+0
 425 0262 FFF7FEFF 		bl	utils_deadband
 426              	.LVL23:
 427              		.loc 1 277 0
 428 0266 D4ED090A 		vldr.32	s1, [r4, #36]
 429 026a 9DED020A 		vldr.32	s0, [sp, #8]
 430 026e 94ED0A1A 		vldr.32	s2, [r4, #40]
 431 0272 94F82C00 		ldrb	r0, [r4, #44]	@ zero_extendqisi2
 432 0276 FFF7FEFF 		bl	utils_throttle_curve
 433              	.LVL24:
 434              		.loc 1 282 0
 435 027a DAED007A 		vldr.32	s15, [r10]
 436              		.loc 1 277 0
 437 027e 8DED020A 		vstr.32	s0, [sp, #8]
 438              		.loc 1 282 0
 439 0282 F0EEE77A 		vabs.f32	s15, s15
 440 0286 B0EEC07A 		vabs.f32	s14, s0
 441 028a B4EEE77A 		vcmpe.f32	s14, s15
 442 028e F1EE10FA 		vmrs	APSR_nzcv, FPSCR
 443 0292 CCBF     		ite	gt
 444 0294 D4ED0C0A 		vldrgt.32	s1, [r4, #48]
 445 0298 D4ED0D0A 		vldrle.32	s1, [r4, #52]
 446              	.LVL25:
 447              		.loc 1 284 0
 448 029c DFED3D7A 		vldr.32	s15, .L216+84
 449 02a0 F4EEE70A 		vcmpe.f32	s1, s15
 450 02a4 F1EE10FA 		vmrs	APSR_nzcv, FPSCR
 451 02a8 00F3B180 		bgt	.L207
 452              	.LVL26:
 453              	.L37:
 454              		.loc 1 294 0
 455 02ac FFF7FEFF 		bl	mc_interface_get_configuration
 456              	.LVL27:
ARM GAS  C:\Users\CHRIST~1\AppData\Local\Temp\ccqtfmR0.s 			page 9


 457 02b0 8246     		mov	r10, r0
 458              	.LVL28:
 459              		.loc 1 295 0
 460 02b2 FFF7FEFF 		bl	mc_interface_get_rpm
 461              	.LVL29:
 462              		.loc 1 299 0
 463 02b6 2378     		ldrb	r3, [r4]	@ zero_extendqisi2
 464 02b8 DBB2     		uxtb	r3, r3
 465 02ba 0A2B     		cmp	r3, #10
 466 02bc 3FF6C6AE 		bhi	.L105
 467 02c0 0122     		movs	r2, #1
 468 02c2 02FA03F3 		lsl	r3, r2, r3
 469 02c6 13F4E06B 		ands	fp, r3, #1792
 470 02ca 40F0C680 		bne	.L40
 471 02ce 13F0F00F 		tst	r3, #240
 472 02d2 40F09E82 		bne	.L41
 473 02d6 13F00E0F 		tst	r3, #14
 474 02da 3FF4B7AE 		beq	.L105
 475              	.LVL30:
 476              		.loc 1 304 0
 477 02de DDED027A 		vldr.32	s15, [sp, #8]
 478 02e2 F5EEC07A 		vcmpe.f32	s15, #0
 479 02e6 F1EE10FA 		vmrs	APSR_nzcv, FPSCR
 480 02ea C0F21883 		blt	.L42
 481              		.loc 1 304 0 is_stmt 0 discriminator 1
 482 02ee B5EEC00A 		vcmpe.f32	s0, #0
 483 02f2 F1EE10FA 		vmrs	APSR_nzcv, FPSCR
 484 02f6 40F31283 		ble	.L42
 485              	.L44:
 486              		.loc 1 305 0 is_stmt 1
 487 02fa DAED1CAA 		vldr.32	s21, [r10, #112]
 488 02fe 67EEAAAA 		vmul.f32	s21, s15, s21
 489              	.LVL31:
 490              	.L48:
 491              		.loc 1 310 0
 492 0302 9FED257A 		vldr.32	s14, .L216+88
 493 0306 F0EEE77A 		vabs.f32	s15, s15
 494 030a F4EEC77A 		vcmpe.f32	s15, s14
 495 030e F1EE10FA 		vmrs	APSR_nzcv, FPSCR
 496 0312 40F15583 		bpl	.L198
 497              		.loc 1 311 0
 498 0316 07EE905A 		vmov	s15, r5	@ int
 499 031a F8EEE76A 		vcvt.f32.s32	s13, s15
 500 031e DFED1F7A 		vldr.32	s15, .L216+92
 501 0322 114B     		ldr	r3, .L216+40
 502 0324 66EEA76A 		vmul.f32	s13, s13, s15
 503 0328 D3ED007A 		vldr.32	s15, [r3]
 504 032c 86EEA87A 		vdiv.f32	s14, s13, s17
 505              		.loc 1 293 0
 506 0330 4FF0000B 		mov	fp, #0
 507              		.loc 1 303 0
 508 0334 0126     		movs	r6, #1
 509              	.LVL32:
 510              		.loc 1 311 0
 511 0336 77EE277A 		vadd.f32	s15, s14, s15
 512 033a C3ED007A 		vstr.32	s15, [r3]
 513 033e ACE0     		b	.L49
ARM GAS  C:\Users\CHRIST~1\AppData\Local\Temp\ccqtfmR0.s 			page 10


 514              	.L217:
 515              		.align	2
 516              	.L216:
 517 0340 00000000 		.word	.LANCHOR0
 518 0344 00000000 		.word	.LC0
 519 0348 00080240 		.word	1073874944
 520 034c 00000000 		.word	.LANCHOR1
 521 0350 00000000 		.word	.LANCHOR2
 522 0354 00000000 		.word	0
 523 0358 00F07F45 		.word	1166012416
 524 035c 00401C46 		.word	1176256512
 525 0360 CDCCCC3D 		.word	1036831949
 526 0364 00000000 		.word	.LANCHOR3
 527 0368 00000000 		.word	.LANCHOR4
 528 036c 00000000 		.word	ADC_Value
 529 0370 33335340 		.word	1079194419
 530 0374 00000000 		.word	.LANCHOR5
 531 0378 00000000 		.word	.LANCHOR6
 532 037c 00000000 		.word	.LANCHOR7
 533 0380 00000000 		.word	.LANCHOR8
 534 0384 00000000 		.word	.LANCHOR9
 535 0388 00000000 		.word	.LANCHOR10
 536 038c 00000000 		.word	.LANCHOR11
 537 0390 00000000 		.word	.LANCHOR12
 538 0394 0AD7233C 		.word	1008981770
 539 0398 6F12833A 		.word	981668463
 540 039c 00007A44 		.word	1148846080
 541 03a0 00000000 		.word	ch
 542 03a4 00000000 		.word	.LANCHOR13
 543              	.LVL33:
 544              	.L10:
 545              		.loc 1 164 0
 546 03a8 D4ED020A 		vldr.32	s1, [r4, #8]
 547 03ac 94ED031A 		vldr.32	s2, [r4, #12]
 548 03b0 B7EE002A 		vmov.f32	s4, #1.0e+0
 549 03b4 F0EE481A 		vmov.f32	s3, s16
 550 03b8 FFF7FEFF 		bl	utils_map
 551              	.LVL34:
 552 03bc 8DED020A 		vstr.32	s0, [sp, #8]
 553              		.loc 1 165 0
 554 03c0 AFE6     		b	.L13
 555              	.LVL35:
 556              	.L21:
 557              		.loc 1 231 0
 558 03c2 2378     		ldrb	r3, [r4]	@ zero_extendqisi2
 559 03c4 032B     		cmp	r3, #3
 560 03c6 15D0     		beq	.L26
 561              		.loc 1 232 0 discriminator 1
 562 03c8 2378     		ldrb	r3, [r4]	@ zero_extendqisi2
 563              		.loc 1 231 0 discriminator 1
 564 03ca 062B     		cmp	r3, #6
 565 03cc 12D0     		beq	.L26
 566              		.loc 1 233 0
 567 03ce 2378     		ldrb	r3, [r4]	@ zero_extendqisi2
 568              		.loc 1 232 0
 569 03d0 0A2B     		cmp	r3, #10
 570 03d2 0FD0     		beq	.L26
ARM GAS  C:\Users\CHRIST~1\AppData\Local\Temp\ccqtfmR0.s 			page 11


 571              		.loc 1 239 0
 572 03d4 B64B     		ldr	r3, .L218
 573 03d6 1F69     		ldr	r7, [r3, #16]
 574              		.loc 1 240 0
 575 03d8 A37F     		ldrb	r3, [r4, #30]	@ zero_extendqisi2
 576              		.loc 1 239 0
 577 03da 7F09     		lsrs	r7, r7, #5
 578 03dc F943     		mvns	r1, r7
 579              	.LVL36:
 580              		.loc 1 240 0
 581 03de 03F0FF06 		and	r6, r3, #255
 582 03e2 002B     		cmp	r3, #0
 583 03e4 40F04182 		bne	.L29
 584              		.loc 1 239 0
 585 03e8 01F00107 		and	r7, r1, #1
 586 03ec 1AE7     		b	.L25
 587              	.LVL37:
 588              	.L203:
 589              		.loc 1 234 0
 590 03ee 02F00106 		and	r6, r2, #1
 591 03f2 17E7     		b	.L25
 592              	.LVL38:
 593              	.L26:
 594 03f4 AE4B     		ldr	r3, .L218
 595 03f6 1E69     		ldr	r6, [r3, #16]
 596              		.loc 1 235 0
 597 03f8 E37F     		ldrb	r3, [r4, #31]	@ zero_extendqisi2
 598              		.loc 1 234 0
 599 03fa 7609     		lsrs	r6, r6, #5
 600 03fc F243     		mvns	r2, r6
 601              	.LVL39:
 602              		.loc 1 235 0
 603 03fe 03F0FF07 		and	r7, r3, #255
 604 0402 002B     		cmp	r3, #0
 605 0404 F3D0     		beq	.L203
 606              		.loc 1 236 0
 607 0406 06F00106 		and	r6, r6, #1
 608              	.LVL40:
 609              		.loc 1 218 0
 610 040a 0027     		movs	r7, #0
 611 040c 0AE7     		b	.L25
 612              	.LVL41:
 613              	.L207:
 614              	.LBB87:
 615              		.loc 1 285 0
 616 040e DFF8D0B2 		ldr	fp, .L218+48
 617              	.LBB88:
 618              	.LBB89:
 619              	.LBB90:
 620              	.LBB91:
 621              		.file 3 "ChibiOS_3.0.2/os/rt/include/chvt.h"
 622              		.loc 3 231 0
 623 0412 D8F82830 		ldr	r3, [r8, #40]
 624              	.LVL42:
 625              	.LBE91:
 626              	.LBE90:
 627              		.loc 3 267 0
ARM GAS  C:\Users\CHRIST~1\AppData\Local\Temp\ccqtfmR0.s 			page 12


 628 0416 DBF80020 		ldr	r2, [fp]
 629              	.LBE89:
 630              	.LBE88:
 631              		.loc 1 285 0
 632 041a A649     		ldr	r1, .L218+4
 633 041c 9FEDB27A 		vldr.32	s14, .L218+56
 634              	.LBB93:
 635              	.LBB92:
 636              		.loc 3 267 0
 637 0420 9B1A     		subs	r3, r3, r2
 638              	.LVL43:
 639              	.LBE92:
 640              	.LBE93:
 641              		.loc 1 285 0
 642 0422 4FF47A70 		mov	r0, #1000
 643 0426 42F20F72 		movw	r2, #9999
 644 042a 00FB0323 		mla	r3, r0, r3, r2
 645 042e A1FB0323 		umull	r2, r3, r1, r3
 646 0432 5B0B     		lsrs	r3, r3, #13
 647 0434 07EE903A 		vmov	s15, r3	@ int
 648 0438 20EE877A 		vmul.f32	s14, s1, s14
 649 043c F8EEE77A 		vcvt.f32.s32	s15, s15
 650              		.loc 1 286 0
 651 0440 9D48     		ldr	r0, .L218+8
 652 0442 C7EE870A 		vdiv.f32	s1, s15, s14
 653              	.LVL44:
 654 0446 FFF7FEFF 		bl	utils_step_towards
 655              	.LVL45:
 656              	.LBB94:
 657              	.LBB95:
 658              		.loc 3 231 0
 659 044a D8F82830 		ldr	r3, [r8, #40]
 660              	.LBE95:
 661              	.LBE94:
 662              		.loc 1 287 0
 663 044e CBF80030 		str	r3, [fp]
 664              		.loc 1 288 0
 665 0452 DAF80030 		ldr	r3, [r10]	@ float
 666 0456 0293     		str	r3, [sp, #8]	@ float
 667 0458 28E7     		b	.L37
 668              	.LVL46:
 669              	.L40:
 670              	.LBE87:
 671              		.loc 1 339 0
 672 045a 9DED020A 		vldr.32	s0, [sp, #8]
 673              	.LVL47:
 674 045e DFED977A 		vldr.32	s15, .L218+12
 675 0462 B0EEC07A 		vabs.f32	s14, s0
 676 0466 B4EEE77A 		vcmpe.f32	s14, s15
 677 046a F1EE10FA 		vmrs	APSR_nzcv, FPSCR
 678 046e 00F1B181 		bmi	.L124
 679 0472 934B     		ldr	r3, .L218+16
 680              	.L56:
 681              		.loc 1 343 0
 682 0474 93ED007A 		vldr.32	s14, [r3]
 683 0478 DFED927A 		vldr.32	s15, .L218+20
 684 047c B4EEE77A 		vcmpe.f32	s14, s15
ARM GAS  C:\Users\CHRIST~1\AppData\Local\Temp\ccqtfmR0.s 			page 13


 685 0480 F1EE10FA 		vmrs	APSR_nzcv, FPSCR
 686 0484 40F18E81 		bpl	.L58
 687              		.loc 1 343 0 is_stmt 0 discriminator 1
 688 0488 627F     		ldrb	r2, [r4, #29]	@ zero_extendqisi2
 689 048a 002A     		cmp	r2, #0
 690 048c 00F08A81 		beq	.L58
 691              		.loc 1 293 0 is_stmt 1
 692 0490 4FF0000B 		mov	fp, #0
 693              		.loc 1 291 0
 694 0494 DFED93AA 		vldr.32	s21, .L218+52
 695              		.loc 1 292 0
 696 0498 5E46     		mov	r6, fp
 697              	.LVL48:
 698              	.L49:
 699              		.loc 1 354 0
 700 049a 93ED007A 		vldr.32	s14, [r3]
 701 049e DFED897A 		vldr.32	s15, .L218+20
 702 04a2 B4EEE77A 		vcmpe.f32	s14, s15
 703 04a6 F1EE10FA 		vmrs	APSR_nzcv, FPSCR
 704 04aa 41D5     		bpl	.L60
 705              		.loc 1 354 0 is_stmt 0 discriminator 1
 706 04ac 627F     		ldrb	r2, [r4, #29]	@ zero_extendqisi2
 707 04ae 002A     		cmp	r2, #0
 708 04b0 3ED0     		beq	.L60
 709              	.LBB96:
 710              		.loc 1 356 0 is_stmt 1
 711 04b2 854A     		ldr	r2, .L218+24
 712 04b4 93ED007A 		vldr.32	s14, [r3]
 713 04b8 D2ED007A 		vldr.32	s15, [r2]	@ int
 714 04bc F8EEE77A 		vcvt.f32.s32	s15, s15
 715 04c0 F4EE477A 		vcmp.f32	s15, s14
 716 04c4 F1EE10FA 		vmrs	APSR_nzcv, FPSCR
 717              		.loc 1 357 0
 718 04c8 08BF     		it	eq
 719 04ca 83ED008A 		vstreq.32	s16, [r3]
 720              		.loc 1 359 0
 721 04ce D3ED007A 		vldr.32	s15, [r3]
 722 04d2 FDEEE77A 		vcvt.s32.f32	s15, s15
 723 04d6 C2ED007A 		vstr.32	s15, [r2]	@ int
 724              		.loc 1 360 0
 725 04da FFF7FEFF 		bl	timeout_get_brake_current
 726              	.LVL49:
 727 04de FFF7FEFF 		bl	mc_interface_set_brake_current
 728              	.LVL50:
 729              		.loc 1 362 0
 730 04e2 94F83830 		ldrb	r3, [r4, #56]	@ zero_extendqisi2
 731 04e6 002B     		cmp	r3, #0
 732 04e8 3FF4B0AD 		beq	.L105
 733 04ec 0025     		movs	r5, #0
 734              	.LVL51:
 735 04ee 02E0     		b	.L65
 736              	.LVL52:
 737              	.L63:
 738              	.LBB97:
 739              		.loc 1 363 0 discriminator 2
 740 04f0 0A2D     		cmp	r5, #10
 741 04f2 3FF4ABAD 		beq	.L105
ARM GAS  C:\Users\CHRIST~1\AppData\Local\Temp\ccqtfmR0.s 			page 14


 742              	.LVL53:
 743              	.L65:
 744              	.LBB98:
 745              		.loc 1 364 0
 746 04f6 2846     		mov	r0, r5
 747 04f8 FFF7FEFF 		bl	comm_can_get_status_msg_index
 748              	.LVL54:
 749              		.loc 1 366 0
 750 04fc 0668     		ldr	r6, [r0]
 751 04fe 002E     		cmp	r6, #0
 752              	.LBE98:
 753              		.loc 1 363 0
 754 0500 05F10105 		add	r5, r5, #1
 755              	.LVL55:
 756              	.LBB103:
 757              		.loc 1 366 0
 758 0504 F4DB     		blt	.L63
 759              	.LBB99:
 760              	.LBB100:
 761              		.loc 3 267 0 discriminator 1
 762 0506 4268     		ldr	r2, [r0, #4]
 763              	.LBB101:
 764              	.LBB102:
 765              		.loc 3 231 0 discriminator 1
 766 0508 D8F82830 		ldr	r3, [r8, #40]
 767              	.LVL56:
 768              	.LBE102:
 769              	.LBE101:
 770              		.loc 3 267 0 discriminator 1
 771 050c 9B1A     		subs	r3, r3, r2
 772              	.LBE100:
 773              	.LBE99:
 774              		.loc 1 366 0 discriminator 1
 775 050e 07EE903A 		vmov	s15, r3	@ int
 776 0512 F8EE677A 		vcvt.f32.u32	s15, s15
 777 0516 87EEA87A 		vdiv.f32	s14, s15, s17
 778 051a B4EEC97A 		vcmpe.f32	s14, s18
 779 051e F1EE10FA 		vmrs	APSR_nzcv, FPSCR
 780 0522 E5D5     		bpl	.L63
 781              		.loc 1 367 0
 782 0524 FFF7FEFF 		bl	timeout_get_brake_current
 783              	.LVL57:
 784 0528 F0B2     		uxtb	r0, r6
 785 052a FFF7FEFF 		bl	comm_can_set_current_brake
 786              	.LVL58:
 787 052e DFE7     		b	.L63
 788              	.LVL59:
 789              	.L60:
 790              	.LBE103:
 791              	.LBE97:
 792              	.LBE96:
 793              		.loc 1 384 0
 794 0530 664D     		ldr	r5, .L218+28
 795              	.LVL60:
 796              		.loc 1 376 0
 797 0532 FFF7FEFF 		bl	timeout_reset
 798              	.LVL61:
ARM GAS  C:\Users\CHRIST~1\AppData\Local\Temp\ccqtfmR0.s 			page 15


 799              		.loc 1 384 0
 800 0536 2968     		ldr	r1, [r5]
 801 0538 0191     		str	r1, [sp, #4]
 802 053a 4B1C     		adds	r3, r1, #1
 803 053c 2B60     		str	r3, [r5]
 804 053e FFF7FEFF 		bl	mc_interface_get_rpm
 805              	.LVL62:
 806              		.loc 1 385 0
 807 0542 2A68     		ldr	r2, [r5]
 808              		.loc 1 384 0
 809 0544 624B     		ldr	r3, .L218+32
 810 0546 0199     		ldr	r1, [sp, #4]
 811              		.loc 1 389 0
 812 0548 DFED667A 		vldr.32	s15, .L218+52
 813              		.loc 1 384 0
 814 054c 03EB8103 		add	r3, r3, r1, lsl #2
 815              		.loc 1 385 0
 816 0550 072A     		cmp	r2, #7
 817              		.loc 1 384 0
 818 0552 83ED000A 		vstr.32	s0, [r3]
 819              		.loc 1 386 0
 820 0556 C4BF     		itt	gt
 821 0558 0023     		movgt	r3, #0
 822 055a 2B60     		strgt	r3, [r5]
 823              	.LVL63:
 824 055c 5C4B     		ldr	r3, .L218+32
 825 055e 03F12002 		add	r2, r3, #32
 826              	.LVL64:
 827              	.L67:
 828              	.LBB104:
 829              		.loc 1 391 0 discriminator 3
 830 0562 B3EC017A 		vldmia.32	r3!, {s14}
 831              		.loc 1 390 0 discriminator 3
 832 0566 9A42     		cmp	r2, r3
 833              		.loc 1 391 0 discriminator 3
 834 0568 77EE877A 		vadd.f32	s15, s15, s14
 835              	.LVL65:
 836              		.loc 1 390 0 discriminator 3
 837 056c F9D1     		bne	.L67
 838              	.LVL66:
 839              	.LBE104:
 840              		.loc 1 395 0
 841 056e 002E     		cmp	r6, #0
 842 0570 4BD0     		beq	.L68
 843              		.loc 1 395 0 is_stmt 0 discriminator 1
 844 0572 002F     		cmp	r7, #0
 845 0574 49D0     		beq	.L68
 846              		.loc 1 395 0 discriminator 2
 847 0576 9DED027A 		vldr.32	s14, [sp, #8]
 848 057a DFED506A 		vldr.32	s13, .L218+12
 849 057e B0EEC77A 		vabs.f32	s14, s14
 850 0582 B4EEE67A 		vcmpe.f32	s14, s13
 851 0586 F1EE10FA 		vmrs	APSR_nzcv, FPSCR
 852 058a 3ED5     		bpl	.L68
 853              	.LBB105:
 854              		.loc 1 398 0 is_stmt 1
 855 058c 514B     		ldr	r3, .L218+36
ARM GAS  C:\Users\CHRIST~1\AppData\Local\Temp\ccqtfmR0.s 			page 16


 856 058e 1A78     		ldrb	r2, [r3]	@ zero_extendqisi2
 857 0590 002A     		cmp	r2, #0
 858 0592 00F0BA81 		beq	.L70
 859 0596 504B     		ldr	r3, .L218+40
 860 0598 93ED000A 		vldr.32	s0, [r3]
 861              	.L71:
 862              		.loc 1 403 0
 863 059c FFF7FEFF 		bl	mc_interface_set_pid_speed
 864              	.LVL67:
 865              		.loc 1 406 0
 866 05a0 94F83830 		ldrb	r3, [r4, #56]	@ zero_extendqisi2
 867 05a4 002B     		cmp	r3, #0
 868 05a6 3FF451AD 		beq	.L105
 869              	.LBB106:
 870              		.loc 1 407 0
 871 05aa FFF7FEFF 		bl	mc_interface_get_tot_current_directional_filtered
 872              	.LVL68:
 873              	.LBB107:
 874              		.loc 1 409 0
 875 05ae 0025     		movs	r5, #0
 876              	.LBE107:
 877              		.loc 1 407 0
 878 05b0 B0EE40AA 		vmov.f32	s20, s0
 879              	.LVL69:
 880 05b4 02E0     		b	.L74
 881              	.LVL70:
 882              	.L72:
 883              	.LBB114:
 884              		.loc 1 409 0 discriminator 2
 885 05b6 0A2D     		cmp	r5, #10
 886 05b8 3FF448AD 		beq	.L105
 887              	.LVL71:
 888              	.L74:
 889              	.LBB108:
 890              		.loc 1 410 0
 891 05bc 2846     		mov	r0, r5
 892 05be FFF7FEFF 		bl	comm_can_get_status_msg_index
 893              	.LVL72:
 894              		.loc 1 412 0
 895 05c2 0268     		ldr	r2, [r0]
 896 05c4 002A     		cmp	r2, #0
 897              	.LBE108:
 898              		.loc 1 409 0
 899 05c6 05F10105 		add	r5, r5, #1
 900              	.LVL73:
 901              	.LBB113:
 902              		.loc 1 412 0
 903 05ca F4DB     		blt	.L72
 904              	.LBB109:
 905              	.LBB110:
 906              		.loc 3 267 0 discriminator 1
 907 05cc 4168     		ldr	r1, [r0, #4]
 908              	.LBB111:
 909              	.LBB112:
 910              		.loc 3 231 0 discriminator 1
 911 05ce D8F82830 		ldr	r3, [r8, #40]
 912              	.LVL74:
ARM GAS  C:\Users\CHRIST~1\AppData\Local\Temp\ccqtfmR0.s 			page 17


 913              	.LBE112:
 914              	.LBE111:
 915              		.loc 3 267 0 discriminator 1
 916 05d2 5B1A     		subs	r3, r3, r1
 917              	.LBE110:
 918              	.LBE109:
 919              		.loc 1 412 0 discriminator 1
 920 05d4 07EE903A 		vmov	s15, r3	@ int
 921 05d8 F8EE677A 		vcvt.f32.u32	s15, s15
 922 05dc 87EEA87A 		vdiv.f32	s14, s15, s17
 923 05e0 B4EEC97A 		vcmpe.f32	s14, s18
 924 05e4 F1EE10FA 		vmrs	APSR_nzcv, FPSCR
 925 05e8 E5D5     		bpl	.L72
 926              		.loc 1 413 0
 927 05ea D0B2     		uxtb	r0, r2
 928              	.LVL75:
 929 05ec B0EE4A0A 		vmov.f32	s0, s20
 930 05f0 FFF7FEFF 		bl	comm_can_set_current
 931              	.LVL76:
 932 05f4 DFE7     		b	.L72
 933              	.LVL77:
 934              	.L31:
 935              	.LBE113:
 936              	.LBE114:
 937              	.LBE106:
 938              	.LBE105:
 939              		.loc 1 264 0
 940 05f6 002E     		cmp	r6, #0
 941 05f8 3FF42CAE 		beq	.L30
 942              		.loc 1 265 0
 943 05fc DDED027A 		vldr.32	s15, [sp, #8]
 944 0600 F1EE677A 		vneg.f32	s15, s15
 945 0604 CDED027A 		vstr.32	s15, [sp, #8]
 946 0608 24E6     		b	.L30
 947              	.LVL78:
 948              	.L68:
 949              		.loc 1 421 0
 950 060a 324B     		ldr	r3, .L218+36
 951 060c 0025     		movs	r5, #0
 952 060e 1D70     		strb	r5, [r3]
 953              		.loc 1 424 0
 954 0610 FFF7FEFF 		bl	mc_interface_get_rpm
 955              	.LVL79:
 956              		.loc 1 426 0
 957 0614 94F83830 		ldrb	r3, [r4, #56]	@ zero_extendqisi2
 958              		.loc 1 424 0
 959 0618 B0EE40BA 		vmov.f32	s22, s0
 960              	.LVL80:
 961 061c B0EE40AA 		vmov.f32	s20, s0
 962              		.loc 1 426 0
 963 0620 2BB3     		cbz	r3, .L75
 964              	.LVL81:
 965              	.L78:
 966              	.LBB115:
 967              	.LBB116:
 968              		.loc 1 428 0
 969 0622 2846     		mov	r0, r5
ARM GAS  C:\Users\CHRIST~1\AppData\Local\Temp\ccqtfmR0.s 			page 18


 970 0624 FFF7FEFF 		bl	comm_can_get_status_msg_index
 971              	.LVL82:
 972              		.loc 1 430 0
 973 0628 0368     		ldr	r3, [r0]
 974 062a 002B     		cmp	r3, #0
 975              	.LBE116:
 976              		.loc 1 427 0
 977 062c 05F10105 		add	r5, r5, #1
 978              	.LVL83:
 979              	.LBB123:
 980              		.loc 1 430 0
 981 0630 1BDB     		blt	.L76
 982              	.LBB117:
 983              	.LBB118:
 984              	.LBB119:
 985              	.LBB120:
 986              		.loc 3 231 0 discriminator 1
 987 0632 D8F82820 		ldr	r2, [r8, #40]
 988              	.LVL84:
 989              	.LBE120:
 990              	.LBE119:
 991              		.loc 3 267 0 discriminator 1
 992 0636 4368     		ldr	r3, [r0, #4]
 993 0638 D31A     		subs	r3, r2, r3
 994              	.LBE118:
 995              	.LBE117:
 996              		.loc 1 430 0 discriminator 1
 997 063a 07EE903A 		vmov	s15, r3	@ int
 998 063e F8EE677A 		vcvt.f32.u32	s15, s15
 999              	.LBB121:
 1000              		.loc 1 433 0 discriminator 1
 1001 0642 F0EECA6A 		vabs.f32	s13, s20
 1002              	.LBE121:
 1003              		.loc 1 430 0 discriminator 1
 1004 0646 87EEA87A 		vdiv.f32	s14, s15, s17
 1005 064a B4EEC97A 		vcmpe.f32	s14, s18
 1006 064e F1EE10FA 		vmrs	APSR_nzcv, FPSCR
 1007 0652 0AD5     		bpl	.L76
 1008              	.LBB122:
 1009              		.loc 1 431 0
 1010 0654 D0ED027A 		vldr.32	s15, [r0, #8]
 1011              	.LVL85:
 1012              		.loc 1 433 0
 1013 0658 B0EEE77A 		vabs.f32	s14, s15
 1014              		.loc 1 434 0
 1015 065c B4EE667A 		vcmp.f32	s14, s13
 1016 0660 F1EE10FA 		vmrs	APSR_nzcv, FPSCR
 1017 0664 48BF     		it	mi
 1018 0666 B0EE67AA 		vmovmi.f32	s20, s15
 1019              	.LVL86:
 1020              	.L76:
 1021              	.LBE122:
 1022              	.LBE123:
 1023              		.loc 1 427 0 discriminator 2
 1024 066a 0A2D     		cmp	r5, #10
 1025 066c D9D1     		bne	.L78
 1026              	.LVL87:
ARM GAS  C:\Users\CHRIST~1\AppData\Local\Temp\ccqtfmR0.s 			page 19


 1027              	.L75:
 1028              	.LBE115:
 1029              		.loc 1 441 0
 1030 066e B9F1000F 		cmp	r9, #0
 1031 0672 04D0     		beq	.L81
 1032              		.loc 1 441 0 is_stmt 0 discriminator 1
 1033 0674 94F83830 		ldrb	r3, [r4, #56]	@ zero_extendqisi2
 1034 0678 002B     		cmp	r3, #0
 1035 067a 40F01A81 		bne	.L208
 1036              	.L81:
 1037              		.loc 1 453 0 is_stmt 1
 1038 067e 002E     		cmp	r6, #0
 1039 0680 3FF4E4AC 		beq	.L105
 1040              		.loc 1 454 0
 1041 0684 BBF1000F 		cmp	fp, #0
 1042 0688 40F07481 		bne	.L209
 1043              	.LVL88:
 1044              	.LBB124:
 1045              		.loc 1 468 0
 1046 068c F5EEC0AA 		vcmpe.f32	s21, #0
 1047 0690 F1EE10FA 		vmrs	APSR_nzcv, FPSCR
 1048              		.loc 1 477 0
 1049 0694 94F83830 		ldrb	r3, [r4, #56]	@ zero_extendqisi2
 1050              		.loc 1 468 0
 1051 0698 00F19781 		bmi	.L89
 1052              		.loc 1 477 0
 1053 069c 002B     		cmp	r3, #0
 1054 069e 00F02E81 		beq	.L91
 1055              	.LVL89:
 1056              	.L90:
 1057              	.LBE124:
 1058              	.LBB144:
 1059              		.loc 1 458 0 discriminator 1
 1060 06a2 F0EE6ABA 		vmov.f32	s23, s21
 1061              	.LBE144:
 1062              	.LBB151:
 1063              	.LBB125:
 1064              	.LBB126:
 1065              	.LBB127:
 1066              		.loc 1 490 0 discriminator 1
 1067 06a6 9FED0DCA 		vldr.32	s24, .L218+44
 1068              	.LBE127:
 1069              	.LBE126:
 1070              	.LBE125:
 1071              	.LBE151:
 1072              	.LBB152:
 1073              		.loc 1 458 0 discriminator 1
 1074 06aa 0025     		movs	r5, #0
 1075 06ac 5E46     		mov	r6, fp
 1076              	.LVL90:
 1077 06ae 45E0     		b	.L102
 1078              	.L219:
 1079              		.align	2
 1080              	.L218:
 1081 06b0 00040240 		.word	1073873920
 1082 06b4 5917B7D1 		.word	-776530087
 1083 06b8 00000000 		.word	.LANCHOR13
ARM GAS  C:\Users\CHRIST~1\AppData\Local\Temp\ccqtfmR0.s 			page 20


 1084 06bc 6F12833A 		.word	981668463
 1085 06c0 00000000 		.word	.LANCHOR4
 1086 06c4 0000FA43 		.word	1140457472
 1087 06c8 00000000 		.word	.LANCHOR15
 1088 06cc 00000000 		.word	.LANCHOR16
 1089 06d0 00000000 		.word	.LANCHOR17
 1090 06d4 00000000 		.word	.LANCHOR18
 1091 06d8 00000000 		.word	.LANCHOR19
 1092 06dc 00000080 		.word	-2147483648
 1093 06e0 00000000 		.word	.LANCHOR14
 1094 06e4 00000000 		.word	0
 1095 06e8 00007A44 		.word	1148846080
 1096              	.LVL91:
 1097              	.L212:
 1098              	.LBE152:
 1099              	.LBB153:
 1100              	.LBB140:
 1101              	.LBB135:
 1102              	.LBB128:
 1103              		.loc 1 483 0
 1104 06ec 90ED020A 		vldr.32	s0, [r0, #8]
 1105              	.LVL92:
 1106 06f0 0190     		str	r0, [sp, #4]
 1107              		.loc 1 489 0
 1108 06f2 94ED0F1A 		vldr.32	s2, [r4, #60]
 1109 06f6 5FED050A 		vldr.32	s1, .L218+52
 1110              		.loc 1 484 0
 1111 06fa 002E     		cmp	r6, #0
 1112 06fc 00F01B81 		beq	.L96
 1113              		.loc 1 485 0
 1114 0700 B1EE400A 		vneg.f32	s0, s0
 1115              	.LVL93:
 1116              		.loc 1 489 0
 1117 0704 30EE4A0A 		vsub.f32	s0, s0, s20
 1118              	.LVL94:
 1119 0708 B0EE482A 		vmov.f32	s4, s16
 1120 070c F0EE6A1A 		vmov.f32	s3, s21
 1121 0710 FFF7FEFF 		bl	utils_map
 1122              	.LVL95:
 1123              		.loc 1 490 0
 1124 0714 DAED4F7A 		vldr.32	s15, [r10, #316]
 1125 0718 0198     		ldr	r0, [sp, #4]
 1126 071a F4EEC07A 		vcmpe.f32	s15, s0
 1127 071e F1EE10FA 		vmrs	APSR_nzcv, FPSCR
 1128              		.loc 1 489 0
 1129 0722 F0EE40BA 		vmov.f32	s23, s0
 1130              	.LVL96:
 1131 0726 0268     		ldr	r2, [r0]
 1132              		.loc 1 490 0
 1133 0728 00F37B81 		bgt	.L210
 1134              	.LVL97:
 1135              	.L100:
 1136 072c B1EE6B0A 		vneg.f32	s0, s23
 1137              	.LVL98:
 1138              	.L99:
 1139              	.LBE128:
 1140              		.loc 1 496 0
ARM GAS  C:\Users\CHRIST~1\AppData\Local\Temp\ccqtfmR0.s 			page 21


 1141 0730 D0B2     		uxtb	r0, r2
 1142 0732 FFF7FEFF 		bl	comm_can_set_current
 1143              	.LVL99:
 1144              	.L93:
 1145              	.LBE135:
 1146              		.loc 1 478 0 discriminator 2
 1147 0736 0135     		adds	r5, r5, #1
 1148              	.LVL100:
 1149 0738 0A2D     		cmp	r5, #10
 1150 073a 22D0     		beq	.L211
 1151              	.LVL101:
 1152              	.L102:
 1153              	.LBB136:
 1154              		.loc 1 479 0
 1155 073c 2846     		mov	r0, r5
 1156 073e FFF7FEFF 		bl	comm_can_get_status_msg_index
 1157              	.LVL102:
 1158              		.loc 1 481 0
 1159 0742 0268     		ldr	r2, [r0]
 1160 0744 002A     		cmp	r2, #0
 1161 0746 F6DB     		blt	.L93
 1162              	.LVL103:
 1163              	.LBB129:
 1164              	.LBB130:
 1165              	.LBB131:
 1166              	.LBB132:
 1167              		.loc 3 231 0 discriminator 1
 1168 0748 D8F82830 		ldr	r3, [r8, #40]
 1169              	.LVL104:
 1170              	.LBE132:
 1171              	.LBE131:
 1172              		.loc 3 267 0 discriminator 1
 1173 074c 4168     		ldr	r1, [r0, #4]
 1174 074e 5B1A     		subs	r3, r3, r1
 1175              	.LBE130:
 1176              	.LBE129:
 1177              		.loc 1 481 0 discriminator 1
 1178 0750 07EE903A 		vmov	s15, r3	@ int
 1179 0754 F8EE677A 		vcvt.f32.u32	s15, s15
 1180 0758 87EEA87A 		vdiv.f32	s14, s15, s17
 1181 075c B4EEC97A 		vcmpe.f32	s14, s18
 1182 0760 F1EE10FA 		vmrs	APSR_nzcv, FPSCR
 1183 0764 E7D5     		bpl	.L93
 1184              		.loc 1 482 0
 1185 0766 94F83930 		ldrb	r3, [r4, #57]	@ zero_extendqisi2
 1186 076a 002B     		cmp	r3, #0
 1187 076c BED1     		bne	.L212
 1188              		.loc 1 495 0
 1189 076e 002E     		cmp	r6, #0
 1190 0770 DCD1     		bne	.L100
 1191              	.LVL105:
 1192              	.L101:
 1193              		.loc 1 498 0
 1194 0772 D0B2     		uxtb	r0, r2
 1195 0774 B0EE6B0A 		vmov.f32	s0, s23
 1196              	.LBE136:
 1197              		.loc 1 478 0
ARM GAS  C:\Users\CHRIST~1\AppData\Local\Temp\ccqtfmR0.s 			page 22


 1198 0778 0135     		adds	r5, r5, #1
 1199              	.LVL106:
 1200              	.LBB137:
 1201              		.loc 1 498 0
 1202 077a FFF7FEFF 		bl	comm_can_set_current
 1203              	.LVL107:
 1204              	.LBE137:
 1205              		.loc 1 478 0
 1206 077e 0A2D     		cmp	r5, #10
 1207 0780 DCD1     		bne	.L102
 1208              	.L211:
 1209              	.LBE140:
 1210              		.loc 1 503 0
 1211 0782 94F83930 		ldrb	r3, [r4, #57]	@ zero_extendqisi2
 1212 0786 B346     		mov	fp, r6
 1213 0788 002B     		cmp	r3, #0
 1214 078a 40F02C81 		bne	.L213
 1215              	.LVL108:
 1216              	.L103:
 1217 078e F0EE6BAA 		vmov.f32	s21, s23
 1218              	.LVL109:
 1219              		.loc 1 512 0
 1220 0792 BBF1000F 		cmp	fp, #0
 1221 0796 00F0B280 		beq	.L91
 1222              	.LVL110:
 1223              	.L92:
 1224              		.loc 1 513 0
 1225 079a B1EE6A0A 		vneg.f32	s0, s21
 1226 079e FFF7FEFF 		bl	mc_interface_set_current
 1227              	.LVL111:
 1228 07a2 53E4     		b	.L105
 1229              	.LVL112:
 1230              	.L58:
 1231              	.LBE153:
 1232              		.loc 1 344 0
 1233 07a4 DAED151A 		vldr.32	s3, [r10, #84]
 1234 07a8 9AED152A 		vldr.32	s4, [r10, #84]
 1235 07ac 0193     		str	r3, [sp, #4]
 1236 07ae F1EE611A 		vneg.f32	s3, s3
 1237 07b2 B7EE001A 		vmov.f32	s2, #1.0e+0
 1238 07b6 FFEE000A 		vmov.f32	s1, #-1.0e+0
 1239 07ba FFF7FEFF 		bl	utils_map
 1240              	.LVL113:
 1241              		.loc 1 293 0
 1242 07be 4FF0000B 		mov	fp, #0
 1243              		.loc 1 344 0
 1244 07c2 FFF7FEFF 		bl	mc_interface_set_duty
 1245              	.LVL114:
 1246              		.loc 1 291 0
 1247 07c6 5FED39AA 		vldr.32	s21, .L218+52
 1248 07ca 019B     		ldr	r3, [sp, #4]
 1249              		.loc 1 292 0
 1250 07cc 5E46     		mov	r6, fp
 1251              	.LVL115:
 1252              		.loc 1 345 0
 1253 07ce 4FF00109 		mov	r9, #1
 1254 07d2 62E6     		b	.L49
ARM GAS  C:\Users\CHRIST~1\AppData\Local\Temp\ccqtfmR0.s 			page 23


 1255              	.LVL116:
 1256              	.L124:
 1257              		.loc 1 340 0
 1258 07d4 07EE905A 		vmov	s15, r5	@ int
 1259 07d8 B8EEE77A 		vcvt.f32.s32	s14, s15
 1260 07dc 5FED3E7A 		vldr.32	s15, .L218+56
 1261 07e0 924B     		ldr	r3, .L220
 1262 07e2 67EE277A 		vmul.f32	s15, s14, s15
 1263 07e6 93ED007A 		vldr.32	s14, [r3]
 1264 07ea C7EEA86A 		vdiv.f32	s13, s15, s17
 1265 07ee 76EE877A 		vadd.f32	s15, s13, s14
 1266 07f2 C3ED007A 		vstr.32	s15, [r3]
 1267 07f6 3DE6     		b	.L56
 1268              	.LVL117:
 1269              	.L196:
 1270              		.loc 1 157 0
 1271 07f8 D4ED040A 		vldr.32	s1, [r4, #16]
 1272 07fc 94ED031A 		vldr.32	s2, [r4, #12]
 1273 0800 B7EE002A 		vmov.f32	s4, #1.0e+0
 1274 0804 F6EE001A 		vmov.f32	s3, #5.0e-1
 1275 0808 FFF7FEFF 		bl	utils_map
 1276              	.LVL118:
 1277 080c 8DED020A 		vstr.32	s0, [sp, #8]
 1278 0810 87E4     		b	.L13
 1279              	.LVL119:
 1280              	.L41:
 1281              		.loc 1 320 0
 1282 0812 DDED027A 		vldr.32	s15, [sp, #8]
 1283 0816 F5EEC07A 		vcmpe.f32	s15, #0
 1284 081a F1EE10FA 		vmrs	APSR_nzcv, FPSCR
 1285 081e C0F2A180 		blt	.L199
 1286              		.loc 1 321 0
 1287 0822 DAED1CAA 		vldr.32	s21, [r10, #112]
 1288 0826 67EEAAAA 		vmul.f32	s21, s15, s21
 1289              	.LVL120:
 1290              	.L53:
 1291              		.loc 1 327 0
 1292 082a 9FED817A 		vldr.32	s14, .L220+4
 1293 082e F4EEC77A 		vcmpe.f32	s15, s14
 1294 0832 F1EE10FA 		vmrs	APSR_nzcv, FPSCR
 1295 0836 1CD4     		bmi	.L123
 1296              		.loc 1 331 0
 1297 0838 2278     		ldrb	r2, [r4]	@ zero_extendqisi2
 1298 083a 7C4B     		ldr	r3, .L220
 1299 083c 042A     		cmp	r2, #4
 1300 083e 2CD0     		beq	.L214
 1301              	.L204:
 1302              		.loc 1 319 0
 1303 0840 0126     		movs	r6, #1
 1304              	.LVL121:
 1305 0842 2AE6     		b	.L49
 1306              	.LVL122:
 1307              	.L32:
 1308              		.loc 1 252 0
 1309 0844 DDED026A 		vldr.32	s13, [sp, #8]
 1310 0848 B0EE007A 		vmov.f32	s14, #2.0e+0
 1311 084c FFEE007A 		vmov.f32	s15, #-1.0e+0
ARM GAS  C:\Users\CHRIST~1\AppData\Local\Temp\ccqtfmR0.s 			page 24


 1312 0850 E6EE877A 		vfma.f32	s15, s13, s14
 1313 0854 CDED027A 		vstr.32	s15, [sp, #8]
 1314              		.loc 1 253 0
 1315 0858 FCE4     		b	.L30
 1316              	.LVL123:
 1317              	.L206:
 1318              		.loc 1 114 0
 1319 085a 764A     		ldr	r2, .L220+8
 1320 085c 0023     		movs	r3, #0
 1321 085e 1370     		strb	r3, [r2]
 1322              	.LBE162:
 1323              		.loc 1 520 0
 1324 0860 05B0     		add	sp, sp, #20
 1325              		.cfi_remember_state
 1326              		.cfi_def_cfa_offset 76
 1327              		@ sp needed
 1328 0862 BDEC0A8B 		vldm	sp!, {d8-d12}
 1329              		.cfi_restore 88
 1330              		.cfi_restore 89
 1331              		.cfi_restore 86
 1332              		.cfi_restore 87
 1333              		.cfi_restore 84
 1334              		.cfi_restore 85
 1335              		.cfi_restore 82
 1336              		.cfi_restore 83
 1337              		.cfi_restore 80
 1338              		.cfi_restore 81
 1339              		.cfi_def_cfa_offset 36
 1340 0866 BDE8F08F 		pop	{r4, r5, r6, r7, r8, r9, r10, fp, pc}
 1341              	.LVL124:
 1342              	.L29:
 1343              		.cfi_restore_state
 1344              	.LBB163:
 1345              		.loc 1 241 0
 1346 086a 07F00107 		and	r7, r7, #1
 1347              	.LVL125:
 1348              		.loc 1 219 0
 1349 086e 1646     		mov	r6, r2
 1350 0870 D8E4     		b	.L25
 1351              	.LVL126:
 1352              	.L123:
 1353              		.loc 1 328 0
 1354 0872 07EE905A 		vmov	s15, r5	@ int
 1355 0876 F8EEE76A 		vcvt.f32.s32	s13, s15
 1356 087a DFED6F7A 		vldr.32	s15, .L220+12
 1357 087e 6B4B     		ldr	r3, .L220
 1358 0880 66EEA76A 		vmul.f32	s13, s13, s15
 1359 0884 D3ED007A 		vldr.32	s15, [r3]
 1360 0888 86EEA87A 		vdiv.f32	s14, s13, s17
 1361 088c 77EE277A 		vadd.f32	s15, s14, s15
 1362 0890 C3ED007A 		vstr.32	s15, [r3]
 1363              		.loc 1 331 0
 1364 0894 2278     		ldrb	r2, [r4]	@ zero_extendqisi2
 1365 0896 042A     		cmp	r2, #4
 1366 0898 D2D1     		bne	.L204
 1367              	.L214:
 1368              		.loc 1 331 0 is_stmt 0 discriminator 1
ARM GAS  C:\Users\CHRIST~1\AppData\Local\Temp\ccqtfmR0.s 			page 25


 1369 089a 002E     		cmp	r6, #0
 1370 089c 00F0A180 		beq	.L110
 1371              		.loc 1 332 0 is_stmt 1
 1372 08a0 F1EE6AAA 		vneg.f32	s21, s21
 1373              	.LVL127:
 1374 08a4 F9E5     		b	.L49
 1375              	.LVL128:
 1376              	.L2:
 1377              	.LBE163:
 1378              		.loc 1 98 0
 1379 08a6 1146     		mov	r1, r2
 1380 08a8 6448     		ldr	r0, .L220+16
 1381              	.LVL129:
 1382 08aa FFF7FEFF 		bl	_pal_lld_setgroupmode
 1383              	.LVL130:
 1384 08ae FFF7C1BB 		b	.L3
 1385              	.LVL131:
 1386              	.L208:
 1387              	.LBB164:
 1388              	.LBB154:
 1389              		.loc 1 442 0
 1390 08b2 FFF7FEFF 		bl	mc_interface_get_duty_cycle_now
 1391              	.LVL132:
 1392              	.LBB79:
 1393              		.loc 1 444 0
 1394 08b6 0025     		movs	r5, #0
 1395              	.LBE79:
 1396              		.loc 1 442 0
 1397 08b8 F0EE40BA 		vmov.f32	s23, s0
 1398              	.LVL133:
 1399 08bc 02E0     		b	.L84
 1400              	.LVL134:
 1401              	.L82:
 1402              	.LBB80:
 1403              		.loc 1 444 0 discriminator 2
 1404 08be 0A2D     		cmp	r5, #10
 1405 08c0 3FF4DDAE 		beq	.L81
 1406              	.LVL135:
 1407              	.L84:
 1408              	.LBB77:
 1409              		.loc 1 445 0
 1410 08c4 2846     		mov	r0, r5
 1411 08c6 FFF7FEFF 		bl	comm_can_get_status_msg_index
 1412              	.LVL136:
 1413              		.loc 1 447 0
 1414 08ca 0268     		ldr	r2, [r0]
 1415 08cc 002A     		cmp	r2, #0
 1416              	.LBE77:
 1417              		.loc 1 444 0
 1418 08ce 05F10105 		add	r5, r5, #1
 1419              	.LVL137:
 1420              	.LBB78:
 1421              		.loc 1 447 0
 1422 08d2 F4DB     		blt	.L82
 1423              	.LBB73:
 1424              	.LBB74:
 1425              		.loc 3 267 0 discriminator 1
ARM GAS  C:\Users\CHRIST~1\AppData\Local\Temp\ccqtfmR0.s 			page 26


 1426 08d4 4168     		ldr	r1, [r0, #4]
 1427              	.LBB75:
 1428              	.LBB76:
 1429              		.loc 3 231 0 discriminator 1
 1430 08d6 D8F82830 		ldr	r3, [r8, #40]
 1431              	.LVL138:
 1432              	.LBE76:
 1433              	.LBE75:
 1434              		.loc 3 267 0 discriminator 1
 1435 08da 5B1A     		subs	r3, r3, r1
 1436              	.LBE74:
 1437              	.LBE73:
 1438              		.loc 1 447 0 discriminator 1
 1439 08dc 07EE903A 		vmov	s15, r3	@ int
 1440 08e0 F8EE677A 		vcvt.f32.u32	s15, s15
 1441 08e4 87EEA87A 		vdiv.f32	s14, s15, s17
 1442 08e8 B4EEC97A 		vcmpe.f32	s14, s18
 1443 08ec F1EE10FA 		vmrs	APSR_nzcv, FPSCR
 1444 08f0 E5D5     		bpl	.L82
 1445              		.loc 1 448 0
 1446 08f2 D0B2     		uxtb	r0, r2
 1447              	.LVL139:
 1448 08f4 B0EE6B0A 		vmov.f32	s0, s23
 1449 08f8 FFF7FEFF 		bl	comm_can_set_duty
 1450              	.LVL140:
 1451 08fc DFE7     		b	.L82
 1452              	.LVL141:
 1453              	.L91:
 1454              	.LBE78:
 1455              	.LBE80:
 1456              	.LBE154:
 1457              	.LBB155:
 1458              		.loc 1 515 0
 1459 08fe B0EE6A0A 		vmov.f32	s0, s21
 1460 0902 FFF7FEFF 		bl	mc_interface_set_current
 1461              	.LVL142:
 1462 0906 FFF7A1BB 		b	.L105
 1463              	.LVL143:
 1464              	.L70:
 1465              	.LBE155:
 1466              		.loc 1 393 0
 1467 090a B4EE000A 		vmov.f32	s0, #1.25e-1
 1468 090e 27EE800A 		vmul.f32	s0, s15, s0
 1469              	.LBB156:
 1470              		.loc 1 400 0
 1471 0912 4B49     		ldr	r1, .L220+20
 1472              		.loc 1 399 0
 1473 0914 0122     		movs	r2, #1
 1474              		.loc 1 400 0
 1475 0916 81ED000A 		vstr.32	s0, [r1]
 1476              		.loc 1 399 0
 1477 091a 1A70     		strb	r2, [r3]
 1478 091c 3EE6     		b	.L71
 1479              	.LVL144:
 1480              	.L42:
 1481              	.LBE156:
 1482              		.loc 1 304 0 discriminator 3
ARM GAS  C:\Users\CHRIST~1\AppData\Local\Temp\ccqtfmR0.s 			page 27


 1483 091e F5EEC07A 		vcmpe.f32	s15, #0
 1484 0922 F1EE10FA 		vmrs	APSR_nzcv, FPSCR
 1485 0926 76D4     		bmi	.L215
 1486              	.L45:
 1487              		.loc 1 307 0
 1488 0928 DAED1DAA 		vldr.32	s21, [r10, #116]
 1489 092c F0EEEAAA 		vabs.f32	s21, s21
 1490 0930 6AEEA7AA 		vmul.f32	s21, s21, s15
 1491              	.LVL145:
 1492 0934 E5E4     		b	.L48
 1493              	.LVL146:
 1494              	.L96:
 1495              	.LBB157:
 1496              	.LBB141:
 1497              	.LBB138:
 1498              	.LBB133:
 1499              		.loc 1 489 0
 1500 0936 30EE4A0A 		vsub.f32	s0, s0, s20
 1501              	.LVL147:
 1502 093a B0EE482A 		vmov.f32	s4, s16
 1503 093e F0EE6A1A 		vmov.f32	s3, s21
 1504 0942 FFF7FEFF 		bl	utils_map
 1505              	.LVL148:
 1506              		.loc 1 490 0
 1507 0946 DAED4F7A 		vldr.32	s15, [r10, #316]
 1508 094a 0198     		ldr	r0, [sp, #4]
 1509 094c B4EEE70A 		vcmpe.f32	s0, s15
 1510 0950 F1EE10FA 		vmrs	APSR_nzcv, FPSCR
 1511              		.loc 1 489 0
 1512 0954 F0EE40BA 		vmov.f32	s23, s0
 1513              	.LVL149:
 1514 0958 0268     		ldr	r2, [r0]
 1515              		.loc 1 490 0
 1516 095a 7FF50AAF 		bpl	.L101
 1517              		.loc 1 491 0
 1518 095e DFED39BA 		vldr.32	s23, .L220+24
 1519 0962 06E7     		b	.L101
 1520              	.LVL150:
 1521              	.L199:
 1522              	.LBE133:
 1523              	.LBE138:
 1524              	.LBE141:
 1525              	.LBE157:
 1526              		.loc 1 323 0
 1527 0964 DAED1DAA 		vldr.32	s21, [r10, #116]
 1528 0968 67EEAAAA 		vmul.f32	s21, s15, s21
 1529              		.loc 1 324 0
 1530 096c 9346     		mov	fp, r2
 1531              		.loc 1 323 0
 1532 096e F0EEEAAA 		vabs.f32	s21, s21
 1533              	.LVL151:
 1534 0972 5AE7     		b	.L53
 1535              	.LVL152:
 1536              	.L209:
 1537              		.loc 1 455 0
 1538 0974 B0EE6A0A 		vmov.f32	s0, s21
 1539 0978 FFF7FEFF 		bl	mc_interface_set_brake_current
ARM GAS  C:\Users\CHRIST~1\AppData\Local\Temp\ccqtfmR0.s 			page 28


 1540              	.LVL153:
 1541              	.LBB158:
 1542              		.loc 1 458 0
 1543 097c 0025     		movs	r5, #0
 1544 097e 02E0     		b	.L88
 1545              	.LVL154:
 1546              	.L86:
 1547              		.loc 1 458 0 is_stmt 0 discriminator 2
 1548 0980 0A2D     		cmp	r5, #10
 1549 0982 3FF463AB 		beq	.L105
 1550              	.LVL155:
 1551              	.L88:
 1552              	.LBB145:
 1553              		.loc 1 459 0 is_stmt 1
 1554 0986 2846     		mov	r0, r5
 1555 0988 FFF7FEFF 		bl	comm_can_get_status_msg_index
 1556              	.LVL156:
 1557              		.loc 1 461 0
 1558 098c 0268     		ldr	r2, [r0]
 1559 098e 002A     		cmp	r2, #0
 1560              	.LBE145:
 1561              		.loc 1 458 0
 1562 0990 05F10105 		add	r5, r5, #1
 1563              	.LVL157:
 1564              	.LBB150:
 1565              		.loc 1 461 0
 1566 0994 F4DB     		blt	.L86
 1567              	.LBB146:
 1568              	.LBB147:
 1569              		.loc 3 267 0 discriminator 1
 1570 0996 4168     		ldr	r1, [r0, #4]
 1571              	.LBB148:
 1572              	.LBB149:
 1573              		.loc 3 231 0 discriminator 1
 1574 0998 D8F82830 		ldr	r3, [r8, #40]
 1575              	.LVL158:
 1576              	.LBE149:
 1577              	.LBE148:
 1578              		.loc 3 267 0 discriminator 1
 1579 099c 5B1A     		subs	r3, r3, r1
 1580              	.LBE147:
 1581              	.LBE146:
 1582              		.loc 1 461 0 discriminator 1
 1583 099e 07EE903A 		vmov	s15, r3	@ int
 1584 09a2 F8EE677A 		vcvt.f32.u32	s15, s15
 1585 09a6 87EEA87A 		vdiv.f32	s14, s15, s17
 1586 09aa B4EEC97A 		vcmpe.f32	s14, s18
 1587 09ae F1EE10FA 		vmrs	APSR_nzcv, FPSCR
 1588 09b2 E5D5     		bpl	.L86
 1589              		.loc 1 462 0
 1590 09b4 D0B2     		uxtb	r0, r2
 1591              	.LVL159:
 1592 09b6 B0EE6A0A 		vmov.f32	s0, s21
 1593 09ba FFF7FEFF 		bl	comm_can_set_current_brake
 1594              	.LVL160:
 1595 09be DFE7     		b	.L86
 1596              	.LVL161:
ARM GAS  C:\Users\CHRIST~1\AppData\Local\Temp\ccqtfmR0.s 			page 29


 1597              	.L198:
 1598              	.LBE150:
 1599              	.LBE158:
 1600              		.loc 1 293 0
 1601 09c0 4FF0000B 		mov	fp, #0
 1602              		.loc 1 303 0
 1603 09c4 0126     		movs	r6, #1
 1604              	.LVL162:
 1605 09c6 194B     		ldr	r3, .L220
 1606 09c8 67E5     		b	.L49
 1607              	.LVL163:
 1608              	.L89:
 1609              	.LBB159:
 1610              		.loc 1 470 0
 1611 09ca F1EE6AAA 		vneg.f32	s21, s21
 1612              	.LVL164:
 1613              		.loc 1 477 0
 1614 09ce 03F0FF0B 		and	fp, r3, #255
 1615              	.LVL165:
 1616 09d2 002B     		cmp	r3, #0
 1617 09d4 3FF4E1AE 		beq	.L92
 1618              		.loc 1 472 0
 1619 09d8 B1EE4BBA 		vneg.f32	s22, s22
 1620              	.LVL166:
 1621              		.loc 1 473 0
 1622 09dc B1EE4AAA 		vneg.f32	s20, s20
 1623              	.LVL167:
 1624 09e0 5FE6     		b	.L90
 1625              	.LVL168:
 1626              	.L110:
 1627              	.LBE159:
 1628              		.loc 1 296 0
 1629 09e2 B146     		mov	r9, r6
 1630 09e4 2CE7     		b	.L204
 1631              	.LVL169:
 1632              	.L213:
 1633              	.LBB160:
 1634              	.LBB142:
 1635              		.loc 1 505 0
 1636 09e6 94ED0F1A 		vldr.32	s2, [r4, #60]
 1637 09ea DFED160A 		vldr.32	s1, .L220+24
 1638 09ee F0EE6A1A 		vmov.f32	s3, s21
 1639 09f2 3BEE4A0A 		vsub.f32	s0, s22, s20
 1640              	.LVL170:
 1641 09f6 B0EE482A 		vmov.f32	s4, s16
 1642 09fa FFF7FEFF 		bl	utils_map
 1643              	.LVL171:
 1644              		.loc 1 506 0
 1645 09fe DAED4F7A 		vldr.32	s15, [r10, #316]
 1646              		.loc 1 507 0
 1647 0a02 B4EE670A 		vcmp.f32	s0, s15
 1648              		.loc 1 505 0
 1649 0a06 F0EE40BA 		vmov.f32	s23, s0
 1650              	.LVL172:
 1651              		.loc 1 507 0
 1652 0a0a F1EE10FA 		vmrs	APSR_nzcv, FPSCR
 1653 0a0e 48BF     		it	mi
ARM GAS  C:\Users\CHRIST~1\AppData\Local\Temp\ccqtfmR0.s 			page 30


 1654 0a10 F0EE48BA 		vmovmi.f32	s23, s16
 1655 0a14 BBE6     		b	.L103
 1656              	.LVL173:
 1657              	.L215:
 1658              	.LBE142:
 1659              	.LBE160:
 1660              		.loc 1 304 0 discriminator 4
 1661 0a16 B5EEC00A 		vcmpe.f32	s0, #0
 1662 0a1a F1EE10FA 		vmrs	APSR_nzcv, FPSCR
 1663 0a1e 83D5     		bpl	.L45
 1664 0a20 6BE4     		b	.L44
 1665              	.LVL174:
 1666              	.L210:
 1667              	.LBB161:
 1668              	.LBB143:
 1669              	.LBB139:
 1670              	.LBB134:
 1671              		.loc 1 491 0
 1672 0a22 DFED08BA 		vldr.32	s23, .L220+24
 1673              		.loc 1 490 0
 1674 0a26 B0EE4C0A 		vmov.f32	s0, s24
 1675              	.LVL175:
 1676 0a2a 81E6     		b	.L99
 1677              	.L221:
 1678              		.align	2
 1679              	.L220:
 1680 0a2c 00000000 		.word	.LANCHOR4
 1681 0a30 6F12833A 		.word	981668463
 1682 0a34 00000000 		.word	.LANCHOR1
 1683 0a38 00007A44 		.word	1148846080
 1684 0a3c 00040240 		.word	1073873920
 1685 0a40 00000000 		.word	.LANCHOR19
 1686 0a44 00000000 		.word	0
 1687              	.LBE134:
 1688              	.LBE139:
 1689              	.LBE143:
 1690              	.LBE161:
 1691              	.LBE164:
 1692              		.cfi_endproc
 1693              	.LFE263:
 1694              		.size	adc_thread, .-adc_thread
 1695              		.section	.text.app_adc_configure,"ax",%progbits
 1696              		.align	1
 1697              		.p2align 4,,15
 1698              		.global	app_adc_configure
 1699              		.syntax unified
 1700              		.thumb
 1701              		.thumb_func
 1702              		.fpu fpv4-sp-d16
 1703              		.type	app_adc_configure, %function
 1704              	app_adc_configure:
 1705              	.LFB256:
 1706              		.loc 1 53 0
 1707              		.cfi_startproc
 1708              		@ args = 0, pretend = 0, frame = 0
 1709              		@ frame_needed = 0, uses_anonymous_args = 0
 1710              	.LVL176:
ARM GAS  C:\Users\CHRIST~1\AppData\Local\Temp\ccqtfmR0.s 			page 31


 1711 0000 08B5     		push	{r3, lr}
 1712              		.cfi_def_cfa_offset 8
 1713              		.cfi_offset 3, -8
 1714              		.cfi_offset 14, -4
 1715              		.loc 1 54 0
 1716 0002 0146     		mov	r1, r0
 1717 0004 4422     		movs	r2, #68
 1718 0006 0348     		ldr	r0, .L224
 1719              	.LVL177:
 1720 0008 FFF7FEFF 		bl	memcpy
 1721              	.LVL178:
 1722              		.loc 1 55 0
 1723 000c 024B     		ldr	r3, .L224+4
 1724 000e 0022     		movs	r2, #0
 1725 0010 1A60     		str	r2, [r3]	@ float
 1726 0012 08BD     		pop	{r3, pc}
 1727              	.L225:
 1728              		.align	2
 1729              	.L224:
 1730 0014 00000000 		.word	.LANCHOR2
 1731 0018 00000000 		.word	.LANCHOR4
 1732              		.cfi_endproc
 1733              	.LFE256:
 1734              		.size	app_adc_configure, .-app_adc_configure
 1735              		.section	.text.app_adc_start,"ax",%progbits
 1736              		.align	1
 1737              		.p2align 4,,15
 1738              		.global	app_adc_start
 1739              		.syntax unified
 1740              		.thumb
 1741              		.thumb_func
 1742              		.fpu fpv4-sp-d16
 1743              		.type	app_adc_start, %function
 1744              	app_adc_start:
 1745              	.LFB257:
 1746              		.loc 1 58 0
 1747              		.cfi_startproc
 1748              		@ args = 0, pretend = 0, frame = 0
 1749              		@ frame_needed = 0, uses_anonymous_args = 0
 1750              	.LVL179:
 1751 0000 F0B5     		push	{r4, r5, r6, r7, lr}
 1752              		.cfi_def_cfa_offset 20
 1753              		.cfi_offset 4, -20
 1754              		.cfi_offset 5, -16
 1755              		.cfi_offset 6, -12
 1756              		.cfi_offset 7, -8
 1757              		.cfi_offset 14, -4
 1758 0002 83B0     		sub	sp, sp, #12
 1759              		.cfi_def_cfa_offset 32
 1760              		.loc 1 60 0
 1761 0004 0024     		movs	r4, #0
 1762              		.loc 1 59 0
 1763 0006 074E     		ldr	r6, .L228
 1764              		.loc 1 60 0
 1765 0008 074D     		ldr	r5, .L228+4
 1766              		.loc 1 61 0
 1767 000a 084B     		ldr	r3, .L228+8
ARM GAS  C:\Users\CHRIST~1\AppData\Local\Temp\ccqtfmR0.s 			page 32


 1768 000c 0094     		str	r4, [sp]
 1769              		.loc 1 58 0
 1770 000e 0746     		mov	r7, r0
 1771              		.loc 1 61 0
 1772 0010 4022     		movs	r2, #64
 1773 0012 4FF4B361 		mov	r1, #1432
 1774 0016 0648     		ldr	r0, .L228+12
 1775              	.LVL180:
 1776              		.loc 1 59 0
 1777 0018 3770     		strb	r7, [r6]
 1778              		.loc 1 60 0
 1779 001a 2C70     		strb	r4, [r5]
 1780              		.loc 1 61 0
 1781 001c FFF7FEFF 		bl	chThdCreateStatic
 1782              	.LVL181:
 1783              		.loc 1 62 0
 1784 0020 03B0     		add	sp, sp, #12
 1785              		.cfi_def_cfa_offset 20
 1786              		@ sp needed
 1787 0022 F0BD     		pop	{r4, r5, r6, r7, pc}
 1788              	.L229:
 1789              		.align	2
 1790              	.L228:
 1791 0024 00000000 		.word	.LANCHOR0
 1792 0028 00000000 		.word	.LANCHOR3
 1793 002c 00000000 		.word	adc_thread
 1794 0030 00000000 		.word	.LANCHOR20
 1795              		.cfi_endproc
 1796              	.LFE257:
 1797              		.size	app_adc_start, .-app_adc_start
 1798              		.section	.text.app_adc_stop,"ax",%progbits
 1799              		.align	1
 1800              		.p2align 4,,15
 1801              		.global	app_adc_stop
 1802              		.syntax unified
 1803              		.thumb
 1804              		.thumb_func
 1805              		.fpu fpv4-sp-d16
 1806              		.type	app_adc_stop, %function
 1807              	app_adc_stop:
 1808              	.LFB258:
 1809              		.loc 1 64 0
 1810              		.cfi_startproc
 1811              		@ args = 0, pretend = 0, frame = 0
 1812              		@ frame_needed = 0, uses_anonymous_args = 0
 1813              		.loc 1 65 0
 1814 0000 064B     		ldr	r3, .L236
 1815              		.loc 1 64 0
 1816 0002 10B5     		push	{r4, lr}
 1817              		.cfi_def_cfa_offset 8
 1818              		.cfi_offset 4, -8
 1819              		.cfi_offset 14, -4
 1820              		.loc 1 65 0
 1821 0004 0122     		movs	r2, #1
 1822              		.loc 1 66 0
 1823 0006 064C     		ldr	r4, .L236+4
 1824              		.loc 1 65 0
ARM GAS  C:\Users\CHRIST~1\AppData\Local\Temp\ccqtfmR0.s 			page 33


 1825 0008 1A70     		strb	r2, [r3]
 1826              		.loc 1 66 0
 1827 000a 2378     		ldrb	r3, [r4]	@ zero_extendqisi2
 1828 000c 2BB1     		cbz	r3, .L230
 1829              	.L233:
 1830              		.loc 1 67 0
 1831 000e 0A20     		movs	r0, #10
 1832 0010 FFF7FEFF 		bl	chThdSleep
 1833              	.LVL182:
 1834              		.loc 1 66 0
 1835 0014 2378     		ldrb	r3, [r4]	@ zero_extendqisi2
 1836 0016 002B     		cmp	r3, #0
 1837 0018 F9D1     		bne	.L233
 1838              	.L230:
 1839 001a 10BD     		pop	{r4, pc}
 1840              	.L237:
 1841              		.align	2
 1842              	.L236:
 1843 001c 00000000 		.word	.LANCHOR3
 1844 0020 00000000 		.word	.LANCHOR1
 1845              		.cfi_endproc
 1846              	.LFE258:
 1847              		.size	app_adc_stop, .-app_adc_stop
 1848              		.section	.text.app_adc_get_decoded_level,"ax",%progbits
 1849              		.align	1
 1850              		.p2align 4,,15
 1851              		.global	app_adc_get_decoded_level
 1852              		.syntax unified
 1853              		.thumb
 1854              		.thumb_func
 1855              		.fpu fpv4-sp-d16
 1856              		.type	app_adc_get_decoded_level, %function
 1857              	app_adc_get_decoded_level:
 1858              	.LFB259:
 1859              		.loc 1 71 0
 1860              		.cfi_startproc
 1861              		@ args = 0, pretend = 0, frame = 0
 1862              		@ frame_needed = 0, uses_anonymous_args = 0
 1863              		@ link register save eliminated.
 1864              		.loc 1 72 0
 1865 0000 014B     		ldr	r3, .L239
 1866 0002 93ED000A 		vldr.32	s0, [r3]
 1867              		.loc 1 73 0
 1868 0006 7047     		bx	lr
 1869              	.L240:
 1870              		.align	2
 1871              	.L239:
 1872 0008 00000000 		.word	.LANCHOR8
 1873              		.cfi_endproc
 1874              	.LFE259:
 1875              		.size	app_adc_get_decoded_level, .-app_adc_get_decoded_level
 1876              		.section	.text.app_adc_get_voltage,"ax",%progbits
 1877              		.align	1
 1878              		.p2align 4,,15
 1879              		.global	app_adc_get_voltage
 1880              		.syntax unified
 1881              		.thumb
ARM GAS  C:\Users\CHRIST~1\AppData\Local\Temp\ccqtfmR0.s 			page 34


 1882              		.thumb_func
 1883              		.fpu fpv4-sp-d16
 1884              		.type	app_adc_get_voltage, %function
 1885              	app_adc_get_voltage:
 1886              	.LFB260:
 1887              		.loc 1 75 0
 1888              		.cfi_startproc
 1889              		@ args = 0, pretend = 0, frame = 0
 1890              		@ frame_needed = 0, uses_anonymous_args = 0
 1891              		@ link register save eliminated.
 1892              		.loc 1 76 0
 1893 0000 014B     		ldr	r3, .L242
 1894 0002 93ED000A 		vldr.32	s0, [r3]
 1895              		.loc 1 77 0
 1896 0006 7047     		bx	lr
 1897              	.L243:
 1898              		.align	2
 1899              	.L242:
 1900 0008 00000000 		.word	.LANCHOR5
 1901              		.cfi_endproc
 1902              	.LFE260:
 1903              		.size	app_adc_get_voltage, .-app_adc_get_voltage
 1904              		.section	.text.app_adc_get_decoded_level2,"ax",%progbits
 1905              		.align	1
 1906              		.p2align 4,,15
 1907              		.global	app_adc_get_decoded_level2
 1908              		.syntax unified
 1909              		.thumb
 1910              		.thumb_func
 1911              		.fpu fpv4-sp-d16
 1912              		.type	app_adc_get_decoded_level2, %function
 1913              	app_adc_get_decoded_level2:
 1914              	.LFB261:
 1915              		.loc 1 79 0
 1916              		.cfi_startproc
 1917              		@ args = 0, pretend = 0, frame = 0
 1918              		@ frame_needed = 0, uses_anonymous_args = 0
 1919              		@ link register save eliminated.
 1920              		.loc 1 80 0
 1921 0000 014B     		ldr	r3, .L245
 1922 0002 93ED000A 		vldr.32	s0, [r3]
 1923              		.loc 1 81 0
 1924 0006 7047     		bx	lr
 1925              	.L246:
 1926              		.align	2
 1927              	.L245:
 1928 0008 00000000 		.word	.LANCHOR12
 1929              		.cfi_endproc
 1930              	.LFE261:
 1931              		.size	app_adc_get_decoded_level2, .-app_adc_get_decoded_level2
 1932              		.section	.text.app_adc_get_voltage2,"ax",%progbits
 1933              		.align	1
 1934              		.p2align 4,,15
 1935              		.global	app_adc_get_voltage2
 1936              		.syntax unified
 1937              		.thumb
 1938              		.thumb_func
ARM GAS  C:\Users\CHRIST~1\AppData\Local\Temp\ccqtfmR0.s 			page 35


 1939              		.fpu fpv4-sp-d16
 1940              		.type	app_adc_get_voltage2, %function
 1941              	app_adc_get_voltage2:
 1942              	.LFB262:
 1943              		.loc 1 83 0
 1944              		.cfi_startproc
 1945              		@ args = 0, pretend = 0, frame = 0
 1946              		@ frame_needed = 0, uses_anonymous_args = 0
 1947              		@ link register save eliminated.
 1948              		.loc 1 84 0
 1949 0000 014B     		ldr	r3, .L248
 1950 0002 93ED000A 		vldr.32	s0, [r3]
 1951              		.loc 1 85 0
 1952 0006 7047     		bx	lr
 1953              	.L249:
 1954              		.align	2
 1955              	.L248:
 1956 0008 00000000 		.word	.LANCHOR9
 1957              		.cfi_endproc
 1958              	.LFE262:
 1959              		.size	app_adc_get_voltage2, .-app_adc_get_voltage2
 1960              		.section	.bss.adc_thread_wa,"aw",%nobits
 1961              		.align	3
 1962              		.set	.LANCHOR20,. + 0
 1963              		.type	adc_thread_wa, %object
 1964              		.size	adc_thread_wa, 1432
 1965              	adc_thread_wa:
 1966 0000 00000000 		.space	1432
 1966      00000000 
 1966      00000000 
 1966      00000000 
 1966      00000000 
 1967              		.section	.bss.config,"aw",%nobits
 1968              		.align	2
 1969              		.set	.LANCHOR2,. + 0
 1970              		.type	config, %object
 1971              		.size	config, 68
 1972              	config:
 1973 0000 00000000 		.space	68
 1973      00000000 
 1973      00000000 
 1973      00000000 
 1973      00000000 
 1974              		.section	.bss.decoded_level,"aw",%nobits
 1975              		.align	2
 1976              		.set	.LANCHOR8,. + 0
 1977              		.type	decoded_level, %object
 1978              		.size	decoded_level, 4
 1979              	decoded_level:
 1980 0000 00000000 		.space	4
 1981              		.section	.bss.decoded_level2,"aw",%nobits
 1982              		.align	2
 1983              		.set	.LANCHOR12,. + 0
 1984              		.type	decoded_level2, %object
 1985              		.size	decoded_level2, 4
 1986              	decoded_level2:
 1987 0000 00000000 		.space	4
ARM GAS  C:\Users\CHRIST~1\AppData\Local\Temp\ccqtfmR0.s 			page 36


 1988              		.section	.bss.filter_buffer.11335,"aw",%nobits
 1989              		.align	2
 1990              		.set	.LANCHOR7,. + 0
 1991              		.type	filter_buffer.11335, %object
 1992              		.size	filter_buffer.11335, 20
 1993              	filter_buffer.11335:
 1994 0000 00000000 		.space	20
 1994      00000000 
 1994      00000000 
 1994      00000000 
 1994      00000000 
 1995              		.section	.bss.filter_buffer.11395,"aw",%nobits
 1996              		.align	2
 1997              		.set	.LANCHOR17,. + 0
 1998              		.type	filter_buffer.11395, %object
 1999              		.size	filter_buffer.11395, 32
 2000              	filter_buffer.11395:
 2001 0000 00000000 		.space	32
 2001      00000000 
 2001      00000000 
 2001      00000000 
 2001      00000000 
 2002              		.section	.bss.filter_buffer2.11347,"aw",%nobits
 2003              		.align	2
 2004              		.set	.LANCHOR11,. + 0
 2005              		.type	filter_buffer2.11347, %object
 2006              		.size	filter_buffer2.11347, 20
 2007              	filter_buffer2.11347:
 2008 0000 00000000 		.space	20
 2008      00000000 
 2008      00000000 
 2008      00000000 
 2008      00000000 
 2009              		.section	.bss.filter_ptr.11336,"aw",%nobits
 2010              		.align	2
 2011              		.set	.LANCHOR6,. + 0
 2012              		.type	filter_ptr.11336, %object
 2013              		.size	filter_ptr.11336, 4
 2014              	filter_ptr.11336:
 2015 0000 00000000 		.space	4
 2016              		.section	.bss.filter_ptr.11396,"aw",%nobits
 2017              		.align	2
 2018              		.set	.LANCHOR16,. + 0
 2019              		.type	filter_ptr.11396, %object
 2020              		.size	filter_ptr.11396, 4
 2021              	filter_ptr.11396:
 2022 0000 00000000 		.space	4
 2023              		.section	.bss.filter_ptr2.11348,"aw",%nobits
 2024              		.align	2
 2025              		.set	.LANCHOR10,. + 0
 2026              		.type	filter_ptr2.11348, %object
 2027              		.size	filter_ptr2.11348, 4
 2028              	filter_ptr2.11348:
 2029 0000 00000000 		.space	4
 2030              		.section	.bss.is_running,"aw",%nobits
 2031              		.set	.LANCHOR1,. + 0
 2032              		.type	is_running, %object
ARM GAS  C:\Users\CHRIST~1\AppData\Local\Temp\ccqtfmR0.s 			page 37


 2033              		.size	is_running, 1
 2034              	is_running:
 2035 0000 00       		.space	1
 2036              		.section	.bss.last_time.11365,"aw",%nobits
 2037              		.align	2
 2038              		.set	.LANCHOR14,. + 0
 2039              		.type	last_time.11365, %object
 2040              		.size	last_time.11365, 4
 2041              	last_time.11365:
 2042 0000 00000000 		.space	4
 2043              		.section	.bss.ms_without_power,"aw",%nobits
 2044              		.align	2
 2045              		.set	.LANCHOR4,. + 0
 2046              		.type	ms_without_power, %object
 2047              		.size	ms_without_power, 4
 2048              	ms_without_power:
 2049 0000 00000000 		.space	4
 2050              		.section	.bss.pid_rpm.11402,"aw",%nobits
 2051              		.align	2
 2052              		.set	.LANCHOR19,. + 0
 2053              		.type	pid_rpm.11402, %object
 2054              		.size	pid_rpm.11402, 4
 2055              	pid_rpm.11402:
 2056 0000 00000000 		.space	4
 2057              		.section	.bss.pulses_without_power_before.11388,"aw",%nobits
 2058              		.align	2
 2059              		.set	.LANCHOR15,. + 0
 2060              		.type	pulses_without_power_before.11388, %object
 2061              		.size	pulses_without_power_before.11388, 4
 2062              	pulses_without_power_before.11388:
 2063 0000 00000000 		.space	4
 2064              		.section	.bss.pwr_ramp.11366,"aw",%nobits
 2065              		.align	2
 2066              		.set	.LANCHOR13,. + 0
 2067              		.type	pwr_ramp.11366, %object
 2068              		.size	pwr_ramp.11366, 4
 2069              	pwr_ramp.11366:
 2070 0000 00000000 		.space	4
 2071              		.section	.bss.read_voltage,"aw",%nobits
 2072              		.align	2
 2073              		.set	.LANCHOR5,. + 0
 2074              		.type	read_voltage, %object
 2075              		.size	read_voltage, 4
 2076              	read_voltage:
 2077 0000 00000000 		.space	4
 2078              		.section	.bss.read_voltage2,"aw",%nobits
 2079              		.align	2
 2080              		.set	.LANCHOR9,. + 0
 2081              		.type	read_voltage2, %object
 2082              		.size	read_voltage2, 4
 2083              	read_voltage2:
 2084 0000 00000000 		.space	4
 2085              		.section	.bss.use_rx_tx_as_buttons,"aw",%nobits
 2086              		.set	.LANCHOR0,. + 0
 2087              		.type	use_rx_tx_as_buttons, %object
 2088              		.size	use_rx_tx_as_buttons, 1
 2089              	use_rx_tx_as_buttons:
ARM GAS  C:\Users\CHRIST~1\AppData\Local\Temp\ccqtfmR0.s 			page 38


 2090 0000 00       		.space	1
 2091              		.section	.bss.was_pid.11394,"aw",%nobits
 2092              		.set	.LANCHOR18,. + 0
 2093              		.type	was_pid.11394, %object
 2094              		.size	was_pid.11394, 1
 2095              	was_pid.11394:
 2096 0000 00       		.space	1
 2097              		.section	.data.stop_now,"aw",%progbits
 2098              		.set	.LANCHOR3,. + 0
 2099              		.type	stop_now, %object
 2100              		.size	stop_now, 1
 2101              	stop_now:
 2102 0000 01       		.byte	1
 2103              		.section	.rodata.adc_thread.str1.4,"aMS",%progbits,1
 2104              		.align	2
 2105              	.LC0:
 2106 0000 4150505F 		.ascii	"APP_ADC\000"
 2106      41444300 
 2107              		.text
 2108              	.Letext0:
 2109              		.file 4 "c:\\program files (x86)\\gnu tools arm embedded\\6 2017-q2-update\\arm-none-eabi\\include
 2110              		.file 5 "c:\\program files (x86)\\gnu tools arm embedded\\6 2017-q2-update\\arm-none-eabi\\include
 2111              		.file 6 "c:\\program files (x86)\\gnu tools arm embedded\\6 2017-q2-update\\lib\\gcc\\arm-none-eab
 2112              		.file 7 "ChibiOS_3.0.2/os/rt/ports/ARMCMx/compilers/GCC/chtypes.h"
 2113              		.file 8 "ChibiOS_3.0.2/os/rt/include/chsystypes.h"
 2114              		.file 9 "ChibiOS_3.0.2/os/rt/include/chschd.h"
 2115              		.file 10 "ChibiOS_3.0.2/os/ext/CMSIS/include/core_cm4.h"
 2116              		.file 11 "ChibiOS_3.0.2/os/ext/CMSIS/ST/system_stm32f4xx.h"
 2117              		.file 12 "ChibiOS_3.0.2/os/ext/CMSIS/ST/stm32f407xx.h"
 2118              		.file 13 "ChibiOS_3.0.2/os/rt/ports/ARMCMx/chcore.h"
 2119              		.file 14 "ChibiOS_3.0.2/os/rt/ports/ARMCMx/chcore_v7m.h"
 2120              		.file 15 "ChibiOS_3.0.2/os/rt/include/chtm.h"
 2121              		.file 16 "ChibiOS_3.0.2/os/rt/include/chsem.h"
 2122              		.file 17 "ChibiOS_3.0.2/os/rt/include/chmtx.h"
 2123              		.file 18 "ChibiOS_3.0.2/os/rt/include/chevents.h"
 2124              		.file 19 "ChibiOS_3.0.2/os/rt/include/chqueues.h"
 2125              		.file 20 "./datatypes.h"
 2126              		.file 21 "./conf_general.h"
 2127              		.file 22 "ChibiOS_3.0.2/os/hal/ports/STM32/STM32F4xx/stm32_dma.h"
 2128              		.file 23 "ChibiOS_3.0.2/os/hal/ports/STM32/LLD/GPIOv2/pal_lld.h"
 2129              		.file 24 "ChibiOS_3.0.2/os/hal/include/can.h"
 2130              		.file 25 "ChibiOS_3.0.2/os/hal/ports/STM32/LLD/can_lld.h"
 2131              		.file 26 "ChibiOS_3.0.2/os/hal/include/i2c.h"
 2132              		.file 27 "ChibiOS_3.0.2/os/hal/ports/STM32/LLD/I2Cv1/i2c_lld.h"
 2133              		.file 28 "ChibiOS_3.0.2/os/hal/include/icu.h"
 2134              		.file 29 "ChibiOS_3.0.2/os/hal/ports/STM32/LLD/TIMv1/icu_lld.h"
 2135              		.file 30 "ChibiOS_3.0.2/os/hal/ports/STM32/LLD/TIMv1/stm32_tim.h"
 2136              		.file 31 "ChibiOS_3.0.2/os/hal/include/spi.h"
 2137              		.file 32 "ChibiOS_3.0.2/os/hal/ports/STM32/LLD/SPIv1/spi_lld.h"
 2138              		.file 33 "ChibiOS_3.0.2/os/hal/include/uart.h"
 2139              		.file 34 "ChibiOS_3.0.2/os/hal/ports/STM32/LLD/USARTv1/uart_lld.h"
 2140              		.file 35 "ChibiOS_3.0.2/os/hal/include/usb.h"
 2141              		.file 36 "ChibiOS_3.0.2/os/hal/ports/STM32/LLD/OTGv1/usb_lld.h"
 2142              		.file 37 "ChibiOS_3.0.2/os/hal/ports/STM32/LLD/OTGv1/stm32_otg.h"
 2143              		.file 38 "./mc_interface.h"
 2144              		.file 39 "c:\\program files (x86)\\gnu tools arm embedded\\6 2017-q2-update\\arm-none-eabi\\includ
 2145              		.file 40 "c:\\program files (x86)\\gnu tools arm embedded\\6 2017-q2-update\\arm-none-eabi\\includ
ARM GAS  C:\Users\CHRIST~1\AppData\Local\Temp\ccqtfmR0.s 			page 39


 2146              		.file 41 "c:\\program files (x86)\\gnu tools arm embedded\\6 2017-q2-update\\arm-none-eabi\\includ
 2147              		.file 42 "c:\\program files (x86)\\gnu tools arm embedded\\6 2017-q2-update\\arm-none-eabi\\includ
 2148              		.file 43 "./utils.h"
 2149              		.file 44 "./comm_can.h"
 2150              		.file 45 "./timeout.h"
 2151              		.file 46 "ChibiOS_3.0.2/os/rt/include/chthreads.h"