ARM GAS  C:\Users\CHRIST~1\AppData\Local\Temp\ccC1S8GE.s 			page 1


   1              		.cpu cortex-m4
   2              		.eabi_attribute 27, 1
   3              		.eabi_attribute 28, 1
   4              		.eabi_attribute 20, 1
   5              		.eabi_attribute 21, 1
   6              		.eabi_attribute 23, 3
   7              		.eabi_attribute 24, 1
   8              		.eabi_attribute 25, 1
   9              		.eabi_attribute 26, 1
  10              		.eabi_attribute 30, 2
  11              		.eabi_attribute 34, 1
  12              		.eabi_attribute 18, 4
  13              		.file	"app_ppm.c"
  14              		.text
  15              	.Ltext0:
  16              		.cfi_sections	.debug_frame
  17              		.section	.text.ppm_thread,"ax",%progbits
  18              		.align	1
  19              		.p2align 4,,15
  20              		.syntax unified
  21              		.thumb
  22              		.thumb_func
  23              		.fpu fpv4-sp-d16
  24              		.type	ppm_thread, %function
  25              	ppm_thread:
  26              	.LFB262:
  27              		.file 1 "applications/app_ppm.c"
  28              		.loc 1 125 0
  29              		.cfi_startproc
  30              		@ args = 0, pretend = 0, frame = 16
  31              		@ frame_needed = 0, uses_anonymous_args = 0
  32              	.LVL0:
  33 0000 2DE9F04F 		push	{r4, r5, r6, r7, r8, r9, r10, fp, lr}
  34              		.cfi_def_cfa_offset 36
  35              		.cfi_offset 4, -36
  36              		.cfi_offset 5, -32
  37              		.cfi_offset 6, -28
  38              		.cfi_offset 7, -24
  39              		.cfi_offset 8, -20
  40              		.cfi_offset 9, -16
  41              		.cfi_offset 10, -12
  42              		.cfi_offset 11, -8
  43              		.cfi_offset 14, -4
  44              	.LBB126:
  45              	.LBB127:
  46              		.file 2 "ChibiOS_3.0.2/os/rt/include/chregistry.h"
  47              		.loc 2 135 0
  48 0004 B84F     		ldr	r7, .L141
  49              	.LBE127:
  50              	.LBE126:
  51              		.loc 1 131 0
  52 0006 B94C     		ldr	r4, .L141+4
  53              	.LBB130:
  54              	.LBB128:
  55              		.loc 2 135 0
  56 0008 BB69     		ldr	r3, [r7, #24]
  57 000a B949     		ldr	r1, .L141+8
ARM GAS  C:\Users\CHRIST~1\AppData\Local\Temp\ccC1S8GE.s 			page 2


  58              	.LBE128:
  59              	.LBE130:
  60              		.loc 1 129 0
  61 000c B94A     		ldr	r2, .L141+12
  62              		.loc 1 131 0
  63 000e 94ED030A 		vldr.32	s0, [r4, #12]
  64 0012 D4ED040A 		vldr.32	s1, [r4, #16]
  65 0016 207E     		ldrb	r0, [r4, #24]	@ zero_extendqisi2
  66              	.LVL1:
  67              		.loc 1 133 0
  68 0018 DFF80C83 		ldr	r8, .L141+64
  69 001c B64E     		ldr	r6, .L141+16
  70              		.loc 1 125 0
  71 001e 2DED0A8B 		vpush.64	{d8, d9, d10, d11, d12}
  72              		.cfi_def_cfa_offset 76
  73              		.cfi_offset 80, -76
  74              		.cfi_offset 81, -72
  75              		.cfi_offset 82, -68
  76              		.cfi_offset 83, -64
  77              		.cfi_offset 84, -60
  78              		.cfi_offset 85, -56
  79              		.cfi_offset 86, -52
  80              		.cfi_offset 87, -48
  81              		.cfi_offset 88, -44
  82              		.cfi_offset 89, -40
  83              	.LBB131:
  84              	.LBB129:
  85              		.loc 2 135 0
  86 0022 9961     		str	r1, [r3, #24]
  87              	.LVL2:
  88              	.LBE129:
  89              	.LBE131:
  90              		.loc 1 125 0
  91 0024 85B0     		sub	sp, sp, #20
  92              		.cfi_def_cfa_offset 96
  93              		.loc 1 129 0
  94 0026 1360     		str	r3, [r2]
  95              		.loc 1 131 0
  96 0028 FFF7FEFF 		bl	servodec_set_pulse_options
  97              	.LVL3:
  98              		.loc 1 132 0
  99 002c B348     		ldr	r0, .L141+20
 100              	.LBB132:
 101              		.loc 1 163 0
 102 002e DFEDB48A 		vldr.32	s17, .L141+24
 103              		.loc 1 187 0
 104 0032 9FEDB4AA 		vldr.32	s20, .L141+28
 105              	.LBB133:
 106              	.LBB134:
 107              	.LBB135:
 108              		.loc 1 289 0
 109 0036 DFEDB49A 		vldr.32	s19, .L141+32
 110 003a 9FEDB49A 		vldr.32	s18, .L141+36
 111              	.LBE135:
 112              	.LBE134:
 113              	.LBE133:
 114              	.LBE132:
ARM GAS  C:\Users\CHRIST~1\AppData\Local\Temp\ccC1S8GE.s 			page 3


 115              		.loc 1 132 0
 116 003e FFF7FEFF 		bl	servodec_init
 117              	.LVL4:
 118              		.loc 1 133 0
 119 0042 0123     		movs	r3, #1
 120 0044 88F80030 		strb	r3, [r8]
 121 0048 1CE0     		b	.L2
 122              	.LVL5:
 123              	.L133:
 124 004a 0122     		movs	r2, #1
 125 004c 02FA03F3 		lsl	r3, r2, r3
 126 0050 13F0A40F 		tst	r3, #164
 127 0054 39D0     		beq	.L4
 128              	.LBB191:
 129              		.loc 1 152 0
 130 0056 9DED037A 		vldr.32	s14, [sp, #12]
 131 005a AD4B     		ldr	r3, .L141+40
 132              		.loc 1 153 0
 133 005c F7EE007A 		vmov.f32	s15, #1.0e+0
 134 0060 77EE277A 		vadd.f32	s15, s14, s15
 135              		.loc 1 154 0
 136 0064 F6EE006A 		vmov.f32	s13, #5.0e-1
 137 0068 67EEA67A 		vmul.f32	s15, s15, s13
 138              		.loc 1 152 0
 139 006c 83ED007A 		vstr.32	s14, [r3]
 140              		.loc 1 154 0
 141 0070 CDED037A 		vstr.32	s15, [sp, #12]
 142              		.loc 1 170 0
 143 0074 FFF7FEFF 		bl	timeout_has_timeout
 144              	.LVL6:
 145 0078 8346     		mov	fp, r0
 146 007a 0028     		cmp	r0, #0
 147 007c 40D0     		beq	.L9
 148              	.L11:
 149              		.loc 1 172 0
 150 007e A54D     		ldr	r5, .L141+44
 151 0080 0023     		movs	r3, #0
 152 0082 2B60     		str	r3, [r5]
 153              	.LVL7:
 154              	.L2:
 155              		.loc 1 136 0
 156 0084 0120     		movs	r0, #1
 157 0086 FFF7FEFF 		bl	chEvtWaitAny
 158              	.LVL8:
 159              		.loc 1 138 0
 160 008a 3378     		ldrb	r3, [r6]	@ zero_extendqisi2
 161 008c 03F0FF05 		and	r5, r3, #255
 162 0090 002B     		cmp	r3, #0
 163 0092 40F08280 		bne	.L132
 164              		.loc 1 143 0
 165 0096 FFF7FEFF 		bl	mc_interface_get_configuration
 166              	.LVL9:
 167 009a 8146     		mov	r9, r0
 168              	.LVL10:
 169              		.loc 1 144 0
 170 009c FFF7FEFF 		bl	mc_interface_get_rpm
 171              	.LVL11:
ARM GAS  C:\Users\CHRIST~1\AppData\Local\Temp\ccC1S8GE.s 			page 4


 172              		.loc 1 145 0
 173 00a0 2846     		mov	r0, r5
 174              		.loc 1 144 0
 175 00a2 B0EE408A 		vmov.f32	s16, s0
 176              	.LVL12:
 177              		.loc 1 145 0
 178 00a6 FFF7FEFF 		bl	servodec_get_servo
 179              	.LVL13:
 180              		.loc 1 146 0
 181 00aa D4ED031A 		vldr.32	s3, [r4, #12]
 182 00ae 94ED042A 		vldr.32	s4, [r4, #16]
 183              		.loc 1 145 0
 184 00b2 8DED030A 		vstr.32	s0, [sp, #12]
 185              		.loc 1 146 0
 186 00b6 B7EE001A 		vmov.f32	s2, #1.0e+0
 187 00ba FFEE000A 		vmov.f32	s1, #-1.0e+0
 188 00be FFF7FEFF 		bl	utils_map
 189              	.LVL14:
 190              		.loc 1 148 0
 191 00c2 2378     		ldrb	r3, [r4]	@ zero_extendqisi2
 192 00c4 DBB2     		uxtb	r3, r3
 193 00c6 072B     		cmp	r3, #7
 194 00c8 BFD9     		bls	.L133
 195              	.L4:
 196              		.loc 1 159 0
 197 00ca D4ED057A 		vldr.32	s15, [r4, #20]
 198 00ce B4EEE70A 		vcmpe.f32	s0, s15
 199 00d2 F1EE10FA 		vmrs	APSR_nzcv, FPSCR
 200 00d6 53D5     		bpl	.L124
 201              		.loc 1 160 0
 202 00d8 D4ED030A 		vldr.32	s1, [r4, #12]
 203 00dc 94ED051A 		vldr.32	s2, [r4, #20]
 204 00e0 B0EE682A 		vmov.f32	s4, s17
 205 00e4 FFEE001A 		vmov.f32	s3, #-1.0e+0
 206 00e8 FFF7FEFF 		bl	utils_map
 207              	.LVL15:
 208 00ec 8DED030A 		vstr.32	s0, [sp, #12]
 209              	.L8:
 210              		.loc 1 166 0
 211 00f0 874B     		ldr	r3, .L141+40
 212 00f2 83ED000A 		vstr.32	s0, [r3]
 213              		.loc 1 170 0
 214 00f6 FFF7FEFF 		bl	timeout_has_timeout
 215              	.LVL16:
 216 00fa 8346     		mov	fp, r0
 217 00fc 0028     		cmp	r0, #0
 218 00fe BED1     		bne	.L11
 219              	.L9:
 220              		.loc 1 170 0 is_stmt 0 discriminator 1
 221 0100 FFF7FEFF 		bl	servodec_get_time_since_update
 222              	.LVL17:
 223 0104 0546     		mov	r5, r0
 224 0106 FFF7FEFF 		bl	timeout_get_timeout_msec
 225              	.LVL18:
 226 010a 8542     		cmp	r5, r0
 227 010c B7D8     		bhi	.L11
 228              		.loc 1 171 0 is_stmt 1 discriminator 2
ARM GAS  C:\Users\CHRIST~1\AppData\Local\Temp\ccC1S8GE.s 			page 5


 229 010e FFF7FEFF 		bl	mc_interface_get_fault
 230              	.LVL19:
 231              		.loc 1 170 0 discriminator 2
 232 0112 0028     		cmp	r0, #0
 233 0114 B3D1     		bne	.L11
 234              		.loc 1 177 0
 235 0116 94ED020A 		vldr.32	s0, [r4, #8]
 236              		.loc 1 185 0
 237 011a 7F4D     		ldr	r5, .L141+48
 238              		.loc 1 177 0
 239 011c F7EE000A 		vmov.f32	s1, #1.0e+0
 240 0120 03A8     		add	r0, sp, #12
 241 0122 FFF7FEFF 		bl	utils_deadband
 242              	.LVL20:
 243              		.loc 1 180 0
 244 0126 D4ED070A 		vldr.32	s1, [r4, #28]
 245 012a 9DED030A 		vldr.32	s0, [sp, #12]
 246 012e 94ED081A 		vldr.32	s2, [r4, #32]
 247 0132 94F82400 		ldrb	r0, [r4, #36]	@ zero_extendqisi2
 248 0136 FFF7FEFF 		bl	utils_throttle_curve
 249              	.LVL21:
 250              		.loc 1 185 0
 251 013a D5ED007A 		vldr.32	s15, [r5]
 252              		.loc 1 180 0
 253 013e 8DED030A 		vstr.32	s0, [sp, #12]
 254              		.loc 1 185 0
 255 0142 B0EEC07A 		vabs.f32	s14, s0
 256 0146 F0EEE77A 		vabs.f32	s15, s15
 257 014a B4EEE77A 		vcmpe.f32	s14, s15
 258 014e F1EE10FA 		vmrs	APSR_nzcv, FPSCR
 259 0152 CCBF     		ite	gt
 260 0154 94ED0A7A 		vldrgt.32	s14, [r4, #40]
 261 0158 94ED0B7A 		vldrle.32	s14, [r4, #44]
 262              	.LVL22:
 263              		.loc 1 187 0
 264 015c B4EECA7A 		vcmpe.f32	s14, s20
 265 0160 F1EE10FA 		vmrs	APSR_nzcv, FPSCR
 266 0164 21DC     		bgt	.L134
 267              	.LVL23:
 268              	.L15:
 269              		.loc 1 199 0
 270 0166 2278     		ldrb	r2, [r4]	@ zero_extendqisi2
 271 0168 013A     		subs	r2, r2, #1
 272 016a 062A     		cmp	r2, #6
 273 016c 8AD8     		bhi	.L2
 274 016e DFE812F0 		tbh	[pc, r2, lsl #1]
 275              	.L18:
 276 0172 9600     		.2byte	(.L17-.L18)/2
 277 0174 9600     		.2byte	(.L17-.L18)/2
 278 0176 7900     		.2byte	(.L19-.L18)/2
 279 0178 E100     		.2byte	(.L20-.L18)/2
 280 017a E100     		.2byte	(.L20-.L18)/2
 281 017c 3F00     		.2byte	(.L21-.L18)/2
 282 017e 3F00     		.2byte	(.L21-.L18)/2
 283              	.LVL24:
 284              		.p2align 1
 285              	.L124:
ARM GAS  C:\Users\CHRIST~1\AppData\Local\Temp\ccC1S8GE.s 			page 6


 286              		.loc 1 163 0
 287 0180 D4ED050A 		vldr.32	s1, [r4, #20]
 288 0184 94ED041A 		vldr.32	s2, [r4, #16]
 289 0188 B7EE002A 		vmov.f32	s4, #1.0e+0
 290 018c F0EE681A 		vmov.f32	s3, s17
 291 0190 FFF7FEFF 		bl	utils_map
 292              	.LVL25:
 293 0194 8DED030A 		vstr.32	s0, [sp, #12]
 294 0198 AAE7     		b	.L8
 295              	.LVL26:
 296              	.L132:
 297              		.loc 1 139 0
 298 019a 0023     		movs	r3, #0
 299 019c 88F80030 		strb	r3, [r8]
 300              	.LBE191:
 301              		.loc 1 363 0
 302 01a0 05B0     		add	sp, sp, #20
 303              		.cfi_remember_state
 304              		.cfi_def_cfa_offset 76
 305              		@ sp needed
 306 01a2 BDEC0A8B 		vldm	sp!, {d8-d12}
 307              		.cfi_restore 88
 308              		.cfi_restore 89
 309              		.cfi_restore 86
 310              		.cfi_restore 87
 311              		.cfi_restore 84
 312              		.cfi_restore 85
 313              		.cfi_restore 82
 314              		.cfi_restore 83
 315              		.cfi_restore 80
 316              		.cfi_restore 81
 317              		.cfi_def_cfa_offset 36
 318 01a6 BDE8F08F 		pop	{r4, r5, r6, r7, r8, r9, r10, fp, pc}
 319              	.LVL27:
 320              	.L134:
 321              		.cfi_restore_state
 322              	.LBB192:
 323              	.LBB144:
 324              		.loc 1 188 0
 325 01aa DFF880A1 		ldr	r10, .L141+68
 326              	.LBB145:
 327              	.LBB146:
 328              	.LBB147:
 329              	.LBB148:
 330              		.file 3 "ChibiOS_3.0.2/os/rt/include/chvt.h"
 331              		.loc 3 231 0
 332 01ae B96A     		ldr	r1, [r7, #40]
 333              	.LVL28:
 334              	.LBE148:
 335              	.LBE147:
 336              		.loc 3 267 0
 337 01b0 DAF80020 		ldr	r2, [r10]
 338              	.LBE146:
 339              	.LBE145:
 340              		.loc 1 188 0
 341 01b4 5948     		ldr	r0, .L141+52
 342 01b6 DFED5A6A 		vldr.32	s13, .L141+56
ARM GAS  C:\Users\CHRIST~1\AppData\Local\Temp\ccC1S8GE.s 			page 7


 343              	.LBB150:
 344              	.LBB149:
 345              		.loc 3 267 0
 346 01ba 8A1A     		subs	r2, r1, r2
 347              	.LBE149:
 348              	.LBE150:
 349              		.loc 1 188 0
 350 01bc 4FF47A7E 		mov	lr, #1000
 351 01c0 42F20F71 		movw	r1, #9999
 352              	.LVL29:
 353 01c4 0EFB0212 		mla	r2, lr, r2, r1
 354 01c8 A0FB0232 		umull	r3, r2, r0, r2
 355 01cc 520B     		lsrs	r2, r2, #13
 356 01ce 07EE902A 		vmov	s15, r2	@ int
 357 01d2 27EE267A 		vmul.f32	s14, s14, s13
 358              	.LVL30:
 359 01d6 F8EEE70A 		vcvt.f32.s32	s1, s15
 360              		.loc 1 189 0
 361 01da 4F48     		ldr	r0, .L141+48
 362 01dc C0EE870A 		vdiv.f32	s1, s1, s14
 363 01e0 FFF7FEFF 		bl	utils_step_towards
 364              	.LVL31:
 365              	.LBB151:
 366              	.LBB152:
 367              		.loc 3 231 0
 368 01e4 BA6A     		ldr	r2, [r7, #40]
 369              	.LBE152:
 370              	.LBE151:
 371              		.loc 1 190 0
 372 01e6 CAF80020 		str	r2, [r10]
 373              		.loc 1 191 0
 374 01ea 2A68     		ldr	r2, [r5]	@ float
 375 01ec 0392     		str	r2, [sp, #12]	@ float
 376 01ee BAE7     		b	.L15
 377              	.LVL32:
 378              	.L21:
 379              	.LBE144:
 380              		.loc 1 242 0
 381 01f0 DDED037A 		vldr.32	s15, [sp, #12]
 382 01f4 9FED4E7A 		vldr.32	s14, .L141+72
 383              		.loc 1 243 0
 384 01f8 464D     		ldr	r5, .L141+44
 385              		.loc 1 242 0
 386 01fa F0EEE76A 		vabs.f32	s13, s15
 387 01fe F4EEC76A 		vcmpe.f32	s13, s14
 388 0202 F1EE10FA 		vmrs	APSR_nzcv, FPSCR
 389 0206 02D5     		bpl	.L38
 390              		.loc 1 243 0
 391 0208 2A68     		ldr	r2, [r5]
 392 020a 0132     		adds	r2, r2, #1
 393 020c 2A60     		str	r2, [r5]
 394              	.L38:
 395              		.loc 1 246 0
 396 020e 2A68     		ldr	r2, [r5]
 397 0210 312A     		cmp	r2, #49
 398 0212 03DC     		bgt	.L40
 399              		.loc 1 246 0 is_stmt 0 discriminator 1
ARM GAS  C:\Users\CHRIST~1\AppData\Local\Temp\ccC1S8GE.s 			page 8


 400 0214 627E     		ldrb	r2, [r4, #25]	@ zero_extendqisi2
 401 0216 002A     		cmp	r2, #0
 402 0218 40F06B81 		bne	.L41
 403              	.L40:
 404              		.loc 1 247 0 is_stmt 1
 405 021c 94ED010A 		vldr.32	s0, [r4, #4]
 406              		.loc 1 194 0
 407 0220 DFED37AA 		vldr.32	s21, .L141+24
 408              		.loc 1 247 0
 409 0224 27EE800A 		vmul.f32	s0, s15, s0
 410              		.loc 1 196 0
 411 0228 4FF0000A 		mov	r10, #0
 412              		.loc 1 247 0
 413 022c FFF7FEFF 		bl	mc_interface_set_pid_speed
 414              	.LVL33:
 415              		.loc 1 248 0
 416 0230 4FF0010B 		mov	fp, #1
 417              		.loc 1 195 0
 418 0234 CDF804A0 		str	r10, [sp, #4]
 419              	.LVL34:
 420              	.L29:
 421              		.loc 1 256 0
 422 0238 2A68     		ldr	r2, [r5]
 423 023a 312A     		cmp	r2, #49
 424 023c 00F3A780 		bgt	.L42
 425              		.loc 1 256 0 is_stmt 0 discriminator 1
 426 0240 627E     		ldrb	r2, [r4, #25]	@ zero_extendqisi2
 427 0242 002A     		cmp	r2, #0
 428 0244 00F0A380 		beq	.L42
 429              	.LBB153:
 430              		.loc 1 258 0 is_stmt 1
 431 0248 364B     		ldr	r3, .L141+60
 432 024a 2968     		ldr	r1, [r5]
 433 024c 1A68     		ldr	r2, [r3]
 434 024e 9142     		cmp	r1, r2
 435              		.loc 1 259 0
 436 0250 04BF     		itt	eq
 437 0252 0022     		moveq	r2, #0
 438 0254 2A60     		streq	r2, [r5]
 439              		.loc 1 261 0
 440 0256 2A68     		ldr	r2, [r5]
 441 0258 1A60     		str	r2, [r3]
 442              		.loc 1 262 0
 443 025a FFF7FEFF 		bl	timeout_get_brake_current
 444              	.LVL35:
 445 025e FFF7FEFF 		bl	mc_interface_set_brake_current
 446              	.LVL36:
 447              		.loc 1 263 0
 448 0262 0FE7     		b	.L2
 449              	.LVL37:
 450              	.L19:
 451              	.LBE153:
 452              		.loc 1 216 0
 453 0264 DDED037A 		vldr.32	s15, [sp, #12]
 454 0268 F5EEC07A 		vcmpe.f32	s15, #0
 455 026c F1EE10FA 		vmrs	APSR_nzcv, FPSCR
 456 0270 C0F2B981 		blt	.L127
ARM GAS  C:\Users\CHRIST~1\AppData\Local\Temp\ccC1S8GE.s 			page 9


 457              		.loc 1 217 0
 458 0274 D9ED1CAA 		vldr.32	s21, [r9, #112]
 459 0278 67EEAAAA 		vmul.f32	s21, s15, s21
 460              	.LVL38:
 461              		.loc 1 196 0
 462 027c 4FF0000A 		mov	r10, #0
 463              	.LVL39:
 464              	.L33:
 465              		.loc 1 223 0
 466 0280 9FED2B7A 		vldr.32	s14, .L141+72
 467              		.loc 1 224 0
 468 0284 234D     		ldr	r5, .L141+44
 469              		.loc 1 223 0
 470 0286 F4EEC77A 		vcmpe.f32	s15, s14
 471 028a F1EE10FA 		vmrs	APSR_nzcv, FPSCR
 472 028e 40F13781 		bpl	.L128
 473              		.loc 1 224 0
 474 0292 2A68     		ldr	r2, [r5]
 475              		.loc 1 215 0
 476 0294 0123     		movs	r3, #1
 477              		.loc 1 224 0
 478 0296 0132     		adds	r2, r2, #1
 479 0298 2A60     		str	r2, [r5]
 480              		.loc 1 215 0
 481 029a 0193     		str	r3, [sp, #4]
 482 029c CCE7     		b	.L29
 483              	.LVL40:
 484              	.L17:
 485              		.loc 1 203 0
 486 029e DDED037A 		vldr.32	s15, [sp, #12]
 487 02a2 F5EEC07A 		vcmpe.f32	s15, #0
 488 02a6 F1EE10FA 		vmrs	APSR_nzcv, FPSCR
 489 02aa C0F23281 		blt	.L22
 490              		.loc 1 203 0 is_stmt 0 discriminator 1
 491 02ae B5EEC08A 		vcmpe.f32	s16, #0
 492 02b2 F1EE10FA 		vmrs	APSR_nzcv, FPSCR
 493 02b6 40F32C81 		ble	.L22
 494              	.L24:
 495              		.loc 1 204 0 is_stmt 1
 496 02ba D9ED1CAA 		vldr.32	s21, [r9, #112]
 497 02be 67EEAAAA 		vmul.f32	s21, s15, s21
 498              	.LVL41:
 499              	.L28:
 500              		.loc 1 209 0
 501 02c2 9FED1B7A 		vldr.32	s14, .L141+72
 502 02c6 F0EEE77A 		vabs.f32	s15, s15
 503 02ca F4EEC77A 		vcmpe.f32	s15, s14
 504 02ce F1EE10FA 		vmrs	APSR_nzcv, FPSCR
 505 02d2 40F11881 		bpl	.L126
 506              		.loc 1 210 0
 507 02d6 0F4D     		ldr	r5, .L141+44
 508 02d8 2A68     		ldr	r2, [r5]
 509              		.loc 1 202 0
 510 02da 0123     		movs	r3, #1
 511              		.loc 1 210 0
 512 02dc 0132     		adds	r2, r2, #1
 513 02de 2A60     		str	r2, [r5]
ARM GAS  C:\Users\CHRIST~1\AppData\Local\Temp\ccC1S8GE.s 			page 10


 514              		.loc 1 196 0
 515 02e0 4FF0000A 		mov	r10, #0
 516              		.loc 1 202 0
 517 02e4 0193     		str	r3, [sp, #4]
 518 02e6 A7E7     		b	.L29
 519              	.L142:
 520              		.align	2
 521              	.L141:
 522 02e8 00000000 		.word	ch
 523 02ec 00000000 		.word	.LANCHOR1
 524 02f0 00000000 		.word	.LC0
 525 02f4 00000000 		.word	.LANCHOR0
 526 02f8 00000000 		.word	.LANCHOR3
 527 02fc 00000000 		.word	servodec_func
 528 0300 00000000 		.word	0
 529 0304 0AD7233C 		.word	1008981770
 530 0308 00401C46 		.word	1176256512
 531 030c CDCCCC3D 		.word	1036831949
 532 0310 00000000 		.word	.LANCHOR4
 533 0314 00000000 		.word	.LANCHOR5
 534 0318 00000000 		.word	.LANCHOR6
 535 031c 5917B7D1 		.word	-776530087
 536 0320 00007A44 		.word	1148846080
 537 0324 00000000 		.word	.LANCHOR8
 538 0328 00000000 		.word	.LANCHOR2
 539 032c 00000000 		.word	.LANCHOR7
 540 0330 6F12833A 		.word	981668463
 541              	.LVL42:
 542              	.L20:
 543              		.loc 1 230 0
 544 0334 9DED030A 		vldr.32	s0, [sp, #12]
 545 0338 5FED037A 		vldr.32	s15, .L141+72
 546              		.loc 1 231 0
 547 033c C34D     		ldr	r5, .L143
 548              		.loc 1 230 0
 549 033e B0EEC07A 		vabs.f32	s14, s0
 550 0342 B4EEE77A 		vcmpe.f32	s14, s15
 551 0346 F1EE10FA 		vmrs	APSR_nzcv, FPSCR
 552 034a 02D5     		bpl	.L35
 553              		.loc 1 231 0
 554 034c 2A68     		ldr	r2, [r5]
 555 034e 0132     		adds	r2, r2, #1
 556 0350 2A60     		str	r2, [r5]
 557              	.L35:
 558              		.loc 1 234 0
 559 0352 2A68     		ldr	r2, [r5]
 560 0354 312A     		cmp	r2, #49
 561 0356 03DC     		bgt	.L37
 562              		.loc 1 234 0 is_stmt 0 discriminator 1
 563 0358 627E     		ldrb	r2, [r4, #25]	@ zero_extendqisi2
 564 035a 002A     		cmp	r2, #0
 565 035c 40F0C980 		bne	.L41
 566              	.L37:
 567              		.loc 1 235 0 is_stmt 1
 568 0360 D9ED151A 		vldr.32	s3, [r9, #84]
 569 0364 99ED152A 		vldr.32	s4, [r9, #84]
 570              		.loc 1 194 0
ARM GAS  C:\Users\CHRIST~1\AppData\Local\Temp\ccC1S8GE.s 			page 11


 571 0368 DFEDB9AA 		vldr.32	s21, .L143+4
 572              		.loc 1 235 0
 573 036c F1EE611A 		vneg.f32	s3, s3
 574 0370 B7EE001A 		vmov.f32	s2, #1.0e+0
 575 0374 FFEE000A 		vmov.f32	s1, #-1.0e+0
 576 0378 FFF7FEFF 		bl	utils_map
 577              	.LVL43:
 578              		.loc 1 196 0
 579 037c 4FF0000A 		mov	r10, #0
 580              		.loc 1 235 0
 581 0380 FFF7FEFF 		bl	mc_interface_set_duty
 582              	.LVL44:
 583              		.loc 1 236 0
 584 0384 4FF0010B 		mov	fp, #1
 585              		.loc 1 195 0
 586 0388 CDF804A0 		str	r10, [sp, #4]
 587 038c 54E7     		b	.L29
 588              	.LVL45:
 589              	.L42:
 590              		.loc 1 267 0
 591 038e FFF7FEFF 		bl	mc_interface_get_rpm
 592              	.LVL46:
 593              		.loc 1 269 0
 594 0392 94F83020 		ldrb	r2, [r4, #48]	@ zero_extendqisi2
 595              		.loc 1 267 0
 596 0396 B0EE40BA 		vmov.f32	s22, s0
 597              	.LVL47:
 598 039a B0EE408A 		vmov.f32	s16, s0
 599              	.LVL48:
 600              		.loc 1 269 0
 601 039e 2AB3     		cbz	r2, .L44
 602 03a0 0025     		movs	r5, #0
 603              	.LVL49:
 604              	.L47:
 605              	.LBB154:
 606              	.LBB155:
 607              		.loc 1 271 0
 608 03a2 2846     		mov	r0, r5
 609 03a4 FFF7FEFF 		bl	comm_can_get_status_msg_index
 610              	.LVL50:
 611              		.loc 1 273 0
 612 03a8 0268     		ldr	r2, [r0]
 613 03aa 002A     		cmp	r2, #0
 614              	.LBE155:
 615              		.loc 1 270 0
 616 03ac 05F10105 		add	r5, r5, #1
 617              	.LVL51:
 618              	.LBB162:
 619              		.loc 1 273 0
 620 03b0 1ADB     		blt	.L45
 621              	.LBB156:
 622              	.LBB157:
 623              	.LBB158:
 624              	.LBB159:
 625              		.loc 3 231 0 discriminator 1
 626 03b2 BA6A     		ldr	r2, [r7, #40]
 627              	.LVL52:
ARM GAS  C:\Users\CHRIST~1\AppData\Local\Temp\ccC1S8GE.s 			page 12


 628              	.LBE159:
 629              	.LBE158:
 630              		.loc 3 267 0 discriminator 1
 631 03b4 4168     		ldr	r1, [r0, #4]
 632 03b6 521A     		subs	r2, r2, r1
 633              	.LBE157:
 634              	.LBE156:
 635              		.loc 1 273 0 discriminator 1
 636 03b8 07EE902A 		vmov	s15, r2	@ int
 637 03bc F8EE677A 		vcvt.f32.u32	s15, s15
 638              	.LBB160:
 639              		.loc 1 276 0 discriminator 1
 640 03c0 F0EEC86A 		vabs.f32	s13, s16
 641              	.LBE160:
 642              		.loc 1 273 0 discriminator 1
 643 03c4 87EEA97A 		vdiv.f32	s14, s15, s19
 644 03c8 B4EEC97A 		vcmpe.f32	s14, s18
 645 03cc F1EE10FA 		vmrs	APSR_nzcv, FPSCR
 646 03d0 0AD5     		bpl	.L45
 647              	.LBB161:
 648              		.loc 1 274 0
 649 03d2 D0ED027A 		vldr.32	s15, [r0, #8]
 650              	.LVL53:
 651              		.loc 1 276 0
 652 03d6 B0EEE77A 		vabs.f32	s14, s15
 653              		.loc 1 277 0
 654 03da B4EE667A 		vcmp.f32	s14, s13
 655 03de F1EE10FA 		vmrs	APSR_nzcv, FPSCR
 656 03e2 48BF     		it	mi
 657 03e4 B0EE678A 		vmovmi.f32	s16, s15
 658              	.LVL54:
 659              	.L45:
 660              	.LBE161:
 661              	.LBE162:
 662              		.loc 1 270 0 discriminator 2
 663 03e8 0A2D     		cmp	r5, #10
 664 03ea DAD1     		bne	.L47
 665              	.LVL55:
 666              	.L44:
 667              	.LBE154:
 668              		.loc 1 283 0
 669 03ec BBF1000F 		cmp	fp, #0
 670 03f0 04D0     		beq	.L51
 671              		.loc 1 283 0 is_stmt 0 discriminator 1
 672 03f2 94F83030 		ldrb	r3, [r4, #48]	@ zero_extendqisi2
 673 03f6 002B     		cmp	r3, #0
 674 03f8 40F0D080 		bne	.L135
 675              	.L51:
 676              		.loc 1 295 0 is_stmt 1
 677 03fc 019B     		ldr	r3, [sp, #4]
 678 03fe 002B     		cmp	r3, #0
 679 0400 3FF440AE 		beq	.L2
 680              		.loc 1 296 0
 681 0404 BAF1000F 		cmp	r10, #0
 682 0408 40F0A380 		bne	.L136
 683              	.LVL56:
 684              	.LBB163:
ARM GAS  C:\Users\CHRIST~1\AppData\Local\Temp\ccC1S8GE.s 			page 13


 685              		.loc 1 310 0
 686 040c F5EEC0AA 		vcmpe.f32	s21, #0
 687 0410 F1EE10FA 		vmrs	APSR_nzcv, FPSCR
 688              		.loc 1 319 0
 689 0414 94F83030 		ldrb	r3, [r4, #48]	@ zero_extendqisi2
 690              		.loc 1 310 0
 691 0418 00F1EE80 		bmi	.L60
 692              		.loc 1 319 0
 693 041c 002B     		cmp	r3, #0
 694 041e 00F08580 		beq	.L62
 695              	.LVL57:
 696              	.L61:
 697              	.LBE163:
 698              	.LBB177:
 699              		.loc 1 300 0 discriminator 1
 700 0422 F0EE6ABA 		vmov.f32	s23, s21
 701              	.LBE177:
 702              	.LBB184:
 703              	.LBB164:
 704              	.LBB165:
 705              	.LBB166:
 706              		.loc 1 332 0 discriminator 1
 707 0426 9FED8BCA 		vldr.32	s24, .L143+8
 708              	.LBE166:
 709              	.LBE165:
 710              	.LBE164:
 711              	.LBE184:
 712              	.LBB185:
 713              		.loc 1 300 0 discriminator 1
 714 042a 0025     		movs	r5, #0
 715 042c 28E0     		b	.L73
 716              	.LVL58:
 717              	.L138:
 718              	.LBE185:
 719              	.LBB186:
 720              	.LBB175:
 721              	.LBB173:
 722              	.LBB167:
 723              		.loc 1 325 0
 724 042e 90ED020A 		vldr.32	s0, [r0, #8]
 725              	.LVL59:
 726 0432 0190     		str	r0, [sp, #4]
 727              		.loc 1 331 0
 728 0434 94ED0D1A 		vldr.32	s2, [r4, #52]
 729 0438 DFED850A 		vldr.32	s1, .L143+4
 730              		.loc 1 326 0
 731 043c BAF1000F 		cmp	r10, #0
 732 0440 3CD0     		beq	.L67
 733              		.loc 1 327 0
 734 0442 B1EE400A 		vneg.f32	s0, s0
 735              	.LVL60:
 736              		.loc 1 331 0
 737 0446 30EE480A 		vsub.f32	s0, s0, s16
 738              	.LVL61:
 739 044a B0EE682A 		vmov.f32	s4, s17
 740 044e F0EE6A1A 		vmov.f32	s3, s21
 741 0452 FFF7FEFF 		bl	utils_map
ARM GAS  C:\Users\CHRIST~1\AppData\Local\Temp\ccC1S8GE.s 			page 14


 742              	.LVL62:
 743              		.loc 1 332 0
 744 0456 D9ED4F7A 		vldr.32	s15, [r9, #316]
 745 045a 0198     		ldr	r0, [sp, #4]
 746 045c F4EEC07A 		vcmpe.f32	s15, s0
 747 0460 F1EE10FA 		vmrs	APSR_nzcv, FPSCR
 748              		.loc 1 331 0
 749 0464 F0EE40BA 		vmov.f32	s23, s0
 750              	.LVL63:
 751 0468 0168     		ldr	r1, [r0]
 752              		.loc 1 332 0
 753 046a 24DD     		ble	.L71
 754              		.loc 1 333 0
 755 046c DFED78BA 		vldr.32	s23, .L143+4
 756              		.loc 1 332 0
 757 0470 B0EE4C0A 		vmov.f32	s0, s24
 758              	.LVL64:
 759              	.L70:
 760              	.LBE167:
 761              		.loc 1 338 0
 762 0474 C8B2     		uxtb	r0, r1
 763 0476 FFF7FEFF 		bl	comm_can_set_current
 764              	.LVL65:
 765              	.L64:
 766              	.LBE173:
 767              		.loc 1 320 0 discriminator 2
 768 047a 0135     		adds	r5, r5, #1
 769              	.LVL66:
 770 047c 0A2D     		cmp	r5, #10
 771 047e 5AD0     		beq	.L137
 772              	.LVL67:
 773              	.L73:
 774              	.LBB174:
 775              		.loc 1 321 0
 776 0480 2846     		mov	r0, r5
 777 0482 FFF7FEFF 		bl	comm_can_get_status_msg_index
 778              	.LVL68:
 779              		.loc 1 323 0
 780 0486 0168     		ldr	r1, [r0]
 781 0488 0029     		cmp	r1, #0
 782 048a F6DB     		blt	.L64
 783              	.LVL69:
 784              	.LBB168:
 785              	.LBB169:
 786              	.LBB170:
 787              	.LBB171:
 788              		.loc 3 231 0 discriminator 1
 789 048c BB6A     		ldr	r3, [r7, #40]
 790              	.LVL70:
 791              	.LBE171:
 792              	.LBE170:
 793              		.loc 3 267 0 discriminator 1
 794 048e 4268     		ldr	r2, [r0, #4]
 795 0490 9B1A     		subs	r3, r3, r2
 796              	.LBE169:
 797              	.LBE168:
 798              		.loc 1 323 0 discriminator 1
ARM GAS  C:\Users\CHRIST~1\AppData\Local\Temp\ccC1S8GE.s 			page 15


 799 0492 07EE903A 		vmov	s15, r3	@ int
 800 0496 F8EE677A 		vcvt.f32.u32	s15, s15
 801 049a 87EEA97A 		vdiv.f32	s14, s15, s19
 802 049e B4EEC97A 		vcmpe.f32	s14, s18
 803 04a2 F1EE10FA 		vmrs	APSR_nzcv, FPSCR
 804 04a6 E8D5     		bpl	.L64
 805              		.loc 1 324 0
 806 04a8 94F83130 		ldrb	r3, [r4, #49]	@ zero_extendqisi2
 807 04ac 002B     		cmp	r3, #0
 808 04ae BED1     		bne	.L138
 809              		.loc 1 337 0
 810 04b0 BAF1000F 		cmp	r10, #0
 811 04b4 17D0     		beq	.L72
 812              	.LVL71:
 813              	.L71:
 814 04b6 B1EE6B0A 		vneg.f32	s0, s23
 815 04ba DBE7     		b	.L70
 816              	.LVL72:
 817              	.L67:
 818              	.LBB172:
 819              		.loc 1 331 0
 820 04bc 30EE480A 		vsub.f32	s0, s0, s16
 821              	.LVL73:
 822 04c0 B0EE682A 		vmov.f32	s4, s17
 823 04c4 F0EE6A1A 		vmov.f32	s3, s21
 824 04c8 FFF7FEFF 		bl	utils_map
 825              	.LVL74:
 826              		.loc 1 332 0
 827 04cc D9ED4F7A 		vldr.32	s15, [r9, #316]
 828 04d0 0198     		ldr	r0, [sp, #4]
 829 04d2 B4EEE70A 		vcmpe.f32	s0, s15
 830 04d6 F1EE10FA 		vmrs	APSR_nzcv, FPSCR
 831              		.loc 1 331 0
 832 04da F0EE40BA 		vmov.f32	s23, s0
 833              	.LVL75:
 834 04de 0168     		ldr	r1, [r0]
 835              		.loc 1 332 0
 836 04e0 01D5     		bpl	.L72
 837              		.loc 1 333 0
 838 04e2 DFED5BBA 		vldr.32	s23, .L143+4
 839              	.LVL76:
 840              	.L72:
 841              	.LBE172:
 842              		.loc 1 340 0
 843 04e6 C8B2     		uxtb	r0, r1
 844 04e8 B0EE6B0A 		vmov.f32	s0, s23
 845 04ec FFF7FEFF 		bl	comm_can_set_current
 846              	.LVL77:
 847 04f0 C3E7     		b	.L64
 848              	.LVL78:
 849              	.L41:
 850              	.LBE174:
 851              	.LBE175:
 852              	.LBE186:
 853              		.loc 1 196 0
 854 04f2 4FF0000A 		mov	r10, #0
 855              		.loc 1 195 0
ARM GAS  C:\Users\CHRIST~1\AppData\Local\Temp\ccC1S8GE.s 			page 16


 856 04f6 CDF804A0 		str	r10, [sp, #4]
 857              		.loc 1 194 0
 858 04fa DFED55AA 		vldr.32	s21, .L143+4
 859 04fe 9BE6     		b	.L29
 860              	.LVL79:
 861              	.L128:
 862              		.loc 1 215 0
 863 0500 0123     		movs	r3, #1
 864 0502 0193     		str	r3, [sp, #4]
 865 0504 98E6     		b	.L29
 866              	.LVL80:
 867              	.L126:
 868              		.loc 1 202 0
 869 0506 0123     		movs	r3, #1
 870              		.loc 1 196 0
 871 0508 4FF0000A 		mov	r10, #0
 872              		.loc 1 202 0
 873 050c 0193     		str	r3, [sp, #4]
 874 050e 4F4D     		ldr	r5, .L143
 875 0510 92E6     		b	.L29
 876              	.LVL81:
 877              	.L22:
 878              		.loc 1 203 0 discriminator 3
 879 0512 F5EEC07A 		vcmpe.f32	s15, #0
 880 0516 F1EE10FA 		vmrs	APSR_nzcv, FPSCR
 881 051a 00F19080 		bmi	.L139
 882              	.L25:
 883              		.loc 1 206 0
 884 051e D9ED1DAA 		vldr.32	s21, [r9, #116]
 885 0522 F0EEEAAA 		vabs.f32	s21, s21
 886 0526 6AEEA7AA 		vmul.f32	s21, s21, s15
 887              	.LVL82:
 888 052a CAE6     		b	.L28
 889              	.LVL83:
 890              	.L62:
 891              	.LBB187:
 892              		.loc 1 357 0
 893 052c B0EE6A0A 		vmov.f32	s0, s21
 894 0530 FFF7FEFF 		bl	mc_interface_set_current
 895              	.LVL84:
 896 0534 A6E5     		b	.L2
 897              	.LVL85:
 898              	.L137:
 899              		.loc 1 345 0
 900 0536 94F83130 		ldrb	r3, [r4, #49]	@ zero_extendqisi2
 901 053a 002B     		cmp	r3, #0
 902 053c 67D1     		bne	.L140
 903              	.LVL86:
 904              	.L74:
 905 053e F0EE6BAA 		vmov.f32	s21, s23
 906              	.LVL87:
 907              		.loc 1 354 0
 908 0542 BAF1000F 		cmp	r10, #0
 909 0546 F1D0     		beq	.L62
 910              	.LVL88:
 911              	.L63:
 912              		.loc 1 355 0
ARM GAS  C:\Users\CHRIST~1\AppData\Local\Temp\ccC1S8GE.s 			page 17


 913 0548 B1EE6A0A 		vneg.f32	s0, s21
 914 054c FFF7FEFF 		bl	mc_interface_set_current
 915              	.LVL89:
 916 0550 98E5     		b	.L2
 917              	.LVL90:
 918              	.L136:
 919              	.LBE187:
 920              		.loc 1 297 0
 921 0552 B0EE6A0A 		vmov.f32	s0, s21
 922 0556 FFF7FEFF 		bl	mc_interface_set_brake_current
 923              	.LVL91:
 924              	.LBB188:
 925              		.loc 1 300 0
 926 055a 0025     		movs	r5, #0
 927 055c 02E0     		b	.L59
 928              	.LVL92:
 929              	.L57:
 930              		.loc 1 300 0 is_stmt 0 discriminator 2
 931 055e 0A2D     		cmp	r5, #10
 932 0560 3FF490AD 		beq	.L2
 933              	.LVL93:
 934              	.L59:
 935              	.LBB178:
 936              		.loc 1 301 0 is_stmt 1
 937 0564 2846     		mov	r0, r5
 938 0566 FFF7FEFF 		bl	comm_can_get_status_msg_index
 939              	.LVL94:
 940              		.loc 1 303 0
 941 056a 0268     		ldr	r2, [r0]
 942 056c 002A     		cmp	r2, #0
 943              	.LBE178:
 944              		.loc 1 300 0
 945 056e 05F10105 		add	r5, r5, #1
 946              	.LVL95:
 947              	.LBB183:
 948              		.loc 1 303 0
 949 0572 F4DB     		blt	.L57
 950              	.LBB179:
 951              	.LBB180:
 952              		.loc 3 267 0 discriminator 1
 953 0574 4168     		ldr	r1, [r0, #4]
 954              	.LBB181:
 955              	.LBB182:
 956              		.loc 3 231 0 discriminator 1
 957 0576 BB6A     		ldr	r3, [r7, #40]
 958              	.LVL96:
 959              	.LBE182:
 960              	.LBE181:
 961              		.loc 3 267 0 discriminator 1
 962 0578 5B1A     		subs	r3, r3, r1
 963              	.LBE180:
 964              	.LBE179:
 965              		.loc 1 303 0 discriminator 1
 966 057a 07EE903A 		vmov	s15, r3	@ int
 967 057e F8EE677A 		vcvt.f32.u32	s15, s15
 968 0582 87EEA97A 		vdiv.f32	s14, s15, s19
 969 0586 B4EEC97A 		vcmpe.f32	s14, s18
ARM GAS  C:\Users\CHRIST~1\AppData\Local\Temp\ccC1S8GE.s 			page 18


 970 058a F1EE10FA 		vmrs	APSR_nzcv, FPSCR
 971 058e E6D5     		bpl	.L57
 972              		.loc 1 304 0
 973 0590 D0B2     		uxtb	r0, r2
 974              	.LVL97:
 975 0592 B0EE6A0A 		vmov.f32	s0, s21
 976 0596 FFF7FEFF 		bl	comm_can_set_current_brake
 977              	.LVL98:
 978 059a E0E7     		b	.L57
 979              	.LVL99:
 980              	.L135:
 981              	.LBE183:
 982              	.LBE188:
 983              	.LBB189:
 984              		.loc 1 284 0
 985 059c FFF7FEFF 		bl	mc_interface_get_tot_current_directional_filtered
 986              	.LVL100:
 987              	.LBB142:
 988              		.loc 1 286 0
 989 05a0 0025     		movs	r5, #0
 990              	.LBE142:
 991              		.loc 1 284 0
 992 05a2 F0EE40BA 		vmov.f32	s23, s0
 993              	.LVL101:
 994 05a6 02E0     		b	.L54
 995              	.LVL102:
 996              	.L52:
 997              	.LBB143:
 998              		.loc 1 286 0 discriminator 2
 999 05a8 0A2D     		cmp	r5, #10
 1000 05aa 3FF427AF 		beq	.L51
 1001              	.LVL103:
 1002              	.L54:
 1003              	.LBB140:
 1004              		.loc 1 287 0
 1005 05ae 2846     		mov	r0, r5
 1006 05b0 FFF7FEFF 		bl	comm_can_get_status_msg_index
 1007              	.LVL104:
 1008              		.loc 1 289 0
 1009 05b4 0268     		ldr	r2, [r0]
 1010 05b6 002A     		cmp	r2, #0
 1011              	.LBE140:
 1012              		.loc 1 286 0
 1013 05b8 05F10105 		add	r5, r5, #1
 1014              	.LVL105:
 1015              	.LBB141:
 1016              		.loc 1 289 0
 1017 05bc F4DB     		blt	.L52
 1018              	.LBB136:
 1019              	.LBB137:
 1020              		.loc 3 267 0 discriminator 1
 1021 05be 4168     		ldr	r1, [r0, #4]
 1022              	.LBB138:
 1023              	.LBB139:
 1024              		.loc 3 231 0 discriminator 1
 1025 05c0 BB6A     		ldr	r3, [r7, #40]
 1026              	.LVL106:
ARM GAS  C:\Users\CHRIST~1\AppData\Local\Temp\ccC1S8GE.s 			page 19


 1027              	.LBE139:
 1028              	.LBE138:
 1029              		.loc 3 267 0 discriminator 1
 1030 05c2 5B1A     		subs	r3, r3, r1
 1031              	.LBE137:
 1032              	.LBE136:
 1033              		.loc 1 289 0 discriminator 1
 1034 05c4 07EE903A 		vmov	s15, r3	@ int
 1035 05c8 F8EE677A 		vcvt.f32.u32	s15, s15
 1036 05cc 87EEA97A 		vdiv.f32	s14, s15, s19
 1037 05d0 B4EEC97A 		vcmpe.f32	s14, s18
 1038 05d4 F1EE10FA 		vmrs	APSR_nzcv, FPSCR
 1039 05d8 E6D5     		bpl	.L52
 1040              		.loc 1 290 0
 1041 05da D0B2     		uxtb	r0, r2
 1042              	.LVL107:
 1043 05dc B0EE6B0A 		vmov.f32	s0, s23
 1044 05e0 FFF7FEFF 		bl	comm_can_set_current
 1045              	.LVL108:
 1046 05e4 E0E7     		b	.L52
 1047              	.LVL109:
 1048              	.L127:
 1049              	.LBE141:
 1050              	.LBE143:
 1051              	.LBE189:
 1052              		.loc 1 219 0
 1053 05e6 D9ED1DAA 		vldr.32	s21, [r9, #116]
 1054 05ea 67EEAAAA 		vmul.f32	s21, s15, s21
 1055              		.loc 1 220 0
 1056 05ee 4FF0010A 		mov	r10, #1
 1057              		.loc 1 219 0
 1058 05f2 F0EEEAAA 		vabs.f32	s21, s21
 1059              	.LVL110:
 1060 05f6 43E6     		b	.L33
 1061              	.LVL111:
 1062              	.L60:
 1063              	.LBB190:
 1064              		.loc 1 312 0
 1065 05f8 F1EE6AAA 		vneg.f32	s21, s21
 1066              	.LVL112:
 1067              		.loc 1 319 0
 1068 05fc 03F0FF0A 		and	r10, r3, #255
 1069              	.LVL113:
 1070 0600 002B     		cmp	r3, #0
 1071 0602 A1D0     		beq	.L63
 1072              		.loc 1 314 0
 1073 0604 B1EE4BBA 		vneg.f32	s22, s22
 1074              	.LVL114:
 1075              		.loc 1 315 0
 1076 0608 B1EE488A 		vneg.f32	s16, s16
 1077              	.LVL115:
 1078 060c 09E7     		b	.L61
 1079              	.LVL116:
 1080              	.L140:
 1081              	.LBB176:
 1082              		.loc 1 347 0
 1083 060e 94ED0D1A 		vldr.32	s2, [r4, #52]
ARM GAS  C:\Users\CHRIST~1\AppData\Local\Temp\ccC1S8GE.s 			page 20


 1084 0612 DFED0F0A 		vldr.32	s1, .L143+4
 1085 0616 F0EE6A1A 		vmov.f32	s3, s21
 1086 061a 3BEE480A 		vsub.f32	s0, s22, s16
 1087              	.LVL117:
 1088 061e B0EE682A 		vmov.f32	s4, s17
 1089 0622 FFF7FEFF 		bl	utils_map
 1090              	.LVL118:
 1091              		.loc 1 348 0
 1092 0626 D9ED4F7A 		vldr.32	s15, [r9, #316]
 1093              		.loc 1 349 0
 1094 062a B4EE670A 		vcmp.f32	s0, s15
 1095              		.loc 1 347 0
 1096 062e F0EE40BA 		vmov.f32	s23, s0
 1097              	.LVL119:
 1098              		.loc 1 349 0
 1099 0632 F1EE10FA 		vmrs	APSR_nzcv, FPSCR
 1100 0636 48BF     		it	mi
 1101 0638 F0EE68BA 		vmovmi.f32	s23, s17
 1102 063c 7FE7     		b	.L74
 1103              	.LVL120:
 1104              	.L139:
 1105              	.LBE176:
 1106              	.LBE190:
 1107              		.loc 1 203 0 discriminator 4
 1108 063e B5EEC08A 		vcmpe.f32	s16, #0
 1109 0642 F1EE10FA 		vmrs	APSR_nzcv, FPSCR
 1110 0646 7FF56AAF 		bpl	.L25
 1111 064a 36E6     		b	.L24
 1112              	.L144:
 1113              		.align	2
 1114              	.L143:
 1115 064c 00000000 		.word	.LANCHOR5
 1116 0650 00000000 		.word	0
 1117 0654 00000080 		.word	-2147483648
 1118              	.LBE192:
 1119              		.cfi_endproc
 1120              	.LFE262:
 1121              		.size	ppm_thread, .-ppm_thread
 1122              		.section	.text.servodec_func,"ax",%progbits
 1123              		.align	1
 1124              		.p2align 4,,15
 1125              		.syntax unified
 1126              		.thumb
 1127              		.thumb_func
 1128              		.fpu fpv4-sp-d16
 1129              		.type	servodec_func, %function
 1130              	servodec_func:
 1131              	.LFB260:
 1132              		.loc 1 107 0
 1133              		.cfi_startproc
 1134              		@ args = 0, pretend = 0, frame = 0
 1135              		@ frame_needed = 0, uses_anonymous_args = 0
 1136              	.LVL121:
 1137 0000 08B5     		push	{r3, lr}
 1138              		.cfi_def_cfa_offset 8
 1139              		.cfi_offset 3, -8
 1140              		.cfi_offset 14, -4
ARM GAS  C:\Users\CHRIST~1\AppData\Local\Temp\ccC1S8GE.s 			page 21


 1141              	.LBB193:
 1142              	.LBB194:
 1143              	.LBB195:
 1144              	.LBB196:
 1145              	.LBB197:
 1146              		.file 4 "ChibiOS_3.0.2/os/ext/CMSIS/include/core_cmFunc.h"
 1147              		.loc 4 546 0
 1148 0002 2023     		movs	r3, #32
 1149              		.syntax unified
 1150              	@ 546 "ChibiOS_3.0.2/os/ext/CMSIS/include/core_cmFunc.h" 1
 1151 0004 83F31188 		MSR basepri, r3
 1152              	@ 0 "" 2
 1153              	.LVL122:
 1154              		.thumb
 1155              		.syntax unified
 1156              	.LBE197:
 1157              	.LBE196:
 1158              	.LBE195:
 1159              	.LBE194:
 1160              	.LBE193:
 1161              		.loc 1 109 0
 1162 0008 FFF7FEFF 		bl	timeout_reset
 1163              	.LVL123:
 1164              		.loc 1 110 0
 1165 000c 044B     		ldr	r3, .L147
 1166 000e 0121     		movs	r1, #1
 1167 0010 1868     		ldr	r0, [r3]
 1168 0012 FFF7FEFF 		bl	chEvtSignalI
 1169              	.LVL124:
 1170              	.LBB198:
 1171              	.LBB199:
 1172              	.LBB200:
 1173              	.LBB201:
 1174              	.LBB202:
 1175              		.loc 4 546 0
 1176 0016 0023     		movs	r3, #0
 1177              		.syntax unified
 1178              	@ 546 "ChibiOS_3.0.2/os/ext/CMSIS/include/core_cmFunc.h" 1
 1179 0018 83F31188 		MSR basepri, r3
 1180              	@ 0 "" 2
 1181              	.LVL125:
 1182              		.thumb
 1183              		.syntax unified
 1184 001c 08BD     		pop	{r3, pc}
 1185              	.L148:
 1186 001e 00BF     		.align	2
 1187              	.L147:
 1188 0020 00000000 		.word	.LANCHOR0
 1189              	.LBE202:
 1190              	.LBE201:
 1191              	.LBE200:
 1192              	.LBE199:
 1193              	.LBE198:
 1194              		.cfi_endproc
 1195              	.LFE260:
 1196              		.size	servodec_func, .-servodec_func
 1197              		.section	.text.update,"ax",%progbits
ARM GAS  C:\Users\CHRIST~1\AppData\Local\Temp\ccC1S8GE.s 			page 22


 1198              		.align	1
 1199              		.p2align 4,,15
 1200              		.syntax unified
 1201              		.thumb
 1202              		.thumb_func
 1203              		.fpu fpv4-sp-d16
 1204              		.type	update, %function
 1205              	update:
 1206              	.LFB261:
 1207              		.loc 1 114 0
 1208              		.cfi_startproc
 1209              		@ args = 0, pretend = 0, frame = 0
 1210              		@ frame_needed = 0, uses_anonymous_args = 0
 1211              	.LVL126:
 1212              		.loc 1 115 0
 1213 0000 0E4B     		ldr	r3, .L163
 1214 0002 1B78     		ldrb	r3, [r3]	@ zero_extendqisi2
 1215 0004 03B9     		cbnz	r3, .L162
 1216 0006 7047     		bx	lr
 1217              	.L162:
 1218              		.loc 1 114 0
 1219 0008 10B5     		push	{r4, lr}
 1220              		.cfi_def_cfa_offset 8
 1221              		.cfi_offset 4, -8
 1222              		.cfi_offset 14, -4
 1223              	.LBB219:
 1224              	.LBB220:
 1225              	.LBB221:
 1226              	.LBB222:
 1227              	.LBB223:
 1228              	.LBB224:
 1229              	.LBB225:
 1230              		.loc 4 546 0
 1231 000a 2023     		movs	r3, #32
 1232 000c 0446     		mov	r4, r0
 1233              	.LVL127:
 1234              		.syntax unified
 1235              	@ 546 "ChibiOS_3.0.2/os/ext/CMSIS/include/core_cmFunc.h" 1
 1236 000e 83F31188 		MSR basepri, r3
 1237              	@ 0 "" 2
 1238              	.LVL128:
 1239              		.thumb
 1240              		.syntax unified
 1241              	.LBE225:
 1242              	.LBE224:
 1243              	.LBE223:
 1244              	.LBE222:
 1245              	.LBE221:
 1246              	.LBB226:
 1247              	.LBB227:
 1248              	.LBB228:
 1249              	.LBB229:
 1250              		.loc 3 376 0
 1251 0012 0B48     		ldr	r0, .L163+4
 1252              	.LVL129:
 1253 0014 C368     		ldr	r3, [r0, #12]
 1254 0016 0BB1     		cbz	r3, .L151
ARM GAS  C:\Users\CHRIST~1\AppData\Local\Temp\ccC1S8GE.s 			page 23


 1255              		.loc 3 377 0
 1256 0018 FFF7FEFF 		bl	chVTDoResetI
 1257              	.LVL130:
 1258              	.L151:
 1259              	.LBE229:
 1260              	.LBE228:
 1261              		.loc 3 424 0
 1262 001c 2346     		mov	r3, r4
 1263 001e 094A     		ldr	r2, .L163+8
 1264 0020 0748     		ldr	r0, .L163+4
 1265 0022 1421     		movs	r1, #20
 1266 0024 FFF7FEFF 		bl	chVTDoSetI
 1267              	.LVL131:
 1268              	.LBE227:
 1269              	.LBE226:
 1270              		.loc 1 121 0
 1271 0028 074B     		ldr	r3, .L163+12
 1272 002a 0121     		movs	r1, #1
 1273 002c 1868     		ldr	r0, [r3]
 1274 002e FFF7FEFF 		bl	chEvtSignalI
 1275              	.LVL132:
 1276              	.LBB230:
 1277              	.LBB231:
 1278              	.LBB232:
 1279              	.LBB233:
 1280              	.LBB234:
 1281              		.loc 4 546 0
 1282 0032 0023     		movs	r3, #0
 1283              		.syntax unified
 1284              	@ 546 "ChibiOS_3.0.2/os/ext/CMSIS/include/core_cmFunc.h" 1
 1285 0034 83F31188 		MSR basepri, r3
 1286              	@ 0 "" 2
 1287              	.LVL133:
 1288              		.thumb
 1289              		.syntax unified
 1290 0038 10BD     		pop	{r4, pc}
 1291              	.LVL134:
 1292              	.L164:
 1293 003a 00BF     		.align	2
 1294              	.L163:
 1295 003c 00000000 		.word	.LANCHOR2
 1296 0040 00000000 		.word	.LANCHOR9
 1297 0044 00000000 		.word	update
 1298 0048 00000000 		.word	.LANCHOR0
 1299              	.LBE234:
 1300              	.LBE233:
 1301              	.LBE232:
 1302              	.LBE231:
 1303              	.LBE230:
 1304              	.LBE220:
 1305              	.LBE219:
 1306              		.cfi_endproc
 1307              	.LFE261:
 1308              		.size	update, .-update
 1309              		.section	.text.app_ppm_configure,"ax",%progbits
 1310              		.align	1
 1311              		.p2align 4,,15
ARM GAS  C:\Users\CHRIST~1\AppData\Local\Temp\ccC1S8GE.s 			page 24


 1312              		.global	app_ppm_configure
 1313              		.syntax unified
 1314              		.thumb
 1315              		.thumb_func
 1316              		.fpu fpv4-sp-d16
 1317              		.type	app_ppm_configure, %function
 1318              	app_ppm_configure:
 1319              	.LFB256:
 1320              		.loc 1 59 0
 1321              		.cfi_startproc
 1322              		@ args = 0, pretend = 0, frame = 0
 1323              		@ frame_needed = 0, uses_anonymous_args = 0
 1324              		@ link register save eliminated.
 1325              	.LVL135:
 1326 0000 F0B4     		push	{r4, r5, r6, r7}
 1327              		.cfi_def_cfa_offset 16
 1328              		.cfi_offset 4, -16
 1329              		.cfi_offset 5, -12
 1330              		.cfi_offset 6, -8
 1331              		.cfi_offset 7, -4
 1332              		.loc 1 61 0
 1333 0002 0546     		mov	r5, r0
 1334 0004 0FCD     		ldmia	r5!, {r0, r1, r2, r3}
 1335              	.LVL136:
 1336 0006 0D4E     		ldr	r6, .L169
 1337              		.loc 1 62 0
 1338 0008 0D4F     		ldr	r7, .L169+4
 1339              		.loc 1 61 0
 1340 000a 3446     		mov	r4, r6
 1341 000c 0FC4     		stmia	r4!, {r0, r1, r2, r3}
 1342 000e 0FCD     		ldmia	r5!, {r0, r1, r2, r3}
 1343              	.LVL137:
 1344 0010 0FC4     		stmia	r4!, {r0, r1, r2, r3}
 1345 0012 0FCD     		ldmia	r5!, {r0, r1, r2, r3}
 1346              	.LVL138:
 1347 0014 0FC4     		stmia	r4!, {r0, r1, r2, r3}
 1348 0016 95E80300 		ldm	r5, {r0, r1}
 1349 001a 84E80300 		stm	r4, {r0, r1}
 1350              		.loc 1 62 0
 1351 001e 0022     		movs	r2, #0
 1352              		.loc 1 64 0
 1353 0020 084B     		ldr	r3, .L169+8
 1354              		.loc 1 62 0
 1355 0022 3A60     		str	r2, [r7]
 1356              		.loc 1 64 0
 1357 0024 1B78     		ldrb	r3, [r3]	@ zero_extendqisi2
 1358 0026 0BB9     		cbnz	r3, .L168
 1359              		.loc 1 70 0
 1360 0028 F0BC     		pop	{r4, r5, r6, r7}
 1361              		.cfi_remember_state
 1362              		.cfi_restore 7
 1363              		.cfi_restore 6
 1364              		.cfi_restore 5
 1365              		.cfi_restore 4
 1366              		.cfi_def_cfa_offset 0
 1367              	.LVL139:
 1368 002a 7047     		bx	lr
ARM GAS  C:\Users\CHRIST~1\AppData\Local\Temp\ccC1S8GE.s 			page 25


 1369              	.L168:
 1370              		.cfi_restore_state
 1371              		.loc 1 65 0
 1372 002c 96ED030A 		vldr.32	s0, [r6, #12]
 1373 0030 D6ED040A 		vldr.32	s1, [r6, #16]
 1374 0034 307E     		ldrb	r0, [r6, #24]	@ zero_extendqisi2
 1375              		.loc 1 70 0
 1376 0036 F0BC     		pop	{r4, r5, r6, r7}
 1377              		.cfi_restore 7
 1378              		.cfi_restore 6
 1379              		.cfi_restore 5
 1380              		.cfi_restore 4
 1381              		.cfi_def_cfa_offset 0
 1382              		.loc 1 65 0
 1383 0038 FFF7FEBF 		b	servodec_set_pulse_options
 1384              	.LVL140:
 1385              	.L170:
 1386              		.align	2
 1387              	.L169:
 1388 003c 00000000 		.word	.LANCHOR1
 1389 0040 00000000 		.word	.LANCHOR5
 1390 0044 00000000 		.word	.LANCHOR2
 1391              		.cfi_endproc
 1392              	.LFE256:
 1393              		.size	app_ppm_configure, .-app_ppm_configure
 1394              		.section	.text.app_ppm_start,"ax",%progbits
 1395              		.align	1
 1396              		.p2align 4,,15
 1397              		.global	app_ppm_start
 1398              		.syntax unified
 1399              		.thumb
 1400              		.thumb_func
 1401              		.fpu fpv4-sp-d16
 1402              		.type	app_ppm_start, %function
 1403              	app_ppm_start:
 1404              	.LFB257:
 1405              		.loc 1 72 0
 1406              		.cfi_startproc
 1407              		@ args = 0, pretend = 0, frame = 0
 1408              		@ frame_needed = 0, uses_anonymous_args = 0
 1409 0000 30B5     		push	{r4, r5, lr}
 1410              		.cfi_def_cfa_offset 12
 1411              		.cfi_offset 4, -12
 1412              		.cfi_offset 5, -8
 1413              		.cfi_offset 14, -4
 1414 0002 83B0     		sub	sp, sp, #12
 1415              		.cfi_def_cfa_offset 24
 1416              		.loc 1 74 0
 1417 0004 0024     		movs	r4, #0
 1418 0006 0E4D     		ldr	r5, .L177
 1419              		.loc 1 75 0
 1420 0008 0E4B     		ldr	r3, .L177+4
 1421 000a 0094     		str	r4, [sp]
 1422 000c 4022     		movs	r2, #64
 1423 000e 4FF4B361 		mov	r1, #1432
 1424 0012 0D48     		ldr	r0, .L177+8
 1425              		.loc 1 74 0
ARM GAS  C:\Users\CHRIST~1\AppData\Local\Temp\ccC1S8GE.s 			page 26


 1426 0014 2C70     		strb	r4, [r5]
 1427              		.loc 1 75 0
 1428 0016 FFF7FEFF 		bl	chThdCreateStatic
 1429              	.LVL141:
 1430              	.LBB248:
 1431              	.LBB249:
 1432              	.LBB250:
 1433              	.LBB251:
 1434              		.loc 4 546 0
 1435 001a 2023     		movs	r3, #32
 1436              		.syntax unified
 1437              	@ 546 "ChibiOS_3.0.2/os/ext/CMSIS/include/core_cmFunc.h" 1
 1438 001c 83F31188 		MSR basepri, r3
 1439              	@ 0 "" 2
 1440              	.LVL142:
 1441              		.thumb
 1442              		.syntax unified
 1443              	.LBE251:
 1444              	.LBE250:
 1445              	.LBE249:
 1446              	.LBE248:
 1447              	.LBB252:
 1448              	.LBB253:
 1449              	.LBB254:
 1450              	.LBB255:
 1451              		.loc 3 376 0
 1452 0020 0A48     		ldr	r0, .L177+12
 1453 0022 C368     		ldr	r3, [r0, #12]
 1454 0024 0BB1     		cbz	r3, .L172
 1455              		.loc 3 377 0
 1456 0026 FFF7FEFF 		bl	chVTDoResetI
 1457              	.LVL143:
 1458              	.L172:
 1459              	.LBE255:
 1460              	.LBE254:
 1461              		.loc 3 424 0
 1462 002a 0023     		movs	r3, #0
 1463 002c 084A     		ldr	r2, .L177+16
 1464 002e 0748     		ldr	r0, .L177+12
 1465 0030 0A21     		movs	r1, #10
 1466 0032 FFF7FEFF 		bl	chVTDoSetI
 1467              	.LVL144:
 1468              	.LBE253:
 1469              	.LBE252:
 1470              	.LBB256:
 1471              	.LBB257:
 1472              	.LBB258:
 1473              	.LBB259:
 1474              	.LBB260:
 1475              		.loc 4 546 0
 1476 0036 0023     		movs	r3, #0
 1477              		.syntax unified
 1478              	@ 546 "ChibiOS_3.0.2/os/ext/CMSIS/include/core_cmFunc.h" 1
 1479 0038 83F31188 		MSR basepri, r3
 1480              	@ 0 "" 2
 1481              	.LVL145:
 1482              		.thumb
ARM GAS  C:\Users\CHRIST~1\AppData\Local\Temp\ccC1S8GE.s 			page 27


 1483              		.syntax unified
 1484              	.LBE260:
 1485              	.LBE259:
 1486              	.LBE258:
 1487              	.LBE257:
 1488              	.LBE256:
 1489              		.loc 1 81 0
 1490 003c 03B0     		add	sp, sp, #12
 1491              		.cfi_def_cfa_offset 12
 1492              		@ sp needed
 1493 003e 30BD     		pop	{r4, r5, pc}
 1494              	.L178:
 1495              		.align	2
 1496              	.L177:
 1497 0040 00000000 		.word	.LANCHOR3
 1498 0044 00000000 		.word	ppm_thread
 1499 0048 00000000 		.word	.LANCHOR10
 1500 004c 00000000 		.word	.LANCHOR9
 1501 0050 00000000 		.word	update
 1502              		.cfi_endproc
 1503              	.LFE257:
 1504              		.size	app_ppm_start, .-app_ppm_start
 1505              		.section	.text.app_ppm_stop,"ax",%progbits
 1506              		.align	1
 1507              		.p2align 4,,15
 1508              		.global	app_ppm_stop
 1509              		.syntax unified
 1510              		.thumb
 1511              		.thumb_func
 1512              		.fpu fpv4-sp-d16
 1513              		.type	app_ppm_stop, %function
 1514              	app_ppm_stop:
 1515              	.LFB258:
 1516              		.loc 1 83 0
 1517              		.cfi_startproc
 1518              		@ args = 0, pretend = 0, frame = 0
 1519              		@ frame_needed = 0, uses_anonymous_args = 0
 1520              		.loc 1 85 0
 1521 0000 0A4B     		ldr	r3, .L191
 1522              		.loc 1 83 0
 1523 0002 10B5     		push	{r4, lr}
 1524              		.cfi_def_cfa_offset 8
 1525              		.cfi_offset 4, -8
 1526              		.cfi_offset 14, -4
 1527              		.loc 1 85 0
 1528 0004 0121     		movs	r1, #1
 1529              		.loc 1 87 0
 1530 0006 0A4C     		ldr	r4, .L191+4
 1531              		.loc 1 85 0
 1532 0008 1970     		strb	r1, [r3]
 1533              		.loc 1 87 0
 1534 000a 2378     		ldrb	r3, [r4]	@ zero_extendqisi2
 1535 000c 1BB1     		cbz	r3, .L189
 1536 000e 06E0     		b	.L190
 1537              	.L185:
 1538              		.loc 1 93 0
 1539 0010 0A20     		movs	r0, #10
ARM GAS  C:\Users\CHRIST~1\AppData\Local\Temp\ccC1S8GE.s 			page 28


 1540 0012 FFF7FEFF 		bl	chThdSleep
 1541              	.LVL146:
 1542              	.L189:
 1543              		.loc 1 92 0
 1544 0016 2378     		ldrb	r3, [r4]	@ zero_extendqisi2
 1545 0018 002B     		cmp	r3, #0
 1546 001a F9D1     		bne	.L185
 1547 001c 10BD     		pop	{r4, pc}
 1548              	.L190:
 1549              		.loc 1 88 0
 1550 001e 054B     		ldr	r3, .L191+8
 1551 0020 1868     		ldr	r0, [r3]
 1552 0022 FFF7FEFF 		bl	chEvtSignalI
 1553              	.LVL147:
 1554              		.loc 1 89 0
 1555 0026 FFF7FEFF 		bl	servodec_stop
 1556              	.LVL148:
 1557 002a F4E7     		b	.L189
 1558              	.L192:
 1559              		.align	2
 1560              	.L191:
 1561 002c 00000000 		.word	.LANCHOR3
 1562 0030 00000000 		.word	.LANCHOR2
 1563 0034 00000000 		.word	.LANCHOR0
 1564              		.cfi_endproc
 1565              	.LFE258:
 1566              		.size	app_ppm_stop, .-app_ppm_stop
 1567              		.section	.text.app_ppm_get_decoded_level,"ax",%progbits
 1568              		.align	1
 1569              		.p2align 4,,15
 1570              		.global	app_ppm_get_decoded_level
 1571              		.syntax unified
 1572              		.thumb
 1573              		.thumb_func
 1574              		.fpu fpv4-sp-d16
 1575              		.type	app_ppm_get_decoded_level, %function
 1576              	app_ppm_get_decoded_level:
 1577              	.LFB259:
 1578              		.loc 1 98 0
 1579              		.cfi_startproc
 1580              		@ args = 0, pretend = 0, frame = 0
 1581              		@ frame_needed = 0, uses_anonymous_args = 0
 1582              		@ link register save eliminated.
 1583              		.loc 1 100 0
 1584 0000 014B     		ldr	r3, .L194
 1585              		.loc 1 104 0
 1586 0002 93ED000A 		vldr.32	s0, [r3]
 1587 0006 7047     		bx	lr
 1588              	.L195:
 1589              		.align	2
 1590              	.L194:
 1591 0008 00000000 		.word	.LANCHOR4
 1592              		.cfi_endproc
 1593              	.LFE259:
 1594              		.size	app_ppm_get_decoded_level, .-app_ppm_get_decoded_level
 1595              		.global	vt
 1596              		.section	.bss.config,"aw",%nobits
ARM GAS  C:\Users\CHRIST~1\AppData\Local\Temp\ccC1S8GE.s 			page 29


 1597              		.align	2
 1598              		.set	.LANCHOR1,. + 0
 1599              		.type	config, %object
 1600              		.size	config, 56
 1601              	config:
 1602 0000 00000000 		.space	56
 1602      00000000 
 1602      00000000 
 1602      00000000 
 1602      00000000 
 1603              		.section	.bss.input_val,"aw",%nobits
 1604              		.align	2
 1605              		.set	.LANCHOR4,. + 0
 1606              		.type	input_val, %object
 1607              		.size	input_val, 4
 1608              	input_val:
 1609 0000 00000000 		.space	4
 1610              		.section	.bss.is_running,"aw",%nobits
 1611              		.set	.LANCHOR2,. + 0
 1612              		.type	is_running, %object
 1613              		.size	is_running, 1
 1614              	is_running:
 1615 0000 00       		.space	1
 1616              		.section	.bss.last_time.11357,"aw",%nobits
 1617              		.align	2
 1618              		.set	.LANCHOR7,. + 0
 1619              		.type	last_time.11357, %object
 1620              		.size	last_time.11357, 4
 1621              	last_time.11357:
 1622 0000 00000000 		.space	4
 1623              		.section	.bss.ppm_thread_wa,"aw",%nobits
 1624              		.align	3
 1625              		.set	.LANCHOR10,. + 0
 1626              		.type	ppm_thread_wa, %object
 1627              		.size	ppm_thread_wa, 1432
 1628              	ppm_thread_wa:
 1629 0000 00000000 		.space	1432
 1629      00000000 
 1629      00000000 
 1629      00000000 
 1629      00000000 
 1630              		.section	.bss.ppm_tp,"aw",%nobits
 1631              		.align	2
 1632              		.set	.LANCHOR0,. + 0
 1633              		.type	ppm_tp, %object
 1634              		.size	ppm_tp, 4
 1635              	ppm_tp:
 1636 0000 00000000 		.space	4
 1637              		.section	.bss.pulses_without_power,"aw",%nobits
 1638              		.align	2
 1639              		.set	.LANCHOR5,. + 0
 1640              		.type	pulses_without_power, %object
 1641              		.size	pulses_without_power, 4
 1642              	pulses_without_power:
 1643 0000 00000000 		.space	4
 1644              		.section	.bss.pulses_without_power_before.11374,"aw",%nobits
 1645              		.align	2
ARM GAS  C:\Users\CHRIST~1\AppData\Local\Temp\ccC1S8GE.s 			page 30


 1646              		.set	.LANCHOR8,. + 0
 1647              		.type	pulses_without_power_before.11374, %object
 1648              		.size	pulses_without_power_before.11374, 4
 1649              	pulses_without_power_before.11374:
 1650 0000 00000000 		.space	4
 1651              		.section	.bss.servo_val_ramp.11358,"aw",%nobits
 1652              		.align	2
 1653              		.set	.LANCHOR6,. + 0
 1654              		.type	servo_val_ramp.11358, %object
 1655              		.size	servo_val_ramp.11358, 4
 1656              	servo_val_ramp.11358:
 1657 0000 00000000 		.space	4
 1658              		.section	.bss.vt,"aw",%nobits
 1659              		.align	2
 1660              		.set	.LANCHOR9,. + 0
 1661              		.type	vt, %object
 1662              		.size	vt, 20
 1663              	vt:
 1664 0000 00000000 		.space	20
 1664      00000000 
 1664      00000000 
 1664      00000000 
 1664      00000000 
 1665              		.section	.data.stop_now,"aw",%progbits
 1666              		.set	.LANCHOR3,. + 0
 1667              		.type	stop_now, %object
 1668              		.size	stop_now, 1
 1669              	stop_now:
 1670 0000 01       		.byte	1
 1671              		.section	.rodata.ppm_thread.str1.4,"aMS",%progbits,1
 1672              		.align	2
 1673              	.LC0:
 1674 0000 4150505F 		.ascii	"APP_PPM\000"
 1674      50504D00 
 1675              		.text
 1676              	.Letext0:
 1677              		.file 5 "c:\\program files (x86)\\gnu tools arm embedded\\6 2017-q2-update\\arm-none-eabi\\include
 1678              		.file 6 "c:\\program files (x86)\\gnu tools arm embedded\\6 2017-q2-update\\arm-none-eabi\\include
 1679              		.file 7 "c:\\program files (x86)\\gnu tools arm embedded\\6 2017-q2-update\\lib\\gcc\\arm-none-eab
 1680              		.file 8 "ChibiOS_3.0.2/os/rt/ports/ARMCMx/compilers/GCC/chtypes.h"
 1681              		.file 9 "ChibiOS_3.0.2/os/rt/include/chsystypes.h"
 1682              		.file 10 "ChibiOS_3.0.2/os/rt/include/chschd.h"
 1683              		.file 11 "ChibiOS_3.0.2/os/ext/CMSIS/include/core_cm4.h"
 1684              		.file 12 "ChibiOS_3.0.2/os/ext/CMSIS/ST/system_stm32f4xx.h"
 1685              		.file 13 "ChibiOS_3.0.2/os/ext/CMSIS/ST/stm32f407xx.h"
 1686              		.file 14 "ChibiOS_3.0.2/os/rt/ports/ARMCMx/chcore.h"
 1687              		.file 15 "ChibiOS_3.0.2/os/rt/ports/ARMCMx/chcore_v7m.h"
 1688              		.file 16 "ChibiOS_3.0.2/os/rt/include/chtm.h"
 1689              		.file 17 "ChibiOS_3.0.2/os/rt/include/chsem.h"
 1690              		.file 18 "ChibiOS_3.0.2/os/rt/include/chmtx.h"
 1691              		.file 19 "ChibiOS_3.0.2/os/rt/include/chevents.h"
 1692              		.file 20 "ChibiOS_3.0.2/os/rt/include/chqueues.h"
 1693              		.file 21 "./datatypes.h"
 1694              		.file 22 "./conf_general.h"
 1695              		.file 23 "ChibiOS_3.0.2/os/hal/ports/STM32/STM32F4xx/stm32_dma.h"
 1696              		.file 24 "ChibiOS_3.0.2/os/hal/ports/STM32/LLD/GPIOv2/pal_lld.h"
 1697              		.file 25 "ChibiOS_3.0.2/os/hal/include/can.h"
ARM GAS  C:\Users\CHRIST~1\AppData\Local\Temp\ccC1S8GE.s 			page 31


 1698              		.file 26 "ChibiOS_3.0.2/os/hal/ports/STM32/LLD/can_lld.h"
 1699              		.file 27 "ChibiOS_3.0.2/os/hal/include/i2c.h"
 1700              		.file 28 "ChibiOS_3.0.2/os/hal/ports/STM32/LLD/I2Cv1/i2c_lld.h"
 1701              		.file 29 "ChibiOS_3.0.2/os/hal/include/icu.h"
 1702              		.file 30 "ChibiOS_3.0.2/os/hal/ports/STM32/LLD/TIMv1/icu_lld.h"
 1703              		.file 31 "ChibiOS_3.0.2/os/hal/ports/STM32/LLD/TIMv1/stm32_tim.h"
 1704              		.file 32 "ChibiOS_3.0.2/os/hal/include/spi.h"
 1705              		.file 33 "ChibiOS_3.0.2/os/hal/ports/STM32/LLD/SPIv1/spi_lld.h"
 1706              		.file 34 "ChibiOS_3.0.2/os/hal/include/uart.h"
 1707              		.file 35 "ChibiOS_3.0.2/os/hal/ports/STM32/LLD/USARTv1/uart_lld.h"
 1708              		.file 36 "ChibiOS_3.0.2/os/hal/include/usb.h"
 1709              		.file 37 "ChibiOS_3.0.2/os/hal/ports/STM32/LLD/OTGv1/usb_lld.h"
 1710              		.file 38 "ChibiOS_3.0.2/os/hal/ports/STM32/LLD/OTGv1/stm32_otg.h"
 1711              		.file 39 "./mc_interface.h"
 1712              		.file 40 "c:\\program files (x86)\\gnu tools arm embedded\\6 2017-q2-update\\arm-none-eabi\\includ
 1713              		.file 41 "c:\\program files (x86)\\gnu tools arm embedded\\6 2017-q2-update\\arm-none-eabi\\includ
 1714              		.file 42 "c:\\program files (x86)\\gnu tools arm embedded\\6 2017-q2-update\\arm-none-eabi\\includ
 1715              		.file 43 "c:\\program files (x86)\\gnu tools arm embedded\\6 2017-q2-update\\arm-none-eabi\\includ
 1716              		.file 44 "ChibiOS_3.0.2/os/rt/include/chsys.h"
 1717              		.file 45 "ChibiOS_3.0.2/os/rt/include/chthreads.h"
 1718              		.file 46 "./utils.h"
 1719              		.file 47 "./timeout.h"
 1720              		.file 48 "./comm_can.h"
 1721              		.file 49 "./servo_dec.h"