ARM GAS  C:\Users\CHRIST~1\AppData\Local\Temp\ccPexI4L.s 			page 1


   1              		.cpu cortex-m4
   2              		.eabi_attribute 27, 1
   3              		.eabi_attribute 28, 1
   4              		.eabi_attribute 20, 1
   5              		.eabi_attribute 21, 1
   6              		.eabi_attribute 23, 3
   7              		.eabi_attribute 24, 1
   8              		.eabi_attribute 25, 1
   9              		.eabi_attribute 26, 1
  10              		.eabi_attribute 30, 2
  11              		.eabi_attribute 34, 1
  12              		.eabi_attribute 18, 4
  13              		.file	"comm_can.c"
  14              		.text
  15              	.Ltext0:
  16              		.cfi_sections	.debug_frame
  17              		.section	.text.cancom_process_thread,"ax",%progbits
  18              		.align	1
  19              		.p2align 4,,15
  20              		.syntax unified
  21              		.thumb
  22              		.thumb_func
  23              		.fpu fpv4-sp-d16
  24              		.type	cancom_process_thread, %function
  25              	cancom_process_thread:
  26              	.LFB258:
  27              		.file 1 "comm_can.c"
  28              		.loc 1 132 0
  29              		.cfi_startproc
  30              		@ args = 0, pretend = 0, frame = 32
  31              		@ frame_needed = 0, uses_anonymous_args = 0
  32              	.LVL0:
  33 0000 2DE9F04F 		push	{r4, r5, r6, r7, r8, r9, r10, fp, lr}
  34              		.cfi_def_cfa_offset 36
  35              		.cfi_offset 4, -36
  36              		.cfi_offset 5, -32
  37              		.cfi_offset 6, -28
  38              		.cfi_offset 7, -24
  39              		.cfi_offset 8, -20
  40              		.cfi_offset 9, -16
  41              		.cfi_offset 10, -12
  42              		.cfi_offset 11, -8
  43              		.cfi_offset 14, -4
  44              	.LBB65:
  45              	.LBB66:
  46              		.file 2 "ChibiOS_3.0.2/os/rt/include/chregistry.h"
  47              		.loc 2 135 0
  48 0004 DFF86C93 		ldr	r9, .L40+44
  49 0008 CF4A     		ldr	r2, .L40
  50 000a D9F81830 		ldr	r3, [r9, #24]
  51              	.LBE66:
  52              	.LBE65:
  53              		.loc 1 136 0
  54 000e CF49     		ldr	r1, .L40+4
  55 0010 CF4C     		ldr	r4, .L40+8
  56 0012 D04E     		ldr	r6, .L40+12
  57 0014 D04F     		ldr	r7, .L40+16
ARM GAS  C:\Users\CHRIST~1\AppData\Local\Temp\ccPexI4L.s 			page 2


  58 0016 DFF860A3 		ldr	r10, .L40+48
  59 001a D04D     		ldr	r5, .L40+20
  60              		.loc 1 132 0
  61 001c 2DED048B 		vpush.64	{d8, d9}
  62              		.cfi_def_cfa_offset 52
  63              		.cfi_offset 80, -52
  64              		.cfi_offset 81, -48
  65              		.cfi_offset 82, -44
  66              		.cfi_offset 83, -40
  67 0020 89B0     		sub	sp, sp, #36
  68              		.cfi_def_cfa_offset 88
  69              	.LBB68:
  70              	.LBB67:
  71              		.loc 2 135 0
  72 0022 9A61     		str	r2, [r3, #24]
  73              	.LVL1:
  74              	.LBE67:
  75              	.LBE68:
  76              	.LBB69:
  77              	.LBB70:
  78              	.LBB71:
  79              		.loc 1 267 0
  80 0024 9FEDCE8A 		vldr.32	s16, .L40+24
  81              	.LBE71:
  82              		.loc 1 248 0
  83 0028 DFEDCE8A 		vldr.32	s17, .L40+28
  84              		.loc 1 184 0
  85 002c 9FEDCE9A 		vldr.32	s18, .L40+32
  86              	.LBE70:
  87              	.LBE69:
  88              		.loc 1 136 0
  89 0030 0B60     		str	r3, [r1]
  90              		.loc 1 138 0
  91 0032 0022     		movs	r2, #0
  92 0034 0292     		str	r2, [sp, #8]
  93              	.LVL2:
  94              	.L3:
  95              		.loc 1 146 0
  96 0036 0120     		movs	r0, #1
  97 0038 FFF7FEFF 		bl	chEvtWaitAny
  98              	.LVL3:
  99              		.loc 1 148 0
 100 003c D4F800C0 		ldr	ip, [r4]
 101              	.L38:
 102 0040 3368     		ldr	r3, [r6]
 103 0042 6345     		cmp	r3, ip
 104 0044 F7D0     		beq	.L3
 105              	.LBB89:
 106              		.loc 1 149 0
 107 0046 0CEB8C0E 		add	lr, ip, ip, lsl #2
 108 004a 07EB8E0E 		add	lr, r7, lr, lsl #2
 109 004e BEE80F00 		ldmia	lr!, {r0, r1, r2, r3}
 110 0052 0DF10C08 		add	r8, sp, #12
 111 0056 A8E80F00 		stmia	r8!, {r0, r1, r2, r3}
 112              		.loc 1 151 0
 113 005a 9DF81020 		ldrb	r2, [sp, #16]	@ zero_extendqisi2
 114              		.loc 1 149 0
ARM GAS  C:\Users\CHRIST~1\AppData\Local\Temp\ccPexI4L.s 			page 3


 115 005e DEF80030 		ldr	r3, [lr]
 116 0062 C8F80030 		str	r3, [r8]
 117              		.loc 1 151 0
 118 0066 9206     		lsls	r2, r2, #26
 119              		.loc 1 149 0
 120 0068 0CF10103 		add	r3, ip, #1
 121 006c 2360     		str	r3, [r4]
 122              		.loc 1 151 0
 123 006e 29D5     		bpl	.L33
 124              	.LBB87:
 125              		.loc 1 152 0
 126 0070 059B     		ldr	r3, [sp, #20]
 127 0072 C3F31C03 		ubfx	r3, r3, #0, #29
 128 0076 5FFA83F8 		uxtb	r8, r3
 129              	.LVL4:
 130              		.loc 1 156 0
 131 007a B8F1FF0F 		cmp	r8, #255
 132              		.loc 1 153 0
 133 007e 4FEA232B 		asr	fp, r3, #8
 134              	.LVL5:
 135              		.loc 1 156 0
 136 0082 21D0     		beq	.L19
 137              		.loc 1 156 0 is_stmt 0 discriminator 1
 138 0084 FFF7FEFF 		bl	app_get_configuration
 139              	.LVL6:
 140 0088 0378     		ldrb	r3, [r0]	@ zero_extendqisi2
 141 008a 4345     		cmp	r3, r8
 142 008c 1CD0     		beq	.L19
 143 008e 5FFA8BF3 		uxtb	r3, fp
 144              	.L6:
 145              		.loc 1 257 0 is_stmt 1
 146 0092 092B     		cmp	r3, #9
 147 0094 0DD1     		bne	.L21
 148 0096 0023     		movs	r3, #0
 149 0098 1A46     		mov	r2, r3
 150              	.L29:
 151              	.LVL7:
 152              	.LBB85:
 153              		.loc 1 261 0
 154 009a E958     		ldr	r1, [r5, r3]
 155 009c 4145     		cmp	r1, r8
 156 009e 03F11403 		add	r3, r3, #20
 157 00a2 00F00281 		beq	.L27
 158              		.loc 1 261 0 is_stmt 0 discriminator 1
 159 00a6 0131     		adds	r1, r1, #1
 160 00a8 00F0FF80 		beq	.L27
 161              		.loc 1 259 0 is_stmt 1 discriminator 2
 162 00ac 0132     		adds	r2, r2, #1
 163              	.LVL8:
 164 00ae 0A2A     		cmp	r2, #10
 165 00b0 F3D1     		bne	.L29
 166              	.LVL9:
 167              	.L21:
 168 00b2 D4F800C0 		ldr	ip, [r4]
 169              	.L4:
 170              	.LBE85:
 171              	.LBE87:
ARM GAS  C:\Users\CHRIST~1\AppData\Local\Temp\ccPexI4L.s 			page 4


 172              		.loc 1 278 0
 173 00b6 BCF1640F 		cmp	ip, #100
 174 00ba C1D1     		bne	.L38
 175              		.loc 1 279 0
 176 00bc 0023     		movs	r3, #0
 177 00be 2360     		str	r3, [r4]
 178 00c0 9C46     		mov	ip, r3
 179 00c2 BDE7     		b	.L38
 180              	.L33:
 181              	.LBB88:
 182 00c4 9C46     		mov	ip, r3
 183 00c6 F6E7     		b	.L4
 184              	.LVL10:
 185              	.L19:
 186 00c8 5FFA8BF3 		uxtb	r3, fp
 187              		.loc 1 157 0
 188 00cc 0B2B     		cmp	r3, #11
 189 00ce E0D8     		bhi	.L6
 190 00d0 01A2     		adr	r2, .L8
 191 00d2 52F823F0 		ldr	pc, [r2, r3, lsl #2]
 192 00d6 00BF     		.p2align 2
 193              	.L8:
 194 00d8 67020000 		.word	.L7+1
 195 00dc 89020000 		.word	.L9+1
 196 00e0 E9010000 		.word	.L10+1
 197 00e4 2D020000 		.word	.L11+1
 198 00e8 0B020000 		.word	.L12+1
 199 00ec 4B020000 		.word	.L13+1
 200 00f0 C1010000 		.word	.L14+1
 201 00f4 67010000 		.word	.L15+1
 202 00f8 3D010000 		.word	.L16+1
 203 00fc 93000000 		.word	.L6+1
 204 0100 23010000 		.word	.L17+1
 205 0104 09010000 		.word	.L18+1
 206              		.p2align 1
 207              	.L18:
 208              		.loc 1 247 0
 209 0108 0023     		movs	r3, #0
 210              		.loc 1 248 0
 211 010a 02A9     		add	r1, sp, #8
 212 010c 06A8     		add	r0, sp, #24
 213 010e B0EE680A 		vmov.f32	s0, s17
 214              		.loc 1 247 0
 215 0112 0293     		str	r3, [sp, #8]
 216              		.loc 1 248 0
 217 0114 FFF7FEFF 		bl	buffer_get_float32
 218              	.LVL11:
 219 0118 FFF7FEFF 		bl	mc_interface_set_brake_current_rel
 220              	.LVL12:
 221              		.loc 1 249 0
 222 011c FFF7FEFF 		bl	timeout_reset
 223              	.LVL13:
 224              		.loc 1 250 0
 225 0120 C7E7     		b	.L21
 226              	.L17:
 227              		.loc 1 241 0
 228 0122 0023     		movs	r3, #0
ARM GAS  C:\Users\CHRIST~1\AppData\Local\Temp\ccPexI4L.s 			page 5


 229              		.loc 1 242 0
 230 0124 02A9     		add	r1, sp, #8
 231 0126 06A8     		add	r0, sp, #24
 232 0128 B0EE680A 		vmov.f32	s0, s17
 233              		.loc 1 241 0
 234 012c 0293     		str	r3, [sp, #8]
 235              		.loc 1 242 0
 236 012e FFF7FEFF 		bl	buffer_get_float32
 237              	.LVL14:
 238 0132 FFF7FEFF 		bl	mc_interface_set_current_rel
 239              	.LVL15:
 240              		.loc 1 243 0
 241 0136 FFF7FEFF 		bl	timeout_reset
 242              	.LVL16:
 243              		.loc 1 244 0
 244 013a BAE7     		b	.L21
 245              	.L16:
 246              		.loc 1 229 0
 247 013c 9DF81820 		ldrb	r2, [sp, #24]	@ zero_extendqisi2
 248              		.loc 1 232 0
 249 0140 9DF81930 		ldrb	r3, [sp, #25]	@ zero_extendqisi2
 250              		.loc 1 229 0
 251 0144 CAF80020 		str	r2, [r10]
 252              		.loc 1 230 0
 253 0148 0222     		movs	r2, #2
 254 014a 0292     		str	r2, [sp, #8]
 255              	.LVL17:
 256              		.loc 1 232 0
 257 014c 002B     		cmp	r3, #0
 258 014e 00F0E480 		beq	.L24
 259              		.loc 1 233 0
 260 0152 9DF81010 		ldrb	r1, [sp, #16]	@ zero_extendqisi2
 261 0156 01F00F01 		and	r1, r1, #15
 262 015a 0239     		subs	r1, r1, #2
 263 015c 0DF11A00 		add	r0, sp, #26
 264 0160 FFF7FEFF 		bl	commands_send_packet
 265              	.LVL18:
 266 0164 A5E7     		b	.L21
 267              	.L15:
 268              		.loc 1 204 0
 269 0166 9DF81A30 		ldrb	r3, [sp, #26]	@ zero_extendqisi2
 270              		.loc 1 205 0
 271 016a 9DF81B80 		ldrb	r8, [sp, #27]	@ zero_extendqisi2
 272              	.LVL19:
 273              		.loc 1 202 0
 274 016e 9DF81820 		ldrb	r2, [sp, #24]	@ zero_extendqisi2
 275 0172 CAF80020 		str	r2, [r10]
 276              		.loc 1 205 0
 277 0176 48EA0328 		orr	r8, r8, r3, lsl #8
 278              		.loc 1 207 0
 279 017a B8F5806F 		cmp	r8, #1024
 280              		.loc 1 205 0
 281 017e 4FF00403 		mov	r3, #4
 282 0182 0293     		str	r3, [sp, #8]
 283              		.loc 1 203 0
 284 0184 9DF819B0 		ldrb	fp, [sp, #25]	@ zero_extendqisi2
 285              	.LVL20:
ARM GAS  C:\Users\CHRIST~1\AppData\Local\Temp\ccPexI4L.s 			page 6


 286              		.loc 1 207 0
 287 0188 93D8     		bhi	.L21
 288              		.loc 1 212 0
 289 018a 0623     		movs	r3, #6
 290              		.loc 1 211 0
 291 018c 9DF81C20 		ldrb	r2, [sp, #28]	@ zero_extendqisi2
 292              		.loc 1 212 0
 293 0190 0293     		str	r3, [sp, #8]
 294              		.loc 1 214 0
 295 0192 4146     		mov	r1, r8
 296              		.loc 1 212 0
 297 0194 9DF81D30 		ldrb	r3, [sp, #29]	@ zero_extendqisi2
 298              		.loc 1 214 0
 299 0198 7448     		ldr	r0, .L40+36
 300              		.loc 1 211 0
 301 019a 0192     		str	r2, [sp, #4]
 302              	.LVL21:
 303              		.loc 1 212 0
 304 019c 0093     		str	r3, [sp]
 305              	.LVL22:
 306              		.loc 1 214 0
 307 019e FFF7FEFF 		bl	crc16
 308              	.LVL23:
 309              		.loc 1 216 0
 310 01a2 009B     		ldr	r3, [sp]
 311 01a4 019A     		ldr	r2, [sp, #4]
 312 01a6 43EA0223 		orr	r3, r3, r2, lsl #8
 313              		.loc 1 214 0
 314 01aa 9842     		cmp	r0, r3
 315 01ac 81D1     		bne	.L21
 316              		.loc 1 218 0
 317 01ae BBF1000F 		cmp	fp, #0
 318 01b2 00F0C080 		beq	.L23
 319              		.loc 1 219 0
 320 01b6 4146     		mov	r1, r8
 321 01b8 6C48     		ldr	r0, .L40+36
 322 01ba FFF7FEFF 		bl	commands_send_packet
 323              	.LVL24:
 324 01be 78E7     		b	.L21
 325              	.LVL25:
 326              	.L14:
 327 01c0 BDF81800 		ldrh	r0, [sp, #24]
 328 01c4 40BA     		rev16	r0, r0
 329 01c6 80B2     		uxth	r0, r0
 330              	.LVL26:
 331              		.loc 1 195 0
 332 01c8 B0F5806F 		cmp	r0, #1024
 333 01cc BFF471AF 		bcs	.L21
 334              		.loc 1 196 0
 335 01d0 9DF81020 		ldrb	r2, [sp, #16]	@ zero_extendqisi2
 336 01d4 654B     		ldr	r3, .L40+36
 337 01d6 02F00F02 		and	r2, r2, #15
 338 01da 1844     		add	r0, r0, r3
 339 01dc 023A     		subs	r2, r2, #2
 340 01de 0DF11A01 		add	r1, sp, #26
 341 01e2 FFF7FEFF 		bl	memcpy
 342              	.LVL27:
ARM GAS  C:\Users\CHRIST~1\AppData\Local\Temp\ccPexI4L.s 			page 7


 343 01e6 64E7     		b	.L21
 344              	.L10:
 345              		.loc 1 171 0
 346 01e8 0023     		movs	r3, #0
 347              		.loc 1 172 0
 348 01ea 02A9     		add	r1, sp, #8
 349 01ec 06A8     		add	r0, sp, #24
 350              		.loc 1 171 0
 351 01ee 0293     		str	r3, [sp, #8]
 352              		.loc 1 172 0
 353 01f0 FFF7FEFF 		bl	buffer_get_int32
 354              	.LVL28:
 355 01f4 07EE900A 		vmov	s15, r0	@ int
 356 01f8 B8EEE70A 		vcvt.f32.s32	s0, s15
 357 01fc 80EE080A 		vdiv.f32	s0, s0, s16
 358 0200 FFF7FEFF 		bl	mc_interface_set_brake_current
 359              	.LVL29:
 360              		.loc 1 173 0
 361 0204 FFF7FEFF 		bl	timeout_reset
 362              	.LVL30:
 363              		.loc 1 174 0
 364 0208 53E7     		b	.L21
 365              	.L12:
 366              		.loc 1 183 0
 367 020a 0023     		movs	r3, #0
 368              		.loc 1 184 0
 369 020c 02A9     		add	r1, sp, #8
 370 020e 06A8     		add	r0, sp, #24
 371              		.loc 1 183 0
 372 0210 0293     		str	r3, [sp, #8]
 373              		.loc 1 184 0
 374 0212 FFF7FEFF 		bl	buffer_get_int32
 375              	.LVL31:
 376 0216 07EE900A 		vmov	s15, r0	@ int
 377 021a B8EEE70A 		vcvt.f32.s32	s0, s15
 378 021e 80EE090A 		vdiv.f32	s0, s0, s18
 379 0222 FFF7FEFF 		bl	mc_interface_set_pid_pos
 380              	.LVL32:
 381              		.loc 1 185 0
 382 0226 FFF7FEFF 		bl	timeout_reset
 383              	.LVL33:
 384              		.loc 1 186 0
 385 022a 42E7     		b	.L21
 386              	.L11:
 387              		.loc 1 177 0
 388 022c 0023     		movs	r3, #0
 389              		.loc 1 178 0
 390 022e 02A9     		add	r1, sp, #8
 391 0230 06A8     		add	r0, sp, #24
 392              		.loc 1 177 0
 393 0232 0293     		str	r3, [sp, #8]
 394              		.loc 1 178 0
 395 0234 FFF7FEFF 		bl	buffer_get_int32
 396              	.LVL34:
 397 0238 07EE900A 		vmov	s15, r0	@ int
 398 023c B8EEE70A 		vcvt.f32.s32	s0, s15
 399 0240 FFF7FEFF 		bl	mc_interface_set_pid_speed
ARM GAS  C:\Users\CHRIST~1\AppData\Local\Temp\ccPexI4L.s 			page 8


 400              	.LVL35:
 401              		.loc 1 179 0
 402 0244 FFF7FEFF 		bl	timeout_reset
 403              	.LVL36:
 404              		.loc 1 180 0
 405 0248 33E7     		b	.L21
 406              	.L13:
 407              		.loc 1 189 0
 408 024a 9DF81020 		ldrb	r2, [sp, #16]	@ zero_extendqisi2
 409 024e 9DF81800 		ldrb	r0, [sp, #24]	@ zero_extendqisi2
 410 0252 464B     		ldr	r3, .L40+36
 411 0254 02F00F02 		and	r2, r2, #15
 412 0258 013A     		subs	r2, r2, #1
 413 025a 1844     		add	r0, r0, r3
 414 025c 0DF11901 		add	r1, sp, #25
 415 0260 FFF7FEFF 		bl	memcpy
 416              	.LVL37:
 417              		.loc 1 190 0
 418 0264 25E7     		b	.L21
 419              	.L7:
 420              		.loc 1 159 0
 421 0266 0023     		movs	r3, #0
 422              		.loc 1 160 0
 423 0268 02A9     		add	r1, sp, #8
 424 026a 06A8     		add	r0, sp, #24
 425              		.loc 1 159 0
 426 026c 0293     		str	r3, [sp, #8]
 427              		.loc 1 160 0
 428 026e FFF7FEFF 		bl	buffer_get_int32
 429              	.LVL38:
 430 0272 07EE900A 		vmov	s15, r0	@ int
 431 0276 B8EEE70A 		vcvt.f32.s32	s0, s15
 432 027a 80EE280A 		vdiv.f32	s0, s0, s17
 433 027e FFF7FEFF 		bl	mc_interface_set_duty
 434              	.LVL39:
 435              		.loc 1 161 0
 436 0282 FFF7FEFF 		bl	timeout_reset
 437              	.LVL40:
 438              		.loc 1 162 0
 439 0286 14E7     		b	.L21
 440              	.L9:
 441              		.loc 1 165 0
 442 0288 0023     		movs	r3, #0
 443              		.loc 1 166 0
 444 028a 02A9     		add	r1, sp, #8
 445 028c 06A8     		add	r0, sp, #24
 446              		.loc 1 165 0
 447 028e 0293     		str	r3, [sp, #8]
 448              		.loc 1 166 0
 449 0290 FFF7FEFF 		bl	buffer_get_int32
 450              	.LVL41:
 451 0294 07EE900A 		vmov	s15, r0	@ int
 452 0298 B8EEE70A 		vcvt.f32.s32	s0, s15
 453 029c 80EE080A 		vdiv.f32	s0, s0, s16
 454 02a0 FFF7FEFF 		bl	mc_interface_set_current
 455              	.LVL42:
 456              		.loc 1 167 0
ARM GAS  C:\Users\CHRIST~1\AppData\Local\Temp\ccPexI4L.s 			page 9


 457 02a4 FFF7FEFF 		bl	timeout_reset
 458              	.LVL43:
 459              		.loc 1 168 0
 460 02a8 03E7     		b	.L21
 461              	.LVL44:
 462              	.L27:
 463              	.LBB86:
 464              		.loc 1 263 0
 465 02aa 02EB8202 		add	r2, r2, r2, lsl #2
 466              	.LVL45:
 467              		.loc 1 262 0
 468 02ae 0023     		movs	r3, #0
 469              		.loc 1 263 0
 470 02b0 45F82280 		str	r8, [r5, r2, lsl #2]
 471              	.LVL46:
 472              		.loc 1 262 0
 473 02b4 0293     		str	r3, [sp, #8]
 474              		.loc 1 263 0
 475 02b6 05EB8208 		add	r8, r5, r2, lsl #2
 476              	.LVL47:
 477              	.LBB72:
 478              	.LBB73:
 479              	.LBB74:
 480              	.LBB75:
 481              	.LBB76:
 482              	.LBB77:
 483              		.file 3 "ChibiOS_3.0.2/os/ext/CMSIS/include/core_cmFunc.h"
 484              		.loc 3 546 0
 485 02ba 2022     		movs	r2, #32
 486              	.LVL48:
 487              		.syntax unified
 488              	@ 546 "ChibiOS_3.0.2/os/ext/CMSIS/include/core_cmFunc.h" 1
 489 02bc 82F31188 		MSR basepri, r2
 490              	@ 0 "" 2
 491              	.LVL49:
 492              		.thumb
 493              		.syntax unified
 494              	.LBE77:
 495              	.LBE76:
 496              	.LBE75:
 497              	.LBE74:
 498              	.LBB78:
 499              	.LBB79:
 500              		.file 4 "ChibiOS_3.0.2/os/rt/include/chvt.h"
 501              		.loc 4 231 0
 502 02c0 D9F82820 		ldr	r2, [r9, #40]
 503              	.LVL50:
 504              	.LBE79:
 505              	.LBE78:
 506              	.LBB80:
 507              	.LBB81:
 508              	.LBB82:
 509              	.LBB83:
 510              	.LBB84:
 511              		.loc 3 546 0
 512              		.syntax unified
 513              	@ 546 "ChibiOS_3.0.2/os/ext/CMSIS/include/core_cmFunc.h" 1
ARM GAS  C:\Users\CHRIST~1\AppData\Local\Temp\ccPexI4L.s 			page 10


 514 02c4 83F31188 		MSR basepri, r3
 515              	@ 0 "" 2
 516              	.LVL51:
 517              		.thumb
 518              		.syntax unified
 519              	.LBE84:
 520              	.LBE83:
 521              	.LBE82:
 522              	.LBE81:
 523              	.LBE80:
 524              	.LBE73:
 525              	.LBE72:
 526              		.loc 1 264 0
 527 02c8 C8F80420 		str	r2, [r8, #4]
 528              		.loc 1 265 0
 529 02cc 02A9     		add	r1, sp, #8
 530 02ce 06A8     		add	r0, sp, #24
 531 02d0 FFF7FEFF 		bl	buffer_get_int32
 532              	.LVL52:
 533 02d4 07EE900A 		vmov	s15, r0	@ int
 534 02d8 F8EEE77A 		vcvt.f32.s32	s15, s15
 535              		.loc 1 266 0
 536 02dc 02A9     		add	r1, sp, #8
 537              		.loc 1 265 0
 538 02de C8ED027A 		vstr.32	s15, [r8, #8]
 539              		.loc 1 266 0
 540 02e2 06A8     		add	r0, sp, #24
 541 02e4 FFF7FEFF 		bl	buffer_get_int16
 542              	.LVL53:
 543 02e8 07EE900A 		vmov	s15, r0	@ int
 544 02ec F8EEE76A 		vcvt.f32.s32	s13, s15
 545 02f0 B2EE047A 		vmov.f32	s14, #1.0e+1
 546 02f4 C6EE877A 		vdiv.f32	s15, s13, s14
 547              		.loc 1 267 0
 548 02f8 02A9     		add	r1, sp, #8
 549 02fa 06A8     		add	r0, sp, #24
 550              		.loc 1 266 0
 551 02fc C8ED037A 		vstr.32	s15, [r8, #12]
 552              		.loc 1 267 0
 553 0300 FFF7FEFF 		bl	buffer_get_int16
 554              	.LVL54:
 555 0304 07EE900A 		vmov	s15, r0	@ int
 556 0308 B8EEE77A 		vcvt.f32.s32	s14, s15
 557 030c D4F800C0 		ldr	ip, [r4]
 558 0310 C7EE087A 		vdiv.f32	s15, s14, s16
 559 0314 C8ED047A 		vstr.32	s15, [r8, #16]
 560              		.loc 1 268 0
 561 0318 CDE6     		b	.L4
 562              	.LVL55:
 563              	.L24:
 564              	.LBE86:
 565              		.loc 1 235 0
 566 031a 1548     		ldr	r0, .L40+40
 567 031c FFF7FEFF 		bl	commands_set_send_func
 568              	.LVL56:
 569              		.loc 1 236 0
 570 0320 9DF81010 		ldrb	r1, [sp, #16]	@ zero_extendqisi2
ARM GAS  C:\Users\CHRIST~1\AppData\Local\Temp\ccPexI4L.s 			page 11


 571 0324 0298     		ldr	r0, [sp, #8]
 572 0326 06AB     		add	r3, sp, #24
 573 0328 01F00F01 		and	r1, r1, #15
 574 032c 091A     		subs	r1, r1, r0
 575 032e 1844     		add	r0, r0, r3
 576 0330 FFF7FEFF 		bl	commands_process_packet
 577              	.LVL57:
 578 0334 BDE6     		b	.L21
 579              	.LVL58:
 580              	.L23:
 581              		.loc 1 221 0
 582 0336 0E48     		ldr	r0, .L40+40
 583 0338 FFF7FEFF 		bl	commands_set_send_func
 584              	.LVL59:
 585              		.loc 1 222 0
 586 033c 4146     		mov	r1, r8
 587 033e 0B48     		ldr	r0, .L40+36
 588 0340 FFF7FEFF 		bl	commands_process_packet
 589              	.LVL60:
 590 0344 B5E6     		b	.L21
 591              	.L41:
 592 0346 00BF     		.align	2
 593              	.L40:
 594 0348 00000000 		.word	.LC0
 595 034c 00000000 		.word	.LANCHOR0
 596 0350 00000000 		.word	.LANCHOR1
 597 0354 00000000 		.word	.LANCHOR2
 598 0358 00000000 		.word	.LANCHOR3
 599 035c 00000000 		.word	.LANCHOR6
 600 0360 00007A44 		.word	1148846080
 601 0364 0050C347 		.word	1203982336
 602 0368 00247449 		.word	1232348160
 603 036c 00000000 		.word	.LANCHOR4
 604 0370 00000000 		.word	send_packet_wrapper
 605 0374 00000000 		.word	ch
 606 0378 00000000 		.word	.LANCHOR5
 607              	.LBE88:
 608              	.LBE89:
 609              		.cfi_endproc
 610              	.LFE258:
 611              		.size	cancom_process_thread, .-cancom_process_thread
 612              		.section	.text.cancom_read_thread,"ax",%progbits
 613              		.align	1
 614              		.p2align 4,,15
 615              		.syntax unified
 616              		.thumb
 617              		.thumb_func
 618              		.fpu fpv4-sp-d16
 619              		.type	cancom_read_thread, %function
 620              	cancom_read_thread:
 621              	.LFB257:
 622              		.loc 1 101 0
 623              		.cfi_startproc
 624              		@ args = 0, pretend = 0, frame = 40
 625              		@ frame_needed = 0, uses_anonymous_args = 0
 626              	.LVL61:
 627 0000 2DE9F047 		push	{r4, r5, r6, r7, r8, r9, r10, lr}
ARM GAS  C:\Users\CHRIST~1\AppData\Local\Temp\ccPexI4L.s 			page 12


 628              		.cfi_def_cfa_offset 32
 629              		.cfi_offset 4, -32
 630              		.cfi_offset 5, -28
 631              		.cfi_offset 6, -24
 632              		.cfi_offset 7, -20
 633              		.cfi_offset 8, -16
 634              		.cfi_offset 9, -12
 635              		.cfi_offset 10, -8
 636              		.cfi_offset 14, -4
 637              	.LBB90:
 638              	.LBB91:
 639              		.loc 2 135 0
 640 0004 DFF8BCA0 		ldr	r10, .L56+20
 641 0008 294A     		ldr	r2, .L56
 642 000a DAF81830 		ldr	r3, [r10, #24]
 643              	.LBE91:
 644              	.LBE90:
 645              	.LBB93:
 646              	.LBB94:
 647              	.LBB95:
 648              		.file 5 "ChibiOS_3.0.2/os/rt/include/chevents.h"
 649              		.loc 5 193 0
 650 000e 2948     		ldr	r0, .L56+4
 651              	.LVL62:
 652              	.LBE95:
 653              	.LBE94:
 654              	.LBE93:
 655              	.LBB98:
 656              	.LBB92:
 657              		.loc 2 135 0
 658 0010 9A61     		str	r2, [r3, #24]
 659              	.LVL63:
 660              	.LBE92:
 661              	.LBE98:
 662              		.loc 1 101 0
 663 0012 8AB0     		sub	sp, sp, #40
 664              		.cfi_def_cfa_offset 72
 665              	.LVL64:
 666              	.LBB99:
 667              	.LBB97:
 668              	.LBB96:
 669              		.loc 5 193 0
 670 0014 6946     		mov	r1, sp
 671 0016 4FF0FF33 		mov	r3, #-1
 672 001a 0122     		movs	r2, #1
 673 001c FFF7FEFF 		bl	chEvtRegisterMaskWithFlags
 674              	.LVL65:
 675              	.LBE96:
 676              	.LBE97:
 677              	.LBE99:
 678              	.LBB100:
 679              		.loc 1 115 0
 680 0020 254E     		ldr	r6, .L56+8
 681 0022 264D     		ldr	r5, .L56+12
 682 0024 DFF8A080 		ldr	r8, .L56+24
 683              	.L44:
 684              	.LBE100:
ARM GAS  C:\Users\CHRIST~1\AppData\Local\Temp\ccPexI4L.s 			page 13


 685              	.LBB101:
 686              	.LBB102:
 687              		.file 6 "ChibiOS_3.0.2/os/rt/include/chthreads.h"
 688              		.loc 6 233 0
 689 0028 DAF81830 		ldr	r3, [r10, #24]
 690              	.LBE102:
 691              	.LBE101:
 692              		.loc 1 110 0
 693 002c 5B7F     		ldrb	r3, [r3, #29]	@ zero_extendqisi2
 694 002e 13F00404 		ands	r4, r3, #4
 695 0032 36D1     		bne	.L55
 696              	.L48:
 697              	.LBB104:
 698              		.loc 1 111 0
 699 0034 6421     		movs	r1, #100
 700 0036 4FF0FF30 		mov	r0, #-1
 701 003a FFF7FEFF 		bl	chEvtWaitAnyTimeout
 702              	.LVL66:
 703 003e 0028     		cmp	r0, #0
 704 0040 F2D0     		beq	.L44
 705              		.loc 1 115 0
 706 0042 05AA     		add	r2, sp, #20
 707 0044 2346     		mov	r3, r4
 708 0046 2146     		mov	r1, r4
 709 0048 3046     		mov	r0, r6
 710 004a FFF7FEFF 		bl	canReceive
 711              	.LVL67:
 712              		.loc 1 117 0
 713 004e 0028     		cmp	r0, #0
 714 0050 EAD1     		bne	.L44
 715 0052 1B4F     		ldr	r7, .L56+16
 716              		.loc 1 120 0
 717 0054 8146     		mov	r9, r0
 718              	.L45:
 719              	.LVL68:
 720              		.loc 1 118 0
 721 0056 05AC     		add	r4, sp, #20
 722 0058 0FCC     		ldmia	r4!, {r0, r1, r2, r3}
 723 005a D5F800E0 		ldr	lr, [r5]
 724 005e D4F800C0 		ldr	ip, [r4]
 725 0062 0EEB8E04 		add	r4, lr, lr, lsl #2
 726 0066 08EB8404 		add	r4, r8, r4, lsl #2
 727 006a 0FC4     		stmia	r4!, {r0, r1, r2, r3}
 728              		.loc 1 123 0
 729 006c 0121     		movs	r1, #1
 730              		.loc 1 118 0
 731 006e 0EEB0103 		add	r3, lr, r1
 732              		.loc 1 119 0
 733 0072 642B     		cmp	r3, #100
 734              		.loc 1 123 0
 735 0074 3868     		ldr	r0, [r7]
 736              		.loc 1 118 0
 737 0076 2B60     		str	r3, [r5]
 738 0078 C4F800C0 		str	ip, [r4]
 739              		.loc 1 120 0
 740 007c 08BF     		it	eq
 741 007e C5F80090 		streq	r9, [r5]
ARM GAS  C:\Users\CHRIST~1\AppData\Local\Temp\ccPexI4L.s 			page 14


 742              		.loc 1 123 0
 743 0082 FFF7FEFF 		bl	chEvtSignal
 744              	.LVL69:
 745              		.loc 1 125 0
 746 0086 0023     		movs	r3, #0
 747 0088 1946     		mov	r1, r3
 748 008a 05AA     		add	r2, sp, #20
 749 008c 3046     		mov	r0, r6
 750 008e FFF7FEFF 		bl	canReceive
 751              	.LVL70:
 752              		.loc 1 117 0
 753 0092 0028     		cmp	r0, #0
 754 0094 DFD0     		beq	.L45
 755              	.LBE104:
 756              	.LBB105:
 757              	.LBB103:
 758              		.loc 6 233 0
 759 0096 DAF81830 		ldr	r3, [r10, #24]
 760              	.LBE103:
 761              	.LBE105:
 762              		.loc 1 110 0
 763 009a 5B7F     		ldrb	r3, [r3, #29]	@ zero_extendqisi2
 764 009c 13F00404 		ands	r4, r3, #4
 765 00a0 C8D0     		beq	.L48
 766              	.LVL71:
 767              	.L55:
 768              		.loc 1 129 0
 769 00a2 6946     		mov	r1, sp
 770 00a4 0348     		ldr	r0, .L56+4
 771              	.LVL72:
 772 00a6 FFF7FEFF 		bl	chEvtUnregister
 773              	.LVL73:
 774              		.loc 1 130 0
 775 00aa 0AB0     		add	sp, sp, #40
 776              		.cfi_def_cfa_offset 32
 777              	.LVL74:
 778              		@ sp needed
 779 00ac BDE8F087 		pop	{r4, r5, r6, r7, r8, r9, r10, pc}
 780              	.LVL75:
 781              	.L57:
 782              		.align	2
 783              	.L56:
 784 00b0 00000000 		.word	.LC1
 785 00b4 18000000 		.word	CAND1+24
 786 00b8 00000000 		.word	CAND1
 787 00bc 00000000 		.word	.LANCHOR2
 788 00c0 00000000 		.word	.LANCHOR0
 789 00c4 00000000 		.word	ch
 790 00c8 00000000 		.word	.LANCHOR3
 791              		.cfi_endproc
 792              	.LFE257:
 793              		.size	cancom_read_thread, .-cancom_read_thread
 794              		.section	.text.comm_can_init,"ax",%progbits
 795              		.align	1
 796              		.p2align 4,,15
 797              		.global	comm_can_init
 798              		.syntax unified
ARM GAS  C:\Users\CHRIST~1\AppData\Local\Temp\ccPexI4L.s 			page 15


 799              		.thumb
 800              		.thumb_func
 801              		.fpu fpv4-sp-d16
 802              		.type	comm_can_init, %function
 803              	comm_can_init:
 804              	.LFB256:
 805              		.loc 1 72 0
 806              		.cfi_startproc
 807              		@ args = 0, pretend = 0, frame = 0
 808              		@ frame_needed = 0, uses_anonymous_args = 0
 809              	.LVL76:
 810 0000 10B5     		push	{r4, lr}
 811              		.cfi_def_cfa_offset 8
 812              		.cfi_offset 4, -8
 813              		.cfi_offset 14, -4
 814 0002 1E49     		ldr	r1, .L62
 815 0004 82B0     		sub	sp, sp, #8
 816              		.cfi_def_cfa_offset 16
 817              		.loc 1 72 0
 818 0006 0023     		movs	r3, #0
 819              	.LBB106:
 820              		.loc 1 74 0
 821 0008 4FF0FF32 		mov	r2, #-1
 822              	.LVL77:
 823              	.L59:
 824              		.loc 1 74 0 is_stmt 0 discriminator 3
 825 000c CA50     		str	r2, [r1, r3]
 826 000e 1433     		adds	r3, r3, #20
 827              		.loc 1 73 0 is_stmt 1 discriminator 3
 828 0010 C82B     		cmp	r3, #200
 829 0012 FBD1     		bne	.L59
 830              	.LBE106:
 831              		.loc 1 78 0
 832 0014 1A4B     		ldr	r3, .L62+4
 833              		.loc 1 77 0
 834 0016 1B4A     		ldr	r2, .L62+8
 835              		.loc 1 80 0
 836 0018 1B48     		ldr	r0, .L62+12
 837              		.loc 1 77 0
 838 001a 0024     		movs	r4, #0
 839              		.loc 1 78 0
 840 001c 1C60     		str	r4, [r3]
 841              		.loc 1 77 0
 842 001e 1460     		str	r4, [r2]
 843              		.loc 1 80 0
 844 0020 FFF7FEFF 		bl	chMtxObjectInit
 845              	.LVL78:
 846              		.loc 1 82 0
 847 0024 40F28A42 		movw	r2, #1162
 848 0028 4FF48071 		mov	r1, #256
 849 002c 1748     		ldr	r0, .L62+16
 850 002e FFF7FEFF 		bl	_pal_lld_setgroupmode
 851              	.LVL79:
 852              		.loc 1 86 0
 853 0032 40F28A42 		movw	r2, #1162
 854 0036 4FF40071 		mov	r1, #512
 855 003a 1448     		ldr	r0, .L62+16
ARM GAS  C:\Users\CHRIST~1\AppData\Local\Temp\ccPexI4L.s 			page 16


 856 003c FFF7FEFF 		bl	_pal_lld_setgroupmode
 857              	.LVL80:
 858              		.loc 1 91 0
 859 0040 1349     		ldr	r1, .L62+20
 860 0042 1448     		ldr	r0, .L62+24
 861 0044 FFF7FEFF 		bl	canStart
 862              	.LVL81:
 863              		.loc 1 93 0
 864 0048 0094     		str	r4, [sp]
 865 004a 134B     		ldr	r3, .L62+28
 866 004c 1348     		ldr	r0, .L62+32
 867 004e 4122     		movs	r2, #65
 868 0050 4FF46671 		mov	r1, #920
 869 0054 FFF7FEFF 		bl	chThdCreateStatic
 870              	.LVL82:
 871              		.loc 1 95 0
 872 0058 0094     		str	r4, [sp]
 873 005a 114B     		ldr	r3, .L62+36
 874 005c 1148     		ldr	r0, .L62+40
 875 005e 4022     		movs	r2, #64
 876 0060 4FF4B361 		mov	r1, #1432
 877 0064 FFF7FEFF 		bl	chThdCreateStatic
 878              	.LVL83:
 879              		.loc 1 97 0
 880 0068 0094     		str	r4, [sp]
 881 006a 0F4B     		ldr	r3, .L62+44
 882 006c 0F48     		ldr	r0, .L62+48
 883 006e 4022     		movs	r2, #64
 884 0070 41F29811 		movw	r1, #4504
 885 0074 FFF7FEFF 		bl	chThdCreateStatic
 886              	.LVL84:
 887              		.loc 1 99 0
 888 0078 02B0     		add	sp, sp, #8
 889              		.cfi_def_cfa_offset 8
 890              		@ sp needed
 891 007a 10BD     		pop	{r4, pc}
 892              	.L63:
 893              		.align	2
 894              	.L62:
 895 007c 00000000 		.word	.LANCHOR6
 896 0080 00000000 		.word	.LANCHOR2
 897 0084 00000000 		.word	.LANCHOR1
 898 0088 00000000 		.word	.LANCHOR7
 899 008c 00040240 		.word	1073873920
 900 0090 00000000 		.word	.LANCHOR8
 901 0094 00000000 		.word	CAND1
 902 0098 00000000 		.word	cancom_read_thread
 903 009c 00000000 		.word	.LANCHOR9
 904 00a0 00000000 		.word	cancom_status_thread
 905 00a4 00000000 		.word	.LANCHOR10
 906 00a8 00000000 		.word	cancom_process_thread
 907 00ac 00000000 		.word	.LANCHOR11
 908              		.cfi_endproc
 909              	.LFE256:
 910              		.size	comm_can_init, .-comm_can_init
 911              		.section	.text.comm_can_transmit_eid,"ax",%progbits
 912              		.align	1
ARM GAS  C:\Users\CHRIST~1\AppData\Local\Temp\ccPexI4L.s 			page 17


 913              		.p2align 4,,15
 914              		.global	comm_can_transmit_eid
 915              		.syntax unified
 916              		.thumb
 917              		.thumb_func
 918              		.fpu fpv4-sp-d16
 919              		.type	comm_can_transmit_eid, %function
 920              	comm_can_transmit_eid:
 921              	.LFB260:
 922              		.loc 1 310 0
 923              		.cfi_startproc
 924              		@ args = 0, pretend = 0, frame = 16
 925              		@ frame_needed = 0, uses_anonymous_args = 0
 926              	.LVL85:
 927 0000 70B5     		push	{r4, r5, r6, lr}
 928              		.cfi_def_cfa_offset 16
 929              		.cfi_offset 4, -16
 930              		.cfi_offset 5, -12
 931              		.cfi_offset 6, -8
 932              		.cfi_offset 14, -4
 933 0002 84B0     		sub	sp, sp, #16
 934              		.cfi_def_cfa_offset 32
 935              		.loc 1 316 0
 936 0004 04AC     		add	r4, sp, #16
 937              		.loc 1 313 0
 938 0006 9DF80030 		ldrb	r3, [sp]	@ zero_extendqisi2
 939              		.loc 1 314 0
 940 000a 019E     		ldr	r6, [sp, #4]
 941              		.loc 1 319 0
 942 000c 0E4D     		ldr	r5, .L66
 943              		.loc 1 315 0
 944 000e 43F02003 		orr	r3, r3, #32
 945              		.loc 1 316 0
 946 0012 03F0EF03 		and	r3, r3, #239
 947 0016 62F30303 		bfi	r3, r2, #0, #4
 948 001a 04F8103D 		strb	r3, [r4, #-16]!
 949              		.loc 1 314 0
 950 001e 60F31C06 		bfi	r6, r0, #0, #29
 951              		.loc 1 317 0
 952 0022 02A8     		add	r0, sp, #8
 953              	.LVL86:
 954              		.loc 1 314 0
 955 0024 0196     		str	r6, [sp, #4]
 956              		.loc 1 317 0
 957 0026 FFF7FEFF 		bl	memcpy
 958              	.LVL87:
 959              		.loc 1 319 0
 960 002a 2846     		mov	r0, r5
 961 002c FFF7FEFF 		bl	chMtxLock
 962              	.LVL88:
 963              		.loc 1 320 0
 964 0030 2246     		mov	r2, r4
 965 0032 C823     		movs	r3, #200
 966 0034 0021     		movs	r1, #0
 967 0036 0548     		ldr	r0, .L66+4
 968 0038 FFF7FEFF 		bl	canTransmit
 969              	.LVL89:
ARM GAS  C:\Users\CHRIST~1\AppData\Local\Temp\ccPexI4L.s 			page 18


 970              		.loc 1 321 0
 971 003c 2846     		mov	r0, r5
 972 003e FFF7FEFF 		bl	chMtxUnlock
 973              	.LVL90:
 974              		.loc 1 328 0
 975 0042 04B0     		add	sp, sp, #16
 976              		.cfi_def_cfa_offset 16
 977              		@ sp needed
 978 0044 70BD     		pop	{r4, r5, r6, pc}
 979              	.L67:
 980 0046 00BF     		.align	2
 981              	.L66:
 982 0048 00000000 		.word	.LANCHOR7
 983 004c 00000000 		.word	CAND1
 984              		.cfi_endproc
 985              	.LFE260:
 986              		.size	comm_can_transmit_eid, .-comm_can_transmit_eid
 987              		.section	.text.cancom_status_thread,"ax",%progbits
 988              		.align	1
 989              		.p2align 4,,15
 990              		.syntax unified
 991              		.thumb
 992              		.thumb_func
 993              		.fpu fpv4-sp-d16
 994              		.type	cancom_status_thread, %function
 995              	cancom_status_thread:
 996              	.LFB259:
 997              		.loc 1 285 0
 998              		.cfi_startproc
 999              		@ args = 0, pretend = 0, frame = 24
 1000              		@ frame_needed = 0, uses_anonymous_args = 0
 1001              	.LVL91:
 1002 0000 10B5     		push	{r4, lr}
 1003              		.cfi_def_cfa_offset 8
 1004              		.cfi_offset 4, -8
 1005              		.cfi_offset 14, -4
 1006              	.LBB107:
 1007              	.LBB108:
 1008              		.loc 2 135 0
 1009 0002 284B     		ldr	r3, .L76
 1010 0004 284A     		ldr	r2, .L76+4
 1011 0006 9B69     		ldr	r3, [r3, #24]
 1012              	.LBE108:
 1013              	.LBE107:
 1014              		.loc 1 285 0
 1015 0008 2DED028B 		vpush.64	{d8}
 1016              		.cfi_def_cfa_offset 16
 1017              		.cfi_offset 80, -16
 1018              		.cfi_offset 81, -12
 1019              	.LBB110:
 1020              	.LBB111:
 1021              		.loc 1 292 0
 1022 000c 0024     		movs	r4, #0
 1023              	.LBE111:
 1024              	.LBE110:
 1025              		.loc 1 285 0
 1026 000e 86B0     		sub	sp, sp, #24
ARM GAS  C:\Users\CHRIST~1\AppData\Local\Temp\ccPexI4L.s 			page 19


 1027              		.cfi_def_cfa_offset 40
 1028              	.LBB115:
 1029              	.LBB112:
 1030              		.loc 1 296 0
 1031 0010 DFED268A 		vldr.32	s17, .L76+8
 1032              	.LBE112:
 1033              	.LBE115:
 1034              	.LBB116:
 1035              	.LBB109:
 1036              		.loc 2 135 0
 1037 0014 9A61     		str	r2, [r3, #24]
 1038              	.LBE109:
 1039              	.LBE116:
 1040              	.LBB117:
 1041              	.LBB113:
 1042              		.loc 1 295 0
 1043 0016 B2EE048A 		vmov.f32	s16, #1.0e+1
 1044 001a 0BE0     		b	.L71
 1045              	.LVL92:
 1046              	.L69:
 1047              	.LBE113:
 1048              		.loc 1 301 0
 1049 001c FFF7FEFF 		bl	app_get_configuration
 1050              	.LVL93:
 1051 0020 42F21073 		movw	r3, #10000
 1052 0024 0069     		ldr	r0, [r0, #16]
 1053 0026 B3FBF0F0 		udiv	r0, r3, r0
 1054              	.LVL94:
 1055              		.loc 1 303 0
 1056 002a 0028     		cmp	r0, #0
 1057              	.LVL95:
 1058              		.loc 1 306 0
 1059 002c 08BF     		it	eq
 1060 002e 0120     		moveq	r0, #1
 1061              	.LVL96:
 1062 0030 FFF7FEFF 		bl	chThdSleep
 1063              	.LVL97:
 1064              	.L71:
 1065              		.loc 1 290 0
 1066 0034 FFF7FEFF 		bl	app_get_configuration
 1067              	.LVL98:
 1068 0038 037B     		ldrb	r3, [r0, #12]	@ zero_extendqisi2
 1069 003a 002B     		cmp	r3, #0
 1070 003c EED0     		beq	.L69
 1071              	.LBB114:
 1072              		.loc 1 292 0
 1073 003e 0394     		str	r4, [sp, #12]
 1074              		.loc 1 294 0
 1075 0040 FFF7FEFF 		bl	mc_interface_get_rpm
 1076              	.LVL99:
 1077 0044 FDEEC07A 		vcvt.s32.f32	s15, s0
 1078 0048 03AA     		add	r2, sp, #12
 1079 004a 17EE901A 		vmov	r1, s15	@ int
 1080 004e 04A8     		add	r0, sp, #16
 1081 0050 FFF7FEFF 		bl	buffer_append_int32
 1082              	.LVL100:
 1083              		.loc 1 295 0
ARM GAS  C:\Users\CHRIST~1\AppData\Local\Temp\ccPexI4L.s 			page 20


 1084 0054 FFF7FEFF 		bl	mc_interface_get_tot_current
 1085              	.LVL101:
 1086 0058 20EE080A 		vmul.f32	s0, s0, s16
 1087 005c 03AA     		add	r2, sp, #12
 1088 005e FDEEC07A 		vcvt.s32.f32	s15, s0
 1089 0062 04A8     		add	r0, sp, #16
 1090 0064 CDED017A 		vstr.32	s15, [sp, #4]	@ int
 1091 0068 BDF90410 		ldrsh	r1, [sp, #4]
 1092 006c FFF7FEFF 		bl	buffer_append_int16
 1093              	.LVL102:
 1094              		.loc 1 296 0
 1095 0070 FFF7FEFF 		bl	mc_interface_get_duty_cycle_now
 1096              	.LVL103:
 1097 0074 20EE280A 		vmul.f32	s0, s0, s17
 1098 0078 03AA     		add	r2, sp, #12
 1099 007a FDEEC07A 		vcvt.s32.f32	s15, s0
 1100 007e 04A8     		add	r0, sp, #16
 1101 0080 CDED017A 		vstr.32	s15, [sp, #4]	@ int
 1102 0084 BDF90410 		ldrsh	r1, [sp, #4]
 1103 0088 FFF7FEFF 		bl	buffer_append_int16
 1104              	.LVL104:
 1105              		.loc 1 297 0
 1106 008c FFF7FEFF 		bl	app_get_configuration
 1107              	.LVL105:
 1108 0090 0078     		ldrb	r0, [r0]	@ zero_extendqisi2
 1109 0092 9DF80C20 		ldrb	r2, [sp, #12]	@ zero_extendqisi2
 1110 0096 40F41060 		orr	r0, r0, #2304
 1111 009a 04A9     		add	r1, sp, #16
 1112 009c FFF7FEFF 		bl	comm_can_transmit_eid
 1113              	.LVL106:
 1114 00a0 BCE7     		b	.L69
 1115              	.L77:
 1116 00a2 00BF     		.align	2
 1117              	.L76:
 1118 00a4 00000000 		.word	ch
 1119 00a8 00000000 		.word	.LC2
 1120 00ac 00007A44 		.word	1148846080
 1121              	.LBE114:
 1122              	.LBE117:
 1123              		.cfi_endproc
 1124              	.LFE259:
 1125              		.size	cancom_status_thread, .-cancom_status_thread
 1126              		.section	.text.comm_can_send_buffer,"ax",%progbits
 1127              		.align	1
 1128              		.p2align 4,,15
 1129              		.global	comm_can_send_buffer
 1130              		.syntax unified
 1131              		.thumb
 1132              		.thumb_func
 1133              		.fpu fpv4-sp-d16
 1134              		.type	comm_can_send_buffer, %function
 1135              	comm_can_send_buffer:
 1136              	.LFB261:
 1137              		.loc 1 348 0
 1138              		.cfi_startproc
 1139              		@ args = 0, pretend = 0, frame = 24
 1140              		@ frame_needed = 0, uses_anonymous_args = 0
ARM GAS  C:\Users\CHRIST~1\AppData\Local\Temp\ccPexI4L.s 			page 21


 1141              	.LVL107:
 1142 0000 2DE9F04F 		push	{r4, r5, r6, r7, r8, r9, r10, fp, lr}
 1143              		.cfi_def_cfa_offset 36
 1144              		.cfi_offset 4, -36
 1145              		.cfi_offset 5, -32
 1146              		.cfi_offset 6, -28
 1147              		.cfi_offset 7, -24
 1148              		.cfi_offset 8, -20
 1149              		.cfi_offset 9, -16
 1150              		.cfi_offset 10, -12
 1151              		.cfi_offset 11, -8
 1152              		.cfi_offset 14, -4
 1153 0004 87B0     		sub	sp, sp, #28
 1154              		.cfi_def_cfa_offset 64
 1155              		.loc 1 351 0
 1156 0006 062A     		cmp	r2, #6
 1157              		.loc 1 348 0
 1158 0008 1646     		mov	r6, r2
 1159 000a 0190     		str	r0, [sp, #4]
 1160 000c 8B46     		mov	fp, r1
 1161 000e 0293     		str	r3, [sp, #8]
 1162              		.loc 1 351 0
 1163 0010 7CD9     		bls	.L79
 1164 0012 4FF00009 		mov	r9, #0
 1165 0016 D3B2     		uxtb	r3, r2
 1166              	.LVL108:
 1167 0018 4C46     		mov	r4, r9
 1168 001a 40F4A067 		orr	r7, r0, #1280
 1169 001e 0393     		str	r3, [sp, #12]
 1170 0020 0D46     		mov	r5, r1
 1171              	.LBB118:
 1172              	.LBB119:
 1173              	.LBB120:
 1174              		.loc 1 362 0
 1175 0022 40F20318 		movw	r8, #259
 1176 0026 01E0     		b	.L80
 1177              	.LVL109:
 1178              	.L85:
 1179 0028 4445     		cmp	r4, r8
 1180 002a 3FD0     		beq	.L82
 1181              	.LVL110:
 1182              	.L80:
 1183              		.loc 1 366 0
 1184 002c 0734     		adds	r4, r4, #7
 1185              	.LVL111:
 1186              		.loc 1 369 0
 1187 002e 5FFA89F3 		uxtb	r3, r9
 1188              		.loc 1 371 0
 1189 0032 A642     		cmp	r6, r4
 1190              		.loc 1 369 0
 1191 0034 8DF81030 		strb	r3, [sp, #16]
 1192              		.loc 1 371 0
 1193 0038 C0F08280 		bcc	.L83
 1194              		.loc 1 372 0
 1195 003c 2B68     		ldr	r3, [r5]	@ unaligned
 1196 003e AA88     		ldrh	r2, [r5, #4]	@ unaligned
 1197 0040 CDF81130 		str	r3, [sp, #17]	@ unaligned
ARM GAS  C:\Users\CHRIST~1\AppData\Local\Temp\ccPexI4L.s 			page 22


 1198 0044 AB79     		ldrb	r3, [r5, #6]	@ zero_extendqisi2
 1199 0046 ADF81520 		strh	r2, [sp, #21]	@ unaligned
 1200 004a 8DF81730 		strb	r3, [sp, #23]
 1201 004e 0822     		movs	r2, #8
 1202              	.LVL112:
 1203              	.L84:
 1204              		.loc 1 378 0 discriminator 2
 1205 0050 04A9     		add	r1, sp, #16
 1206 0052 3846     		mov	r0, r7
 1207 0054 FFF7FEFF 		bl	comm_can_transmit_eid
 1208              	.LVL113:
 1209              	.LBE120:
 1210              		.loc 1 361 0 discriminator 2
 1211 0058 A642     		cmp	r6, r4
 1212 005a 09F10709 		add	r9, r9, #7
 1213 005e 05F10705 		add	r5, r5, #7
 1214 0062 E1D8     		bhi	.L85
 1215              	.LVL114:
 1216              	.L89:
 1217              	.LBE119:
 1218              		.loc 1 399 0
 1219 0064 FFF7FEFF 		bl	app_get_configuration
 1220              	.LVL115:
 1221 0068 0278     		ldrb	r2, [r0]	@ zero_extendqisi2
 1222 006a 8DF81020 		strb	r2, [sp, #16]
 1223              	.LVL116:
 1224              		.loc 1 400 0
 1225 006e 9DF80820 		ldrb	r2, [sp, #8]	@ zero_extendqisi2
 1226 0072 8DF81120 		strb	r2, [sp, #17]
 1227              	.LVL117:
 1228              		.loc 1 401 0
 1229 0076 330A     		lsrs	r3, r6, #8
 1230              		.loc 1 402 0
 1231 0078 9DF80C20 		ldrb	r2, [sp, #12]	@ zero_extendqisi2
 1232 007c 8DF81320 		strb	r2, [sp, #19]
 1233              		.loc 1 403 0
 1234 0080 3146     		mov	r1, r6
 1235 0082 5846     		mov	r0, fp
 1236              		.loc 1 401 0
 1237 0084 8DF81230 		strb	r3, [sp, #18]
 1238              	.LVL118:
 1239              		.loc 1 403 0
 1240 0088 FFF7FEFF 		bl	crc16
 1241              	.LVL119:
 1242              		.loc 1 407 0
 1243 008c 019A     		ldr	r2, [sp, #4]
 1244              		.loc 1 403 0
 1245 008e 0346     		mov	r3, r0
 1246              	.LVL120:
 1247              		.loc 1 404 0
 1248 0090 040A     		lsrs	r4, r0, #8
 1249              		.loc 1 407 0
 1250 0092 04A9     		add	r1, sp, #16
 1251 0094 42F4E060 		orr	r0, r2, #1792
 1252              	.LVL121:
 1253 0098 0622     		movs	r2, #6
 1254              		.loc 1 405 0
ARM GAS  C:\Users\CHRIST~1\AppData\Local\Temp\ccPexI4L.s 			page 23


 1255 009a 8DF81530 		strb	r3, [sp, #21]
 1256              		.loc 1 404 0
 1257 009e 8DF81440 		strb	r4, [sp, #20]
 1258              	.LVL122:
 1259              		.loc 1 407 0
 1260 00a2 FFF7FEFF 		bl	comm_can_transmit_eid
 1261              	.LVL123:
 1262              	.LBE118:
 1263              		.loc 1 410 0
 1264 00a6 07B0     		add	sp, sp, #28
 1265              		.cfi_remember_state
 1266              		.cfi_def_cfa_offset 36
 1267              		@ sp needed
 1268 00a8 BDE8F08F 		pop	{r4, r5, r6, r7, r8, r9, r10, fp, pc}
 1269              	.LVL124:
 1270              	.L82:
 1271              		.cfi_restore_state
 1272 00ac 019B     		ldr	r3, [sp, #4]
 1273 00ae 43F4C068 		orr	r8, r3, #1536
 1274              	.LBB126:
 1275              	.LBB122:
 1276              	.LBB123:
 1277              		.loc 1 391 0
 1278 00b2 039B     		ldr	r3, [sp, #12]
 1279 00b4 0BF2031A 		addw	r10, fp, #259
 1280 00b8 9F1D     		adds	r7, r3, #6
 1281 00ba 03F10809 		add	r9, r3, #8
 1282 00be 10E0     		b	.L88
 1283              	.LVL125:
 1284              	.L92:
 1285              		.loc 1 388 0
 1286 00c0 DAF80020 		ldr	r2, [r10]	@ unaligned
 1287 00c4 BAF80430 		ldrh	r3, [r10, #4]	@ unaligned
 1288 00c8 CDF81220 		str	r2, [sp, #18]	@ unaligned
 1289 00cc ADF81630 		strh	r3, [sp, #22]	@ unaligned
 1290 00d0 0822     		movs	r2, #8
 1291              	.L87:
 1292              		.loc 1 394 0 discriminator 2
 1293 00d2 04A9     		add	r1, sp, #16
 1294 00d4 4046     		mov	r0, r8
 1295 00d6 FFF7FEFF 		bl	comm_can_transmit_eid
 1296              	.LVL126:
 1297              	.LBE123:
 1298              		.loc 1 382 0 discriminator 2
 1299 00da A642     		cmp	r6, r4
 1300 00dc 0AF1060A 		add	r10, r10, #6
 1301 00e0 C0D9     		bls	.L89
 1302              	.LVL127:
 1303              	.L88:
 1304              	.LBB124:
 1305              		.loc 1 384 0
 1306 00e2 230A     		lsrs	r3, r4, #8
 1307              		.loc 1 385 0
 1308 00e4 8DF81140 		strb	r4, [sp, #17]
 1309              		.loc 1 387 0
 1310 00e8 0634     		adds	r4, r4, #6
 1311              	.LVL128:
ARM GAS  C:\Users\CHRIST~1\AppData\Local\Temp\ccPexI4L.s 			page 24


 1312 00ea E5B2     		uxtb	r5, r4
 1313              	.LVL129:
 1314 00ec A642     		cmp	r6, r4
 1315              		.loc 1 384 0
 1316 00ee 8DF81030 		strb	r3, [sp, #16]
 1317              		.loc 1 391 0
 1318 00f2 A7EB0502 		sub	r2, r7, r5
 1319              		.loc 1 387 0
 1320 00f6 E3D2     		bcs	.L92
 1321              		.loc 1 391 0
 1322 00f8 D2B2     		uxtb	r2, r2
 1323 00fa 5146     		mov	r1, r10
 1324 00fc 0DF11200 		add	r0, sp, #18
 1325 0100 FFF7FEFF 		bl	memcpy
 1326              	.LVL130:
 1327 0104 A9EB0502 		sub	r2, r9, r5
 1328 0108 D2B2     		uxtb	r2, r2
 1329 010a E2E7     		b	.L87
 1330              	.LVL131:
 1331              	.L79:
 1332              	.LBE124:
 1333              	.LBE122:
 1334              	.LBE126:
 1335              	.LBB127:
 1336              		.loc 1 353 0
 1337 010c FFF7FEFF 		bl	app_get_configuration
 1338              	.LVL132:
 1339 0110 0378     		ldrb	r3, [r0]	@ zero_extendqisi2
 1340 0112 8DF81030 		strb	r3, [sp, #16]
 1341              	.LVL133:
 1342              		.loc 1 355 0
 1343 0116 5946     		mov	r1, fp
 1344              		.loc 1 354 0
 1345 0118 9DF80830 		ldrb	r3, [sp, #8]	@ zero_extendqisi2
 1346 011c 8DF81130 		strb	r3, [sp, #17]
 1347              		.loc 1 355 0
 1348 0120 3246     		mov	r2, r6
 1349 0122 0DF11200 		add	r0, sp, #18
 1350 0126 FFF7FEFF 		bl	memcpy
 1351              	.LVL134:
 1352              		.loc 1 357 0
 1353 012a 019B     		ldr	r3, [sp, #4]
 1354              		.loc 1 356 0
 1355 012c B21C     		adds	r2, r6, #2
 1356              	.LVL135:
 1357              		.loc 1 357 0
 1358 012e D2B2     		uxtb	r2, r2
 1359              	.LVL136:
 1360 0130 43F40060 		orr	r0, r3, #2048
 1361 0134 04A9     		add	r1, sp, #16
 1362 0136 FFF7FEFF 		bl	comm_can_transmit_eid
 1363              	.LVL137:
 1364              	.LBE127:
 1365              		.loc 1 410 0
 1366 013a 07B0     		add	sp, sp, #28
 1367              		.cfi_remember_state
 1368              		.cfi_def_cfa_offset 36
ARM GAS  C:\Users\CHRIST~1\AppData\Local\Temp\ccPexI4L.s 			page 25


 1369              		@ sp needed
 1370 013c BDE8F08F 		pop	{r4, r5, r6, r7, r8, r9, r10, fp, pc}
 1371              	.LVL138:
 1372              	.L83:
 1373              		.cfi_restore_state
 1374              	.LBB128:
 1375              	.LBB125:
 1376              	.LBB121:
 1377              		.loc 1 375 0
 1378 0140 039A     		ldr	r2, [sp, #12]
 1379 0142 D31A     		subs	r3, r2, r3
 1380              	.LVL139:
 1381 0144 DAB2     		uxtb	r2, r3
 1382 0146 2946     		mov	r1, r5
 1383 0148 0DF11100 		add	r0, sp, #17
 1384 014c FFF7FEFF 		bl	memcpy
 1385              	.LVL140:
 1386 0150 039B     		ldr	r3, [sp, #12]
 1387 0152 C4F10802 		rsb	r2, r4, #8
 1388 0156 1A44     		add	r2, r2, r3
 1389 0158 D2B2     		uxtb	r2, r2
 1390 015a 79E7     		b	.L84
 1391              	.LBE121:
 1392              	.LBE125:
 1393              	.LBE128:
 1394              		.cfi_endproc
 1395              	.LFE261:
 1396              		.size	comm_can_send_buffer, .-comm_can_send_buffer
 1397              		.section	.text.send_packet_wrapper,"ax",%progbits
 1398              		.align	1
 1399              		.p2align 4,,15
 1400              		.syntax unified
 1401              		.thumb
 1402              		.thumb_func
 1403              		.fpu fpv4-sp-d16
 1404              		.type	send_packet_wrapper, %function
 1405              	send_packet_wrapper:
 1406              	.LFB271:
 1407              		.loc 1 522 0
 1408              		.cfi_startproc
 1409              		@ args = 0, pretend = 0, frame = 0
 1410              		@ frame_needed = 0, uses_anonymous_args = 0
 1411              		@ link register save eliminated.
 1412              	.LVL141:
 1413 0000 10B4     		push	{r4}
 1414              		.cfi_def_cfa_offset 4
 1415              		.cfi_offset 4, -4
 1416              		.loc 1 523 0
 1417 0002 044C     		ldr	r4, .L95
 1418 0004 0A46     		mov	r2, r1
 1419 0006 0123     		movs	r3, #1
 1420 0008 0146     		mov	r1, r0
 1421              	.LVL142:
 1422 000a 2078     		ldrb	r0, [r4]	@ zero_extendqisi2
 1423              	.LVL143:
 1424              		.loc 1 524 0
 1425 000c 5DF8044B 		ldr	r4, [sp], #4
ARM GAS  C:\Users\CHRIST~1\AppData\Local\Temp\ccPexI4L.s 			page 26


 1426              		.cfi_restore 4
 1427              		.cfi_def_cfa_offset 0
 1428              		.loc 1 523 0
 1429 0010 FFF7FEBF 		b	comm_can_send_buffer
 1430              	.LVL144:
 1431              	.L96:
 1432              		.align	2
 1433              	.L95:
 1434 0014 00000000 		.word	.LANCHOR5
 1435              		.cfi_endproc
 1436              	.LFE271:
 1437              		.size	send_packet_wrapper, .-send_packet_wrapper
 1438              		.section	.text.comm_can_set_duty,"ax",%progbits
 1439              		.align	1
 1440              		.p2align 4,,15
 1441              		.global	comm_can_set_duty
 1442              		.syntax unified
 1443              		.thumb
 1444              		.thumb_func
 1445              		.fpu fpv4-sp-d16
 1446              		.type	comm_can_set_duty, %function
 1447              	comm_can_set_duty:
 1448              	.LFB262:
 1449              		.loc 1 412 0
 1450              		.cfi_startproc
 1451              		@ args = 0, pretend = 0, frame = 8
 1452              		@ frame_needed = 0, uses_anonymous_args = 0
 1453              	.LVL145:
 1454 0000 10B5     		push	{r4, lr}
 1455              		.cfi_def_cfa_offset 8
 1456              		.cfi_offset 4, -8
 1457              		.cfi_offset 14, -4
 1458              		.loc 1 415 0
 1459 0002 DFED0C7A 		vldr.32	s15, .L99
 1460 0006 20EE270A 		vmul.f32	s0, s0, s15
 1461              	.LVL146:
 1462              		.loc 1 412 0
 1463 000a 82B0     		sub	sp, sp, #8
 1464              		.cfi_def_cfa_offset 16
 1465              		.loc 1 413 0
 1466 000c 02AA     		add	r2, sp, #8
 1467              		.loc 1 415 0
 1468 000e FDEEC07A 		vcvt.s32.f32	s15, s0
 1469              		.loc 1 413 0
 1470 0012 0023     		movs	r3, #0
 1471 0014 42F8083D 		str	r3, [r2, #-8]!
 1472              		.loc 1 415 0
 1473 0018 17EE901A 		vmov	r1, s15	@ int
 1474              		.loc 1 412 0
 1475 001c 0446     		mov	r4, r0
 1476              		.loc 1 415 0
 1477 001e 01A8     		add	r0, sp, #4
 1478              	.LVL147:
 1479 0020 FFF7FEFF 		bl	buffer_append_int32
 1480              	.LVL148:
 1481              		.loc 1 416 0
 1482 0024 01A9     		add	r1, sp, #4
ARM GAS  C:\Users\CHRIST~1\AppData\Local\Temp\ccPexI4L.s 			page 27


 1483 0026 2046     		mov	r0, r4
 1484 0028 9DF80020 		ldrb	r2, [sp]	@ zero_extendqisi2
 1485 002c FFF7FEFF 		bl	comm_can_transmit_eid
 1486              	.LVL149:
 1487              		.loc 1 418 0
 1488 0030 02B0     		add	sp, sp, #8
 1489              		.cfi_def_cfa_offset 8
 1490              		@ sp needed
 1491 0032 10BD     		pop	{r4, pc}
 1492              	.L100:
 1493              		.align	2
 1494              	.L99:
 1495 0034 0050C347 		.word	1203982336
 1496              		.cfi_endproc
 1497              	.LFE262:
 1498              		.size	comm_can_set_duty, .-comm_can_set_duty
 1499              		.section	.text.comm_can_set_current,"ax",%progbits
 1500              		.align	1
 1501              		.p2align 4,,15
 1502              		.global	comm_can_set_current
 1503              		.syntax unified
 1504              		.thumb
 1505              		.thumb_func
 1506              		.fpu fpv4-sp-d16
 1507              		.type	comm_can_set_current, %function
 1508              	comm_can_set_current:
 1509              	.LFB263:
 1510              		.loc 1 420 0
 1511              		.cfi_startproc
 1512              		@ args = 0, pretend = 0, frame = 8
 1513              		@ frame_needed = 0, uses_anonymous_args = 0
 1514              	.LVL150:
 1515 0000 10B5     		push	{r4, lr}
 1516              		.cfi_def_cfa_offset 8
 1517              		.cfi_offset 4, -8
 1518              		.cfi_offset 14, -4
 1519              		.loc 1 423 0
 1520 0002 DFED0D7A 		vldr.32	s15, .L103
 1521 0006 20EE270A 		vmul.f32	s0, s0, s15
 1522              	.LVL151:
 1523              		.loc 1 420 0
 1524 000a 82B0     		sub	sp, sp, #8
 1525              		.cfi_def_cfa_offset 16
 1526              		.loc 1 421 0
 1527 000c 02AA     		add	r2, sp, #8
 1528              		.loc 1 423 0
 1529 000e FDEEC07A 		vcvt.s32.f32	s15, s0
 1530              		.loc 1 421 0
 1531 0012 0023     		movs	r3, #0
 1532 0014 42F8083D 		str	r3, [r2, #-8]!
 1533              		.loc 1 423 0
 1534 0018 17EE901A 		vmov	r1, s15	@ int
 1535              		.loc 1 420 0
 1536 001c 0446     		mov	r4, r0
 1537              		.loc 1 423 0
 1538 001e 01A8     		add	r0, sp, #4
 1539              	.LVL152:
ARM GAS  C:\Users\CHRIST~1\AppData\Local\Temp\ccPexI4L.s 			page 28


 1540 0020 FFF7FEFF 		bl	buffer_append_int32
 1541              	.LVL153:
 1542              		.loc 1 424 0
 1543 0024 01A9     		add	r1, sp, #4
 1544 0026 44F48070 		orr	r0, r4, #256
 1545 002a 9DF80020 		ldrb	r2, [sp]	@ zero_extendqisi2
 1546 002e FFF7FEFF 		bl	comm_can_transmit_eid
 1547              	.LVL154:
 1548              		.loc 1 426 0
 1549 0032 02B0     		add	sp, sp, #8
 1550              		.cfi_def_cfa_offset 8
 1551              		@ sp needed
 1552 0034 10BD     		pop	{r4, pc}
 1553              	.L104:
 1554 0036 00BF     		.align	2
 1555              	.L103:
 1556 0038 00007A44 		.word	1148846080
 1557              		.cfi_endproc
 1558              	.LFE263:
 1559              		.size	comm_can_set_current, .-comm_can_set_current
 1560              		.section	.text.comm_can_set_current_brake,"ax",%progbits
 1561              		.align	1
 1562              		.p2align 4,,15
 1563              		.global	comm_can_set_current_brake
 1564              		.syntax unified
 1565              		.thumb
 1566              		.thumb_func
 1567              		.fpu fpv4-sp-d16
 1568              		.type	comm_can_set_current_brake, %function
 1569              	comm_can_set_current_brake:
 1570              	.LFB264:
 1571              		.loc 1 428 0
 1572              		.cfi_startproc
 1573              		@ args = 0, pretend = 0, frame = 8
 1574              		@ frame_needed = 0, uses_anonymous_args = 0
 1575              	.LVL155:
 1576 0000 10B5     		push	{r4, lr}
 1577              		.cfi_def_cfa_offset 8
 1578              		.cfi_offset 4, -8
 1579              		.cfi_offset 14, -4
 1580              		.loc 1 431 0
 1581 0002 DFED0D7A 		vldr.32	s15, .L107
 1582 0006 20EE270A 		vmul.f32	s0, s0, s15
 1583              	.LVL156:
 1584              		.loc 1 428 0
 1585 000a 82B0     		sub	sp, sp, #8
 1586              		.cfi_def_cfa_offset 16
 1587              		.loc 1 429 0
 1588 000c 02AA     		add	r2, sp, #8
 1589              		.loc 1 431 0
 1590 000e FDEEC07A 		vcvt.s32.f32	s15, s0
 1591              		.loc 1 429 0
 1592 0012 0023     		movs	r3, #0
 1593 0014 42F8083D 		str	r3, [r2, #-8]!
 1594              		.loc 1 431 0
 1595 0018 17EE901A 		vmov	r1, s15	@ int
 1596              		.loc 1 428 0
ARM GAS  C:\Users\CHRIST~1\AppData\Local\Temp\ccPexI4L.s 			page 29


 1597 001c 0446     		mov	r4, r0
 1598              		.loc 1 431 0
 1599 001e 01A8     		add	r0, sp, #4
 1600              	.LVL157:
 1601 0020 FFF7FEFF 		bl	buffer_append_int32
 1602              	.LVL158:
 1603              		.loc 1 432 0
 1604 0024 01A9     		add	r1, sp, #4
 1605 0026 44F40070 		orr	r0, r4, #512
 1606 002a 9DF80020 		ldrb	r2, [sp]	@ zero_extendqisi2
 1607 002e FFF7FEFF 		bl	comm_can_transmit_eid
 1608              	.LVL159:
 1609              		.loc 1 434 0
 1610 0032 02B0     		add	sp, sp, #8
 1611              		.cfi_def_cfa_offset 8
 1612              		@ sp needed
 1613 0034 10BD     		pop	{r4, pc}
 1614              	.L108:
 1615 0036 00BF     		.align	2
 1616              	.L107:
 1617 0038 00007A44 		.word	1148846080
 1618              		.cfi_endproc
 1619              	.LFE264:
 1620              		.size	comm_can_set_current_brake, .-comm_can_set_current_brake
 1621              		.section	.text.comm_can_set_rpm,"ax",%progbits
 1622              		.align	1
 1623              		.p2align 4,,15
 1624              		.global	comm_can_set_rpm
 1625              		.syntax unified
 1626              		.thumb
 1627              		.thumb_func
 1628              		.fpu fpv4-sp-d16
 1629              		.type	comm_can_set_rpm, %function
 1630              	comm_can_set_rpm:
 1631              	.LFB265:
 1632              		.loc 1 436 0
 1633              		.cfi_startproc
 1634              		@ args = 0, pretend = 0, frame = 8
 1635              		@ frame_needed = 0, uses_anonymous_args = 0
 1636              	.LVL160:
 1637 0000 10B5     		push	{r4, lr}
 1638              		.cfi_def_cfa_offset 8
 1639              		.cfi_offset 4, -8
 1640              		.cfi_offset 14, -4
 1641 0002 82B0     		sub	sp, sp, #8
 1642              		.cfi_def_cfa_offset 16
 1643              		.loc 1 437 0
 1644 0004 02AA     		add	r2, sp, #8
 1645              		.loc 1 439 0
 1646 0006 FDEEC07A 		vcvt.s32.f32	s15, s0
 1647              		.loc 1 437 0
 1648 000a 0023     		movs	r3, #0
 1649 000c 42F8083D 		str	r3, [r2, #-8]!
 1650              		.loc 1 439 0
 1651 0010 17EE901A 		vmov	r1, s15	@ int
 1652              		.loc 1 436 0
 1653 0014 0446     		mov	r4, r0
ARM GAS  C:\Users\CHRIST~1\AppData\Local\Temp\ccPexI4L.s 			page 30


 1654              		.loc 1 439 0
 1655 0016 01A8     		add	r0, sp, #4
 1656              	.LVL161:
 1657 0018 FFF7FEFF 		bl	buffer_append_int32
 1658              	.LVL162:
 1659              		.loc 1 440 0
 1660 001c 01A9     		add	r1, sp, #4
 1661 001e 44F44070 		orr	r0, r4, #768
 1662 0022 9DF80020 		ldrb	r2, [sp]	@ zero_extendqisi2
 1663 0026 FFF7FEFF 		bl	comm_can_transmit_eid
 1664              	.LVL163:
 1665              		.loc 1 442 0
 1666 002a 02B0     		add	sp, sp, #8
 1667              		.cfi_def_cfa_offset 8
 1668              		@ sp needed
 1669 002c 10BD     		pop	{r4, pc}
 1670              		.cfi_endproc
 1671              	.LFE265:
 1672              		.size	comm_can_set_rpm, .-comm_can_set_rpm
 1673 002e 00BF     		.section	.text.comm_can_set_pos,"ax",%progbits
 1674              		.align	1
 1675              		.p2align 4,,15
 1676              		.global	comm_can_set_pos
 1677              		.syntax unified
 1678              		.thumb
 1679              		.thumb_func
 1680              		.fpu fpv4-sp-d16
 1681              		.type	comm_can_set_pos, %function
 1682              	comm_can_set_pos:
 1683              	.LFB266:
 1684              		.loc 1 444 0
 1685              		.cfi_startproc
 1686              		@ args = 0, pretend = 0, frame = 8
 1687              		@ frame_needed = 0, uses_anonymous_args = 0
 1688              	.LVL164:
 1689 0000 10B5     		push	{r4, lr}
 1690              		.cfi_def_cfa_offset 8
 1691              		.cfi_offset 4, -8
 1692              		.cfi_offset 14, -4
 1693              		.loc 1 447 0
 1694 0002 DFED0D7A 		vldr.32	s15, .L113
 1695 0006 20EE270A 		vmul.f32	s0, s0, s15
 1696              	.LVL165:
 1697              		.loc 1 444 0
 1698 000a 82B0     		sub	sp, sp, #8
 1699              		.cfi_def_cfa_offset 16
 1700              		.loc 1 445 0
 1701 000c 02AA     		add	r2, sp, #8
 1702              		.loc 1 447 0
 1703 000e FDEEC07A 		vcvt.s32.f32	s15, s0
 1704              		.loc 1 445 0
 1705 0012 0023     		movs	r3, #0
 1706 0014 42F8083D 		str	r3, [r2, #-8]!
 1707              		.loc 1 447 0
 1708 0018 17EE901A 		vmov	r1, s15	@ int
 1709              		.loc 1 444 0
 1710 001c 0446     		mov	r4, r0
ARM GAS  C:\Users\CHRIST~1\AppData\Local\Temp\ccPexI4L.s 			page 31


 1711              		.loc 1 447 0
 1712 001e 01A8     		add	r0, sp, #4
 1713              	.LVL166:
 1714 0020 FFF7FEFF 		bl	buffer_append_int32
 1715              	.LVL167:
 1716              		.loc 1 448 0
 1717 0024 01A9     		add	r1, sp, #4
 1718 0026 44F48060 		orr	r0, r4, #1024
 1719 002a 9DF80020 		ldrb	r2, [sp]	@ zero_extendqisi2
 1720 002e FFF7FEFF 		bl	comm_can_transmit_eid
 1721              	.LVL168:
 1722              		.loc 1 450 0
 1723 0032 02B0     		add	sp, sp, #8
 1724              		.cfi_def_cfa_offset 8
 1725              		@ sp needed
 1726 0034 10BD     		pop	{r4, pc}
 1727              	.L114:
 1728 0036 00BF     		.align	2
 1729              	.L113:
 1730 0038 00247449 		.word	1232348160
 1731              		.cfi_endproc
 1732              	.LFE266:
 1733              		.size	comm_can_set_pos, .-comm_can_set_pos
 1734              		.section	.text.comm_can_set_current_rel,"ax",%progbits
 1735              		.align	1
 1736              		.p2align 4,,15
 1737              		.global	comm_can_set_current_rel
 1738              		.syntax unified
 1739              		.thumb
 1740              		.thumb_func
 1741              		.fpu fpv4-sp-d16
 1742              		.type	comm_can_set_current_rel, %function
 1743              	comm_can_set_current_rel:
 1744              	.LFB267:
 1745              		.loc 1 461 0
 1746              		.cfi_startproc
 1747              		@ args = 0, pretend = 0, frame = 8
 1748              		@ frame_needed = 0, uses_anonymous_args = 0
 1749              	.LVL169:
 1750 0000 10B5     		push	{r4, lr}
 1751              		.cfi_def_cfa_offset 8
 1752              		.cfi_offset 4, -8
 1753              		.cfi_offset 14, -4
 1754 0002 82B0     		sub	sp, sp, #8
 1755              		.cfi_def_cfa_offset 16
 1756              		.loc 1 462 0
 1757 0004 02A9     		add	r1, sp, #8
 1758 0006 0023     		movs	r3, #0
 1759 0008 41F8083D 		str	r3, [r1, #-8]!
 1760              		.loc 1 461 0
 1761 000c 0446     		mov	r4, r0
 1762              		.loc 1 464 0
 1763 000e DFED070A 		vldr.32	s1, .L117
 1764 0012 01A8     		add	r0, sp, #4
 1765              	.LVL170:
 1766 0014 FFF7FEFF 		bl	buffer_append_float32
 1767              	.LVL171:
ARM GAS  C:\Users\CHRIST~1\AppData\Local\Temp\ccPexI4L.s 			page 32


 1768              		.loc 1 465 0
 1769 0018 01A9     		add	r1, sp, #4
 1770 001a 44F42060 		orr	r0, r4, #2560
 1771 001e 9DF80020 		ldrb	r2, [sp]	@ zero_extendqisi2
 1772 0022 FFF7FEFF 		bl	comm_can_transmit_eid
 1773              	.LVL172:
 1774              		.loc 1 467 0
 1775 0026 02B0     		add	sp, sp, #8
 1776              		.cfi_def_cfa_offset 8
 1777              		@ sp needed
 1778 0028 10BD     		pop	{r4, pc}
 1779              	.L118:
 1780 002a 00BF     		.align	2
 1781              	.L117:
 1782 002c 0050C347 		.word	1203982336
 1783              		.cfi_endproc
 1784              	.LFE267:
 1785              		.size	comm_can_set_current_rel, .-comm_can_set_current_rel
 1786              		.section	.text.comm_can_set_current_brake_rel,"ax",%progbits
 1787              		.align	1
 1788              		.p2align 4,,15
 1789              		.global	comm_can_set_current_brake_rel
 1790              		.syntax unified
 1791              		.thumb
 1792              		.thumb_func
 1793              		.fpu fpv4-sp-d16
 1794              		.type	comm_can_set_current_brake_rel, %function
 1795              	comm_can_set_current_brake_rel:
 1796              	.LFB268:
 1797              		.loc 1 478 0
 1798              		.cfi_startproc
 1799              		@ args = 0, pretend = 0, frame = 8
 1800              		@ frame_needed = 0, uses_anonymous_args = 0
 1801              	.LVL173:
 1802 0000 10B5     		push	{r4, lr}
 1803              		.cfi_def_cfa_offset 8
 1804              		.cfi_offset 4, -8
 1805              		.cfi_offset 14, -4
 1806 0002 82B0     		sub	sp, sp, #8
 1807              		.cfi_def_cfa_offset 16
 1808              		.loc 1 479 0
 1809 0004 02A9     		add	r1, sp, #8
 1810 0006 0023     		movs	r3, #0
 1811 0008 41F8083D 		str	r3, [r1, #-8]!
 1812              		.loc 1 478 0
 1813 000c 0446     		mov	r4, r0
 1814              		.loc 1 481 0
 1815 000e DFED070A 		vldr.32	s1, .L121
 1816 0012 01A8     		add	r0, sp, #4
 1817              	.LVL174:
 1818 0014 FFF7FEFF 		bl	buffer_append_float32
 1819              	.LVL175:
 1820              		.loc 1 482 0
 1821 0018 01A9     		add	r1, sp, #4
 1822 001a 44F43060 		orr	r0, r4, #2816
 1823 001e 9DF80020 		ldrb	r2, [sp]	@ zero_extendqisi2
 1824 0022 FFF7FEFF 		bl	comm_can_transmit_eid
ARM GAS  C:\Users\CHRIST~1\AppData\Local\Temp\ccPexI4L.s 			page 33


 1825              	.LVL176:
 1826              		.loc 1 484 0
 1827 0026 02B0     		add	sp, sp, #8
 1828              		.cfi_def_cfa_offset 8
 1829              		@ sp needed
 1830 0028 10BD     		pop	{r4, pc}
 1831              	.L122:
 1832 002a 00BF     		.align	2
 1833              	.L121:
 1834 002c 0050C347 		.word	1203982336
 1835              		.cfi_endproc
 1836              	.LFE268:
 1837              		.size	comm_can_set_current_brake_rel, .-comm_can_set_current_brake_rel
 1838              		.section	.text.comm_can_get_status_msg_index,"ax",%progbits
 1839              		.align	1
 1840              		.p2align 4,,15
 1841              		.global	comm_can_get_status_msg_index
 1842              		.syntax unified
 1843              		.thumb
 1844              		.thumb_func
 1845              		.fpu fpv4-sp-d16
 1846              		.type	comm_can_get_status_msg_index, %function
 1847              	comm_can_get_status_msg_index:
 1848              	.LFB269:
 1849              		.loc 1 495 0
 1850              		.cfi_startproc
 1851              		@ args = 0, pretend = 0, frame = 0
 1852              		@ frame_needed = 0, uses_anonymous_args = 0
 1853              		@ link register save eliminated.
 1854              	.LVL177:
 1855              		.loc 1 496 0
 1856 0000 0928     		cmp	r0, #9
 1857              		.loc 1 497 0
 1858 0002 DDBF     		ittte	le
 1859 0004 034B     		ldrle	r3, .L126
 1860 0006 00EB8000 		addle	r0, r0, r0, lsl #2
 1861              	.LVL178:
 1862 000a 03EB8000 		addle	r0, r3, r0, lsl #2
 1863              		.loc 1 499 0
 1864 000e 0020     		movgt	r0, #0
 1865              		.loc 1 501 0
 1866 0010 7047     		bx	lr
 1867              	.L127:
 1868 0012 00BF     		.align	2
 1869              	.L126:
 1870 0014 00000000 		.word	.LANCHOR6
 1871              		.cfi_endproc
 1872              	.LFE269:
 1873              		.size	comm_can_get_status_msg_index, .-comm_can_get_status_msg_index
 1874              		.section	.text.comm_can_get_status_msg_id,"ax",%progbits
 1875              		.align	1
 1876              		.p2align 4,,15
 1877              		.global	comm_can_get_status_msg_id
 1878              		.syntax unified
 1879              		.thumb
 1880              		.thumb_func
 1881              		.fpu fpv4-sp-d16
ARM GAS  C:\Users\CHRIST~1\AppData\Local\Temp\ccPexI4L.s 			page 34


 1882              		.type	comm_can_get_status_msg_id, %function
 1883              	comm_can_get_status_msg_id:
 1884              	.LFB270:
 1885              		.loc 1 512 0
 1886              		.cfi_startproc
 1887              		@ args = 0, pretend = 0, frame = 0
 1888              		@ frame_needed = 0, uses_anonymous_args = 0
 1889              		@ link register save eliminated.
 1890              	.LVL179:
 1891 0000 10B4     		push	{r4}
 1892              		.cfi_def_cfa_offset 4
 1893              		.cfi_offset 4, -4
 1894              		.loc 1 512 0
 1895 0002 0023     		movs	r3, #0
 1896 0004 0A4C     		ldr	r4, .L135
 1897              	.LBB129:
 1898              		.loc 1 513 0
 1899 0006 1A46     		mov	r2, r3
 1900              	.LVL180:
 1901              	.L131:
 1902              		.loc 1 514 0
 1903 0008 E158     		ldr	r1, [r4, r3]
 1904 000a 8142     		cmp	r1, r0
 1905 000c 03F11403 		add	r3, r3, #20
 1906 0010 06D0     		beq	.L134
 1907              		.loc 1 513 0 discriminator 2
 1908 0012 0132     		adds	r2, r2, #1
 1909              	.LVL181:
 1910 0014 0A2A     		cmp	r2, #10
 1911 0016 F7D1     		bne	.L131
 1912              	.LBE129:
 1913              		.loc 1 519 0
 1914 0018 0020     		movs	r0, #0
 1915              	.LVL182:
 1916              		.loc 1 520 0
 1917 001a 5DF8044B 		ldr	r4, [sp], #4
 1918              		.cfi_remember_state
 1919              		.cfi_restore 4
 1920              		.cfi_def_cfa_offset 0
 1921 001e 7047     		bx	lr
 1922              	.LVL183:
 1923              	.L134:
 1924              		.cfi_restore_state
 1925              	.LBB130:
 1926              		.loc 1 515 0
 1927 0020 02EB8202 		add	r2, r2, r2, lsl #2
 1928              	.LVL184:
 1929 0024 04EB8200 		add	r0, r4, r2, lsl #2
 1930              	.LVL185:
 1931              	.LBE130:
 1932              		.loc 1 520 0
 1933 0028 5DF8044B 		ldr	r4, [sp], #4
 1934              		.cfi_restore 4
 1935              		.cfi_def_cfa_offset 0
 1936 002c 7047     		bx	lr
 1937              	.L136:
 1938 002e 00BF     		.align	2
ARM GAS  C:\Users\CHRIST~1\AppData\Local\Temp\ccPexI4L.s 			page 35


 1939              	.L135:
 1940 0030 00000000 		.word	.LANCHOR6
 1941              		.cfi_endproc
 1942              	.LFE270:
 1943              		.size	comm_can_get_status_msg_id, .-comm_can_get_status_msg_id
 1944              		.section	.bss.can_mtx,"aw",%nobits
 1945              		.align	2
 1946              		.set	.LANCHOR7,. + 0
 1947              		.type	can_mtx, %object
 1948              		.size	can_mtx, 16
 1949              	can_mtx:
 1950 0000 00000000 		.space	16
 1950      00000000 
 1950      00000000 
 1950      00000000 
 1951              		.section	.bss.cancom_process_thread_wa,"aw",%nobits
 1952              		.align	3
 1953              		.set	.LANCHOR11,. + 0
 1954              		.type	cancom_process_thread_wa, %object
 1955              		.size	cancom_process_thread_wa, 4504
 1956              	cancom_process_thread_wa:
 1957 0000 00000000 		.space	4504
 1957      00000000 
 1957      00000000 
 1957      00000000 
 1957      00000000 
 1958              		.section	.bss.cancom_read_thread_wa,"aw",%nobits
 1959              		.align	3
 1960              		.set	.LANCHOR9,. + 0
 1961              		.type	cancom_read_thread_wa, %object
 1962              		.size	cancom_read_thread_wa, 920
 1963              	cancom_read_thread_wa:
 1964 0000 00000000 		.space	920
 1964      00000000 
 1964      00000000 
 1964      00000000 
 1964      00000000 
 1965              		.section	.bss.cancom_status_thread_wa,"aw",%nobits
 1966              		.align	3
 1967              		.set	.LANCHOR10,. + 0
 1968              		.type	cancom_status_thread_wa, %object
 1969              		.size	cancom_status_thread_wa, 1432
 1970              	cancom_status_thread_wa:
 1971 0000 00000000 		.space	1432
 1971      00000000 
 1971      00000000 
 1971      00000000 
 1971      00000000 
 1972              		.section	.bss.process_tp,"aw",%nobits
 1973              		.align	2
 1974              		.set	.LANCHOR0,. + 0
 1975              		.type	process_tp, %object
 1976              		.size	process_tp, 4
 1977              	process_tp:
 1978 0000 00000000 		.space	4
 1979              		.section	.bss.rx_buffer,"aw",%nobits
 1980              		.align	2
ARM GAS  C:\Users\CHRIST~1\AppData\Local\Temp\ccPexI4L.s 			page 36


 1981              		.set	.LANCHOR4,. + 0
 1982              		.type	rx_buffer, %object
 1983              		.size	rx_buffer, 1024
 1984              	rx_buffer:
 1985 0000 00000000 		.space	1024
 1985      00000000 
 1985      00000000 
 1985      00000000 
 1985      00000000 
 1986              		.section	.bss.rx_buffer_last_id,"aw",%nobits
 1987              		.align	2
 1988              		.set	.LANCHOR5,. + 0
 1989              		.type	rx_buffer_last_id, %object
 1990              		.size	rx_buffer_last_id, 4
 1991              	rx_buffer_last_id:
 1992 0000 00000000 		.space	4
 1993              		.section	.bss.rx_frame_read,"aw",%nobits
 1994              		.align	2
 1995              		.set	.LANCHOR1,. + 0
 1996              		.type	rx_frame_read, %object
 1997              		.size	rx_frame_read, 4
 1998              	rx_frame_read:
 1999 0000 00000000 		.space	4
 2000              		.section	.bss.rx_frame_write,"aw",%nobits
 2001              		.align	2
 2002              		.set	.LANCHOR2,. + 0
 2003              		.type	rx_frame_write, %object
 2004              		.size	rx_frame_write, 4
 2005              	rx_frame_write:
 2006 0000 00000000 		.space	4
 2007              		.section	.bss.rx_frames,"aw",%nobits
 2008              		.align	2
 2009              		.set	.LANCHOR3,. + 0
 2010              		.type	rx_frames, %object
 2011              		.size	rx_frames, 2000
 2012              	rx_frames:
 2013 0000 00000000 		.space	2000
 2013      00000000 
 2013      00000000 
 2013      00000000 
 2013      00000000 
 2014              		.section	.bss.stat_msgs,"aw",%nobits
 2015              		.align	2
 2016              		.set	.LANCHOR6,. + 0
 2017              		.type	stat_msgs, %object
 2018              		.size	stat_msgs, 200
 2019              	stat_msgs:
 2020 0000 00000000 		.space	200
 2020      00000000 
 2020      00000000 
 2020      00000000 
 2020      00000000 
 2021              		.section	.rodata.cancfg,"a",%progbits
 2022              		.align	2
 2023              		.set	.LANCHOR8,. + 0
 2024              		.type	cancfg, %object
 2025              		.size	cancfg, 8
ARM GAS  C:\Users\CHRIST~1\AppData\Local\Temp\ccPexI4L.s 			page 37


 2026              	cancfg:
 2027 0000 64000000 		.word	100
 2028 0004 06001800 		.word	1572870
 2029              		.section	.rodata.cancom_process_thread.str1.4,"aMS",%progbits,1
 2030              		.align	2
 2031              	.LC0:
 2032 0000 43616E63 		.ascii	"Cancom process\000"
 2032      6F6D2070 
 2032      726F6365 
 2032      737300
 2033              		.section	.rodata.cancom_read_thread.str1.4,"aMS",%progbits,1
 2034              		.align	2
 2035              	.LC1:
 2036 0000 43414E00 		.ascii	"CAN\000"
 2037              		.section	.rodata.cancom_status_thread.str1.4,"aMS",%progbits,1
 2038              		.align	2
 2039              	.LC2:
 2040 0000 43414E20 		.ascii	"CAN status\000"
 2040      73746174 
 2040      757300
 2041              		.text
 2042              	.Letext0:
 2043              		.file 7 "c:\\program files (x86)\\gnu tools arm embedded\\6 2017-q2-update\\lib\\gcc\\arm-none-eab
 2044              		.file 8 "c:\\program files (x86)\\gnu tools arm embedded\\6 2017-q2-update\\arm-none-eabi\\include
 2045              		.file 9 "c:\\program files (x86)\\gnu tools arm embedded\\6 2017-q2-update\\arm-none-eabi\\include
 2046              		.file 10 "c:\\program files (x86)\\gnu tools arm embedded\\6 2017-q2-update\\arm-none-eabi\\includ
 2047              		.file 11 "c:\\program files (x86)\\gnu tools arm embedded\\6 2017-q2-update\\arm-none-eabi\\includ
 2048              		.file 12 "c:\\program files (x86)\\gnu tools arm embedded\\6 2017-q2-update\\arm-none-eabi\\includ
 2049              		.file 13 "c:\\program files (x86)\\gnu tools arm embedded\\6 2017-q2-update\\arm-none-eabi\\includ
 2050              		.file 14 "ChibiOS_3.0.2/os/rt/ports/ARMCMx/compilers/GCC/chtypes.h"
 2051              		.file 15 "ChibiOS_3.0.2/os/rt/include/chsystypes.h"
 2052              		.file 16 "ChibiOS_3.0.2/os/rt/include/chschd.h"
 2053              		.file 17 "ChibiOS_3.0.2/os/ext/CMSIS/include/core_cm4.h"
 2054              		.file 18 "ChibiOS_3.0.2/os/ext/CMSIS/ST/system_stm32f4xx.h"
 2055              		.file 19 "ChibiOS_3.0.2/os/ext/CMSIS/ST/stm32f407xx.h"
 2056              		.file 20 "ChibiOS_3.0.2/os/rt/ports/ARMCMx/chcore.h"
 2057              		.file 21 "ChibiOS_3.0.2/os/rt/ports/ARMCMx/chcore_v7m.h"
 2058              		.file 22 "ChibiOS_3.0.2/os/rt/include/chtm.h"
 2059              		.file 23 "ChibiOS_3.0.2/os/rt/include/chsem.h"
 2060              		.file 24 "ChibiOS_3.0.2/os/rt/include/chmtx.h"
 2061              		.file 25 "ChibiOS_3.0.2/os/rt/include/chqueues.h"
 2062              		.file 26 "datatypes.h"
 2063              		.file 27 "conf_general.h"
 2064              		.file 28 "ChibiOS_3.0.2/os/hal/ports/STM32/STM32F4xx/stm32_dma.h"
 2065              		.file 29 "ChibiOS_3.0.2/os/hal/ports/STM32/LLD/GPIOv2/pal_lld.h"
 2066              		.file 30 "ChibiOS_3.0.2/os/hal/include/can.h"
 2067              		.file 31 "ChibiOS_3.0.2/os/hal/ports/STM32/LLD/can_lld.h"
 2068              		.file 32 "ChibiOS_3.0.2/os/hal/include/i2c.h"
 2069              		.file 33 "ChibiOS_3.0.2/os/hal/ports/STM32/LLD/I2Cv1/i2c_lld.h"
 2070              		.file 34 "ChibiOS_3.0.2/os/hal/include/icu.h"
 2071              		.file 35 "ChibiOS_3.0.2/os/hal/ports/STM32/LLD/TIMv1/icu_lld.h"
 2072              		.file 36 "ChibiOS_3.0.2/os/hal/ports/STM32/LLD/TIMv1/stm32_tim.h"
 2073              		.file 37 "ChibiOS_3.0.2/os/hal/include/spi.h"
 2074              		.file 38 "ChibiOS_3.0.2/os/hal/ports/STM32/LLD/SPIv1/spi_lld.h"
 2075              		.file 39 "ChibiOS_3.0.2/os/hal/include/uart.h"
 2076              		.file 40 "ChibiOS_3.0.2/os/hal/ports/STM32/LLD/USARTv1/uart_lld.h"
 2077              		.file 41 "ChibiOS_3.0.2/os/hal/include/usb.h"
ARM GAS  C:\Users\CHRIST~1\AppData\Local\Temp\ccPexI4L.s 			page 38


 2078              		.file 42 "ChibiOS_3.0.2/os/hal/ports/STM32/LLD/OTGv1/usb_lld.h"
 2079              		.file 43 "ChibiOS_3.0.2/os/hal/ports/STM32/LLD/OTGv1/stm32_otg.h"
 2080              		.file 44 "mc_interface.h"
 2081              		.file 45 "ChibiOS_3.0.2/os/rt/include/chsys.h"
 2082              		.file 46 "buffer.h"
 2083              		.file 47 "applications/app.h"
 2084              		.file 48 "crc.h"
 2085              		.file 49 "timeout.h"
 2086              		.file 50 "commands.h"