ARM GAS  C:\Users\CHRIST~1\AppData\Local\Temp\cc2f21Qj.s 			page 1


   1              		.cpu cortex-m4
   2              		.eabi_attribute 27, 1
   3              		.eabi_attribute 28, 1
   4              		.eabi_attribute 20, 1
   5              		.eabi_attribute 21, 1
   6              		.eabi_attribute 23, 3
   7              		.eabi_attribute 24, 1
   8              		.eabi_attribute 25, 1
   9              		.eabi_attribute 26, 1
  10              		.eabi_attribute 30, 2
  11              		.eabi_attribute 34, 1
  12              		.eabi_attribute 18, 4
  13              		.file	"main.c"
  14              		.text
  15              	.Ltext0:
  16              		.cfi_sections	.debug_frame
  17              		.section	.text.timer_thread,"ax",%progbits
  18              		.align	1
  19              		.p2align 4,,15
  20              		.syntax unified
  21              		.thumb
  22              		.thumb_func
  23              		.fpu fpv4-sp-d16
  24              		.type	timer_thread, %function
  25              	timer_thread:
  26              	.LFB258:
  27              		.file 1 "main.c"
  28              		.loc 1 169 0
  29              		.cfi_startproc
  30              		@ Volatile: function does not return.
  31              		@ args = 0, pretend = 0, frame = 0
  32              		@ frame_needed = 0, uses_anonymous_args = 0
  33              	.LVL0:
  34 0000 08B5     		push	{r3, lr}
  35              		.cfi_def_cfa_offset 8
  36              		.cfi_offset 3, -8
  37              		.cfi_offset 14, -4
  38              	.LBB8:
  39              	.LBB9:
  40              		.file 2 "ChibiOS_3.0.2/os/rt/include/chregistry.h"
  41              		.loc 2 135 0
  42 0002 054B     		ldr	r3, .L5
  43 0004 054A     		ldr	r2, .L5+4
  44 0006 9B69     		ldr	r3, [r3, #24]
  45 0008 9A61     		str	r2, [r3, #24]
  46              	.LVL1:
  47              	.L2:
  48              	.LBE9:
  49              	.LBE8:
  50              		.loc 1 175 0 discriminator 1
  51 000a FFF7FEFF 		bl	packet_timerfunc
  52              	.LVL2:
  53              		.loc 1 176 0 discriminator 1
  54 000e 0A20     		movs	r0, #10
  55 0010 FFF7FEFF 		bl	chThdSleep
  56              	.LVL3:
  57 0014 F9E7     		b	.L2
ARM GAS  C:\Users\CHRIST~1\AppData\Local\Temp\cc2f21Qj.s 			page 2


  58              	.L6:
  59 0016 00BF     		.align	2
  60              	.L5:
  61 0018 00000000 		.word	ch
  62 001c 00000000 		.word	.LC0
  63              		.cfi_endproc
  64              	.LFE258:
  65              		.size	timer_thread, .-timer_thread
  66              		.section	.text.periodic_thread,"ax",%progbits
  67              		.align	1
  68              		.p2align 4,,15
  69              		.syntax unified
  70              		.thumb
  71              		.thumb_func
  72              		.fpu fpv4-sp-d16
  73              		.type	periodic_thread, %function
  74              	periodic_thread:
  75              	.LFB257:
  76              		.loc 1 81 0
  77              		.cfi_startproc
  78              		@ args = 0, pretend = 0, frame = 0
  79              		@ frame_needed = 0, uses_anonymous_args = 0
  80              	.LVL4:
  81 0000 38B5     		push	{r3, r4, r5, lr}
  82              		.cfi_def_cfa_offset 16
  83              		.cfi_offset 3, -16
  84              		.cfi_offset 4, -12
  85              		.cfi_offset 5, -8
  86              		.cfi_offset 14, -4
  87              	.LBB10:
  88              	.LBB11:
  89              		.loc 2 135 0
  90 0002 474B     		ldr	r3, .L33
  91 0004 474A     		ldr	r2, .L33+4
  92 0006 9B69     		ldr	r3, [r3, #24]
  93              	.LBE11:
  94              	.LBE10:
  95              		.loc 1 81 0
  96 0008 2DED048B 		vpush.64	{d8, d9}
  97              		.cfi_def_cfa_offset 32
  98              		.cfi_offset 80, -32
  99              		.cfi_offset 81, -28
 100              		.cfi_offset 82, -24
 101              		.cfi_offset 83, -20
 102              	.LBB13:
 103              		.loc 1 90 0
 104 000c DFED468A 		vldr.32	s17, .L33+8
 105              	.LBB14:
 106              		.loc 1 98 0
 107 0010 9FED468A 		vldr.32	s16, .L33+12
 108              	.LBE14:
 109              	.LBE13:
 110              	.LBB16:
 111              	.LBB12:
 112              		.loc 2 135 0
 113 0014 9A61     		str	r2, [r3, #24]
 114              	.LVL5:
ARM GAS  C:\Users\CHRIST~1\AppData\Local\Temp\cc2f21Qj.s 			page 3


 115              	.L21:
 116              	.LBE12:
 117              	.LBE16:
 118              	.LBB17:
 119              		.loc 1 87 0
 120 0016 FFF7FEFF 		bl	mc_interface_get_state
 121              	.LVL6:
 122 001a 0228     		cmp	r0, #2
 123              		.loc 1 88 0
 124 001c 0CBF     		ite	eq
 125 001e B7EE000A 		vmoveq.f32	s0, #1.0e+0
 126              		.loc 1 90 0
 127 0022 B0EE680A 		vmovne.f32	s0, s17
 128 0026 0020     		movs	r0, #0
 129 0028 FFF7FEFF 		bl	ledpwm_set_intensity
 130              	.LVL7:
 131              		.loc 1 93 0
 132 002c FFF7FEFF 		bl	mc_interface_get_fault
 133              	.LVL8:
 134              		.loc 1 94 0
 135 0030 0546     		mov	r5, r0
 136 0032 0028     		cmp	r0, #0
 137 0034 41D0     		beq	.L29
 138              	.LVL9:
 139              	.LBB15:
 140              		.loc 1 95 0
 141 0036 0024     		movs	r4, #0
 142              	.LVL10:
 143              	.L10:
 144              		.loc 1 96 0 discriminator 3
 145 0038 B7EE000A 		vmov.f32	s0, #1.0e+0
 146 003c 0120     		movs	r0, #1
 147 003e FFF7FEFF 		bl	ledpwm_set_intensity
 148              	.LVL11:
 149              		.loc 1 97 0 discriminator 3
 150 0042 40F6C410 		movw	r0, #2500
 151 0046 FFF7FEFF 		bl	chThdSleep
 152              	.LVL12:
 153              		.loc 1 98 0 discriminator 3
 154 004a 0120     		movs	r0, #1
 155 004c B0EE480A 		vmov.f32	s0, s16
 156              		.loc 1 95 0 discriminator 3
 157 0050 0444     		add	r4, r4, r0
 158              	.LVL13:
 159              		.loc 1 98 0 discriminator 3
 160 0052 FFF7FEFF 		bl	ledpwm_set_intensity
 161              	.LVL14:
 162              		.loc 1 99 0 discriminator 3
 163 0056 40F6C410 		movw	r0, #2500
 164 005a FFF7FEFF 		bl	chThdSleep
 165              	.LVL15:
 166              		.loc 1 95 0 discriminator 3
 167 005e A542     		cmp	r5, r4
 168 0060 EAD1     		bne	.L10
 169              	.LBE15:
 170              		.loc 1 102 0
 171 0062 41F28830 		movw	r0, #5000
ARM GAS  C:\Users\CHRIST~1\AppData\Local\Temp\cc2f21Qj.s 			page 4


 172 0066 FFF7FEFF 		bl	chThdSleep
 173              	.LVL16:
 174              		.loc 1 107 0
 175 006a FFF7FEFF 		bl	mc_interface_get_state
 176              	.LVL17:
 177 006e 0128     		cmp	r0, #1
 178 0070 2CD0     		beq	.L30
 179              	.LVL18:
 180              	.L12:
 181              		.loc 1 111 0
 182 0072 FFF7FEFF 		bl	commands_get_disp_pos_mode
 183              	.LVL19:
 184              		.loc 1 113 0
 185 0076 0428     		cmp	r0, #4
 186              		.loc 1 111 0
 187 0078 0446     		mov	r4, r0
 188              	.LVL20:
 189              		.loc 1 113 0
 190 007a 30D0     		beq	.L14
 191              	.L32:
 192 007c 0528     		cmp	r0, #5
 193 007e 3BD0     		beq	.L15
 194 0080 0328     		cmp	r0, #3
 195 0082 31D0     		beq	.L31
 196              		.loc 1 130 0
 197 0084 FFF7FEFF 		bl	mc_interface_get_configuration
 198              	.LVL21:
 199 0088 8378     		ldrb	r3, [r0, #2]	@ zero_extendqisi2
 200 008a 022B     		cmp	r3, #2
 201 008c 11D1     		bne	.L18
 202              		.loc 1 131 0
 203 008e 022C     		cmp	r4, #2
 204 0090 41D0     		beq	.L19
 205 0092 062C     		cmp	r4, #6
 206 0094 0DD1     		bne	.L18
 207              		.loc 1 137 0
 208 0096 FFF7FEFF 		bl	mcpwm_foc_get_phase_observer
 209              	.LVL22:
 210 009a B0EE409A 		vmov.f32	s18, s0
 211 009e FFF7FEFF 		bl	mcpwm_foc_get_phase_encoder
 212              	.LVL23:
 213 00a2 F0EE400A 		vmov.f32	s1, s0
 214 00a6 B0EE490A 		vmov.f32	s0, s18
 215 00aa FFF7FEFF 		bl	utils_angle_difference
 216              	.LVL24:
 217 00ae FFF7FEFF 		bl	commands_send_rotor_pos
 218              	.LVL25:
 219              	.L18:
 220              		.loc 1 145 0
 221 00b2 6420     		movs	r0, #100
 222 00b4 FFF7FEFF 		bl	chThdSleep
 223              	.LVL26:
 224              	.LBE17:
 225              		.loc 1 86 0
 226 00b8 ADE7     		b	.L21
 227              	.LVL27:
 228              	.L29:
ARM GAS  C:\Users\CHRIST~1\AppData\Local\Temp\cc2f21Qj.s 			page 5


 229              	.LBB18:
 230              		.loc 1 104 0
 231 00ba B0EE480A 		vmov.f32	s0, s16
 232 00be 0120     		movs	r0, #1
 233              	.LVL28:
 234 00c0 FFF7FEFF 		bl	ledpwm_set_intensity
 235              	.LVL29:
 236              		.loc 1 107 0
 237 00c4 FFF7FEFF 		bl	mc_interface_get_state
 238              	.LVL30:
 239 00c8 0128     		cmp	r0, #1
 240 00ca D2D1     		bne	.L12
 241              	.L30:
 242              		.loc 1 108 0
 243 00cc FFF7FEFF 		bl	mcpwm_get_detect_pos
 244              	.LVL31:
 245 00d0 FFF7FEFF 		bl	commands_send_rotor_pos
 246              	.LVL32:
 247              		.loc 1 111 0
 248 00d4 FFF7FEFF 		bl	commands_get_disp_pos_mode
 249              	.LVL33:
 250              		.loc 1 113 0
 251 00d8 0428     		cmp	r0, #4
 252              		.loc 1 111 0
 253 00da 0446     		mov	r4, r0
 254              	.LVL34:
 255              		.loc 1 113 0
 256 00dc CED1     		bne	.L32
 257              	.L14:
 258              		.loc 1 119 0
 259 00de FFF7FEFF 		bl	mc_interface_get_pid_pos_now
 260              	.LVL35:
 261 00e2 FFF7FEFF 		bl	commands_send_rotor_pos
 262              	.LVL36:
 263              		.loc 1 120 0
 264 00e6 03E0     		b	.L17
 265              	.LVL37:
 266              	.L31:
 267              		.loc 1 115 0
 268 00e8 FFF7FEFF 		bl	encoder_read_deg
 269              	.LVL38:
 270 00ec FFF7FEFF 		bl	commands_send_rotor_pos
 271              	.LVL39:
 272              	.L17:
 273              		.loc 1 130 0
 274 00f0 FFF7FEFF 		bl	mc_interface_get_configuration
 275              	.LVL40:
 276 00f4 8378     		ldrb	r3, [r0, #2]	@ zero_extendqisi2
 277 00f6 DCE7     		b	.L18
 278              	.LVL41:
 279              	.L15:
 280              		.loc 1 123 0
 281 00f8 FFF7FEFF 		bl	mc_interface_get_pid_pos_set
 282              	.LVL42:
 283 00fc B0EE409A 		vmov.f32	s18, s0
 284 0100 FFF7FEFF 		bl	mc_interface_get_pid_pos_now
 285              	.LVL43:
ARM GAS  C:\Users\CHRIST~1\AppData\Local\Temp\cc2f21Qj.s 			page 6


 286 0104 F0EE400A 		vmov.f32	s1, s0
 287 0108 B0EE490A 		vmov.f32	s0, s18
 288 010c FFF7FEFF 		bl	utils_angle_difference
 289              	.LVL44:
 290 0110 FFF7FEFF 		bl	commands_send_rotor_pos
 291              	.LVL45:
 292              		.loc 1 124 0
 293 0114 ECE7     		b	.L17
 294              	.L19:
 295              		.loc 1 133 0
 296 0116 FFF7FEFF 		bl	mcpwm_foc_get_phase_observer
 297              	.LVL46:
 298 011a FFF7FEFF 		bl	commands_send_rotor_pos
 299              	.LVL47:
 300              		.loc 1 134 0
 301 011e C8E7     		b	.L18
 302              	.L34:
 303              		.align	2
 304              	.L33:
 305 0120 00000000 		.word	ch
 306 0124 00000000 		.word	.LC1
 307 0128 CDCC4C3E 		.word	1045220557
 308 012c 00000000 		.word	0
 309              	.LBE18:
 310              		.cfi_endproc
 311              	.LFE257:
 312              		.size	periodic_thread, .-periodic_thread
 313              		.section	.text.startup.main,"ax",%progbits
 314              		.align	1
 315              		.p2align 4,,15
 316              		.global	main
 317              		.syntax unified
 318              		.thumb
 319              		.thumb_func
 320              		.fpu fpv4-sp-d16
 321              		.type	main, %function
 322              	main:
 323              	.LFB259:
 324              		.loc 1 180 0
 325              		.cfi_startproc
 326              		@ Volatile: function does not return.
 327              		@ args = 0, pretend = 0, frame = 568
 328              		@ frame_needed = 0, uses_anonymous_args = 0
 329 0000 00B5     		push	{lr}
 330              		.cfi_def_cfa_offset 4
 331              		.cfi_offset 14, -4
 332 0002 ADF5117D 		sub	sp, sp, #580
 333              		.cfi_def_cfa_offset 584
 334              		.loc 1 181 0
 335 0006 FFF7FEFF 		bl	halInit
 336              	.LVL48:
 337              		.loc 1 182 0
 338 000a FFF7FEFF 		bl	chSysInit
 339              	.LVL49:
 340              		.loc 1 191 0
 341 000e 42F21070 		movw	r0, #10000
 342 0012 FFF7FEFF 		bl	chThdSleep
ARM GAS  C:\Users\CHRIST~1\AppData\Local\Temp\cc2f21Qj.s 			page 7


 343              	.LVL50:
 344              		.loc 1 193 0
 345 0016 FFF7FEFF 		bl	hw_init_gpio
 346              	.LVL51:
 347              		.loc 1 194 0
 348 001a 1C4B     		ldr	r3, .L38
 349 001c 2021     		movs	r1, #32
 350              		.loc 1 195 0
 351 001e 1022     		movs	r2, #16
 352              		.loc 1 194 0
 353 0020 5983     		strh	r1, [r3, #26]	@ movhi
 354              		.loc 1 195 0
 355 0022 5A83     		strh	r2, [r3, #26]	@ movhi
 356              		.loc 1 197 0
 357 0024 FFF7FEFF 		bl	conf_general_init
 358              	.LVL52:
 359              		.loc 1 198 0
 360 0028 FFF7FEFF 		bl	ledpwm_init
 361              	.LVL53:
 362              		.loc 1 201 0
 363 002c 34A8     		add	r0, sp, #208
 364 002e FFF7FEFF 		bl	conf_general_read_mc_configuration
 365              	.LVL54:
 366              		.loc 1 202 0
 367 0032 34A8     		add	r0, sp, #208
 368 0034 FFF7FEFF 		bl	mc_interface_init
 369              	.LVL55:
 370              		.loc 1 204 0
 371 0038 FFF7FEFF 		bl	commands_init
 372              	.LVL56:
 373              		.loc 1 205 0
 374 003c FFF7FEFF 		bl	comm_usb_init
 375              	.LVL57:
 376              		.loc 1 208 0
 377 0040 02A8     		add	r0, sp, #8
 378 0042 FFF7FEFF 		bl	conf_general_read_app_configuration
 379              	.LVL58:
 380              		.loc 1 209 0
 381 0046 02A8     		add	r0, sp, #8
 382 0048 FFF7FEFF 		bl	app_set_configuration
 383              	.LVL59:
 384              		.loc 1 250 0
 385 004c 0024     		movs	r4, #0
 386              		.loc 1 227 0
 387 004e FFF7FEFF 		bl	timeout_init
 388              	.LVL60:
 389              		.loc 1 228 0
 390 0052 9DED040A 		vldr.32	s0, [sp, #16]
 391 0056 0398     		ldr	r0, [sp, #12]
 392 0058 FFF7FEFF 		bl	timeout_configure
 393              	.LVL61:
 394              		.loc 1 231 0
 395 005c FFF7FEFF 		bl	comm_can_init
 396              	.LVL62:
 397              		.loc 1 250 0
 398 0060 0B4B     		ldr	r3, .L38+4
 399 0062 0094     		str	r4, [sp]
ARM GAS  C:\Users\CHRIST~1\AppData\Local\Temp\cc2f21Qj.s 			page 8


 400 0064 4022     		movs	r2, #64
 401 0066 4FF4B361 		mov	r1, #1432
 402 006a 0A48     		ldr	r0, .L38+8
 403 006c FFF7FEFF 		bl	chThdCreateStatic
 404              	.LVL63:
 405              		.loc 1 251 0
 406 0070 0094     		str	r4, [sp]
 407 0072 094B     		ldr	r3, .L38+12
 408 0074 0948     		ldr	r0, .L38+16
 409 0076 4022     		movs	r2, #64
 410 0078 4FF40671 		mov	r1, #536
 411 007c FFF7FEFF 		bl	chThdCreateStatic
 412              	.LVL64:
 413              	.L36:
 414              		.loc 1 314 0
 415 0080 6420     		movs	r0, #100
 416 0082 FFF7FEFF 		bl	chThdSleep
 417              	.LVL65:
 418              		.loc 1 316 0
 419 0086 FFF7FEFF 		bl	encoder_is_configured
 420              	.LVL66:
 421 008a F9E7     		b	.L36
 422              	.L39:
 423              		.align	2
 424              	.L38:
 425 008c 00080240 		.word	1073874944
 426 0090 00000000 		.word	periodic_thread
 427 0094 00000000 		.word	.LANCHOR0
 428 0098 00000000 		.word	timer_thread
 429 009c 00000000 		.word	.LANCHOR1
 430              		.cfi_endproc
 431              	.LFE259:
 432              		.size	main, .-main
 433              		.section	.bss.periodic_thread_wa,"aw",%nobits
 434              		.align	3
 435              		.set	.LANCHOR0,. + 0
 436              		.type	periodic_thread_wa, %object
 437              		.size	periodic_thread_wa, 1432
 438              	periodic_thread_wa:
 439 0000 00000000 		.space	1432
 439      00000000 
 439      00000000 
 439      00000000 
 439      00000000 
 440              		.section	.bss.timer_thread_wa,"aw",%nobits
 441              		.align	3
 442              		.set	.LANCHOR1,. + 0
 443              		.type	timer_thread_wa, %object
 444              		.size	timer_thread_wa, 536
 445              	timer_thread_wa:
 446 0000 00000000 		.space	536
 446      00000000 
 446      00000000 
 446      00000000 
 446      00000000 
 447              		.section	.rodata.periodic_thread.str1.4,"aMS",%progbits,1
 448              		.align	2
ARM GAS  C:\Users\CHRIST~1\AppData\Local\Temp\cc2f21Qj.s 			page 9


 449              	.LC1:
 450 0000 4D61696E 		.ascii	"Main periodic\000"
 450      20706572 
 450      696F6469 
 450      6300
 451              		.section	.rodata.timer_thread.str1.4,"aMS",%progbits,1
 452              		.align	2
 453              	.LC0:
 454 0000 6D736563 		.ascii	"msec_timer\000"
 454      5F74696D 
 454      657200
 455              		.text
 456              	.Letext0:
 457              		.file 3 "c:\\program files (x86)\\gnu tools arm embedded\\6 2017-q2-update\\lib\\gcc\\arm-none-eab
 458              		.file 4 "c:\\program files (x86)\\gnu tools arm embedded\\6 2017-q2-update\\arm-none-eabi\\include
 459              		.file 5 "c:\\program files (x86)\\gnu tools arm embedded\\6 2017-q2-update\\arm-none-eabi\\include
 460              		.file 6 "ChibiOS_3.0.2/os/rt/ports/ARMCMx/compilers/GCC/chtypes.h"
 461              		.file 7 "ChibiOS_3.0.2/os/rt/include/chsystypes.h"
 462              		.file 8 "ChibiOS_3.0.2/os/rt/include/chschd.h"
 463              		.file 9 "ChibiOS_3.0.2/os/ext/CMSIS/include/core_cm4.h"
 464              		.file 10 "ChibiOS_3.0.2/os/ext/CMSIS/ST/system_stm32f4xx.h"
 465              		.file 11 "ChibiOS_3.0.2/os/ext/CMSIS/ST/stm32f407xx.h"
 466              		.file 12 "ChibiOS_3.0.2/os/rt/ports/ARMCMx/chcore.h"
 467              		.file 13 "ChibiOS_3.0.2/os/rt/ports/ARMCMx/chcore_v7m.h"
 468              		.file 14 "ChibiOS_3.0.2/os/rt/include/chtm.h"
 469              		.file 15 "ChibiOS_3.0.2/os/rt/include/chsem.h"
 470              		.file 16 "ChibiOS_3.0.2/os/rt/include/chmtx.h"
 471              		.file 17 "ChibiOS_3.0.2/os/rt/include/chevents.h"
 472              		.file 18 "ChibiOS_3.0.2/os/rt/include/chqueues.h"
 473              		.file 19 "./datatypes.h"
 474              		.file 20 "./conf_general.h"
 475              		.file 21 "ChibiOS_3.0.2/os/hal/ports/STM32/STM32F4xx/stm32_dma.h"
 476              		.file 22 "ChibiOS_3.0.2/os/hal/ports/STM32/LLD/GPIOv2/pal_lld.h"
 477              		.file 23 "ChibiOS_3.0.2/os/hal/include/can.h"
 478              		.file 24 "ChibiOS_3.0.2/os/hal/ports/STM32/LLD/can_lld.h"
 479              		.file 25 "ChibiOS_3.0.2/os/hal/include/i2c.h"
 480              		.file 26 "ChibiOS_3.0.2/os/hal/ports/STM32/LLD/I2Cv1/i2c_lld.h"
 481              		.file 27 "ChibiOS_3.0.2/os/hal/include/icu.h"
 482              		.file 28 "ChibiOS_3.0.2/os/hal/ports/STM32/LLD/TIMv1/icu_lld.h"
 483              		.file 29 "ChibiOS_3.0.2/os/hal/ports/STM32/LLD/TIMv1/stm32_tim.h"
 484              		.file 30 "ChibiOS_3.0.2/os/hal/include/spi.h"
 485              		.file 31 "ChibiOS_3.0.2/os/hal/ports/STM32/LLD/SPIv1/spi_lld.h"
 486              		.file 32 "ChibiOS_3.0.2/os/hal/include/uart.h"
 487              		.file 33 "ChibiOS_3.0.2/os/hal/ports/STM32/LLD/USARTv1/uart_lld.h"
 488              		.file 34 "ChibiOS_3.0.2/os/hal/include/usb.h"
 489              		.file 35 "ChibiOS_3.0.2/os/hal/ports/STM32/LLD/OTGv1/usb_lld.h"
 490              		.file 36 "ChibiOS_3.0.2/os/hal/ports/STM32/LLD/OTGv1/stm32_otg.h"
 491              		.file 37 "c:\\program files (x86)\\gnu tools arm embedded\\6 2017-q2-update\\arm-none-eabi\\includ
 492              		.file 38 "c:\\program files (x86)\\gnu tools arm embedded\\6 2017-q2-update\\arm-none-eabi\\includ
 493              		.file 39 "c:\\program files (x86)\\gnu tools arm embedded\\6 2017-q2-update\\arm-none-eabi\\includ
 494              		.file 40 "c:\\program files (x86)\\gnu tools arm embedded\\6 2017-q2-update\\arm-none-eabi\\includ
 495              		.file 41 "c:\\program files (x86)\\gnu tools arm embedded\\6 2017-q2-update\\arm-none-eabi\\includ
 496              		.file 42 "mc_interface.h"
 497              		.file 43 "mcpwm.h"
 498              		.file 44 "servo.h"
 499              		.file 45 "ChibiOS_3.0.2/os/hal/include/hal.h"
 500              		.file 46 "ChibiOS_3.0.2/os/rt/include/chsys.h"
ARM GAS  C:\Users\CHRIST~1\AppData\Local\Temp\cc2f21Qj.s 			page 10


 501              		.file 47 "ChibiOS_3.0.2/os/rt/include/chthreads.h"
 502              		.file 48 "hwconf/hw.h"
 503              		.file 49 "ledpwm.h"
 504              		.file 50 "commands.h"
 505              		.file 51 "comm_usb.h"
 506              		.file 52 "applications/app.h"
 507              		.file 53 "timeout.h"
 508              		.file 54 "comm_can.h"
 509              		.file 55 "encoder.h"
 510              		.file 56 "packet.h"
 511              		.file 57 "mcpwm_foc.h"
 512              		.file 58 "utils.h"