ARM GAS  C:\Users\CHRIST~1\AppData\Local\Temp\ccCFoZV9.s 			page 1


   1              		.cpu cortex-m4
   2              		.eabi_attribute 27, 1
   3              		.eabi_attribute 28, 1
   4              		.eabi_attribute 20, 1
   5              		.eabi_attribute 21, 1
   6              		.eabi_attribute 23, 3
   7              		.eabi_attribute 24, 1
   8              		.eabi_attribute 25, 1
   9              		.eabi_attribute 26, 1
  10              		.eabi_attribute 30, 2
  11              		.eabi_attribute 34, 1
  12              		.eabi_attribute 18, 4
  13              		.file	"mc_interface.c"
  14              		.text
  15              	.Ltext0:
  16              		.cfi_sections	.debug_frame
  17              		.section	.text.sample_send_thread,"ax",%progbits
  18              		.align	1
  19              		.p2align 4,,15
  20              		.syntax unified
  21              		.thumb
  22              		.thumb_func
  23              		.fpu fpv4-sp-d16
  24              		.type	sample_send_thread, %function
  25              	sample_send_thread:
  26              	.LFB311:
  27              		.file 1 "mc_interface.c"
  28              		.loc 1 1467 0
  29              		.cfi_startproc
  30              		@ args = 0, pretend = 0, frame = 48
  31              		@ frame_needed = 0, uses_anonymous_args = 0
  32              	.LVL0:
  33 0000 2DE9F04F 		push	{r4, r5, r6, r7, r8, r9, r10, fp, lr}
  34              		.cfi_def_cfa_offset 36
  35              		.cfi_offset 4, -36
  36              		.cfi_offset 5, -32
  37              		.cfi_offset 6, -28
  38              		.cfi_offset 7, -24
  39              		.cfi_offset 8, -20
  40              		.cfi_offset 9, -16
  41              		.cfi_offset 10, -12
  42              		.cfi_offset 11, -8
  43              		.cfi_offset 14, -4
  44              	.LBB109:
  45              	.LBB110:
  46              		.file 2 "ChibiOS_3.0.2/os/rt/include/chregistry.h"
  47              		.loc 2 135 0
  48 0004 7C4B     		ldr	r3, .L21
  49              	.LBE110:
  50              	.LBE109:
  51              		.loc 1 1472 0
  52 0006 7D4A     		ldr	r2, .L21+4
  53              	.LBB113:
  54              	.LBB111:
  55              		.loc 2 135 0
  56 0008 9B69     		ldr	r3, [r3, #24]
  57 000a 7D49     		ldr	r1, .L21+8
ARM GAS  C:\Users\CHRIST~1\AppData\Local\Temp\ccCFoZV9.s 			page 2


  58 000c 7D4E     		ldr	r6, .L21+12
  59 000e DFF82CB2 		ldr	fp, .L21+68
  60 0012 DFF82CA2 		ldr	r10, .L21+72
  61              	.LBE111:
  62              	.LBE113:
  63              		.loc 1 1467 0
  64 0016 2DED068B 		vpush.64	{d8, d9, d10}
  65              		.cfi_def_cfa_offset 60
  66              		.cfi_offset 80, -60
  67              		.cfi_offset 81, -56
  68              		.cfi_offset 82, -52
  69              		.cfi_offset 83, -48
  70              		.cfi_offset 84, -44
  71              		.cfi_offset 85, -40
  72              	.LBB114:
  73              	.LBB115:
  74              	.LBB116:
  75              		.loc 1 1512 0
  76 001a DFED7B9A 		vldr.32	s19, .L21+16
  77              		.loc 1 1514 0
  78 001e 9FED7B9A 		vldr.32	s18, .L21+20
  79 0022 DFED7B8A 		vldr.32	s17, .L21+24
  80 0026 9FED7B8A 		vldr.32	s16, .L21+28
  81              		.loc 1 1518 0
  82 002a 9FED7BAA 		vldr.32	s20, .L21+32
  83              	.LBE116:
  84              	.LBE115:
  85              	.LBE114:
  86              	.LBB125:
  87              	.LBB112:
  88              		.loc 2 135 0
  89 002e 9961     		str	r1, [r3, #24]
  90              	.LVL1:
  91              	.LBE112:
  92              	.LBE125:
  93              		.loc 1 1467 0
  94 0030 8DB0     		sub	sp, sp, #52
  95              		.cfi_def_cfa_offset 112
  96              		.loc 1 1472 0
  97 0032 1360     		str	r3, [r2]
  98              	.LVL2:
  99              	.L13:
 100              	.LBB126:
 101              		.loc 1 1475 0
 102 0034 0120     		movs	r0, #1
 103 0036 FFF7FEFF 		bl	chEvtWaitAny
 104              	.LVL3:
 105              		.loc 1 1480 0
 106 003a 784B     		ldr	r3, .L21+36
 107 003c 1B78     		ldrb	r3, [r3]	@ zero_extendqisi2
 108 003e 013B     		subs	r3, r3, #1
 109 0040 052B     		cmp	r3, #5
 110 0042 F7D8     		bhi	.L13
 111 0044 DFE803F0 		tbb	[pc, r3]
 112              	.L4:
 113 0048 CC       		.byte	(.L3-.L4)/2
 114 0049 CC       		.byte	(.L3-.L4)/2
ARM GAS  C:\Users\CHRIST~1\AppData\Local\Temp\ccCFoZV9.s 			page 3


 115 004a 03       		.byte	(.L5-.L4)/2
 116 004b 03       		.byte	(.L5-.L4)/2
 117 004c 03       		.byte	(.L5-.L4)/2
 118 004d 03       		.byte	(.L5-.L4)/2
 119              		.p2align 1
 120              	.L5:
 121              	.LVL4:
 122              		.loc 1 1491 0
 123 004e 744B     		ldr	r3, .L21+40
 124 0050 D3F80090 		ldr	r9, [r3]
 125 0054 734B     		ldr	r3, .L21+44
 126 0056 1B68     		ldr	r3, [r3]
 127              		.loc 1 1490 0
 128 0058 4FF4FA68 		mov	r8, #2000
 129              		.loc 1 1491 0
 130 005c A9EB0309 		sub	r9, r9, r3
 131              	.LVL5:
 132              	.L6:
 133              	.LBB121:
 134              	.LBB117:
 135              		.loc 1 1503 0
 136 0060 B9F5FA6F 		cmp	r9, #2000
 137              	.LBE117:
 138              	.LBE121:
 139              		.loc 1 1490 0
 140 0064 4FF00007 		mov	r7, #0
 141              	.LVL6:
 142              	.LBB122:
 143              	.LBB118:
 144              		.loc 1 1501 0
 145 0068 4C46     		mov	r4, r9
 146              	.LVL7:
 147              		.loc 1 1503 0
 148 006a C0F2B180 		blt	.L7
 149              	.LVL8:
 150              	.L8:
 151              		.loc 1 1504 0
 152 006e A4F5FA64 		sub	r4, r4, #2000
 153              	.LVL9:
 154              		.loc 1 1503 0
 155 0072 B4F5FA6F 		cmp	r4, #2000
 156 0076 FADA     		bge	.L8
 157              	.L9:
 158              		.loc 1 1512 0 discriminator 2
 159 0078 36F81430 		ldrh	r3, [r6, r4, lsl #1]
 160 007c 1BB2     		sxth	r3, r3
 161 007e 07EE903A 		vmov	s15, r3	@ int
 162 0082 B8EEE70A 		vcvt.f32.s32	s0, s15
 163              		.loc 1 1511 0 discriminator 2
 164 0086 0122     		movs	r2, #1
 165              		.loc 1 1513 0 discriminator 2
 166 0088 04FA02F5 		lsl	r5, r4, r2
 167              		.loc 1 1511 0 discriminator 2
 168 008c 1323     		movs	r3, #19
 169              		.loc 1 1512 0 discriminator 2
 170 008e 20EE290A 		vmul.f32	s0, s0, s19
 171 0092 01A9     		add	r1, sp, #4
ARM GAS  C:\Users\CHRIST~1\AppData\Local\Temp\ccCFoZV9.s 			page 4


 172 0094 02A8     		add	r0, sp, #8
 173              		.loc 1 1511 0 discriminator 2
 174 0096 0192     		str	r2, [sp, #4]
 175 0098 8DF80830 		strb	r3, [sp, #8]
 176              		.loc 1 1512 0 discriminator 2
 177 009c FFF7FEFF 		bl	buffer_append_float32_auto
 178              	.LVL10:
 179              		.loc 1 1513 0 discriminator 2
 180 00a0 7319     		adds	r3, r6, r5
 181 00a2 01A9     		add	r1, sp, #4
 182 00a4 B3F8A03F 		ldrh	r3, [r3, #4000]
 183 00a8 1BB2     		sxth	r3, r3
 184 00aa 07EE903A 		vmov	s15, r3	@ int
 185 00ae B8EEE70A 		vcvt.f32.s32	s0, s15
 186 00b2 02A8     		add	r0, sp, #8
 187 00b4 20EE290A 		vmul.f32	s0, s0, s19
 188 00b8 FFF7FEFF 		bl	buffer_append_float32_auto
 189              	.LVL11:
 190              		.loc 1 1514 0 discriminator 2
 191 00bc 0BEB0503 		add	r3, fp, r5
 192 00c0 01A9     		add	r1, sp, #4
 193 00c2 B3F8483E 		ldrh	r3, [r3, #3656]
 194 00c6 1BB2     		sxth	r3, r3
 195 00c8 07EE903A 		vmov	s15, r3	@ int
 196 00cc B8EEE70A 		vcvt.f32.s32	s0, s15
 197 00d0 02A8     		add	r0, sp, #8
 198 00d2 20EE090A 		vmul.f32	s0, s0, s18
 199              	.LBE118:
 200              		.loc 1 1498 0 discriminator 2
 201 00d6 0137     		adds	r7, r7, #1
 202              	.LVL12:
 203              	.LBB119:
 204              		.loc 1 1514 0 discriminator 2
 205 00d8 20EE280A 		vmul.f32	s0, s0, s17
 206 00dc 09F10109 		add	r9, r9, #1
 207 00e0 20EE080A 		vmul.f32	s0, s0, s16
 208 00e4 FFF7FEFF 		bl	buffer_append_float32_auto
 209              	.LVL13:
 210              		.loc 1 1515 0 discriminator 2
 211 00e8 0AEB0503 		add	r3, r10, r5
 212 00ec 01A9     		add	r1, sp, #4
 213 00ee B3F8F03C 		ldrh	r3, [r3, #3312]
 214 00f2 1BB2     		sxth	r3, r3
 215 00f4 07EE903A 		vmov	s15, r3	@ int
 216 00f8 B8EEE70A 		vcvt.f32.s32	s0, s15
 217 00fc 02A8     		add	r0, sp, #8
 218 00fe 20EE090A 		vmul.f32	s0, s0, s18
 219 0102 20EE280A 		vmul.f32	s0, s0, s17
 220 0106 20EE080A 		vmul.f32	s0, s0, s16
 221 010a FFF7FEFF 		bl	buffer_append_float32_auto
 222              	.LVL14:
 223              		.loc 1 1516 0 discriminator 2
 224 010e 464B     		ldr	r3, .L21+48
 225 0110 2B44     		add	r3, r3, r5
 226 0112 01A9     		add	r1, sp, #4
 227 0114 B3F8983B 		ldrh	r3, [r3, #2968]
 228 0118 1BB2     		sxth	r3, r3
ARM GAS  C:\Users\CHRIST~1\AppData\Local\Temp\ccCFoZV9.s 			page 5


 229 011a 07EE903A 		vmov	s15, r3	@ int
 230 011e B8EEE70A 		vcvt.f32.s32	s0, s15
 231 0122 02A8     		add	r0, sp, #8
 232 0124 20EE090A 		vmul.f32	s0, s0, s18
 233 0128 20EE280A 		vmul.f32	s0, s0, s17
 234 012c 20EE080A 		vmul.f32	s0, s0, s16
 235 0130 FFF7FEFF 		bl	buffer_append_float32_auto
 236              	.LVL15:
 237              		.loc 1 1517 0 discriminator 2
 238 0134 3D4B     		ldr	r3, .L21+52
 239 0136 2B44     		add	r3, r3, r5
 240 0138 01A9     		add	r1, sp, #4
 241 013a B3F8403A 		ldrh	r3, [r3, #2624]
 242 013e 1BB2     		sxth	r3, r3
 243 0140 07EE903A 		vmov	s15, r3	@ int
 244 0144 B8EEE70A 		vcvt.f32.s32	s0, s15
 245 0148 02A8     		add	r0, sp, #8
 246 014a 20EE090A 		vmul.f32	s0, s0, s18
 247 014e 20EE280A 		vmul.f32	s0, s0, s17
 248 0152 20EE080A 		vmul.f32	s0, s0, s16
 249 0156 FFF7FEFF 		bl	buffer_append_float32_auto
 250              	.LVL16:
 251              		.loc 1 1518 0 discriminator 2
 252 015a 354B     		ldr	r3, .L21+56
 253 015c 2B44     		add	r3, r3, r5
 254 015e 01A9     		add	r1, sp, #4
 255 0160 B3F8E838 		ldrh	r3, [r3, #2280]
 256 0164 1BB2     		sxth	r3, r3
 257 0166 07EE903A 		vmov	s15, r3	@ int
 258 016a B8EEE70A 		vcvt.f32.s32	s0, s15
 259 016e 02A8     		add	r0, sp, #8
 260 0170 80EE0A0A 		vdiv.f32	s0, s0, s20
 261 0174 FFF7FEFF 		bl	buffer_append_float32_auto
 262              	.LVL17:
 263              		.loc 1 1519 0 discriminator 2
 264 0178 2E4B     		ldr	r3, .L21+60
 265 017a 1D44     		add	r5, r5, r3
 266 017c 01A9     		add	r1, sp, #4
 267 017e B5F89037 		ldrh	r3, [r5, #1936]
 268 0182 1BB2     		sxth	r3, r3
 269 0184 02A8     		add	r0, sp, #8
 270 0186 07EE903A 		vmov	s15, r3	@ int
 271 018a F8EEE77A 		vcvt.f32.s32	s15, s15
 272 018e B2EE040A 		vmov.f32	s0, #1.0e+1
 273 0192 27EE800A 		vmul.f32	s0, s15, s0
 274 0196 FFF7FEFF 		bl	buffer_append_float32_auto
 275              	.LVL18:
 276              		.loc 1 1520 0 discriminator 2
 277 019a 274A     		ldr	r2, .L21+64
 278 019c 019B     		ldr	r3, [sp, #4]
 279 019e 1444     		add	r4, r4, r2
 280              	.LVL19:
 281 01a0 0CAA     		add	r2, sp, #48
 282 01a2 1A44     		add	r2, r2, r3
 283 01a4 94F83816 		ldrb	r1, [r4, #1592]	@ zero_extendqisi2
 284 01a8 02F8281C 		strb	r1, [r2, #-40]
 285              		.loc 1 1521 0 discriminator 2
ARM GAS  C:\Users\CHRIST~1\AppData\Local\Temp\ccCFoZV9.s 			page 6


 286 01ac 0233     		adds	r3, r3, #2
 287 01ae 94F8084E 		ldrb	r4, [r4, #3592]	@ zero_extendqisi2
 288              	.LVL20:
 289 01b2 02F8274C 		strb	r4, [r2, #-39]
 290              		.loc 1 1523 0 discriminator 2
 291 01b6 1946     		mov	r1, r3
 292 01b8 02A8     		add	r0, sp, #8
 293              		.loc 1 1521 0 discriminator 2
 294 01ba 0193     		str	r3, [sp, #4]
 295              		.loc 1 1523 0 discriminator 2
 296 01bc FFF7FEFF 		bl	commands_send_packet
 297              	.LVL21:
 298              	.LBE119:
 299              		.loc 1 1498 0 discriminator 2
 300 01c0 4745     		cmp	r7, r8
 301 01c2 BFF637AF 		bge	.L13
 302              	.LBB120:
 303              		.loc 1 1503 0
 304 01c6 B9F5FA6F 		cmp	r9, #2000
 305              		.loc 1 1501 0
 306 01ca 4C46     		mov	r4, r9
 307              	.LVL22:
 308              		.loc 1 1503 0
 309 01cc BFF64FAF 		bge	.L8
 310              	.L7:
 311              		.loc 1 1507 0
 312 01d0 B9F1000F 		cmp	r9, #0
 313 01d4 BFF650AF 		bge	.L9
 314              	.L10:
 315              	.LVL23:
 316 01d8 14F5FA64 		adds	r4, r4, #2000
 317              	.LVL24:
 318 01dc FCD4     		bmi	.L10
 319 01de 4BE7     		b	.L9
 320              	.LVL25:
 321              	.L3:
 322              	.LBE120:
 323              	.LBE122:
 324              		.loc 1 1483 0
 325 01e0 104B     		ldr	r3, .L21+44
 326 01e2 D3F80080 		ldr	r8, [r3]
 327              	.LVL26:
 328              	.LBB123:
 329              		.loc 1 1498 0
 330 01e6 B8F1000F 		cmp	r8, #0
 331              	.LBE123:
 332              		.loc 1 1478 0
 333 01ea C8BF     		it	gt
 334 01ec 4FF00009 		movgt	r9, #0
 335              	.LBB124:
 336              		.loc 1 1498 0
 337 01f0 3FF736AF 		bgt	.L6
 338 01f4 1EE7     		b	.L13
 339              	.L22:
 340 01f6 00BF     		.align	2
 341              	.L21:
 342 01f8 00000000 		.word	ch
ARM GAS  C:\Users\CHRIST~1\AppData\Local\Temp\ccCFoZV9.s 			page 7


 343 01fc 00000000 		.word	.LANCHOR0
 344 0200 00000000 		.word	.LC0
 345 0204 00000000 		.word	.LANCHOR4
 346 0208 500AA53D 		.word	1034226256
 347 020c 00008039 		.word	964689920
 348 0210 33335340 		.word	1079194419
 349 0214 74D19541 		.word	1100337524
 350 0218 A48BC642 		.word	1120308132
 351 021c 00000000 		.word	.LANCHOR1
 352 0220 00000000 		.word	.LANCHOR3
 353 0224 00000000 		.word	.LANCHOR2
 354 0228 E8320000 		.word	.LANCHOR7
 355 022c E0430000 		.word	.LANCHOR8
 356 0230 D8540000 		.word	.LANCHOR9
 357 0234 D0650000 		.word	.LANCHOR10
 358 0238 C8760000 		.word	.LANCHOR11
 359 023c F8100000 		.word	.LANCHOR5
 360 0240 F0210000 		.word	.LANCHOR6
 361              	.LBE124:
 362              	.LBE126:
 363              		.cfi_endproc
 364              	.LFE311:
 365              		.size	sample_send_thread, .-sample_send_thread
 366              		.section	.text.mc_interface_init,"ax",%progbits
 367              		.align	1
 368              		.p2align 4,,15
 369              		.global	mc_interface_init
 370              		.syntax unified
 371              		.thumb
 372              		.thumb_func
 373              		.fpu fpv4-sp-d16
 374              		.type	mc_interface_init, %function
 375              	mc_interface_init:
 376              	.LFB256:
 377              		.loc 1 99 0
 378              		.cfi_startproc
 379              		@ args = 0, pretend = 0, frame = 0
 380              		@ frame_needed = 0, uses_anonymous_args = 0
 381              	.LVL27:
 382 0000 F0B5     		push	{r4, r5, r6, r7, lr}
 383              		.cfi_def_cfa_offset 20
 384              		.cfi_offset 4, -20
 385              		.cfi_offset 5, -16
 386              		.cfi_offset 6, -12
 387              		.cfi_offset 7, -8
 388              		.cfi_offset 14, -4
 389              		.loc 1 100 0
 390 0002 3D4D     		ldr	r5, .L35
 391              		.loc 1 103 0
 392 0004 3D4E     		ldr	r6, .L35+4
 393              		.loc 1 107 0
 394 0006 3E4F     		ldr	r7, .L35+8
 395              		.loc 1 99 0
 396 0008 83B0     		sub	sp, sp, #12
 397              		.cfi_def_cfa_offset 32
 398              		.loc 1 100 0
 399 000a 0146     		mov	r1, r0
ARM GAS  C:\Users\CHRIST~1\AppData\Local\Temp\ccCFoZV9.s 			page 8


 400 000c 4FF4B872 		mov	r2, #368
 401 0010 2846     		mov	r0, r5
 402              	.LVL28:
 403 0012 FFF7FEFF 		bl	memcpy
 404              	.LVL29:
 405              		.loc 1 104 0
 406 0016 3B4A     		ldr	r2, .L35+12
 407              		.loc 1 105 0
 408 0018 3B49     		ldr	r1, .L35+16
 409              		.loc 1 106 0
 410 001a 3C48     		ldr	r0, .L35+20
 411              		.loc 1 123 0
 412 001c DFF854E1 		ldr	lr, .L35+124
 413              		.loc 1 106 0
 414 0020 0023     		movs	r3, #0
 415              		.loc 1 101 0
 416 0022 0024     		movs	r4, #0
 417              		.loc 1 131 0
 418 0024 0094     		str	r4, [sp]
 419              		.loc 1 103 0
 420 0026 3460     		str	r4, [r6]
 421              		.loc 1 104 0
 422 0028 1470     		strb	r4, [r2]
 423              		.loc 1 108 0
 424 002a 394E     		ldr	r6, .L35+24
 425              		.loc 1 105 0
 426 002c 0C70     		strb	r4, [r1]
 427              		.loc 1 109 0
 428 002e 394A     		ldr	r2, .L35+28
 429              		.loc 1 106 0
 430 0030 0360     		str	r3, [r0]	@ float
 431              		.loc 1 110 0
 432 0032 3949     		ldr	r1, .L35+32
 433              		.loc 1 111 0
 434 0034 3948     		ldr	r0, .L35+36
 435              		.loc 1 107 0
 436 0036 3B60     		str	r3, [r7]	@ float
 437              		.loc 1 108 0
 438 0038 3360     		str	r3, [r6]	@ float
 439              		.loc 1 112 0
 440 003a 394F     		ldr	r7, .L35+40
 441              		.loc 1 109 0
 442 003c 1360     		str	r3, [r2]	@ float
 443              		.loc 1 113 0
 444 003e 394E     		ldr	r6, .L35+44
 445              		.loc 1 110 0
 446 0040 0B60     		str	r3, [r1]	@ float
 447              		.loc 1 114 0
 448 0042 394A     		ldr	r2, .L35+48
 449              		.loc 1 111 0
 450 0044 0360     		str	r3, [r0]	@ float
 451              		.loc 1 115 0
 452 0046 3949     		ldr	r1, .L35+52
 453              		.loc 1 116 0
 454 0048 3948     		ldr	r0, .L35+56
 455              		.loc 1 112 0
 456 004a 3B60     		str	r3, [r7]	@ float
ARM GAS  C:\Users\CHRIST~1\AppData\Local\Temp\ccCFoZV9.s 			page 9


 457              		.loc 1 113 0
 458 004c 3360     		str	r3, [r6]	@ float
 459              		.loc 1 117 0
 460 004e 394F     		ldr	r7, .L35+60
 461              		.loc 1 114 0
 462 0050 1360     		str	r3, [r2]	@ float
 463              		.loc 1 118 0
 464 0052 394E     		ldr	r6, .L35+64
 465              		.loc 1 115 0
 466 0054 0B60     		str	r3, [r1]	@ float
 467              		.loc 1 119 0
 468 0056 394A     		ldr	r2, .L35+68
 469              		.loc 1 116 0
 470 0058 0360     		str	r3, [r0]	@ float
 471              		.loc 1 120 0
 472 005a 3949     		ldr	r1, .L35+72
 473              		.loc 1 121 0
 474 005c 3948     		ldr	r0, .L35+76
 475              		.loc 1 117 0
 476 005e 3B60     		str	r3, [r7]	@ float
 477              		.loc 1 118 0
 478 0060 3360     		str	r3, [r6]	@ float
 479              		.loc 1 119 0
 480 0062 1360     		str	r3, [r2]	@ float
 481              		.loc 1 120 0
 482 0064 0B60     		str	r3, [r1]	@ float
 483              		.loc 1 121 0
 484 0066 0360     		str	r3, [r0]	@ float
 485              		.loc 1 101 0
 486 0068 374B     		ldr	r3, .L35+80
 487              		.loc 1 124 0
 488 006a 384E     		ldr	r6, .L35+84
 489              		.loc 1 101 0
 490 006c 1C70     		strb	r4, [r3]
 491              		.loc 1 123 0
 492 006e 4FF47A73 		mov	r3, #1000
 493 0072 CEF80030 		str	r3, [lr]
 494              		.loc 1 124 0
 495 0076 0123     		movs	r3, #1
 496 0078 3360     		str	r3, [r6]
 497              		.loc 1 125 0
 498 007a 354A     		ldr	r2, .L35+88
 499              		.loc 1 126 0
 500 007c 3549     		ldr	r1, .L35+92
 501              		.loc 1 127 0
 502 007e 3648     		ldr	r0, .L35+96
 503              		.loc 1 102 0
 504 0080 364F     		ldr	r7, .L35+100
 505              		.loc 1 128 0
 506 0082 374E     		ldr	r6, .L35+104
 507              		.loc 1 125 0
 508 0084 1460     		str	r4, [r2]
 509              		.loc 1 131 0
 510 0086 374B     		ldr	r3, .L35+108
 511              		.loc 1 126 0
 512 0088 0C60     		str	r4, [r1]
 513              		.loc 1 131 0
ARM GAS  C:\Users\CHRIST~1\AppData\Local\Temp\ccCFoZV9.s 			page 10


 514 008a 4022     		movs	r2, #64
 515              		.loc 1 127 0
 516 008c 0470     		strb	r4, [r0]
 517              		.loc 1 131 0
 518 008e 4FF4B361 		mov	r1, #1432
 519 0092 3548     		ldr	r0, .L35+112
 520              		.loc 1 102 0
 521 0094 3C60     		str	r4, [r7]
 522              		.loc 1 128 0
 523 0096 3470     		strb	r4, [r6]
 524              		.loc 1 131 0
 525 0098 FFF7FEFF 		bl	chThdCreateStatic
 526              	.LVL30:
 527              		.loc 1 132 0
 528 009c 334B     		ldr	r3, .L35+116
 529 009e 0094     		str	r4, [sp]
 530 00a0 3348     		ldr	r0, .L35+120
 531 00a2 3F22     		movs	r2, #63
 532 00a4 4FF4B361 		mov	r1, #1432
 533 00a8 FFF7FEFF 		bl	chThdCreateStatic
 534              	.LVL31:
 535              		.loc 1 141 0
 536 00ac 95F85831 		ldrb	r3, [r5, #344]	@ zero_extendqisi2
 537 00b0 DBB2     		uxtb	r3, r3
 538 00b2 012B     		cmp	r3, #1
 539 00b4 1BD0     		beq	.L25
 540 00b6 022B     		cmp	r3, #2
 541 00b8 0BD0     		beq	.L26
 542              	.L24:
 543              		.loc 1 156 0
 544 00ba AB78     		ldrb	r3, [r5, #2]	@ zero_extendqisi2
 545 00bc DBB2     		uxtb	r3, r3
 546 00be 012B     		cmp	r3, #1
 547 00c0 0DD9     		bls	.L28
 548              	.L34:
 549 00c2 022B     		cmp	r3, #2
 550 00c4 11D1     		bne	.L33
 551              		.loc 1 163 0
 552 00c6 0C48     		ldr	r0, .L35
 553              		.loc 1 169 0
 554 00c8 03B0     		add	sp, sp, #12
 555              		.cfi_remember_state
 556              		.cfi_def_cfa_offset 20
 557              		@ sp needed
 558 00ca BDE8F040 		pop	{r4, r5, r6, r7, lr}
 559              		.cfi_restore 14
 560              		.cfi_restore 7
 561              		.cfi_restore 6
 562              		.cfi_restore 5
 563              		.cfi_restore 4
 564              		.cfi_def_cfa_offset 0
 565              		.loc 1 163 0
 566 00ce FFF7FEBF 		b	mcpwm_foc_init
 567              	.LVL32:
 568              	.L26:
 569              		.cfi_restore_state
 570              		.loc 1 147 0
ARM GAS  C:\Users\CHRIST~1\AppData\Local\Temp\ccCFoZV9.s 			page 11


 571 00d2 FFF7FEFF 		bl	encoder_init_as5047p_spi
 572              	.LVL33:
 573              		.loc 1 156 0
 574 00d6 AB78     		ldrb	r3, [r5, #2]	@ zero_extendqisi2
 575 00d8 DBB2     		uxtb	r3, r3
 576 00da 012B     		cmp	r3, #1
 577 00dc F1D8     		bhi	.L34
 578              	.L28:
 579              		.loc 1 159 0
 580 00de 0648     		ldr	r0, .L35
 581              		.loc 1 169 0
 582 00e0 03B0     		add	sp, sp, #12
 583              		.cfi_remember_state
 584              		.cfi_def_cfa_offset 20
 585              		@ sp needed
 586 00e2 BDE8F040 		pop	{r4, r5, r6, r7, lr}
 587              		.cfi_restore 14
 588              		.cfi_restore 7
 589              		.cfi_restore 6
 590              		.cfi_restore 5
 591              		.cfi_restore 4
 592              		.cfi_def_cfa_offset 0
 593              		.loc 1 159 0
 594 00e6 FFF7FEBF 		b	mcpwm_init
 595              	.LVL34:
 596              	.L33:
 597              		.cfi_restore_state
 598              		.loc 1 169 0
 599 00ea 03B0     		add	sp, sp, #12
 600              		.cfi_remember_state
 601              		.cfi_def_cfa_offset 20
 602              		@ sp needed
 603 00ec F0BD     		pop	{r4, r5, r6, r7, pc}
 604              	.L25:
 605              		.cfi_restore_state
 606              		.loc 1 143 0
 607 00ee D5F85401 		ldr	r0, [r5, #340]
 608 00f2 FFF7FEFF 		bl	encoder_init_abi
 609              	.LVL35:
 610              		.loc 1 144 0
 611 00f6 E0E7     		b	.L24
 612              	.L36:
 613              		.align	2
 614              	.L35:
 615 00f8 00000000 		.word	.LANCHOR12
 616 00fc 00000000 		.word	.LANCHOR15
 617 0100 00000000 		.word	.LANCHOR19
 618 0104 00000000 		.word	.LANCHOR16
 619 0108 00000000 		.word	.LANCHOR17
 620 010c 00000000 		.word	.LANCHOR18
 621 0110 00000000 		.word	.LANCHOR20
 622 0114 00000000 		.word	.LANCHOR21
 623 0118 00000000 		.word	.LANCHOR22
 624 011c 00000000 		.word	.LANCHOR23
 625 0120 00000000 		.word	.LANCHOR24
 626 0124 00000000 		.word	.LANCHOR25
 627 0128 00000000 		.word	.LANCHOR26
ARM GAS  C:\Users\CHRIST~1\AppData\Local\Temp\ccCFoZV9.s 			page 12


 628 012c 00000000 		.word	.LANCHOR27
 629 0130 00000000 		.word	.LANCHOR28
 630 0134 00000000 		.word	.LANCHOR29
 631 0138 00000000 		.word	.LANCHOR30
 632 013c 00000000 		.word	.LANCHOR31
 633 0140 00000000 		.word	.LANCHOR32
 634 0144 00000000 		.word	.LANCHOR33
 635 0148 00000000 		.word	.LANCHOR13
 636 014c 00000000 		.word	.LANCHOR34
 637 0150 00000000 		.word	.LANCHOR35
 638 0154 00000000 		.word	.LANCHOR3
 639 0158 00000000 		.word	.LANCHOR36
 640 015c 00000000 		.word	.LANCHOR14
 641 0160 00000000 		.word	.LANCHOR1
 642 0164 00000000 		.word	timer_thread
 643 0168 00000000 		.word	.LANCHOR37
 644 016c 00000000 		.word	sample_send_thread
 645 0170 00000000 		.word	.LANCHOR38
 646 0174 00000000 		.word	.LANCHOR2
 647              		.cfi_endproc
 648              	.LFE256:
 649              		.size	mc_interface_init, .-mc_interface_init
 650              		.section	.text.mc_interface_get_configuration,"ax",%progbits
 651              		.align	1
 652              		.p2align 4,,15
 653              		.global	mc_interface_get_configuration
 654              		.syntax unified
 655              		.thumb
 656              		.thumb_func
 657              		.fpu fpv4-sp-d16
 658              		.type	mc_interface_get_configuration, %function
 659              	mc_interface_get_configuration:
 660              	.LFB257:
 661              		.loc 1 171 0
 662              		.cfi_startproc
 663              		@ args = 0, pretend = 0, frame = 0
 664              		@ frame_needed = 0, uses_anonymous_args = 0
 665              		@ link register save eliminated.
 666              		.loc 1 173 0
 667 0000 0048     		ldr	r0, .L38
 668 0002 7047     		bx	lr
 669              	.L39:
 670              		.align	2
 671              	.L38:
 672 0004 00000000 		.word	.LANCHOR12
 673              		.cfi_endproc
 674              	.LFE257:
 675              		.size	mc_interface_get_configuration, .-mc_interface_get_configuration
 676              		.section	.text.mc_interface_dccal_done,"ax",%progbits
 677              		.align	1
 678              		.p2align 4,,15
 679              		.global	mc_interface_dccal_done
 680              		.syntax unified
 681              		.thumb
 682              		.thumb_func
 683              		.fpu fpv4-sp-d16
 684              		.type	mc_interface_dccal_done, %function
ARM GAS  C:\Users\CHRIST~1\AppData\Local\Temp\ccCFoZV9.s 			page 13


 685              	mc_interface_dccal_done:
 686              	.LFB259:
 687              		.loc 1 234 0
 688              		.cfi_startproc
 689              		@ args = 0, pretend = 0, frame = 0
 690              		@ frame_needed = 0, uses_anonymous_args = 0
 691              		@ link register save eliminated.
 692              	.LVL36:
 693              		.loc 1 236 0
 694 0000 064B     		ldr	r3, .L47
 695 0002 9B78     		ldrb	r3, [r3, #2]	@ zero_extendqisi2
 696 0004 DBB2     		uxtb	r3, r3
 697 0006 012B     		cmp	r3, #1
 698 0008 05D9     		bls	.L42
 699 000a 022B     		cmp	r3, #2
 700 000c 01D1     		bne	.L46
 701              		.loc 1 243 0
 702 000e FFF7FEBF 		b	mcpwm_foc_is_dccal_done
 703              	.LVL37:
 704              	.L46:
 705              		.loc 1 251 0
 706 0012 0020     		movs	r0, #0
 707 0014 7047     		bx	lr
 708              	.L42:
 709              		.loc 1 239 0
 710 0016 FFF7FEBF 		b	mcpwm_is_dccal_done
 711              	.LVL38:
 712              	.L48:
 713 001a 00BF     		.align	2
 714              	.L47:
 715 001c 00000000 		.word	.LANCHOR12
 716              		.cfi_endproc
 717              	.LFE259:
 718              		.size	mc_interface_dccal_done, .-mc_interface_dccal_done
 719              		.section	.text.mc_interface_set_pwm_callback,"ax",%progbits
 720              		.align	1
 721              		.p2align 4,,15
 722              		.global	mc_interface_set_pwm_callback
 723              		.syntax unified
 724              		.thumb
 725              		.thumb_func
 726              		.fpu fpv4-sp-d16
 727              		.type	mc_interface_set_pwm_callback, %function
 728              	mc_interface_set_pwm_callback:
 729              	.LFB260:
 730              		.loc 1 259 0
 731              		.cfi_startproc
 732              		@ args = 0, pretend = 0, frame = 0
 733              		@ frame_needed = 0, uses_anonymous_args = 0
 734              		@ link register save eliminated.
 735              	.LVL39:
 736              		.loc 1 260 0
 737 0000 014B     		ldr	r3, .L50
 738 0002 1860     		str	r0, [r3]
 739 0004 7047     		bx	lr
 740              	.L51:
 741 0006 00BF     		.align	2
ARM GAS  C:\Users\CHRIST~1\AppData\Local\Temp\ccCFoZV9.s 			page 14


 742              	.L50:
 743 0008 00000000 		.word	.LANCHOR39
 744              		.cfi_endproc
 745              	.LFE260:
 746              		.size	mc_interface_set_pwm_callback, .-mc_interface_set_pwm_callback
 747              		.section	.text.mc_interface_lock,"ax",%progbits
 748              		.align	1
 749              		.p2align 4,,15
 750              		.global	mc_interface_lock
 751              		.syntax unified
 752              		.thumb
 753              		.thumb_func
 754              		.fpu fpv4-sp-d16
 755              		.type	mc_interface_lock, %function
 756              	mc_interface_lock:
 757              	.LFB261:
 758              		.loc 1 266 0
 759              		.cfi_startproc
 760              		@ args = 0, pretend = 0, frame = 0
 761              		@ frame_needed = 0, uses_anonymous_args = 0
 762              		@ link register save eliminated.
 763              		.loc 1 267 0
 764 0000 014B     		ldr	r3, .L53
 765 0002 0122     		movs	r2, #1
 766 0004 1A70     		strb	r2, [r3]
 767 0006 7047     		bx	lr
 768              	.L54:
 769              		.align	2
 770              	.L53:
 771 0008 00000000 		.word	.LANCHOR16
 772              		.cfi_endproc
 773              	.LFE261:
 774              		.size	mc_interface_lock, .-mc_interface_lock
 775              		.section	.text.mc_interface_unlock,"ax",%progbits
 776              		.align	1
 777              		.p2align 4,,15
 778              		.global	mc_interface_unlock
 779              		.syntax unified
 780              		.thumb
 781              		.thumb_func
 782              		.fpu fpv4-sp-d16
 783              		.type	mc_interface_unlock, %function
 784              	mc_interface_unlock:
 785              	.LFB262:
 786              		.loc 1 273 0
 787              		.cfi_startproc
 788              		@ args = 0, pretend = 0, frame = 0
 789              		@ frame_needed = 0, uses_anonymous_args = 0
 790              		@ link register save eliminated.
 791              		.loc 1 274 0
 792 0000 014B     		ldr	r3, .L56
 793 0002 0022     		movs	r2, #0
 794 0004 1A70     		strb	r2, [r3]
 795 0006 7047     		bx	lr
 796              	.L57:
 797              		.align	2
 798              	.L56:
ARM GAS  C:\Users\CHRIST~1\AppData\Local\Temp\ccCFoZV9.s 			page 15


 799 0008 00000000 		.word	.LANCHOR16
 800              		.cfi_endproc
 801              	.LFE262:
 802              		.size	mc_interface_unlock, .-mc_interface_unlock
 803              		.section	.text.mc_interface_lock_override_once,"ax",%progbits
 804              		.align	1
 805              		.p2align 4,,15
 806              		.global	mc_interface_lock_override_once
 807              		.syntax unified
 808              		.thumb
 809              		.thumb_func
 810              		.fpu fpv4-sp-d16
 811              		.type	mc_interface_lock_override_once, %function
 812              	mc_interface_lock_override_once:
 813              	.LFB263:
 814              		.loc 1 280 0
 815              		.cfi_startproc
 816              		@ args = 0, pretend = 0, frame = 0
 817              		@ frame_needed = 0, uses_anonymous_args = 0
 818              		@ link register save eliminated.
 819              		.loc 1 281 0
 820 0000 014B     		ldr	r3, .L59
 821 0002 0122     		movs	r2, #1
 822 0004 1A70     		strb	r2, [r3]
 823 0006 7047     		bx	lr
 824              	.L60:
 825              		.align	2
 826              	.L59:
 827 0008 00000000 		.word	.LANCHOR17
 828              		.cfi_endproc
 829              	.LFE263:
 830              		.size	mc_interface_lock_override_once, .-mc_interface_lock_override_once
 831              		.section	.text.mc_interface_get_fault,"ax",%progbits
 832              		.align	1
 833              		.p2align 4,,15
 834              		.global	mc_interface_get_fault
 835              		.syntax unified
 836              		.thumb
 837              		.thumb_func
 838              		.fpu fpv4-sp-d16
 839              		.type	mc_interface_get_fault, %function
 840              	mc_interface_get_fault:
 841              	.LFB264:
 842              		.loc 1 284 0
 843              		.cfi_startproc
 844              		@ args = 0, pretend = 0, frame = 0
 845              		@ frame_needed = 0, uses_anonymous_args = 0
 846              		@ link register save eliminated.
 847              		.loc 1 285 0
 848 0000 014B     		ldr	r3, .L62
 849              		.loc 1 286 0
 850 0002 1878     		ldrb	r0, [r3]	@ zero_extendqisi2
 851 0004 7047     		bx	lr
 852              	.L63:
 853 0006 00BF     		.align	2
 854              	.L62:
 855 0008 00000000 		.word	.LANCHOR13
ARM GAS  C:\Users\CHRIST~1\AppData\Local\Temp\ccCFoZV9.s 			page 16


 856              		.cfi_endproc
 857              	.LFE264:
 858              		.size	mc_interface_get_fault, .-mc_interface_get_fault
 859              		.section	.text.mc_interface_fault_to_string,"ax",%progbits
 860              		.align	1
 861              		.p2align 4,,15
 862              		.global	mc_interface_fault_to_string
 863              		.syntax unified
 864              		.thumb
 865              		.thumb_func
 866              		.fpu fpv4-sp-d16
 867              		.type	mc_interface_fault_to_string, %function
 868              	mc_interface_fault_to_string:
 869              	.LFB265:
 870              		.loc 1 288 0
 871              		.cfi_startproc
 872              		@ args = 0, pretend = 0, frame = 0
 873              		@ frame_needed = 0, uses_anonymous_args = 0
 874              		@ link register save eliminated.
 875              	.LVL40:
 876 0000 0628     		cmp	r0, #6
 877 0002 9ABF     		itte	ls
 878 0004 024B     		ldrls	r3, .L67
 879 0006 53F82000 		ldrls	r0, [r3, r0, lsl #2]
 880              	.LVL41:
 881              		.loc 1 288 0
 882 000a 0248     		ldrhi	r0, .L67+4
 883              		.loc 1 299 0
 884 000c 7047     		bx	lr
 885              	.L68:
 886 000e 00BF     		.align	2
 887              	.L67:
 888 0010 00000000 		.word	.LANCHOR40
 889 0014 00000000 		.word	.LC1
 890              		.cfi_endproc
 891              	.LFE265:
 892              		.size	mc_interface_fault_to_string, .-mc_interface_fault_to_string
 893              		.section	.text.mc_interface_get_state,"ax",%progbits
 894              		.align	1
 895              		.p2align 4,,15
 896              		.global	mc_interface_get_state
 897              		.syntax unified
 898              		.thumb
 899              		.thumb_func
 900              		.fpu fpv4-sp-d16
 901              		.type	mc_interface_get_state, %function
 902              	mc_interface_get_state:
 903              	.LFB266:
 904              		.loc 1 301 0
 905              		.cfi_startproc
 906              		@ args = 0, pretend = 0, frame = 0
 907              		@ frame_needed = 0, uses_anonymous_args = 0
 908              		@ link register save eliminated.
 909              	.LVL42:
 910              		.loc 1 303 0
 911 0000 064B     		ldr	r3, .L76
 912 0002 9B78     		ldrb	r3, [r3, #2]	@ zero_extendqisi2
ARM GAS  C:\Users\CHRIST~1\AppData\Local\Temp\ccCFoZV9.s 			page 17


 913 0004 DBB2     		uxtb	r3, r3
 914 0006 012B     		cmp	r3, #1
 915 0008 05D9     		bls	.L71
 916 000a 022B     		cmp	r3, #2
 917 000c 01D1     		bne	.L75
 918              		.loc 1 310 0
 919 000e FFF7FEBF 		b	mcpwm_foc_get_state
 920              	.LVL43:
 921              	.L75:
 922              		.loc 1 318 0
 923 0012 0020     		movs	r0, #0
 924 0014 7047     		bx	lr
 925              	.L71:
 926              		.loc 1 306 0
 927 0016 FFF7FEBF 		b	mcpwm_get_state
 928              	.LVL44:
 929              	.L77:
 930 001a 00BF     		.align	2
 931              	.L76:
 932 001c 00000000 		.word	.LANCHOR12
 933              		.cfi_endproc
 934              	.LFE266:
 935              		.size	mc_interface_get_state, .-mc_interface_get_state
 936              		.section	.text.mc_interface_get_duty_cycle_set,"ax",%progbits
 937              		.align	1
 938              		.p2align 4,,15
 939              		.global	mc_interface_get_duty_cycle_set
 940              		.syntax unified
 941              		.thumb
 942              		.thumb_func
 943              		.fpu fpv4-sp-d16
 944              		.type	mc_interface_get_duty_cycle_set, %function
 945              	mc_interface_get_duty_cycle_set:
 946              	.LFB278:
 947              		.loc 1 501 0
 948              		.cfi_startproc
 949              		@ args = 0, pretend = 0, frame = 0
 950              		@ frame_needed = 0, uses_anonymous_args = 0
 951              	.LVL45:
 952 0000 10B5     		push	{r4, lr}
 953              		.cfi_def_cfa_offset 8
 954              		.cfi_offset 4, -8
 955              		.cfi_offset 14, -4
 956              		.loc 1 504 0
 957 0002 0E4C     		ldr	r4, .L88
 958 0004 A378     		ldrb	r3, [r4, #2]	@ zero_extendqisi2
 959 0006 DBB2     		uxtb	r3, r3
 960 0008 012B     		cmp	r3, #1
 961 000a 13D9     		bls	.L80
 962 000c 022B     		cmp	r3, #2
 963 000e 0ED0     		beq	.L81
 964              		.loc 1 502 0
 965 0010 9FED0B0A 		vldr.32	s0, .L88+4
 966              	.LVL46:
 967              	.L79:
 968              		.loc 1 518 0
 969 0014 94F85931 		ldrb	r3, [r4, #345]	@ zero_extendqisi2
ARM GAS  C:\Users\CHRIST~1\AppData\Local\Temp\ccCFoZV9.s 			page 18


 970 0018 B7EE007A 		vmov.f32	s14, #1.0e+0
 971 001c 002B     		cmp	r3, #0
 972 001e FFEE007A 		vmov.f32	s15, #-1.0e+0
 973 0022 08BF     		it	eq
 974 0024 F0EE477A 		vmoveq.f32	s15, s14
 975              		.loc 1 519 0
 976 0028 20EE270A 		vmul.f32	s0, s0, s15
 977              	.LVL47:
 978 002c 10BD     		pop	{r4, pc}
 979              	.LVL48:
 980              	.L81:
 981              		.loc 1 511 0
 982 002e FFF7FEFF 		bl	mcpwm_foc_get_duty_cycle_set
 983              	.LVL49:
 984              		.loc 1 512 0
 985 0032 EFE7     		b	.L79
 986              	.LVL50:
 987              	.L80:
 988              		.loc 1 507 0
 989 0034 FFF7FEFF 		bl	mcpwm_get_duty_cycle_set
 990              	.LVL51:
 991              		.loc 1 508 0
 992 0038 ECE7     		b	.L79
 993              	.L89:
 994 003a 00BF     		.align	2
 995              	.L88:
 996 003c 00000000 		.word	.LANCHOR12
 997 0040 00000000 		.word	0
 998              		.cfi_endproc
 999              	.LFE278:
 1000              		.size	mc_interface_get_duty_cycle_set, .-mc_interface_get_duty_cycle_set
 1001              		.section	.text.mc_interface_get_duty_cycle_now,"ax",%progbits
 1002              		.align	1
 1003              		.p2align 4,,15
 1004              		.global	mc_interface_get_duty_cycle_now
 1005              		.syntax unified
 1006              		.thumb
 1007              		.thumb_func
 1008              		.fpu fpv4-sp-d16
 1009              		.type	mc_interface_get_duty_cycle_now, %function
 1010              	mc_interface_get_duty_cycle_now:
 1011              	.LFB279:
 1012              		.loc 1 521 0
 1013              		.cfi_startproc
 1014              		@ args = 0, pretend = 0, frame = 0
 1015              		@ frame_needed = 0, uses_anonymous_args = 0
 1016              	.LVL52:
 1017 0000 10B5     		push	{r4, lr}
 1018              		.cfi_def_cfa_offset 8
 1019              		.cfi_offset 4, -8
 1020              		.cfi_offset 14, -4
 1021              		.loc 1 524 0
 1022 0002 0E4C     		ldr	r4, .L100
 1023 0004 A378     		ldrb	r3, [r4, #2]	@ zero_extendqisi2
 1024 0006 DBB2     		uxtb	r3, r3
 1025 0008 012B     		cmp	r3, #1
 1026 000a 13D9     		bls	.L92
ARM GAS  C:\Users\CHRIST~1\AppData\Local\Temp\ccCFoZV9.s 			page 19


 1027 000c 022B     		cmp	r3, #2
 1028 000e 0ED0     		beq	.L93
 1029              		.loc 1 522 0
 1030 0010 9FED0B0A 		vldr.32	s0, .L100+4
 1031              	.LVL53:
 1032              	.L91:
 1033              		.loc 1 538 0
 1034 0014 94F85931 		ldrb	r3, [r4, #345]	@ zero_extendqisi2
 1035 0018 B7EE007A 		vmov.f32	s14, #1.0e+0
 1036 001c 002B     		cmp	r3, #0
 1037 001e FFEE007A 		vmov.f32	s15, #-1.0e+0
 1038 0022 08BF     		it	eq
 1039 0024 F0EE477A 		vmoveq.f32	s15, s14
 1040              		.loc 1 539 0
 1041 0028 20EE270A 		vmul.f32	s0, s0, s15
 1042              	.LVL54:
 1043 002c 10BD     		pop	{r4, pc}
 1044              	.LVL55:
 1045              	.L93:
 1046              		.loc 1 531 0
 1047 002e FFF7FEFF 		bl	mcpwm_foc_get_duty_cycle_now
 1048              	.LVL56:
 1049              		.loc 1 532 0
 1050 0032 EFE7     		b	.L91
 1051              	.LVL57:
 1052              	.L92:
 1053              		.loc 1 527 0
 1054 0034 FFF7FEFF 		bl	mcpwm_get_duty_cycle_now
 1055              	.LVL58:
 1056              		.loc 1 528 0
 1057 0038 ECE7     		b	.L91
 1058              	.L101:
 1059 003a 00BF     		.align	2
 1060              	.L100:
 1061 003c 00000000 		.word	.LANCHOR12
 1062 0040 00000000 		.word	0
 1063              		.cfi_endproc
 1064              	.LFE279:
 1065              		.size	mc_interface_get_duty_cycle_now, .-mc_interface_get_duty_cycle_now
 1066              		.section	.text.mc_interface_get_sampling_frequency_now,"ax",%progbits
 1067              		.align	1
 1068              		.p2align 4,,15
 1069              		.global	mc_interface_get_sampling_frequency_now
 1070              		.syntax unified
 1071              		.thumb
 1072              		.thumb_func
 1073              		.fpu fpv4-sp-d16
 1074              		.type	mc_interface_get_sampling_frequency_now, %function
 1075              	mc_interface_get_sampling_frequency_now:
 1076              	.LFB280:
 1077              		.loc 1 541 0
 1078              		.cfi_startproc
 1079              		@ args = 0, pretend = 0, frame = 0
 1080              		@ frame_needed = 0, uses_anonymous_args = 0
 1081              		@ link register save eliminated.
 1082              	.LVL59:
 1083              		.loc 1 544 0
ARM GAS  C:\Users\CHRIST~1\AppData\Local\Temp\ccCFoZV9.s 			page 20


 1084 0000 064B     		ldr	r3, .L109
 1085 0002 9B78     		ldrb	r3, [r3, #2]	@ zero_extendqisi2
 1086 0004 DBB2     		uxtb	r3, r3
 1087 0006 012B     		cmp	r3, #1
 1088 0008 06D9     		bls	.L104
 1089 000a 022B     		cmp	r3, #2
 1090 000c 01D1     		bne	.L108
 1091              		.loc 1 551 0
 1092 000e FFF7FEBF 		b	mcpwm_foc_get_sampling_frequency_now
 1093              	.LVL60:
 1094              	.L108:
 1095              		.loc 1 559 0
 1096 0012 9FED030A 		vldr.32	s0, .L109+4
 1097 0016 7047     		bx	lr
 1098              	.L104:
 1099              		.loc 1 547 0
 1100 0018 FFF7FEBF 		b	mcpwm_get_switching_frequency_now
 1101              	.LVL61:
 1102              	.L110:
 1103              		.align	2
 1104              	.L109:
 1105 001c 00000000 		.word	.LANCHOR12
 1106 0020 00000000 		.word	0
 1107              		.cfi_endproc
 1108              	.LFE280:
 1109              		.size	mc_interface_get_sampling_frequency_now, .-mc_interface_get_sampling_frequency_now
 1110              		.section	.text.mc_interface_get_rpm,"ax",%progbits
 1111              		.align	1
 1112              		.p2align 4,,15
 1113              		.global	mc_interface_get_rpm
 1114              		.syntax unified
 1115              		.thumb
 1116              		.thumb_func
 1117              		.fpu fpv4-sp-d16
 1118              		.type	mc_interface_get_rpm, %function
 1119              	mc_interface_get_rpm:
 1120              	.LFB281:
 1121              		.loc 1 561 0
 1122              		.cfi_startproc
 1123              		@ args = 0, pretend = 0, frame = 0
 1124              		@ frame_needed = 0, uses_anonymous_args = 0
 1125              	.LVL62:
 1126 0000 10B5     		push	{r4, lr}
 1127              		.cfi_def_cfa_offset 8
 1128              		.cfi_offset 4, -8
 1129              		.cfi_offset 14, -4
 1130              		.loc 1 564 0
 1131 0002 0E4C     		ldr	r4, .L121
 1132 0004 A378     		ldrb	r3, [r4, #2]	@ zero_extendqisi2
 1133 0006 DBB2     		uxtb	r3, r3
 1134 0008 012B     		cmp	r3, #1
 1135 000a 13D9     		bls	.L113
 1136 000c 022B     		cmp	r3, #2
 1137 000e 0ED0     		beq	.L114
 1138              		.loc 1 562 0
 1139 0010 9FED0B0A 		vldr.32	s0, .L121+4
 1140              	.LVL63:
ARM GAS  C:\Users\CHRIST~1\AppData\Local\Temp\ccCFoZV9.s 			page 21


 1141              	.L112:
 1142              		.loc 1 578 0
 1143 0014 94F85931 		ldrb	r3, [r4, #345]	@ zero_extendqisi2
 1144 0018 B7EE007A 		vmov.f32	s14, #1.0e+0
 1145 001c 002B     		cmp	r3, #0
 1146 001e FFEE007A 		vmov.f32	s15, #-1.0e+0
 1147 0022 08BF     		it	eq
 1148 0024 F0EE477A 		vmoveq.f32	s15, s14
 1149              		.loc 1 579 0
 1150 0028 20EE270A 		vmul.f32	s0, s0, s15
 1151              	.LVL64:
 1152 002c 10BD     		pop	{r4, pc}
 1153              	.LVL65:
 1154              	.L114:
 1155              		.loc 1 571 0
 1156 002e FFF7FEFF 		bl	mcpwm_foc_get_rpm
 1157              	.LVL66:
 1158              		.loc 1 572 0
 1159 0032 EFE7     		b	.L112
 1160              	.LVL67:
 1161              	.L113:
 1162              		.loc 1 567 0
 1163 0034 FFF7FEFF 		bl	mcpwm_get_rpm
 1164              	.LVL68:
 1165              		.loc 1 568 0
 1166 0038 ECE7     		b	.L112
 1167              	.L122:
 1168 003a 00BF     		.align	2
 1169              	.L121:
 1170 003c 00000000 		.word	.LANCHOR12
 1171 0040 00000000 		.word	0
 1172              		.cfi_endproc
 1173              	.LFE281:
 1174              		.size	mc_interface_get_rpm, .-mc_interface_get_rpm
 1175              		.section	.text.mc_interface_get_amp_hours,"ax",%progbits
 1176              		.align	1
 1177              		.p2align 4,,15
 1178              		.global	mc_interface_get_amp_hours
 1179              		.syntax unified
 1180              		.thumb
 1181              		.thumb_func
 1182              		.fpu fpv4-sp-d16
 1183              		.type	mc_interface_get_amp_hours, %function
 1184              	mc_interface_get_amp_hours:
 1185              	.LFB282:
 1186              		.loc 1 590 0
 1187              		.cfi_startproc
 1188              		@ args = 0, pretend = 0, frame = 0
 1189              		@ frame_needed = 0, uses_anonymous_args = 0
 1190              		@ link register save eliminated.
 1191              	.LVL69:
 1192              		.loc 1 591 0
 1193 0000 054B     		ldr	r3, .L128
 1194 0002 DFED067A 		vldr.32	s15, .L128+4
 1195 0006 93ED007A 		vldr.32	s14, [r3]
 1196 000a 87EE270A 		vdiv.f32	s0, s14, s15
 1197              	.LVL70:
ARM GAS  C:\Users\CHRIST~1\AppData\Local\Temp\ccCFoZV9.s 			page 22


 1198              		.loc 1 593 0
 1199 000e 08B1     		cbz	r0, .L123
 1200              		.loc 1 594 0
 1201 0010 0022     		movs	r2, #0
 1202 0012 1A60     		str	r2, [r3]	@ float
 1203              	.L123:
 1204              		.loc 1 598 0
 1205 0014 7047     		bx	lr
 1206              	.L129:
 1207 0016 00BF     		.align	2
 1208              	.L128:
 1209 0018 00000000 		.word	.LANCHOR26
 1210 001c 00006145 		.word	1163984896
 1211              		.cfi_endproc
 1212              	.LFE282:
 1213              		.size	mc_interface_get_amp_hours, .-mc_interface_get_amp_hours
 1214              		.section	.text.mc_interface_get_amp_hours_charged,"ax",%progbits
 1215              		.align	1
 1216              		.p2align 4,,15
 1217              		.global	mc_interface_get_amp_hours_charged
 1218              		.syntax unified
 1219              		.thumb
 1220              		.thumb_func
 1221              		.fpu fpv4-sp-d16
 1222              		.type	mc_interface_get_amp_hours_charged, %function
 1223              	mc_interface_get_amp_hours_charged:
 1224              	.LFB283:
 1225              		.loc 1 609 0
 1226              		.cfi_startproc
 1227              		@ args = 0, pretend = 0, frame = 0
 1228              		@ frame_needed = 0, uses_anonymous_args = 0
 1229              		@ link register save eliminated.
 1230              	.LVL71:
 1231              		.loc 1 610 0
 1232 0000 054B     		ldr	r3, .L135
 1233 0002 DFED067A 		vldr.32	s15, .L135+4
 1234 0006 93ED007A 		vldr.32	s14, [r3]
 1235 000a 87EE270A 		vdiv.f32	s0, s14, s15
 1236              	.LVL72:
 1237              		.loc 1 612 0
 1238 000e 08B1     		cbz	r0, .L130
 1239              		.loc 1 613 0
 1240 0010 0022     		movs	r2, #0
 1241 0012 1A60     		str	r2, [r3]	@ float
 1242              	.L130:
 1243              		.loc 1 617 0
 1244 0014 7047     		bx	lr
 1245              	.L136:
 1246 0016 00BF     		.align	2
 1247              	.L135:
 1248 0018 00000000 		.word	.LANCHOR27
 1249 001c 00006145 		.word	1163984896
 1250              		.cfi_endproc
 1251              	.LFE283:
 1252              		.size	mc_interface_get_amp_hours_charged, .-mc_interface_get_amp_hours_charged
 1253              		.section	.text.mc_interface_get_watt_hours,"ax",%progbits
 1254              		.align	1
ARM GAS  C:\Users\CHRIST~1\AppData\Local\Temp\ccCFoZV9.s 			page 23


 1255              		.p2align 4,,15
 1256              		.global	mc_interface_get_watt_hours
 1257              		.syntax unified
 1258              		.thumb
 1259              		.thumb_func
 1260              		.fpu fpv4-sp-d16
 1261              		.type	mc_interface_get_watt_hours, %function
 1262              	mc_interface_get_watt_hours:
 1263              	.LFB284:
 1264              		.loc 1 628 0
 1265              		.cfi_startproc
 1266              		@ args = 0, pretend = 0, frame = 0
 1267              		@ frame_needed = 0, uses_anonymous_args = 0
 1268              		@ link register save eliminated.
 1269              	.LVL73:
 1270              		.loc 1 629 0
 1271 0000 054B     		ldr	r3, .L142
 1272 0002 DFED067A 		vldr.32	s15, .L142+4
 1273 0006 93ED007A 		vldr.32	s14, [r3]
 1274 000a 87EE270A 		vdiv.f32	s0, s14, s15
 1275              	.LVL74:
 1276              		.loc 1 631 0
 1277 000e 08B1     		cbz	r0, .L137
 1278              		.loc 1 632 0
 1279 0010 0022     		movs	r2, #0
 1280 0012 1A60     		str	r2, [r3]	@ float
 1281              	.L137:
 1282              		.loc 1 636 0
 1283 0014 7047     		bx	lr
 1284              	.L143:
 1285 0016 00BF     		.align	2
 1286              	.L142:
 1287 0018 00000000 		.word	.LANCHOR28
 1288 001c 00006145 		.word	1163984896
 1289              		.cfi_endproc
 1290              	.LFE284:
 1291              		.size	mc_interface_get_watt_hours, .-mc_interface_get_watt_hours
 1292              		.section	.text.mc_interface_get_watt_hours_charged,"ax",%progbits
 1293              		.align	1
 1294              		.p2align 4,,15
 1295              		.global	mc_interface_get_watt_hours_charged
 1296              		.syntax unified
 1297              		.thumb
 1298              		.thumb_func
 1299              		.fpu fpv4-sp-d16
 1300              		.type	mc_interface_get_watt_hours_charged, %function
 1301              	mc_interface_get_watt_hours_charged:
 1302              	.LFB285:
 1303              		.loc 1 647 0
 1304              		.cfi_startproc
 1305              		@ args = 0, pretend = 0, frame = 0
 1306              		@ frame_needed = 0, uses_anonymous_args = 0
 1307              		@ link register save eliminated.
 1308              	.LVL75:
 1309              		.loc 1 648 0
 1310 0000 054B     		ldr	r3, .L149
 1311 0002 DFED067A 		vldr.32	s15, .L149+4
ARM GAS  C:\Users\CHRIST~1\AppData\Local\Temp\ccCFoZV9.s 			page 24


 1312 0006 93ED007A 		vldr.32	s14, [r3]
 1313 000a 87EE270A 		vdiv.f32	s0, s14, s15
 1314              	.LVL76:
 1315              		.loc 1 650 0
 1316 000e 08B1     		cbz	r0, .L144
 1317              		.loc 1 651 0
 1318 0010 0022     		movs	r2, #0
 1319 0012 1A60     		str	r2, [r3]	@ float
 1320              	.L144:
 1321              		.loc 1 655 0
 1322 0014 7047     		bx	lr
 1323              	.L150:
 1324 0016 00BF     		.align	2
 1325              	.L149:
 1326 0018 00000000 		.word	.LANCHOR29
 1327 001c 00006145 		.word	1163984896
 1328              		.cfi_endproc
 1329              	.LFE285:
 1330              		.size	mc_interface_get_watt_hours_charged, .-mc_interface_get_watt_hours_charged
 1331              		.section	.text.mc_interface_get_tot_current,"ax",%progbits
 1332              		.align	1
 1333              		.p2align 4,,15
 1334              		.global	mc_interface_get_tot_current
 1335              		.syntax unified
 1336              		.thumb
 1337              		.thumb_func
 1338              		.fpu fpv4-sp-d16
 1339              		.type	mc_interface_get_tot_current, %function
 1340              	mc_interface_get_tot_current:
 1341              	.LFB286:
 1342              		.loc 1 657 0
 1343              		.cfi_startproc
 1344              		@ args = 0, pretend = 0, frame = 0
 1345              		@ frame_needed = 0, uses_anonymous_args = 0
 1346              		@ link register save eliminated.
 1347              	.LVL77:
 1348              		.loc 1 660 0
 1349 0000 064B     		ldr	r3, .L158
 1350 0002 9B78     		ldrb	r3, [r3, #2]	@ zero_extendqisi2
 1351 0004 DBB2     		uxtb	r3, r3
 1352 0006 012B     		cmp	r3, #1
 1353 0008 06D9     		bls	.L153
 1354 000a 022B     		cmp	r3, #2
 1355 000c 01D1     		bne	.L157
 1356              		.loc 1 667 0
 1357 000e FFF7FEBF 		b	mcpwm_foc_get_tot_current
 1358              	.LVL78:
 1359              	.L157:
 1360              		.loc 1 675 0
 1361 0012 9FED030A 		vldr.32	s0, .L158+4
 1362 0016 7047     		bx	lr
 1363              	.L153:
 1364              		.loc 1 663 0
 1365 0018 FFF7FEBF 		b	mcpwm_get_tot_current
 1366              	.LVL79:
 1367              	.L159:
 1368              		.align	2
ARM GAS  C:\Users\CHRIST~1\AppData\Local\Temp\ccCFoZV9.s 			page 25


 1369              	.L158:
 1370 001c 00000000 		.word	.LANCHOR12
 1371 0020 00000000 		.word	0
 1372              		.cfi_endproc
 1373              	.LFE286:
 1374              		.size	mc_interface_get_tot_current, .-mc_interface_get_tot_current
 1375              		.section	.text.mc_interface_get_tot_current_filtered,"ax",%progbits
 1376              		.align	1
 1377              		.p2align 4,,15
 1378              		.global	mc_interface_get_tot_current_filtered
 1379              		.syntax unified
 1380              		.thumb
 1381              		.thumb_func
 1382              		.fpu fpv4-sp-d16
 1383              		.type	mc_interface_get_tot_current_filtered, %function
 1384              	mc_interface_get_tot_current_filtered:
 1385              	.LFB287:
 1386              		.loc 1 677 0
 1387              		.cfi_startproc
 1388              		@ args = 0, pretend = 0, frame = 0
 1389              		@ frame_needed = 0, uses_anonymous_args = 0
 1390              		@ link register save eliminated.
 1391              	.LVL80:
 1392              		.loc 1 680 0
 1393 0000 064B     		ldr	r3, .L167
 1394 0002 9B78     		ldrb	r3, [r3, #2]	@ zero_extendqisi2
 1395 0004 DBB2     		uxtb	r3, r3
 1396 0006 012B     		cmp	r3, #1
 1397 0008 06D9     		bls	.L162
 1398 000a 022B     		cmp	r3, #2
 1399 000c 01D1     		bne	.L166
 1400              		.loc 1 687 0
 1401 000e FFF7FEBF 		b	mcpwm_foc_get_tot_current_filtered
 1402              	.LVL81:
 1403              	.L166:
 1404              		.loc 1 695 0
 1405 0012 9FED030A 		vldr.32	s0, .L167+4
 1406 0016 7047     		bx	lr
 1407              	.L162:
 1408              		.loc 1 683 0
 1409 0018 FFF7FEBF 		b	mcpwm_get_tot_current_filtered
 1410              	.LVL82:
 1411              	.L168:
 1412              		.align	2
 1413              	.L167:
 1414 001c 00000000 		.word	.LANCHOR12
 1415 0020 00000000 		.word	0
 1416              		.cfi_endproc
 1417              	.LFE287:
 1418              		.size	mc_interface_get_tot_current_filtered, .-mc_interface_get_tot_current_filtered
 1419              		.section	.text.mc_interface_get_tot_current_directional,"ax",%progbits
 1420              		.align	1
 1421              		.p2align 4,,15
 1422              		.global	mc_interface_get_tot_current_directional
 1423              		.syntax unified
 1424              		.thumb
 1425              		.thumb_func
ARM GAS  C:\Users\CHRIST~1\AppData\Local\Temp\ccCFoZV9.s 			page 26


 1426              		.fpu fpv4-sp-d16
 1427              		.type	mc_interface_get_tot_current_directional, %function
 1428              	mc_interface_get_tot_current_directional:
 1429              	.LFB288:
 1430              		.loc 1 697 0
 1431              		.cfi_startproc
 1432              		@ args = 0, pretend = 0, frame = 0
 1433              		@ frame_needed = 0, uses_anonymous_args = 0
 1434              	.LVL83:
 1435 0000 10B5     		push	{r4, lr}
 1436              		.cfi_def_cfa_offset 8
 1437              		.cfi_offset 4, -8
 1438              		.cfi_offset 14, -4
 1439              		.loc 1 700 0
 1440 0002 0E4C     		ldr	r4, .L179
 1441 0004 A378     		ldrb	r3, [r4, #2]	@ zero_extendqisi2
 1442 0006 DBB2     		uxtb	r3, r3
 1443 0008 012B     		cmp	r3, #1
 1444 000a 13D9     		bls	.L171
 1445 000c 022B     		cmp	r3, #2
 1446 000e 0ED0     		beq	.L172
 1447              		.loc 1 698 0
 1448 0010 9FED0B0A 		vldr.32	s0, .L179+4
 1449              	.LVL84:
 1450              	.L170:
 1451              		.loc 1 714 0
 1452 0014 94F85931 		ldrb	r3, [r4, #345]	@ zero_extendqisi2
 1453 0018 B7EE007A 		vmov.f32	s14, #1.0e+0
 1454 001c 002B     		cmp	r3, #0
 1455 001e FFEE007A 		vmov.f32	s15, #-1.0e+0
 1456 0022 08BF     		it	eq
 1457 0024 F0EE477A 		vmoveq.f32	s15, s14
 1458              		.loc 1 715 0
 1459 0028 20EE270A 		vmul.f32	s0, s0, s15
 1460              	.LVL85:
 1461 002c 10BD     		pop	{r4, pc}
 1462              	.LVL86:
 1463              	.L172:
 1464              		.loc 1 707 0
 1465 002e FFF7FEFF 		bl	mcpwm_foc_get_tot_current_directional
 1466              	.LVL87:
 1467              		.loc 1 708 0
 1468 0032 EFE7     		b	.L170
 1469              	.LVL88:
 1470              	.L171:
 1471              		.loc 1 703 0
 1472 0034 FFF7FEFF 		bl	mcpwm_get_tot_current_directional
 1473              	.LVL89:
 1474              		.loc 1 704 0
 1475 0038 ECE7     		b	.L170
 1476              	.L180:
 1477 003a 00BF     		.align	2
 1478              	.L179:
 1479 003c 00000000 		.word	.LANCHOR12
 1480 0040 00000000 		.word	0
 1481              		.cfi_endproc
 1482              	.LFE288:
ARM GAS  C:\Users\CHRIST~1\AppData\Local\Temp\ccCFoZV9.s 			page 27


 1483              		.size	mc_interface_get_tot_current_directional, .-mc_interface_get_tot_current_directional
 1484              		.section	.text.mc_interface_get_tot_current_directional_filtered,"ax",%progbits
 1485              		.align	1
 1486              		.p2align 4,,15
 1487              		.global	mc_interface_get_tot_current_directional_filtered
 1488              		.syntax unified
 1489              		.thumb
 1490              		.thumb_func
 1491              		.fpu fpv4-sp-d16
 1492              		.type	mc_interface_get_tot_current_directional_filtered, %function
 1493              	mc_interface_get_tot_current_directional_filtered:
 1494              	.LFB289:
 1495              		.loc 1 717 0
 1496              		.cfi_startproc
 1497              		@ args = 0, pretend = 0, frame = 0
 1498              		@ frame_needed = 0, uses_anonymous_args = 0
 1499              	.LVL90:
 1500 0000 10B5     		push	{r4, lr}
 1501              		.cfi_def_cfa_offset 8
 1502              		.cfi_offset 4, -8
 1503              		.cfi_offset 14, -4
 1504              		.loc 1 720 0
 1505 0002 0E4C     		ldr	r4, .L191
 1506 0004 A378     		ldrb	r3, [r4, #2]	@ zero_extendqisi2
 1507 0006 DBB2     		uxtb	r3, r3
 1508 0008 012B     		cmp	r3, #1
 1509 000a 13D9     		bls	.L183
 1510 000c 022B     		cmp	r3, #2
 1511 000e 0ED0     		beq	.L184
 1512              		.loc 1 718 0
 1513 0010 9FED0B0A 		vldr.32	s0, .L191+4
 1514              	.LVL91:
 1515              	.L182:
 1516              		.loc 1 734 0
 1517 0014 94F85931 		ldrb	r3, [r4, #345]	@ zero_extendqisi2
 1518 0018 B7EE007A 		vmov.f32	s14, #1.0e+0
 1519 001c 002B     		cmp	r3, #0
 1520 001e FFEE007A 		vmov.f32	s15, #-1.0e+0
 1521 0022 08BF     		it	eq
 1522 0024 F0EE477A 		vmoveq.f32	s15, s14
 1523              		.loc 1 735 0
 1524 0028 20EE270A 		vmul.f32	s0, s0, s15
 1525              	.LVL92:
 1526 002c 10BD     		pop	{r4, pc}
 1527              	.LVL93:
 1528              	.L184:
 1529              		.loc 1 727 0
 1530 002e FFF7FEFF 		bl	mcpwm_foc_get_tot_current_directional_filtered
 1531              	.LVL94:
 1532              		.loc 1 728 0
 1533 0032 EFE7     		b	.L182
 1534              	.LVL95:
 1535              	.L183:
 1536              		.loc 1 723 0
 1537 0034 FFF7FEFF 		bl	mcpwm_get_tot_current_directional_filtered
 1538              	.LVL96:
 1539              		.loc 1 724 0
ARM GAS  C:\Users\CHRIST~1\AppData\Local\Temp\ccCFoZV9.s 			page 28


 1540 0038 ECE7     		b	.L182
 1541              	.L192:
 1542 003a 00BF     		.align	2
 1543              	.L191:
 1544 003c 00000000 		.word	.LANCHOR12
 1545 0040 00000000 		.word	0
 1546              		.cfi_endproc
 1547              	.LFE289:
 1548              		.size	mc_interface_get_tot_current_directional_filtered, .-mc_interface_get_tot_current_directiona
 1549              		.section	.text.mc_interface_get_tot_current_in,"ax",%progbits
 1550              		.align	1
 1551              		.p2align 4,,15
 1552              		.global	mc_interface_get_tot_current_in
 1553              		.syntax unified
 1554              		.thumb
 1555              		.thumb_func
 1556              		.fpu fpv4-sp-d16
 1557              		.type	mc_interface_get_tot_current_in, %function
 1558              	mc_interface_get_tot_current_in:
 1559              	.LFB290:
 1560              		.loc 1 737 0
 1561              		.cfi_startproc
 1562              		@ args = 0, pretend = 0, frame = 0
 1563              		@ frame_needed = 0, uses_anonymous_args = 0
 1564              		@ link register save eliminated.
 1565              	.LVL97:
 1566              		.loc 1 740 0
 1567 0000 064B     		ldr	r3, .L200
 1568 0002 9B78     		ldrb	r3, [r3, #2]	@ zero_extendqisi2
 1569 0004 DBB2     		uxtb	r3, r3
 1570 0006 012B     		cmp	r3, #1
 1571 0008 06D9     		bls	.L195
 1572 000a 022B     		cmp	r3, #2
 1573 000c 01D1     		bne	.L199
 1574              		.loc 1 747 0
 1575 000e FFF7FEBF 		b	mcpwm_foc_get_tot_current_in
 1576              	.LVL98:
 1577              	.L199:
 1578              		.loc 1 755 0
 1579 0012 9FED030A 		vldr.32	s0, .L200+4
 1580 0016 7047     		bx	lr
 1581              	.L195:
 1582              		.loc 1 743 0
 1583 0018 FFF7FEBF 		b	mcpwm_get_tot_current_in
 1584              	.LVL99:
 1585              	.L201:
 1586              		.align	2
 1587              	.L200:
 1588 001c 00000000 		.word	.LANCHOR12
 1589 0020 00000000 		.word	0
 1590              		.cfi_endproc
 1591              	.LFE290:
 1592              		.size	mc_interface_get_tot_current_in, .-mc_interface_get_tot_current_in
 1593              		.section	.text.mc_interface_get_tot_current_in_filtered,"ax",%progbits
 1594              		.align	1
 1595              		.p2align 4,,15
 1596              		.global	mc_interface_get_tot_current_in_filtered
ARM GAS  C:\Users\CHRIST~1\AppData\Local\Temp\ccCFoZV9.s 			page 29


 1597              		.syntax unified
 1598              		.thumb
 1599              		.thumb_func
 1600              		.fpu fpv4-sp-d16
 1601              		.type	mc_interface_get_tot_current_in_filtered, %function
 1602              	mc_interface_get_tot_current_in_filtered:
 1603              	.LFB291:
 1604              		.loc 1 757 0
 1605              		.cfi_startproc
 1606              		@ args = 0, pretend = 0, frame = 0
 1607              		@ frame_needed = 0, uses_anonymous_args = 0
 1608              		@ link register save eliminated.
 1609              	.LVL100:
 1610              		.loc 1 760 0
 1611 0000 064B     		ldr	r3, .L209
 1612 0002 9B78     		ldrb	r3, [r3, #2]	@ zero_extendqisi2
 1613 0004 DBB2     		uxtb	r3, r3
 1614 0006 012B     		cmp	r3, #1
 1615 0008 06D9     		bls	.L204
 1616 000a 022B     		cmp	r3, #2
 1617 000c 01D1     		bne	.L208
 1618              		.loc 1 767 0
 1619 000e FFF7FEBF 		b	mcpwm_foc_get_tot_current_in_filtered
 1620              	.LVL101:
 1621              	.L208:
 1622              		.loc 1 775 0
 1623 0012 9FED030A 		vldr.32	s0, .L209+4
 1624 0016 7047     		bx	lr
 1625              	.L204:
 1626              		.loc 1 763 0
 1627 0018 FFF7FEBF 		b	mcpwm_get_tot_current_in_filtered
 1628              	.LVL102:
 1629              	.L210:
 1630              		.align	2
 1631              	.L209:
 1632 001c 00000000 		.word	.LANCHOR12
 1633 0020 00000000 		.word	0
 1634              		.cfi_endproc
 1635              	.LFE291:
 1636              		.size	mc_interface_get_tot_current_in_filtered, .-mc_interface_get_tot_current_in_filtered
 1637              		.section	.text.mc_interface_get_tachometer_value,"ax",%progbits
 1638              		.align	1
 1639              		.p2align 4,,15
 1640              		.global	mc_interface_get_tachometer_value
 1641              		.syntax unified
 1642              		.thumb
 1643              		.thumb_func
 1644              		.fpu fpv4-sp-d16
 1645              		.type	mc_interface_get_tachometer_value, %function
 1646              	mc_interface_get_tachometer_value:
 1647              	.LFB292:
 1648              		.loc 1 777 0
 1649              		.cfi_startproc
 1650              		@ args = 0, pretend = 0, frame = 0
 1651              		@ frame_needed = 0, uses_anonymous_args = 0
 1652              	.LVL103:
 1653 0000 10B5     		push	{r4, lr}
ARM GAS  C:\Users\CHRIST~1\AppData\Local\Temp\ccCFoZV9.s 			page 30


 1654              		.cfi_def_cfa_offset 8
 1655              		.cfi_offset 4, -8
 1656              		.cfi_offset 14, -4
 1657              		.loc 1 780 0
 1658 0002 144C     		ldr	r4, .L221
 1659 0004 A378     		ldrb	r3, [r4, #2]	@ zero_extendqisi2
 1660 0006 DBB2     		uxtb	r3, r3
 1661 0008 012B     		cmp	r3, #1
 1662 000a 1BD9     		bls	.L213
 1663 000c 022B     		cmp	r3, #2
 1664 000e 12D0     		beq	.L214
 1665 0010 9FED117A 		vldr.32	s14, .L221+4
 1666              	.LVL104:
 1667              	.L212:
 1668              		.loc 1 794 0
 1669 0014 94F85931 		ldrb	r3, [r4, #345]	@ zero_extendqisi2
 1670 0018 FFEE006A 		vmov.f32	s13, #-1.0e+0
 1671 001c 002B     		cmp	r3, #0
 1672 001e F7EE007A 		vmov.f32	s15, #1.0e+0
 1673 0022 18BF     		it	ne
 1674 0024 F0EE667A 		vmovne.f32	s15, s13
 1675 0028 67EE877A 		vmul.f32	s15, s15, s14
 1676              		.loc 1 795 0
 1677 002c FDEEE77A 		vcvt.s32.f32	s15, s15
 1678 0030 17EE900A 		vmov	r0, s15	@ int
 1679 0034 10BD     		pop	{r4, pc}
 1680              	.LVL105:
 1681              	.L214:
 1682              		.loc 1 787 0
 1683 0036 FFF7FEFF 		bl	mcpwm_foc_get_tachometer_value
 1684              	.LVL106:
 1685 003a 07EE900A 		vmov	s15, r0	@ int
 1686 003e B8EEE77A 		vcvt.f32.s32	s14, s15
 1687              		.loc 1 788 0
 1688 0042 E7E7     		b	.L212
 1689              	.LVL107:
 1690              	.L213:
 1691              		.loc 1 783 0
 1692 0044 FFF7FEFF 		bl	mcpwm_get_tachometer_value
 1693              	.LVL108:
 1694 0048 07EE900A 		vmov	s15, r0	@ int
 1695 004c B8EEE77A 		vcvt.f32.s32	s14, s15
 1696              		.loc 1 784 0
 1697 0050 E0E7     		b	.L212
 1698              	.L222:
 1699 0052 00BF     		.align	2
 1700              	.L221:
 1701 0054 00000000 		.word	.LANCHOR12
 1702 0058 00000000 		.word	0
 1703              		.cfi_endproc
 1704              	.LFE292:
 1705              		.size	mc_interface_get_tachometer_value, .-mc_interface_get_tachometer_value
 1706              		.section	.text.mc_interface_fault_stop.part.3,"ax",%progbits
 1707              		.align	1
 1708              		.p2align 4,,15
 1709              		.syntax unified
 1710              		.thumb
ARM GAS  C:\Users\CHRIST~1\AppData\Local\Temp\ccCFoZV9.s 			page 31


 1711              		.thumb_func
 1712              		.fpu fpv4-sp-d16
 1713              		.type	mc_interface_fault_stop.part.3, %function
 1714              	mc_interface_fault_stop.part.3:
 1715              	.LFB315:
 1716              		.loc 1 991 0
 1717              		.cfi_startproc
 1718              		@ args = 0, pretend = 0, frame = 72
 1719              		@ frame_needed = 0, uses_anonymous_args = 0
 1720              	.LVL109:
 1721 0000 F0B5     		push	{r4, r5, r6, r7, lr}
 1722              		.cfi_def_cfa_offset 20
 1723              		.cfi_offset 4, -20
 1724              		.cfi_offset 5, -16
 1725              		.cfi_offset 6, -12
 1726              		.cfi_offset 7, -8
 1727              		.cfi_offset 14, -4
 1728 0002 93B0     		sub	sp, sp, #76
 1729              		.cfi_def_cfa_offset 96
 1730              		.loc 1 991 0
 1731 0004 0546     		mov	r5, r0
 1732              		.loc 1 997 0
 1733 0006 FFF7FEFF 		bl	mc_interface_dccal_done
 1734              	.LVL110:
 1735 000a 404C     		ldr	r4, .L233
 1736 000c 08B1     		cbz	r0, .L224
 1737 000e 2678     		ldrb	r6, [r4]	@ zero_extendqisi2
 1738 0010 A6B1     		cbz	r6, .L232
 1739              	.L224:
 1740              		.loc 1 1028 0
 1741 0012 3F4B     		ldr	r3, .L233+4
 1742 0014 3F4A     		ldr	r2, .L233+8
 1743 0016 D3F84811 		ldr	r1, [r3, #328]
 1744              		.loc 1 1030 0
 1745 001a 9B78     		ldrb	r3, [r3, #2]	@ zero_extendqisi2
 1746              		.loc 1 1028 0
 1747 001c 1160     		str	r1, [r2]
 1748              		.loc 1 1030 0
 1749 001e DBB2     		uxtb	r3, r3
 1750 0020 012B     		cmp	r3, #1
 1751 0022 06D9     		bls	.L226
 1752 0024 022B     		cmp	r3, #2
 1753 0026 01D1     		bne	.L225
 1754              		.loc 1 1037 0
 1755 0028 FFF7FEFF 		bl	mcpwm_foc_stop_pwm
 1756              	.LVL111:
 1757              	.L225:
 1758              		.loc 1 1044 0
 1759 002c 2570     		strb	r5, [r4]
 1760              		.loc 1 1045 0
 1761 002e 13B0     		add	sp, sp, #76
 1762              		.cfi_remember_state
 1763              		.cfi_def_cfa_offset 20
 1764              		@ sp needed
 1765 0030 F0BD     		pop	{r4, r5, r6, r7, pc}
 1766              	.L226:
 1767              		.cfi_restore_state
ARM GAS  C:\Users\CHRIST~1\AppData\Local\Temp\ccCFoZV9.s 			page 32


 1768              		.loc 1 1033 0
 1769 0032 FFF7FEFF 		bl	mcpwm_stop_pwm
 1770              	.LVL112:
 1771              		.loc 1 1044 0
 1772 0036 2570     		strb	r5, [r4]
 1773              		.loc 1 1045 0
 1774 0038 13B0     		add	sp, sp, #76
 1775              		.cfi_remember_state
 1776              		.cfi_def_cfa_offset 20
 1777              		@ sp needed
 1778 003a F0BD     		pop	{r4, r5, r6, r7, pc}
 1779              	.L232:
 1780              		.cfi_restore_state
 1781              	.LBB127:
 1782              		.loc 1 1000 0
 1783 003c FFF7FEFF 		bl	utils_sys_lock_cnt
 1784              	.LVL113:
 1785              		.loc 1 1001 0
 1786 0040 354A     		ldr	r2, .L233+12
 1787              		.loc 1 1002 0
 1788 0042 364B     		ldr	r3, .L233+16
 1789              		.loc 1 1001 0
 1790 0044 526B     		ldr	r2, [r2, #52]
 1791 0046 0192     		str	r2, [sp, #4]
 1792              		.loc 1 1002 0
 1793 0048 1A6C     		ldr	r2, [r3, #64]
 1794 004a 0292     		str	r2, [sp, #8]
 1795              		.loc 1 1003 0
 1796 004c DB6A     		ldr	r3, [r3, #44]
 1797 004e 0393     		str	r3, [sp, #12]
 1798              		.loc 1 1004 0
 1799 0050 FFF7FEFF 		bl	utils_sys_unlock_cnt
 1800              	.LVL114:
 1801              		.loc 1 1007 0
 1802 0054 8DF81050 		strb	r5, [sp, #16]
 1803              		.loc 1 1008 0
 1804 0058 FFF7FEFF 		bl	mc_interface_get_tot_current
 1805              	.LVL115:
 1806              		.loc 1 1010 0
 1807 005c 304F     		ldr	r7, .L233+20
 1808              		.loc 1 1008 0
 1809 005e 8DED050A 		vstr.32	s0, [sp, #20]
 1810              		.loc 1 1009 0
 1811 0062 FFF7FEFF 		bl	mc_interface_get_tot_current_filtered
 1812              	.LVL116:
 1813              		.loc 1 1010 0
 1814 0066 3B8A     		ldrh	r3, [r7, #16]
 1815 0068 DFED2E6A 		vldr.32	s13, .L233+24
 1816 006c 9FED2E7A 		vldr.32	s14, .L233+28
 1817              		.loc 1 1009 0
 1818 0070 8DED060A 		vstr.32	s0, [sp, #24]
 1819              		.loc 1 1010 0
 1820 0074 9BB2     		uxth	r3, r3
 1821 0076 07EE903A 		vmov	s15, r3	@ int
 1822 007a F8EE677A 		vcvt.f32.u32	s15, s15
 1823 007e 67EEA67A 		vmul.f32	s15, s15, s13
 1824 0082 67EE877A 		vmul.f32	s15, s15, s14
ARM GAS  C:\Users\CHRIST~1\AppData\Local\Temp\ccCFoZV9.s 			page 33


 1825 0086 CDED077A 		vstr.32	s15, [sp, #28]
 1826              		.loc 1 1011 0
 1827 008a FFF7FEFF 		bl	mc_interface_get_duty_cycle_now
 1828              	.LVL117:
 1829 008e 8DED080A 		vstr.32	s0, [sp, #32]
 1830              		.loc 1 1012 0
 1831 0092 FFF7FEFF 		bl	mc_interface_get_rpm
 1832              	.LVL118:
 1833              		.loc 1 1013 0
 1834 0096 3046     		mov	r0, r6
 1835              		.loc 1 1012 0
 1836 0098 8DED090A 		vstr.32	s0, [sp, #36]
 1837              		.loc 1 1013 0
 1838 009c FFF7FEFF 		bl	mc_interface_get_tachometer_value
 1839              	.LVL119:
 1840              		.loc 1 1014 0
 1841 00a0 224B     		ldr	r3, .L233+32
 1842              		.loc 1 1013 0
 1843 00a2 0A90     		str	r0, [sp, #40]
 1844              		.loc 1 1014 0
 1845 00a4 1868     		ldr	r0, [r3]
 1846              		.loc 1 1015 0
 1847 00a6 0199     		ldr	r1, [sp, #4]
 1848              		.loc 1 1016 0
 1849 00a8 029A     		ldr	r2, [sp, #8]
 1850              		.loc 1 1017 0
 1851 00aa 039B     		ldr	r3, [sp, #12]
 1852              		.loc 1 1015 0
 1853 00ac 0C91     		str	r1, [sp, #48]
 1854              		.loc 1 1016 0
 1855 00ae 0D92     		str	r2, [sp, #52]
 1856              		.loc 1 1017 0
 1857 00b0 0E93     		str	r3, [sp, #56]
 1858              		.loc 1 1014 0
 1859 00b2 0B90     		str	r0, [sp, #44]
 1860              		.loc 1 1018 0
 1861 00b4 FFF7FEFF 		bl	mcpwm_get_comm_step
 1862              	.LVL120:
 1863              		.loc 1 1019 0
 1864 00b8 7B89     		ldrh	r3, [r7, #10]
 1865 00ba DFED1D6A 		vldr.32	s13, .L233+36
 1866 00be 9FED1D0A 		vldr.32	s0, .L233+40
 1867              		.loc 1 1018 0
 1868 00c2 0F90     		str	r0, [sp, #60]
 1869              		.loc 1 1019 0
 1870 00c4 9BB2     		uxth	r3, r3
 1871 00c6 07EE903A 		vmov	s15, r3	@ int
 1872 00ca F8EEE77A 		vcvt.f32.s32	s15, s15
 1873 00ce 86EEA77A 		vdiv.f32	s14, s13, s15
 1874 00d2 37EE407A 		vsub.f32	s14, s14, s0
 1875 00d6 87EE000A 		vdiv.f32	s0, s14, s0
 1876 00da FFF7FEFF 		bl	logf
 1877              	.LVL121:
 1878              		.loc 1 1025 0
 1879 00de 04A8     		add	r0, sp, #16
 1880              		.loc 1 1019 0
 1881 00e0 DFED156A 		vldr.32	s13, .L233+44
ARM GAS  C:\Users\CHRIST~1\AppData\Local\Temp\ccCFoZV9.s 			page 34


 1882 00e4 DFED157A 		vldr.32	s15, .L233+48
 1883 00e8 9FED157A 		vldr.32	s14, .L233+52
 1884 00ec 80EE260A 		vdiv.f32	s0, s0, s13
 1885 00f0 F7EE006A 		vmov.f32	s13, #1.0e+0
 1886 00f4 30EE270A 		vadd.f32	s0, s0, s15
 1887 00f8 C6EE807A 		vdiv.f32	s15, s13, s0
 1888 00fc 77EEC77A 		vsub.f32	s15, s15, s14
 1889 0100 CDED107A 		vstr.32	s15, [sp, #64]
 1890              		.loc 1 1025 0
 1891 0104 FFF7FEFF 		bl	terminal_add_fault_data
 1892              	.LVL122:
 1893 0108 83E7     		b	.L224
 1894              	.L234:
 1895 010a 00BF     		.align	2
 1896              	.L233:
 1897 010c 00000000 		.word	.LANCHOR13
 1898 0110 00000000 		.word	.LANCHOR12
 1899 0114 00000000 		.word	.LANCHOR14
 1900 0118 00040140 		.word	1073808384
 1901 011c 00000140 		.word	1073807360
 1902 0120 00000000 		.word	.LANCHOR41
 1903 0124 6740533A 		.word	978534503
 1904 0128 74D19541 		.word	1100337524
 1905 012c 00000000 		.word	.LANCHOR15
 1906 0130 3C361C4C 		.word	1276917308
 1907 0134 00401C46 		.word	1176256512
 1908 0138 00A05645 		.word	1163304960
 1909 013c 0FCF5B3B 		.word	995872527
 1910 0140 33938843 		.word	1133024051
 1911              	.LBE127:
 1912              		.cfi_endproc
 1913              	.LFE315:
 1914              		.size	mc_interface_fault_stop.part.3, .-mc_interface_fault_stop.part.3
 1915              		.section	.text.update_override_limits.constprop.4,"ax",%progbits
 1916              		.align	1
 1917              		.p2align 4,,15
 1918              		.syntax unified
 1919              		.thumb
 1920              		.thumb_func
 1921              		.fpu fpv4-sp-d16
 1922              		.type	update_override_limits.constprop.4, %function
 1923              	update_override_limits.constprop.4:
 1924              	.LFB316:
 1925              		.loc 1 1301 0
 1926              		.cfi_startproc
 1927              		@ args = 0, pretend = 0, frame = 0
 1928              		@ frame_needed = 0, uses_anonymous_args = 0
 1929              	.LVL123:
 1930 0000 F8B5     		push	{r3, r4, r5, r6, r7, lr}
 1931              		.cfi_def_cfa_offset 24
 1932              		.cfi_offset 3, -24
 1933              		.cfi_offset 4, -20
 1934              		.cfi_offset 5, -16
 1935              		.cfi_offset 6, -12
 1936              		.cfi_offset 7, -8
 1937              		.cfi_offset 14, -4
 1938              		.loc 1 1302 0
ARM GAS  C:\Users\CHRIST~1\AppData\Local\Temp\ccCFoZV9.s 			page 35


 1939 0002 EB4F     		ldr	r7, .L321
 1940 0004 9FEDEB7A 		vldr.32	s14, .L321+4
 1941 0008 3B8A     		ldrh	r3, [r7, #16]
 1942              		.loc 1 1305 0
 1943 000a EB4D     		ldr	r5, .L321+8
 1944              		.loc 1 1302 0
 1945 000c DFEDEB7A 		vldr.32	s15, .L321+12
 1946              		.loc 1 1306 0
 1947 0010 EB4E     		ldr	r6, .L321+16
 1948 0012 EC4C     		ldr	r4, .L321+20
 1949              		.loc 1 1302 0
 1950 0014 9BB2     		uxth	r3, r3
 1951              		.loc 1 1301 0
 1952 0016 2DED088B 		vpush.64	{d8, d9, d10, d11}
 1953              		.cfi_def_cfa_offset 56
 1954              		.cfi_offset 80, -56
 1955              		.cfi_offset 81, -52
 1956              		.cfi_offset 82, -48
 1957              		.cfi_offset 83, -44
 1958              		.cfi_offset 84, -40
 1959              		.cfi_offset 85, -36
 1960              		.cfi_offset 86, -32
 1961              		.cfi_offset 87, -28
 1962              		.loc 1 1302 0
 1963 001a 08EE103A 		vmov	s16, r3	@ int
 1964 001e B8EE488A 		vcvt.f32.u32	s16, s16
 1965              		.loc 1 1305 0
 1966 0022 DFEDE98A 		vldr.32	s17, .L321+24
 1967 0026 9FEDE9BA 		vldr.32	s22, .L321+28
 1968 002a DFEDE9AA 		vldr.32	s21, .L321+32
 1969 002e 9FEDE9AA 		vldr.32	s20, .L321+36
 1970              		.loc 1 1302 0
 1971 0032 28EE078A 		vmul.f32	s16, s16, s14
 1972              		.loc 1 1305 0
 1973 0036 F7EE00BA 		vmov.f32	s23, #1.0e+0
 1974              		.loc 1 1302 0
 1975 003a 28EE278A 		vmul.f32	s16, s16, s15
 1976              	.LVL124:
 1977              		.loc 1 1303 0
 1978 003e FFF7FEFF 		bl	mc_interface_get_rpm
 1979              	.LVL125:
 1980              		.loc 1 1305 0
 1981 0042 D5ED009A 		vldr.32	s19, [r5]
 1982 0046 7B89     		ldrh	r3, [r7, #10]
 1983 0048 9FEDE37A 		vldr.32	s14, .L321+40
 1984 004c 9BB2     		uxth	r3, r3
 1985 004e 07EE903A 		vmov	s15, r3	@ int
 1986 0052 F8EEE77A 		vcvt.f32.s32	s15, s15
 1987              		.loc 1 1303 0
 1988 0056 B0EE409A 		vmov.f32	s18, s0
 1989              	.LVL126:
 1990              		.loc 1 1305 0
 1991 005a 87EE270A 		vdiv.f32	s0, s14, s15
 1992              	.LVL127:
 1993 005e 30EE680A 		vsub.f32	s0, s0, s17
 1994 0062 80EE280A 		vdiv.f32	s0, s0, s17
 1995 0066 FFF7FEFF 		bl	logf
ARM GAS  C:\Users\CHRIST~1\AppData\Local\Temp\ccCFoZV9.s 			page 36


 1996              	.LVL128:
 1997 006a 9FEDDC7A 		vldr.32	s14, .L321+44
 1998 006e D5ED007A 		vldr.32	s15, [r5]
 1999              		.loc 1 1306 0
 2000 0072 DFEDDB6A 		vldr.32	s13, .L321+48
 2001              		.loc 1 1305 0
 2002 0076 80EE070A 		vdiv.f32	s0, s0, s14
 2003 007a 30EE0B0A 		vadd.f32	s0, s0, s22
 2004 007e 8BEE807A 		vdiv.f32	s14, s23, s0
 2005 0082 37EE6A7A 		vsub.f32	s14, s14, s21
 2006 0086 79EEC79A 		vsub.f32	s19, s19, s14
 2007 008a E9EECA7A 		vfms.f32	s15, s19, s20
 2008 008e C5ED007A 		vstr.32	s15, [r5]
 2009              		.loc 1 1306 0
 2010 0092 D6ED009A 		vldr.32	s19, [r6]
 2011 0096 FB8A     		ldrh	r3, [r7, #22]
 2012 0098 9BB2     		uxth	r3, r3
 2013 009a 07EE903A 		vmov	s15, r3	@ int
 2014 009e F8EE677A 		vcvt.f32.u32	s15, s15
 2015 00a2 86EEA77A 		vdiv.f32	s14, s13, s15
 2016 00a6 77EE6B7A 		vsub.f32	s15, s14, s23
 2017 00aa 88EEA70A 		vdiv.f32	s0, s17, s15
 2018 00ae 80EE280A 		vdiv.f32	s0, s0, s17
 2019 00b2 FFF7FEFF 		bl	logf
 2020              	.LVL129:
 2021 00b6 94ED5B7A 		vldr.32	s14, [r4, #364]
 2022 00ba D6ED007A 		vldr.32	s15, [r6]
 2023 00be 80EE070A 		vdiv.f32	s0, s0, s14
 2024 00c2 30EE0B0A 		vadd.f32	s0, s0, s22
 2025 00c6 8BEE807A 		vdiv.f32	s14, s23, s0
 2026 00ca 37EE6A7A 		vsub.f32	s14, s14, s21
 2027 00ce 79EEC79A 		vsub.f32	s19, s19, s14
 2028 00d2 E9EECA7A 		vfms.f32	s15, s19, s20
 2029 00d6 C6ED007A 		vstr.32	s15, [r6]
 2030              	.LVL130:
 2031              		.loc 1 1311 0
 2032 00da 94ED107A 		vldr.32	s14, [r4, #64]
 2033 00de D5ED007A 		vldr.32	s15, [r5]
 2034 00e2 B4EEE77A 		vcmpe.f32	s14, s15
 2035 00e6 F1EE10FA 		vmrs	APSR_nzcv, FPSCR
 2036 00ea 40F39F80 		ble	.L301
 2037              		.loc 1 1312 0
 2038 00ee D4ED028A 		vldr.32	s17, [r4, #8]
 2039              	.LVL131:
 2040              		.loc 1 1313 0
 2041 00f2 94ED01AA 		vldr.32	s20, [r4, #4]
 2042              	.LVL132:
 2043              	.L238:
 2044              		.loc 1 1338 0
 2045 00f6 94ED127A 		vldr.32	s14, [r4, #72]
 2046 00fa D6ED007A 		vldr.32	s15, [r6]
 2047 00fe B4EEE77A 		vcmpe.f32	s14, s15
 2048 0102 F1EE10FA 		vmrs	APSR_nzcv, FPSCR
 2049 0106 40F3B980 		ble	.L305
 2050              		.loc 1 1339 0
 2051 010a D4ED029A 		vldr.32	s19, [r4, #8]
 2052              	.LVL133:
ARM GAS  C:\Users\CHRIST~1\AppData\Local\Temp\ccCFoZV9.s 			page 37


 2053              		.loc 1 1340 0
 2054 010e D4ED01AA 		vldr.32	s21, [r4, #4]
 2055              	.LVL134:
 2056              	.L251:
 2057              		.loc 1 1364 0
 2058 0112 D4ED070A 		vldr.32	s1, [r4, #28]
 2059 0116 D4ED087A 		vldr.32	s15, [r4, #32]
 2060              		.loc 1 1365 0
 2061 011a 94ED071A 		vldr.32	s2, [r4, #28]
 2062              		.loc 1 1364 0
 2063 011e 60EEA70A 		vmul.f32	s1, s1, s15
 2064              	.LVL135:
 2065              		.loc 1 1366 0
 2066 0122 B4EEE09A 		vcmpe.f32	s18, s1
 2067 0126 F1EE10FA 		vmrs	APSR_nzcv, FPSCR
 2068 012a 40F19E80 		bpl	.L309
 2069              		.loc 1 1367 0
 2070 012e 94ED01BA 		vldr.32	s22, [r4, #4]
 2071              	.LVL136:
 2072              	.L264:
 2073              		.loc 1 1376 0
 2074 0132 D4ED060A 		vldr.32	s1, [r4, #24]
 2075 0136 D4ED087A 		vldr.32	s15, [r4, #32]
 2076              		.loc 1 1377 0
 2077 013a 94ED061A 		vldr.32	s2, [r4, #24]
 2078              		.loc 1 1376 0
 2079 013e 60EEA70A 		vmul.f32	s1, s1, s15
 2080              	.LVL137:
 2081              		.loc 1 1378 0
 2082 0142 B4EEE09A 		vcmpe.f32	s18, s1
 2083 0146 F1EE10FA 		vmrs	APSR_nzcv, FPSCR
 2084 014a 40F38580 		ble	.L310
 2085              		.loc 1 1379 0
 2086 014e 94ED019A 		vldr.32	s18, [r4, #4]
 2087              	.LVL138:
 2088              	.L267:
 2089              		.loc 1 1386 0
 2090 0152 F0EE6A0A 		vmov.f32	s1, s21
 2091 0156 B0EE4A0A 		vmov.f32	s0, s20
 2092 015a FFF7FEFF 		bl	utils_min_abs
 2093              	.LVL139:
 2094              		.loc 1 1387 0
 2095 015e F0EE690A 		vmov.f32	s1, s19
 2096              		.loc 1 1386 0
 2097 0162 B0EE40AA 		vmov.f32	s20, s0
 2098              	.LVL140:
 2099              		.loc 1 1387 0
 2100 0166 B0EE680A 		vmov.f32	s0, s17
 2101              	.LVL141:
 2102 016a FFF7FEFF 		bl	utils_min_abs
 2103              	.LVL142:
 2104              		.loc 1 1389 0
 2105 016e F0EE4B0A 		vmov.f32	s1, s22
 2106              		.loc 1 1387 0
 2107 0172 F0EE408A 		vmov.f32	s17, s0
 2108              	.LVL143:
 2109              		.loc 1 1389 0
ARM GAS  C:\Users\CHRIST~1\AppData\Local\Temp\ccCFoZV9.s 			page 38


 2110 0176 B0EE4A0A 		vmov.f32	s0, s20
 2111              	.LVL144:
 2112 017a FFF7FEFF 		bl	utils_min_abs
 2113              	.LVL145:
 2114              		.loc 1 1390 0
 2115 017e F0EE490A 		vmov.f32	s1, s18
 2116 0182 FFF7FEFF 		bl	utils_min_abs
 2117              	.LVL146:
 2118              		.loc 1 1392 0
 2119 0186 D4ED4F7A 		vldr.32	s15, [r4, #316]
 2120 018a B4EEE70A 		vcmpe.f32	s0, s15
 2121 018e F1EE10FA 		vmrs	APSR_nzcv, FPSCR
 2122              		.loc 1 1393 0
 2123 0192 48BF     		it	mi
 2124 0194 94ED4F0A 		vldrmi.32	s0, [r4, #316]
 2125              	.LVL147:
 2126              		.loc 1 1396 0
 2127 0198 D4ED4F7A 		vldr.32	s15, [r4, #316]
 2128 019c F1EE677A 		vneg.f32	s15, s15
 2129 01a0 F4EEE78A 		vcmpe.f32	s17, s15
 2130 01a4 F1EE10FA 		vmrs	APSR_nzcv, FPSCR
 2131              		.loc 1 1397 0
 2132 01a8 C8BF     		it	gt
 2133 01aa D4ED4F8A 		vldrgt.32	s17, [r4, #316]
 2134              	.LVL148:
 2135              		.loc 1 1400 0
 2136 01ae 84ED180A 		vstr.32	s0, [r4, #96]
 2137              		.loc 1 1397 0
 2138 01b2 C8BF     		it	gt
 2139 01b4 F1EE688A 		vneggt.f32	s17, s17
 2140              	.LVL149:
 2141              		.loc 1 1401 0
 2142 01b8 C4ED198A 		vstr.32	s17, [r4, #100]
 2143              	.LVL150:
 2144              		.loc 1 1405 0
 2145 01bc D4ED0D7A 		vldr.32	s15, [r4, #52]
 2146 01c0 B4EEE78A 		vcmpe.f32	s16, s15
 2147 01c4 F1EE10FA 		vmrs	APSR_nzcv, FPSCR
 2148 01c8 00F31F81 		bgt	.L313
 2149              		.loc 1 1407 0
 2150 01cc D4ED0E7A 		vldr.32	s15, [r4, #56]
 2151 01d0 B4EEE78A 		vcmpe.f32	s16, s15
 2152 01d4 F1EE10FA 		vmrs	APSR_nzcv, FPSCR
 2153 01d8 40F10881 		bpl	.L314
 2154              		.loc 1 1408 0
 2155 01dc DFED820A 		vldr.32	s1, .L321+56
 2156              	.LVL151:
 2157              	.L274:
 2158              		.loc 1 1415 0
 2159 01e0 94ED160A 		vldr.32	s0, [r4, #88]
 2160              	.LVL152:
 2161              		.loc 1 1416 0
 2162 01e4 94ED177A 		vldr.32	s14, [r4, #92]
 2163 01e8 C7EE088A 		vdiv.f32	s17, s14, s16
 2164              	.LVL153:
 2165              		.loc 1 1418 0
 2166 01ec 80EE080A 		vdiv.f32	s0, s0, s16
ARM GAS  C:\Users\CHRIST~1\AppData\Local\Temp\ccCFoZV9.s 			page 39


 2167              	.LVL154:
 2168 01f0 FFF7FEFF 		bl	utils_min_abs
 2169              	.LVL155:
 2170              		.loc 1 1421 0
 2171 01f4 D4ED037A 		vldr.32	s15, [r4, #12]
 2172 01f8 F0EE400A 		vmov.f32	s1, s0
 2173 01fc B0EE670A 		vmov.f32	s0, s15
 2174              	.LVL156:
 2175 0200 FFF7FEFF 		bl	utils_min_abs
 2176              	.LVL157:
 2177 0204 84ED1A0A 		vstr.32	s0, [r4, #104]
 2178              		.loc 1 1422 0
 2179 0208 F0EE680A 		vmov.f32	s1, s17
 2180 020c 94ED040A 		vldr.32	s0, [r4, #16]
 2181 0210 FFF7FEFF 		bl	utils_min_abs
 2182              	.LVL158:
 2183 0214 84ED1B0A 		vstr.32	s0, [r4, #108]
 2184              		.loc 1 1425 0
 2185 0218 FFF7FEFF 		bl	mc_interface_get_duty_cycle_now
 2186              	.LVL159:
 2187              		.loc 1 1444 0
 2188 021c BDEC088B 		vldm	sp!, {d8-d11}
 2189              		.cfi_remember_state
 2190              		.cfi_restore 86
 2191              		.cfi_restore 87
 2192              		.cfi_restore 84
 2193              		.cfi_restore 85
 2194              		.cfi_restore 82
 2195              		.cfi_restore 83
 2196              		.cfi_restore 80
 2197              		.cfi_restore 81
 2198              		.cfi_def_cfa_offset 24
 2199              	.LVL160:
 2200              		.loc 1 1428 0
 2201 0220 A378     		ldrb	r3, [r4, #2]	@ zero_extendqisi2
 2202              		.loc 1 1442 0
 2203 0222 236E     		ldr	r3, [r4, #96]	@ float
 2204 0224 2367     		str	r3, [r4, #112]	@ float
 2205              		.loc 1 1443 0
 2206 0226 636E     		ldr	r3, [r4, #100]	@ float
 2207 0228 6367     		str	r3, [r4, #116]	@ float
 2208              		.loc 1 1444 0
 2209 022a F8BD     		pop	{r3, r4, r5, r6, r7, pc}
 2210              	.LVL161:
 2211              	.L301:
 2212              		.cfi_restore_state
 2213              		.loc 1 1314 0
 2214 022c 94ED117A 		vldr.32	s14, [r4, #68]
 2215 0230 D5ED007A 		vldr.32	s15, [r5]
 2216 0234 B4EEE77A 		vcmpe.f32	s14, s15
 2217 0238 F1EE10FA 		vmrs	APSR_nzcv, FPSCR
 2218 023c 34D5     		bpl	.L302
 2219              	.LVL162:
 2220              	.LBB128:
 2221              	.LBB129:
 2222              		.loc 1 992 0
 2223 023e 694B     		ldr	r3, .L321+52
ARM GAS  C:\Users\CHRIST~1\AppData\Local\Temp\ccCFoZV9.s 			page 40


 2224 0240 1B78     		ldrb	r3, [r3]	@ zero_extendqisi2
 2225 0242 052B     		cmp	r3, #5
 2226 0244 00F01A81 		beq	.L315
 2227              	.LBE129:
 2228              	.LBE128:
 2229              		.loc 1 1315 0
 2230 0248 DFED678A 		vldr.32	s17, .L321+56
 2231              	.LBB134:
 2232              	.LBB130:
 2233 024c 0520     		movs	r0, #5
 2234              	.LBE130:
 2235              	.LBE134:
 2236              		.loc 1 1316 0
 2237 024e B0EE68AA 		vmov.f32	s20, s17
 2238              	.LBB135:
 2239              	.LBB131:
 2240 0252 FFF7FEFF 		bl	mc_interface_fault_stop.part.3
 2241              	.LVL163:
 2242 0256 4EE7     		b	.L238
 2243              	.LVL164:
 2244              	.L310:
 2245              	.LBE131:
 2246              	.LBE135:
 2247              		.loc 1 1380 0
 2248 0258 B4EEC19A 		vcmpe.f32	s18, s2
 2249 025c F1EE10FA 		vmrs	APSR_nzcv, FPSCR
 2250 0260 40F1D680 		bpl	.L316
 2251              		.loc 1 1381 0
 2252 0264 9FED609A 		vldr.32	s18, .L321+56
 2253              	.LVL165:
 2254 0268 73E7     		b	.L267
 2255              	.LVL166:
 2256              	.L309:
 2257              		.loc 1 1368 0
 2258 026a B4EEC19A 		vcmpe.f32	s18, s2
 2259 026e F1EE10FA 		vmrs	APSR_nzcv, FPSCR
 2260 0272 40F3D880 		ble	.L317
 2261              		.loc 1 1369 0
 2262 0276 9FED5CBA 		vldr.32	s22, .L321+56
 2263 027a 5AE7     		b	.L264
 2264              	.LVL167:
 2265              	.L305:
 2266              		.loc 1 1341 0
 2267 027c 94ED137A 		vldr.32	s14, [r4, #76]
 2268 0280 D6ED007A 		vldr.32	s15, [r6]
 2269 0284 B4EEE77A 		vcmpe.f32	s14, s15
 2270 0288 F1EE10FA 		vmrs	APSR_nzcv, FPSCR
 2271 028c 4ED5     		bpl	.L306
 2272              	.LVL168:
 2273              	.LBB136:
 2274              	.LBB137:
 2275              		.loc 1 992 0
 2276 028e 554B     		ldr	r3, .L321+52
 2277 0290 1B78     		ldrb	r3, [r3]	@ zero_extendqisi2
 2278 0292 062B     		cmp	r3, #6
 2279 0294 00F0FB80 		beq	.L318
 2280              	.LBE137:
ARM GAS  C:\Users\CHRIST~1\AppData\Local\Temp\ccCFoZV9.s 			page 41


 2281              	.LBE136:
 2282              		.loc 1 1342 0
 2283 0298 DFED539A 		vldr.32	s19, .L321+56
 2284              	.LBB142:
 2285              	.LBB138:
 2286 029c 0620     		movs	r0, #6
 2287              	.LBE138:
 2288              	.LBE142:
 2289              		.loc 1 1343 0
 2290 029e F0EE69AA 		vmov.f32	s21, s19
 2291              	.LBB143:
 2292              	.LBB139:
 2293 02a2 FFF7FEFF 		bl	mc_interface_fault_stop.part.3
 2294              	.LVL169:
 2295 02a6 34E7     		b	.L251
 2296              	.LVL170:
 2297              	.L302:
 2298              	.LBE139:
 2299              	.LBE143:
 2300              	.LBB144:
 2301              		.loc 1 1319 0
 2302 02a8 D4ED011A 		vldr.32	s3, [r4, #4]
 2303              		.loc 1 1320 0
 2304 02ac D4ED027A 		vldr.32	s15, [r4, #8]
 2305              		.loc 1 1324 0
 2306 02b0 9FED4D2A 		vldr.32	s4, .L321+56
 2307              		.loc 1 1319 0
 2308 02b4 F0EEE11A 		vabs.f32	s3, s3
 2309              	.LVL171:
 2310              		.loc 1 1320 0
 2311 02b8 F0EEE77A 		vabs.f32	s15, s15
 2312 02bc F4EEE71A 		vcmpe.f32	s3, s15
 2313 02c0 F1EE10FA 		vmrs	APSR_nzcv, FPSCR
 2314              		.loc 1 1321 0
 2315 02c4 48BF     		it	mi
 2316 02c6 D4ED021A 		vldrmi.32	s3, [r4, #8]
 2317              	.LVL172:
 2318              		.loc 1 1324 0
 2319 02ca 95ED000A 		vldr.32	s0, [r5]
 2320 02ce D4ED100A 		vldr.32	s1, [r4, #64]
 2321 02d2 94ED111A 		vldr.32	s2, [r4, #68]
 2322              		.loc 1 1321 0
 2323 02d6 48BF     		it	mi
 2324 02d8 F0EEE11A 		vabsmi.f32	s3, s3
 2325              	.LVL173:
 2326              		.loc 1 1324 0
 2327 02dc FFF7FEFF 		bl	utils_map
 2328              	.LVL174:
 2329              		.loc 1 1326 0
 2330 02e0 D4ED017A 		vldr.32	s15, [r4, #4]
 2331 02e4 F0EEE77A 		vabs.f32	s15, s15
 2332 02e8 B4EEE70A 		vcmpe.f32	s0, s15
 2333 02ec F1EE10FA 		vmrs	APSR_nzcv, FPSCR
 2334 02f0 00F1A480 		bmi	.L319
 2335              	.LBE144:
 2336              		.loc 1 1309 0
 2337 02f4 9FED3CAA 		vldr.32	s20, .L321+56
ARM GAS  C:\Users\CHRIST~1\AppData\Local\Temp\ccCFoZV9.s 			page 42


 2338              	.LVL175:
 2339              	.L244:
 2340              	.LBB145:
 2341              		.loc 1 1330 0
 2342 02f8 D4ED027A 		vldr.32	s15, [r4, #8]
 2343 02fc F0EEE77A 		vabs.f32	s15, s15
 2344 0300 B4EEE70A 		vcmpe.f32	s0, s15
 2345 0304 F1EE10FA 		vmrs	APSR_nzcv, FPSCR
 2346 0308 40F1CA80 		bpl	.L304
 2347              		.loc 1 1331 0
 2348 030c D4ED027A 		vldr.32	s15, [r4, #8]
 2349 0310 F5EEC07A 		vcmpe.f32	s15, #0
 2350 0314 F1EE10FA 		vmrs	APSR_nzcv, FPSCR
 2351 0318 FFEE008A 		vmov.f32	s17, #-1.0e+0
 2352 031c F7EE007A 		vmov.f32	s15, #1.0e+0
 2353 0320 58BF     		it	pl
 2354 0322 F0EE678A 		vmovpl.f32	s17, s15
 2355 0326 60EE288A 		vmul.f32	s17, s0, s17
 2356              	.LVL176:
 2357 032a E4E6     		b	.L238
 2358              	.LVL177:
 2359              	.L306:
 2360              	.LBE145:
 2361              	.LBB146:
 2362              		.loc 1 1346 0
 2363 032c D4ED011A 		vldr.32	s3, [r4, #4]
 2364              		.loc 1 1347 0
 2365 0330 D4ED027A 		vldr.32	s15, [r4, #8]
 2366              		.loc 1 1351 0
 2367 0334 9FED2C2A 		vldr.32	s4, .L321+56
 2368              		.loc 1 1346 0
 2369 0338 F0EEE11A 		vabs.f32	s3, s3
 2370              	.LVL178:
 2371              		.loc 1 1347 0
 2372 033c F0EEE77A 		vabs.f32	s15, s15
 2373 0340 F4EEE71A 		vcmpe.f32	s3, s15
 2374 0344 F1EE10FA 		vmrs	APSR_nzcv, FPSCR
 2375              		.loc 1 1348 0
 2376 0348 48BF     		it	mi
 2377 034a D4ED021A 		vldrmi.32	s3, [r4, #8]
 2378              	.LVL179:
 2379              		.loc 1 1351 0
 2380 034e 96ED000A 		vldr.32	s0, [r6]
 2381 0352 D4ED120A 		vldr.32	s1, [r4, #72]
 2382 0356 94ED131A 		vldr.32	s2, [r4, #76]
 2383              		.loc 1 1348 0
 2384 035a 48BF     		it	mi
 2385 035c F0EEE11A 		vabsmi.f32	s3, s3
 2386              	.LVL180:
 2387              		.loc 1 1351 0
 2388 0360 FFF7FEFF 		bl	utils_map
 2389              	.LVL181:
 2390              		.loc 1 1353 0
 2391 0364 D4ED017A 		vldr.32	s15, [r4, #4]
 2392 0368 F0EEE77A 		vabs.f32	s15, s15
 2393 036c B4EEE70A 		vcmpe.f32	s0, s15
 2394 0370 F1EE10FA 		vmrs	APSR_nzcv, FPSCR
ARM GAS  C:\Users\CHRIST~1\AppData\Local\Temp\ccCFoZV9.s 			page 43


 2395 0374 72D4     		bmi	.L320
 2396              	.LBE146:
 2397              		.loc 1 1336 0
 2398 0376 DFED1CAA 		vldr.32	s21, .L321+56
 2399              	.LVL182:
 2400              	.L257:
 2401              	.LBB147:
 2402              		.loc 1 1357 0
 2403 037a D4ED027A 		vldr.32	s15, [r4, #8]
 2404 037e F0EEE77A 		vabs.f32	s15, s15
 2405 0382 B4EEE70A 		vcmpe.f32	s0, s15
 2406 0386 F1EE10FA 		vmrs	APSR_nzcv, FPSCR
 2407 038a 40F18C80 		bpl	.L308
 2408              		.loc 1 1358 0
 2409 038e D4ED027A 		vldr.32	s15, [r4, #8]
 2410 0392 F5EEC07A 		vcmpe.f32	s15, #0
 2411 0396 F1EE10FA 		vmrs	APSR_nzcv, FPSCR
 2412 039a FFEE009A 		vmov.f32	s19, #-1.0e+0
 2413 039e F7EE007A 		vmov.f32	s15, #1.0e+0
 2414 03a2 58BF     		it	pl
 2415 03a4 F0EE679A 		vmovpl.f32	s19, s15
 2416 03a8 60EE299A 		vmul.f32	s19, s0, s19
 2417              	.LVL183:
 2418 03ac B1E6     		b	.L251
 2419              	.L322:
 2420 03ae 00BF     		.align	2
 2421              	.L321:
 2422 03b0 00000000 		.word	.LANCHOR41
 2423 03b4 6740533A 		.word	978534503
 2424 03b8 00000000 		.word	.LANCHOR32
 2425 03bc 74D19541 		.word	1100337524
 2426 03c0 00000000 		.word	.LANCHOR33
 2427 03c4 00000000 		.word	.LANCHOR12
 2428 03c8 00401C46 		.word	1176256512
 2429 03cc 0FCF5B3B 		.word	995872527
 2430 03d0 33938843 		.word	1133024051
 2431 03d4 CDCCCC3D 		.word	1036831949
 2432 03d8 3C361C4C 		.word	1276917308
 2433 03dc 00A05645 		.word	1163304960
 2434 03e0 00F07F45 		.word	1166012416
 2435 03e4 00000000 		.word	.LANCHOR13
 2436 03e8 00000000 		.word	0
 2437              	.LVL184:
 2438              	.L314:
 2439              	.LBE147:
 2440              		.loc 1 1410 0
 2441 03ec D4ED0D0A 		vldr.32	s1, [r4, #52]
 2442 03f0 1FED032A 		vldr.32	s4, .L321+56
 2443 03f4 94ED0E1A 		vldr.32	s2, [r4, #56]
 2444 03f8 D4ED031A 		vldr.32	s3, [r4, #12]
 2445 03fc B0EE480A 		vmov.f32	s0, s16
 2446              	.LVL185:
 2447 0400 FFF7FEFF 		bl	utils_map
 2448              	.LVL186:
 2449 0404 F0EE400A 		vmov.f32	s1, s0
 2450              	.LVL187:
 2451 0408 EAE6     		b	.L274
ARM GAS  C:\Users\CHRIST~1\AppData\Local\Temp\ccCFoZV9.s 			page 44


 2452              	.LVL188:
 2453              	.L313:
 2454              		.loc 1 1406 0
 2455 040a D4ED030A 		vldr.32	s1, [r4, #12]
 2456              	.LVL189:
 2457 040e E7E6     		b	.L274
 2458              	.LVL190:
 2459              	.L316:
 2460              		.loc 1 1383 0
 2461 0410 B0EE490A 		vmov.f32	s0, s18
 2462 0414 D4ED011A 		vldr.32	s3, [r4, #4]
 2463 0418 1FED0D2A 		vldr.32	s4, .L321+56
 2464 041c FFF7FEFF 		bl	utils_map
 2465              	.LVL191:
 2466 0420 B0EE409A 		vmov.f32	s18, s0
 2467              	.LVL192:
 2468 0424 95E6     		b	.L267
 2469              	.LVL193:
 2470              	.L317:
 2471              		.loc 1 1371 0
 2472 0426 D4ED011A 		vldr.32	s3, [r4, #4]
 2473 042a 1FED112A 		vldr.32	s4, .L321+56
 2474 042e B0EE490A 		vmov.f32	s0, s18
 2475 0432 FFF7FEFF 		bl	utils_map
 2476              	.LVL194:
 2477 0436 B0EE40BA 		vmov.f32	s22, s0
 2478              	.LVL195:
 2479 043a 7AE6     		b	.L264
 2480              	.LVL196:
 2481              	.L319:
 2482              	.LBB148:
 2483              		.loc 1 1327 0
 2484 043c D4ED017A 		vldr.32	s15, [r4, #4]
 2485 0440 F5EEC07A 		vcmpe.f32	s15, #0
 2486 0444 F1EE10FA 		vmrs	APSR_nzcv, FPSCR
 2487 0448 BFEE00AA 		vmov.f32	s20, #-1.0e+0
 2488 044c F7EE007A 		vmov.f32	s15, #1.0e+0
 2489 0450 58BF     		it	pl
 2490 0452 B0EE67AA 		vmovpl.f32	s20, s15
 2491 0456 20EE0AAA 		vmul.f32	s20, s0, s20
 2492              	.LVL197:
 2493 045a 4DE7     		b	.L244
 2494              	.LVL198:
 2495              	.L320:
 2496              	.LBE148:
 2497              	.LBB149:
 2498              		.loc 1 1354 0
 2499 045c D4ED017A 		vldr.32	s15, [r4, #4]
 2500 0460 F5EEC07A 		vcmpe.f32	s15, #0
 2501 0464 F1EE10FA 		vmrs	APSR_nzcv, FPSCR
 2502 0468 FFEE00AA 		vmov.f32	s21, #-1.0e+0
 2503 046c F7EE007A 		vmov.f32	s15, #1.0e+0
 2504 0470 58BF     		it	pl
 2505 0472 F0EE67AA 		vmovpl.f32	s21, s15
 2506 0476 60EE2AAA 		vmul.f32	s21, s0, s21
 2507              	.LVL199:
 2508 047a 7EE7     		b	.L257
ARM GAS  C:\Users\CHRIST~1\AppData\Local\Temp\ccCFoZV9.s 			page 45


 2509              	.LVL200:
 2510              	.L315:
 2511              	.LBE149:
 2512              	.LBB150:
 2513              	.LBB132:
 2514              		.loc 1 993 0
 2515 047c 0B4B     		ldr	r3, .L323
 2516              	.LBE132:
 2517              	.LBE150:
 2518              		.loc 1 1315 0
 2519 047e DFED0C8A 		vldr.32	s17, .L323+4
 2520              	.LBB151:
 2521              	.LBB133:
 2522              		.loc 1 993 0
 2523 0482 D4F84821 		ldr	r2, [r4, #328]
 2524 0486 1A60     		str	r2, [r3]
 2525              	.LBE133:
 2526              	.LBE151:
 2527              		.loc 1 1316 0
 2528 0488 B0EE68AA 		vmov.f32	s20, s17
 2529 048c 33E6     		b	.L238
 2530              	.LVL201:
 2531              	.L318:
 2532              	.LBB152:
 2533              	.LBB140:
 2534              		.loc 1 993 0
 2535 048e 074B     		ldr	r3, .L323
 2536              	.LBE140:
 2537              	.LBE152:
 2538              		.loc 1 1342 0
 2539 0490 DFED079A 		vldr.32	s19, .L323+4
 2540              	.LBB153:
 2541              	.LBB141:
 2542              		.loc 1 993 0
 2543 0494 D4F84821 		ldr	r2, [r4, #328]
 2544 0498 1A60     		str	r2, [r3]
 2545              	.LBE141:
 2546              	.LBE153:
 2547              		.loc 1 1343 0
 2548 049a F0EE69AA 		vmov.f32	s21, s19
 2549 049e 38E6     		b	.L251
 2550              	.LVL202:
 2551              	.L304:
 2552              		.loc 1 1310 0
 2553 04a0 DFED038A 		vldr.32	s17, .L323+4
 2554 04a4 27E6     		b	.L238
 2555              	.LVL203:
 2556              	.L308:
 2557              		.loc 1 1337 0
 2558 04a6 DFED029A 		vldr.32	s19, .L323+4
 2559 04aa 32E6     		b	.L251
 2560              	.L324:
 2561              		.align	2
 2562              	.L323:
 2563 04ac 00000000 		.word	.LANCHOR14
 2564 04b0 00000000 		.word	0
 2565              		.cfi_endproc
ARM GAS  C:\Users\CHRIST~1\AppData\Local\Temp\ccCFoZV9.s 			page 46


 2566              	.LFE316:
 2567              		.size	update_override_limits.constprop.4, .-update_override_limits.constprop.4
 2568              		.section	.text.mc_interface_set_configuration,"ax",%progbits
 2569              		.align	1
 2570              		.p2align 4,,15
 2571              		.global	mc_interface_set_configuration
 2572              		.syntax unified
 2573              		.thumb
 2574              		.thumb_func
 2575              		.fpu fpv4-sp-d16
 2576              		.type	mc_interface_set_configuration, %function
 2577              	mc_interface_set_configuration:
 2578              	.LFB258:
 2579              		.loc 1 175 0
 2580              		.cfi_startproc
 2581              		@ args = 0, pretend = 0, frame = 0
 2582              		@ frame_needed = 0, uses_anonymous_args = 0
 2583              	.LVL204:
 2584 0000 38B5     		push	{r3, r4, r5, lr}
 2585              		.cfi_def_cfa_offset 16
 2586              		.cfi_offset 3, -16
 2587              		.cfi_offset 4, -12
 2588              		.cfi_offset 5, -8
 2589              		.cfi_offset 14, -4
 2590              		.loc 1 177 0
 2591 0002 324D     		ldr	r5, .L346
 2592 0004 90F85831 		ldrb	r3, [r0, #344]	@ zero_extendqisi2
 2593 0008 95F85821 		ldrb	r2, [r5, #344]	@ zero_extendqisi2
 2594 000c 9A42     		cmp	r2, r3
 2595              		.loc 1 175 0
 2596 000e 0446     		mov	r4, r0
 2597              		.loc 1 177 0
 2598 0010 07D0     		beq	.L326
 2599              		.loc 1 178 0
 2600 0012 FFF7FEFF 		bl	encoder_deinit
 2601              	.LVL205:
 2602              		.loc 1 179 0
 2603 0016 94F85831 		ldrb	r3, [r4, #344]	@ zero_extendqisi2
 2604 001a 012B     		cmp	r3, #1
 2605 001c 3FD0     		beq	.L327
 2606 001e 022B     		cmp	r3, #2
 2607 0020 32D0     		beq	.L328
 2608              	.L326:
 2609              		.loc 1 193 0
 2610 0022 012B     		cmp	r3, #1
 2611 0024 36D0     		beq	.L343
 2612              	.L329:
 2613              		.loc 1 203 0
 2614 0026 AB78     		ldrb	r3, [r5, #2]	@ zero_extendqisi2
 2615 0028 022B     		cmp	r3, #2
 2616 002a 1ED0     		beq	.L344
 2617              		.loc 1 208 0
 2618 002c AB78     		ldrb	r3, [r5, #2]	@ zero_extendqisi2
 2619 002e 022B     		cmp	r3, #2
 2620 0030 02D0     		beq	.L333
 2621              		.loc 1 209 0
 2622 0032 A378     		ldrb	r3, [r4, #2]	@ zero_extendqisi2
ARM GAS  C:\Users\CHRIST~1\AppData\Local\Temp\ccCFoZV9.s 			page 47


 2623 0034 022B     		cmp	r3, #2
 2624 0036 3CD0     		beq	.L337
 2625              	.L333:
 2626              		.loc 1 214 0
 2627 0038 2146     		mov	r1, r4
 2628 003a 4FF4B872 		mov	r2, #368
 2629 003e 2348     		ldr	r0, .L346
 2630 0040 FFF7FEFF 		bl	memcpy
 2631              	.LVL206:
 2632              	.L332:
 2633              		.loc 1 217 0
 2634 0044 FFF7FEFF 		bl	update_override_limits.constprop.4
 2635              	.LVL207:
 2636              		.loc 1 219 0
 2637 0048 AB78     		ldrb	r3, [r5, #2]	@ zero_extendqisi2
 2638 004a DBB2     		uxtb	r3, r3
 2639 004c 012B     		cmp	r3, #1
 2640 004e 07D9     		bls	.L335
 2641 0050 022B     		cmp	r3, #2
 2642 0052 04D1     		bne	.L345
 2643              		.loc 1 226 0
 2644 0054 1D48     		ldr	r0, .L346
 2645              		.loc 1 232 0
 2646 0056 BDE83840 		pop	{r3, r4, r5, lr}
 2647              		.cfi_remember_state
 2648              		.cfi_restore 14
 2649              		.cfi_restore 5
 2650              		.cfi_restore 4
 2651              		.cfi_restore 3
 2652              		.cfi_def_cfa_offset 0
 2653              	.LVL208:
 2654              		.loc 1 226 0
 2655 005a FFF7FEBF 		b	mcpwm_foc_set_configuration
 2656              	.LVL209:
 2657              	.L345:
 2658              		.cfi_restore_state
 2659 005e 38BD     		pop	{r3, r4, r5, pc}
 2660              	.LVL210:
 2661              	.L335:
 2662              		.loc 1 222 0
 2663 0060 1A48     		ldr	r0, .L346
 2664              		.loc 1 232 0
 2665 0062 BDE83840 		pop	{r3, r4, r5, lr}
 2666              		.cfi_remember_state
 2667              		.cfi_restore 14
 2668              		.cfi_restore 5
 2669              		.cfi_restore 4
 2670              		.cfi_restore 3
 2671              		.cfi_def_cfa_offset 0
 2672              	.LVL211:
 2673              		.loc 1 222 0
 2674 0066 FFF7FEBF 		b	mcpwm_set_configuration
 2675              	.LVL212:
 2676              	.L344:
 2677              		.cfi_restore_state
 2678              		.loc 1 204 0
 2679 006a A378     		ldrb	r3, [r4, #2]	@ zero_extendqisi2
ARM GAS  C:\Users\CHRIST~1\AppData\Local\Temp\ccCFoZV9.s 			page 48


 2680 006c 022B     		cmp	r3, #2
 2681 006e 1DD0     		beq	.L331
 2682              		.loc 1 205 0
 2683 0070 FFF7FEFF 		bl	mcpwm_foc_deinit
 2684              	.LVL213:
 2685              		.loc 1 206 0
 2686 0074 2146     		mov	r1, r4
 2687 0076 4FF4B872 		mov	r2, #368
 2688 007a 1448     		ldr	r0, .L346
 2689 007c FFF7FEFF 		bl	memcpy
 2690              	.LVL214:
 2691              		.loc 1 207 0
 2692 0080 1248     		ldr	r0, .L346
 2693 0082 FFF7FEFF 		bl	mcpwm_init
 2694              	.LVL215:
 2695 0086 DDE7     		b	.L332
 2696              	.L328:
 2697              		.loc 1 185 0
 2698 0088 FFF7FEFF 		bl	encoder_init_as5047p_spi
 2699              	.LVL216:
 2700 008c 94F85831 		ldrb	r3, [r4, #344]	@ zero_extendqisi2
 2701              		.loc 1 193 0
 2702 0090 012B     		cmp	r3, #1
 2703 0092 C8D1     		bne	.L329
 2704              	.L343:
 2705              		.loc 1 194 0
 2706 0094 D4F85401 		ldr	r0, [r4, #340]
 2707 0098 FFF7FEFF 		bl	encoder_set_counts
 2708              	.LVL217:
 2709 009c C3E7     		b	.L329
 2710              	.L327:
 2711              		.loc 1 181 0
 2712 009e D4F85401 		ldr	r0, [r4, #340]
 2713 00a2 FFF7FEFF 		bl	encoder_init_abi
 2714              	.LVL218:
 2715 00a6 94F85831 		ldrb	r3, [r4, #344]	@ zero_extendqisi2
 2716              		.loc 1 182 0
 2717 00aa BAE7     		b	.L326
 2718              	.L331:
 2719              		.loc 1 208 0
 2720 00ac AB78     		ldrb	r3, [r5, #2]	@ zero_extendqisi2
 2721 00ae 022B     		cmp	r3, #2
 2722 00b0 C2D0     		beq	.L333
 2723              	.L337:
 2724              		.loc 1 210 0
 2725 00b2 FFF7FEFF 		bl	mcpwm_deinit
 2726              	.LVL219:
 2727              		.loc 1 211 0
 2728 00b6 2146     		mov	r1, r4
 2729 00b8 4FF4B872 		mov	r2, #368
 2730 00bc 0348     		ldr	r0, .L346
 2731 00be FFF7FEFF 		bl	memcpy
 2732              	.LVL220:
 2733              		.loc 1 212 0
 2734 00c2 0248     		ldr	r0, .L346
 2735 00c4 FFF7FEFF 		bl	mcpwm_foc_init
 2736              	.LVL221:
ARM GAS  C:\Users\CHRIST~1\AppData\Local\Temp\ccCFoZV9.s 			page 49


 2737 00c8 BCE7     		b	.L332
 2738              	.L347:
 2739 00ca 00BF     		.align	2
 2740              	.L346:
 2741 00cc 00000000 		.word	.LANCHOR12
 2742              		.cfi_endproc
 2743              	.LFE258:
 2744              		.size	mc_interface_set_configuration, .-mc_interface_set_configuration
 2745              		.section	.text.timer_thread,"ax",%progbits
 2746              		.align	1
 2747              		.p2align 4,,15
 2748              		.syntax unified
 2749              		.thumb
 2750              		.thumb_func
 2751              		.fpu fpv4-sp-d16
 2752              		.type	timer_thread, %function
 2753              	timer_thread:
 2754              	.LFB310:
 2755              		.loc 1 1446 0
 2756              		.cfi_startproc
 2757              		@ Volatile: function does not return.
 2758              		@ args = 0, pretend = 0, frame = 0
 2759              		@ frame_needed = 0, uses_anonymous_args = 0
 2760              	.LVL222:
 2761              	.LBB154:
 2762              	.LBB155:
 2763              		.loc 2 135 0
 2764 0000 0C4B     		ldr	r3, .L357
 2765 0002 0D4A     		ldr	r2, .L357+4
 2766 0004 9B69     		ldr	r3, [r3, #24]
 2767 0006 0D4C     		ldr	r4, .L357+8
 2768              	.LBE155:
 2769              	.LBE154:
 2770              		.loc 1 1456 0
 2771 0008 0D4D     		ldr	r5, .L357+12
 2772              		.loc 1 1446 0
 2773 000a 80B5     		push	{r7, lr}
 2774              		.cfi_def_cfa_offset 8
 2775              		.cfi_offset 7, -8
 2776              		.cfi_offset 14, -4
 2777              		.loc 1 1457 0
 2778 000c 0026     		movs	r6, #0
 2779 000e 0D4F     		ldr	r7, .L357+16
 2780              	.LBB157:
 2781              	.LBB156:
 2782              		.loc 2 135 0
 2783 0010 9A61     		str	r2, [r3, #24]
 2784 0012 05E0     		b	.L351
 2785              	.LVL223:
 2786              	.L356:
 2787              	.LBE156:
 2788              	.LBE157:
 2789              		.loc 1 1454 0
 2790 0014 2360     		str	r3, [r4]
 2791              	.L350:
 2792              		.loc 1 1461 0
 2793 0016 FFF7FEFF 		bl	update_override_limits.constprop.4
ARM GAS  C:\Users\CHRIST~1\AppData\Local\Temp\ccCFoZV9.s 			page 50


 2794              	.LVL224:
 2795              		.loc 1 1463 0
 2796 001a 0A20     		movs	r0, #10
 2797 001c FFF7FEFF 		bl	chThdSleep
 2798              	.LVL225:
 2799              	.L351:
 2800              		.loc 1 1453 0
 2801 0020 2368     		ldr	r3, [r4]
 2802 0022 002B     		cmp	r3, #0
 2803              		.loc 1 1454 0
 2804 0024 03F1FF33 		add	r3, r3, #-1
 2805              		.loc 1 1453 0
 2806 0028 F4DC     		bgt	.L356
 2807              		.loc 1 1456 0
 2808 002a 2B69     		ldr	r3, [r5, #16]
 2809 002c DB04     		lsls	r3, r3, #19
 2810              		.loc 1 1457 0
 2811 002e 48BF     		it	mi
 2812 0030 3E70     		strbmi	r6, [r7]
 2813 0032 F0E7     		b	.L350
 2814              	.L358:
 2815              		.align	2
 2816              	.L357:
 2817 0034 00000000 		.word	ch
 2818 0038 00000000 		.word	.LC2
 2819 003c 00000000 		.word	.LANCHOR14
 2820 0040 00080240 		.word	1073874944
 2821 0044 00000000 		.word	.LANCHOR13
 2822              		.cfi_endproc
 2823              	.LFE310:
 2824              		.size	timer_thread, .-timer_thread
 2825              		.section	.text.mc_interface_get_tachometer_abs_value,"ax",%progbits
 2826              		.align	1
 2827              		.p2align 4,,15
 2828              		.global	mc_interface_get_tachometer_abs_value
 2829              		.syntax unified
 2830              		.thumb
 2831              		.thumb_func
 2832              		.fpu fpv4-sp-d16
 2833              		.type	mc_interface_get_tachometer_abs_value, %function
 2834              	mc_interface_get_tachometer_abs_value:
 2835              	.LFB293:
 2836              		.loc 1 797 0
 2837              		.cfi_startproc
 2838              		@ args = 0, pretend = 0, frame = 0
 2839              		@ frame_needed = 0, uses_anonymous_args = 0
 2840              		@ link register save eliminated.
 2841              	.LVL226:
 2842              		.loc 1 800 0
 2843 0000 064B     		ldr	r3, .L366
 2844 0002 9B78     		ldrb	r3, [r3, #2]	@ zero_extendqisi2
 2845 0004 DBB2     		uxtb	r3, r3
 2846 0006 012B     		cmp	r3, #1
 2847 0008 05D9     		bls	.L361
 2848 000a 022B     		cmp	r3, #2
 2849 000c 01D1     		bne	.L365
 2850              		.loc 1 807 0
ARM GAS  C:\Users\CHRIST~1\AppData\Local\Temp\ccCFoZV9.s 			page 51


 2851 000e FFF7FEBF 		b	mcpwm_foc_get_tachometer_abs_value
 2852              	.LVL227:
 2853              	.L365:
 2854              		.loc 1 815 0
 2855 0012 0020     		movs	r0, #0
 2856              	.LVL228:
 2857 0014 7047     		bx	lr
 2858              	.LVL229:
 2859              	.L361:
 2860              		.loc 1 803 0
 2861 0016 FFF7FEBF 		b	mcpwm_get_tachometer_abs_value
 2862              	.LVL230:
 2863              	.L367:
 2864 001a 00BF     		.align	2
 2865              	.L366:
 2866 001c 00000000 		.word	.LANCHOR12
 2867              		.cfi_endproc
 2868              	.LFE293:
 2869              		.size	mc_interface_get_tachometer_abs_value, .-mc_interface_get_tachometer_abs_value
 2870              		.section	.text.mc_interface_get_last_inj_adc_isr_duration,"ax",%progbits
 2871              		.align	1
 2872              		.p2align 4,,15
 2873              		.global	mc_interface_get_last_inj_adc_isr_duration
 2874              		.syntax unified
 2875              		.thumb
 2876              		.thumb_func
 2877              		.fpu fpv4-sp-d16
 2878              		.type	mc_interface_get_last_inj_adc_isr_duration, %function
 2879              	mc_interface_get_last_inj_adc_isr_duration:
 2880              	.LFB294:
 2881              		.loc 1 817 0
 2882              		.cfi_startproc
 2883              		@ args = 0, pretend = 0, frame = 0
 2884              		@ frame_needed = 0, uses_anonymous_args = 0
 2885              		@ link register save eliminated.
 2886              	.LVL231:
 2887              		.loc 1 820 0
 2888 0000 064B     		ldr	r3, .L375
 2889 0002 9B78     		ldrb	r3, [r3, #2]	@ zero_extendqisi2
 2890 0004 DBB2     		uxtb	r3, r3
 2891 0006 012B     		cmp	r3, #1
 2892 0008 06D9     		bls	.L370
 2893 000a 022B     		cmp	r3, #2
 2894 000c 01D1     		bne	.L374
 2895              		.loc 1 827 0
 2896 000e FFF7FEBF 		b	mcpwm_foc_get_last_inj_adc_isr_duration
 2897              	.LVL232:
 2898              	.L374:
 2899              		.loc 1 835 0
 2900 0012 9FED030A 		vldr.32	s0, .L375+4
 2901 0016 7047     		bx	lr
 2902              	.L370:
 2903              		.loc 1 823 0
 2904 0018 FFF7FEBF 		b	mcpwm_get_last_inj_adc_isr_duration
 2905              	.LVL233:
 2906              	.L376:
 2907              		.align	2
ARM GAS  C:\Users\CHRIST~1\AppData\Local\Temp\ccCFoZV9.s 			page 52


 2908              	.L375:
 2909 001c 00000000 		.word	.LANCHOR12
 2910 0020 00000000 		.word	0
 2911              		.cfi_endproc
 2912              	.LFE294:
 2913              		.size	mc_interface_get_last_inj_adc_isr_duration, .-mc_interface_get_last_inj_adc_isr_duration
 2914              		.section	.text.mc_interface_read_reset_avg_motor_current,"ax",%progbits
 2915              		.align	1
 2916              		.p2align 4,,15
 2917              		.global	mc_interface_read_reset_avg_motor_current
 2918              		.syntax unified
 2919              		.thumb
 2920              		.thumb_func
 2921              		.fpu fpv4-sp-d16
 2922              		.type	mc_interface_read_reset_avg_motor_current, %function
 2923              	mc_interface_read_reset_avg_motor_current:
 2924              	.LFB295:
 2925              		.loc 1 837 0
 2926              		.cfi_startproc
 2927              		@ args = 0, pretend = 0, frame = 0
 2928              		@ frame_needed = 0, uses_anonymous_args = 0
 2929              		@ link register save eliminated.
 2930              		.loc 1 838 0
 2931 0000 0549     		ldr	r1, .L378
 2932 0002 064B     		ldr	r3, .L378+4
 2933 0004 91ED000A 		vldr.32	s0, [r1]
 2934 0008 D3ED007A 		vldr.32	s15, [r3]
 2935              	.LVL234:
 2936              		.loc 1 839 0
 2937 000c 0022     		movs	r2, #0
 2938 000e 0A60     		str	r2, [r1]	@ float
 2939              		.loc 1 842 0
 2940 0010 80EE270A 		vdiv.f32	s0, s0, s15
 2941              	.LVL235:
 2942              		.loc 1 840 0
 2943 0014 1A60     		str	r2, [r3]	@ float
 2944              		.loc 1 842 0
 2945 0016 7047     		bx	lr
 2946              	.L379:
 2947              		.align	2
 2948              	.L378:
 2949 0018 00000000 		.word	.LANCHOR18
 2950 001c 00000000 		.word	.LANCHOR20
 2951              		.cfi_endproc
 2952              	.LFE295:
 2953              		.size	mc_interface_read_reset_avg_motor_current, .-mc_interface_read_reset_avg_motor_current
 2954              		.section	.text.mc_interface_read_reset_avg_input_current,"ax",%progbits
 2955              		.align	1
 2956              		.p2align 4,,15
 2957              		.global	mc_interface_read_reset_avg_input_current
 2958              		.syntax unified
 2959              		.thumb
 2960              		.thumb_func
 2961              		.fpu fpv4-sp-d16
 2962              		.type	mc_interface_read_reset_avg_input_current, %function
 2963              	mc_interface_read_reset_avg_input_current:
 2964              	.LFB296:
ARM GAS  C:\Users\CHRIST~1\AppData\Local\Temp\ccCFoZV9.s 			page 53


 2965              		.loc 1 844 0
 2966              		.cfi_startproc
 2967              		@ args = 0, pretend = 0, frame = 0
 2968              		@ frame_needed = 0, uses_anonymous_args = 0
 2969              		@ link register save eliminated.
 2970              		.loc 1 845 0
 2971 0000 0549     		ldr	r1, .L381
 2972 0002 064B     		ldr	r3, .L381+4
 2973 0004 91ED000A 		vldr.32	s0, [r1]
 2974 0008 D3ED007A 		vldr.32	s15, [r3]
 2975              	.LVL236:
 2976              		.loc 1 846 0
 2977 000c 0022     		movs	r2, #0
 2978 000e 0A60     		str	r2, [r1]	@ float
 2979              		.loc 1 849 0
 2980 0010 80EE270A 		vdiv.f32	s0, s0, s15
 2981              	.LVL237:
 2982              		.loc 1 847 0
 2983 0014 1A60     		str	r2, [r3]	@ float
 2984              		.loc 1 849 0
 2985 0016 7047     		bx	lr
 2986              	.L382:
 2987              		.align	2
 2988              	.L381:
 2989 0018 00000000 		.word	.LANCHOR19
 2990 001c 00000000 		.word	.LANCHOR21
 2991              		.cfi_endproc
 2992              	.LFE296:
 2993              		.size	mc_interface_read_reset_avg_input_current, .-mc_interface_read_reset_avg_input_current
 2994              		.section	.text.mc_interface_read_reset_avg_id,"ax",%progbits
 2995              		.align	1
 2996              		.p2align 4,,15
 2997              		.global	mc_interface_read_reset_avg_id
 2998              		.syntax unified
 2999              		.thumb
 3000              		.thumb_func
 3001              		.fpu fpv4-sp-d16
 3002              		.type	mc_interface_read_reset_avg_id, %function
 3003              	mc_interface_read_reset_avg_id:
 3004              	.LFB297:
 3005              		.loc 1 857 0
 3006              		.cfi_startproc
 3007              		@ args = 0, pretend = 0, frame = 0
 3008              		@ frame_needed = 0, uses_anonymous_args = 0
 3009              		@ link register save eliminated.
 3010              		.loc 1 858 0
 3011 0000 0C49     		ldr	r1, .L386
 3012 0002 0D4B     		ldr	r3, .L386+4
 3013 0004 91ED007A 		vldr.32	s14, [r1]
 3014 0008 D3ED007A 		vldr.32	s15, [r3]
 3015              		.loc 1 861 0
 3016 000c 0B48     		ldr	r0, .L386+8
 3017              		.loc 1 858 0
 3018 000e 87EE270A 		vdiv.f32	s0, s14, s15
 3019              	.LVL238:
 3020              		.loc 1 859 0
 3021 0012 0022     		movs	r2, #0
ARM GAS  C:\Users\CHRIST~1\AppData\Local\Temp\ccCFoZV9.s 			page 54


 3022 0014 0A60     		str	r2, [r1]	@ float
 3023              		.loc 1 860 0
 3024 0016 1A60     		str	r2, [r3]	@ float
 3025              		.loc 1 861 0
 3026 0018 90F85931 		ldrb	r3, [r0, #345]	@ zero_extendqisi2
 3027 001c 002B     		cmp	r3, #0
 3028 001e B7EE007A 		vmov.f32	s14, #1.0e+0
 3029 0022 FFEE007A 		vmov.f32	s15, #-1.0e+0
 3030 0026 08BF     		it	eq
 3031 0028 F0EE477A 		vmoveq.f32	s15, s14
 3032              		.loc 1 862 0
 3033 002c 27EE800A 		vmul.f32	s0, s15, s0
 3034              	.LVL239:
 3035 0030 7047     		bx	lr
 3036              	.L387:
 3037 0032 00BF     		.align	2
 3038              	.L386:
 3039 0034 00000000 		.word	.LANCHOR22
 3040 0038 00000000 		.word	.LANCHOR24
 3041 003c 00000000 		.word	.LANCHOR12
 3042              		.cfi_endproc
 3043              	.LFE297:
 3044              		.size	mc_interface_read_reset_avg_id, .-mc_interface_read_reset_avg_id
 3045              		.section	.text.mc_interface_read_reset_avg_iq,"ax",%progbits
 3046              		.align	1
 3047              		.p2align 4,,15
 3048              		.global	mc_interface_read_reset_avg_iq
 3049              		.syntax unified
 3050              		.thumb
 3051              		.thumb_func
 3052              		.fpu fpv4-sp-d16
 3053              		.type	mc_interface_read_reset_avg_iq, %function
 3054              	mc_interface_read_reset_avg_iq:
 3055              	.LFB298:
 3056              		.loc 1 870 0
 3057              		.cfi_startproc
 3058              		@ args = 0, pretend = 0, frame = 0
 3059              		@ frame_needed = 0, uses_anonymous_args = 0
 3060              		@ link register save eliminated.
 3061              		.loc 1 871 0
 3062 0000 0C49     		ldr	r1, .L391
 3063 0002 0D4B     		ldr	r3, .L391+4
 3064 0004 91ED007A 		vldr.32	s14, [r1]
 3065 0008 D3ED007A 		vldr.32	s15, [r3]
 3066              		.loc 1 874 0
 3067 000c 0B48     		ldr	r0, .L391+8
 3068              		.loc 1 871 0
 3069 000e 87EE270A 		vdiv.f32	s0, s14, s15
 3070              	.LVL240:
 3071              		.loc 1 872 0
 3072 0012 0022     		movs	r2, #0
 3073 0014 0A60     		str	r2, [r1]	@ float
 3074              		.loc 1 873 0
 3075 0016 1A60     		str	r2, [r3]	@ float
 3076              		.loc 1 874 0
 3077 0018 90F85931 		ldrb	r3, [r0, #345]	@ zero_extendqisi2
 3078 001c 002B     		cmp	r3, #0
ARM GAS  C:\Users\CHRIST~1\AppData\Local\Temp\ccCFoZV9.s 			page 55


 3079 001e B7EE007A 		vmov.f32	s14, #1.0e+0
 3080 0022 FFEE007A 		vmov.f32	s15, #-1.0e+0
 3081 0026 08BF     		it	eq
 3082 0028 F0EE477A 		vmoveq.f32	s15, s14
 3083              		.loc 1 875 0
 3084 002c 27EE800A 		vmul.f32	s0, s15, s0
 3085              	.LVL241:
 3086 0030 7047     		bx	lr
 3087              	.L392:
 3088 0032 00BF     		.align	2
 3089              	.L391:
 3090 0034 00000000 		.word	.LANCHOR23
 3091 0038 00000000 		.word	.LANCHOR25
 3092 003c 00000000 		.word	.LANCHOR12
 3093              		.cfi_endproc
 3094              	.LFE298:
 3095              		.size	mc_interface_read_reset_avg_iq, .-mc_interface_read_reset_avg_iq
 3096              		.section	.text.mc_interface_get_pid_pos_set,"ax",%progbits
 3097              		.align	1
 3098              		.p2align 4,,15
 3099              		.global	mc_interface_get_pid_pos_set
 3100              		.syntax unified
 3101              		.thumb
 3102              		.thumb_func
 3103              		.fpu fpv4-sp-d16
 3104              		.type	mc_interface_get_pid_pos_set, %function
 3105              	mc_interface_get_pid_pos_set:
 3106              	.LFB299:
 3107              		.loc 1 877 0
 3108              		.cfi_startproc
 3109              		@ args = 0, pretend = 0, frame = 0
 3110              		@ frame_needed = 0, uses_anonymous_args = 0
 3111              		@ link register save eliminated.
 3112              		.loc 1 878 0
 3113 0000 014B     		ldr	r3, .L394
 3114 0002 93ED000A 		vldr.32	s0, [r3]
 3115              		.loc 1 879 0
 3116 0006 7047     		bx	lr
 3117              	.L395:
 3118              		.align	2
 3119              	.L394:
 3120 0008 00000000 		.word	.LANCHOR30
 3121              		.cfi_endproc
 3122              	.LFE299:
 3123              		.size	mc_interface_get_pid_pos_set, .-mc_interface_get_pid_pos_set
 3124              		.section	.text.mc_interface_get_pid_pos_now,"ax",%progbits
 3125              		.align	1
 3126              		.p2align 4,,15
 3127              		.global	mc_interface_get_pid_pos_now
 3128              		.syntax unified
 3129              		.thumb
 3130              		.thumb_func
 3131              		.fpu fpv4-sp-d16
 3132              		.type	mc_interface_get_pid_pos_now, %function
 3133              	mc_interface_get_pid_pos_now:
 3134              	.LFB300:
 3135              		.loc 1 881 0
ARM GAS  C:\Users\CHRIST~1\AppData\Local\Temp\ccCFoZV9.s 			page 56


 3136              		.cfi_startproc
 3137              		@ args = 0, pretend = 0, frame = 0
 3138              		@ frame_needed = 0, uses_anonymous_args = 0
 3139              	.LVL242:
 3140 0000 10B5     		push	{r4, lr}
 3141              		.cfi_def_cfa_offset 8
 3142              		.cfi_offset 4, -8
 3143              		.cfi_offset 14, -4
 3144              		.loc 1 884 0
 3145 0002 0E4C     		ldr	r4, .L406
 3146 0004 A378     		ldrb	r3, [r4, #2]	@ zero_extendqisi2
 3147 0006 DBB2     		uxtb	r3, r3
 3148 0008 012B     		cmp	r3, #1
 3149 000a 13D9     		bls	.L398
 3150 000c 022B     		cmp	r3, #2
 3151 000e 0ED0     		beq	.L399
 3152              		.loc 1 882 0
 3153 0010 9FED0B0A 		vldr.32	s0, .L406+4
 3154              	.LVL243:
 3155              	.L397:
 3156              		.loc 1 898 0
 3157 0014 94F85931 		ldrb	r3, [r4, #345]	@ zero_extendqisi2
 3158 0018 B7EE007A 		vmov.f32	s14, #1.0e+0
 3159 001c 002B     		cmp	r3, #0
 3160 001e FFEE007A 		vmov.f32	s15, #-1.0e+0
 3161 0022 08BF     		it	eq
 3162 0024 F0EE477A 		vmoveq.f32	s15, s14
 3163              		.loc 1 899 0
 3164 0028 20EE270A 		vmul.f32	s0, s0, s15
 3165              	.LVL244:
 3166 002c 10BD     		pop	{r4, pc}
 3167              	.LVL245:
 3168              	.L399:
 3169              		.loc 1 891 0
 3170 002e FFF7FEFF 		bl	mcpwm_foc_get_pid_pos_now
 3171              	.LVL246:
 3172              		.loc 1 892 0
 3173 0032 EFE7     		b	.L397
 3174              	.LVL247:
 3175              	.L398:
 3176              		.loc 1 887 0
 3177 0034 FFF7FEFF 		bl	encoder_read_deg
 3178              	.LVL248:
 3179              		.loc 1 888 0
 3180 0038 ECE7     		b	.L397
 3181              	.L407:
 3182 003a 00BF     		.align	2
 3183              	.L406:
 3184 003c 00000000 		.word	.LANCHOR12
 3185 0040 00000000 		.word	0
 3186              		.cfi_endproc
 3187              	.LFE300:
 3188              		.size	mc_interface_get_pid_pos_now, .-mc_interface_get_pid_pos_now
 3189              		.section	.text.mc_interface_get_last_sample_adc_isr_duration,"ax",%progbits
 3190              		.align	1
 3191              		.p2align 4,,15
 3192              		.global	mc_interface_get_last_sample_adc_isr_duration
ARM GAS  C:\Users\CHRIST~1\AppData\Local\Temp\ccCFoZV9.s 			page 57


 3193              		.syntax unified
 3194              		.thumb
 3195              		.thumb_func
 3196              		.fpu fpv4-sp-d16
 3197              		.type	mc_interface_get_last_sample_adc_isr_duration, %function
 3198              	mc_interface_get_last_sample_adc_isr_duration:
 3199              	.LFB301:
 3200              		.loc 1 901 0
 3201              		.cfi_startproc
 3202              		@ args = 0, pretend = 0, frame = 0
 3203              		@ frame_needed = 0, uses_anonymous_args = 0
 3204              		@ link register save eliminated.
 3205              		.loc 1 902 0
 3206 0000 014B     		ldr	r3, .L409
 3207 0002 93ED000A 		vldr.32	s0, [r3]
 3208              		.loc 1 903 0
 3209 0006 7047     		bx	lr
 3210              	.L410:
 3211              		.align	2
 3212              	.L409:
 3213 0008 00000000 		.word	.LANCHOR31
 3214              		.cfi_endproc
 3215              	.LFE301:
 3216              		.size	mc_interface_get_last_sample_adc_isr_duration, .-mc_interface_get_last_sample_adc_isr_durati
 3217              		.section	.text.mc_interface_sample_print_data,"ax",%progbits
 3218              		.align	1
 3219              		.p2align 4,,15
 3220              		.global	mc_interface_sample_print_data
 3221              		.syntax unified
 3222              		.thumb
 3223              		.thumb_func
 3224              		.fpu fpv4-sp-d16
 3225              		.type	mc_interface_sample_print_data, %function
 3226              	mc_interface_sample_print_data:
 3227              	.LFB302:
 3228              		.loc 1 905 0
 3229              		.cfi_startproc
 3230              		@ args = 0, pretend = 0, frame = 0
 3231              		@ frame_needed = 0, uses_anonymous_args = 0
 3232              	.LVL249:
 3233 0000 B1F5FA6F 		cmp	r1, #2000
 3234 0004 28BF     		it	cs
 3235 0006 4FF4FA61 		movcs	r1, #2000
 3236              	.LVL250:
 3237              		.loc 1 910 0
 3238 000a 0728     		cmp	r0, #7
 3239 000c 0FD0     		beq	.L415
 3240              		.loc 1 905 0
 3241 000e F0B5     		push	{r4, r5, r6, r7, lr}
 3242              		.cfi_def_cfa_offset 20
 3243              		.cfi_offset 4, -20
 3244              		.cfi_offset 5, -16
 3245              		.cfi_offset 6, -12
 3246              		.cfi_offset 7, -8
 3247              		.cfi_offset 14, -4
 3248              		.loc 1 913 0
 3249 0010 094F     		ldr	r7, .L416
ARM GAS  C:\Users\CHRIST~1\AppData\Local\Temp\ccCFoZV9.s 			page 58


 3250              		.loc 1 914 0
 3251 0012 0A4E     		ldr	r6, .L416+4
 3252              		.loc 1 915 0
 3253 0014 0A4D     		ldr	r5, .L416+8
 3254              		.loc 1 916 0
 3255 0016 0B4C     		ldr	r4, .L416+12
 3256              		.loc 1 917 0
 3257 0018 0B4B     		ldr	r3, .L416+16
 3258              		.loc 1 913 0
 3259 001a 4FF0FF3E 		mov	lr, #-1
 3260 001e C7F800E0 		str	lr, [r7]
 3261              		.loc 1 914 0
 3262 0022 0027     		movs	r7, #0
 3263 0024 3760     		str	r7, [r6]
 3264              		.loc 1 915 0
 3265 0026 2960     		str	r1, [r5]
 3266              		.loc 1 916 0
 3267 0028 2260     		str	r2, [r4]
 3268              		.loc 1 917 0
 3269 002a 1870     		strb	r0, [r3]
 3270 002c F0BD     		pop	{r4, r5, r6, r7, pc}
 3271              	.L415:
 3272              		.cfi_def_cfa_offset 0
 3273              		.cfi_restore 4
 3274              		.cfi_restore 5
 3275              		.cfi_restore 6
 3276              		.cfi_restore 7
 3277              		.cfi_restore 14
 3278              		.loc 1 911 0
 3279 002e 074B     		ldr	r3, .L416+20
 3280 0030 0121     		movs	r1, #1
 3281              	.LVL251:
 3282 0032 1868     		ldr	r0, [r3]
 3283              	.LVL252:
 3284 0034 FFF7FEBF 		b	chEvtSignal
 3285              	.LVL253:
 3286              	.L417:
 3287              		.align	2
 3288              	.L416:
 3289 0038 00000000 		.word	.LANCHOR3
 3290 003c 00000000 		.word	.LANCHOR35
 3291 0040 00000000 		.word	.LANCHOR2
 3292 0044 00000000 		.word	.LANCHOR34
 3293 0048 00000000 		.word	.LANCHOR36
 3294 004c 00000000 		.word	.LANCHOR0
 3295              		.cfi_endproc
 3296              	.LFE302:
 3297              		.size	mc_interface_sample_print_data, .-mc_interface_sample_print_data
 3298              		.section	.text.mc_interface_temp_fet_filtered,"ax",%progbits
 3299              		.align	1
 3300              		.p2align 4,,15
 3301              		.global	mc_interface_temp_fet_filtered
 3302              		.syntax unified
 3303              		.thumb
 3304              		.thumb_func
 3305              		.fpu fpv4-sp-d16
 3306              		.type	mc_interface_temp_fet_filtered, %function
ARM GAS  C:\Users\CHRIST~1\AppData\Local\Temp\ccCFoZV9.s 			page 59


 3307              	mc_interface_temp_fet_filtered:
 3308              	.LFB303:
 3309              		.loc 1 928 0
 3310              		.cfi_startproc
 3311              		@ args = 0, pretend = 0, frame = 0
 3312              		@ frame_needed = 0, uses_anonymous_args = 0
 3313              		@ link register save eliminated.
 3314              		.loc 1 929 0
 3315 0000 014B     		ldr	r3, .L419
 3316 0002 93ED000A 		vldr.32	s0, [r3]
 3317              		.loc 1 930 0
 3318 0006 7047     		bx	lr
 3319              	.L420:
 3320              		.align	2
 3321              	.L419:
 3322 0008 00000000 		.word	.LANCHOR32
 3323              		.cfi_endproc
 3324              	.LFE303:
 3325              		.size	mc_interface_temp_fet_filtered, .-mc_interface_temp_fet_filtered
 3326              		.section	.text.mc_interface_temp_motor_filtered,"ax",%progbits
 3327              		.align	1
 3328              		.p2align 4,,15
 3329              		.global	mc_interface_temp_motor_filtered
 3330              		.syntax unified
 3331              		.thumb
 3332              		.thumb_func
 3333              		.fpu fpv4-sp-d16
 3334              		.type	mc_interface_temp_motor_filtered, %function
 3335              	mc_interface_temp_motor_filtered:
 3336              	.LFB304:
 3337              		.loc 1 939 0
 3338              		.cfi_startproc
 3339              		@ args = 0, pretend = 0, frame = 0
 3340              		@ frame_needed = 0, uses_anonymous_args = 0
 3341              		@ link register save eliminated.
 3342              		.loc 1 940 0
 3343 0000 014B     		ldr	r3, .L422
 3344 0002 93ED000A 		vldr.32	s0, [r3]
 3345              		.loc 1 941 0
 3346 0006 7047     		bx	lr
 3347              	.L423:
 3348              		.align	2
 3349              	.L422:
 3350 0008 00000000 		.word	.LANCHOR33
 3351              		.cfi_endproc
 3352              	.LFE304:
 3353              		.size	mc_interface_temp_motor_filtered, .-mc_interface_temp_motor_filtered
 3354              		.section	.text.mc_interface_try_input,"ax",%progbits
 3355              		.align	1
 3356              		.p2align 4,,15
 3357              		.global	mc_interface_try_input
 3358              		.syntax unified
 3359              		.thumb
 3360              		.thumb_func
 3361              		.fpu fpv4-sp-d16
 3362              		.type	mc_interface_try_input, %function
 3363              	mc_interface_try_input:
ARM GAS  C:\Users\CHRIST~1\AppData\Local\Temp\ccCFoZV9.s 			page 60


 3364              	.LFB305:
 3365              		.loc 1 953 0
 3366              		.cfi_startproc
 3367              		@ args = 0, pretend = 0, frame = 0
 3368              		@ frame_needed = 0, uses_anonymous_args = 0
 3369 0000 10B5     		push	{r4, lr}
 3370              		.cfi_def_cfa_offset 8
 3371              		.cfi_offset 4, -8
 3372              		.cfi_offset 14, -4
 3373              		.loc 1 955 0
 3374 0002 FFF7FEFF 		bl	mc_interface_get_state
 3375              	.LVL254:
 3376 0006 0128     		cmp	r0, #1
 3377 0008 24D0     		beq	.L440
 3378              		.loc 1 960 0
 3379 000a 164B     		ldr	r3, .L444
 3380 000c 1C68     		ldr	r4, [r3]
 3381              	.LVL255:
 3382              		.loc 1 962 0
 3383 000e 14B9     		cbnz	r4, .L426
 3384              		.loc 1 962 0 is_stmt 0 discriminator 1
 3385 0010 154B     		ldr	r3, .L444+4
 3386 0012 1B78     		ldrb	r3, [r3]	@ zero_extendqisi2
 3387 0014 63B9     		cbnz	r3, .L441
 3388              	.LVL256:
 3389              	.L426:
 3390              		.loc 1 970 0 is_stmt 1
 3391 0016 154B     		ldr	r3, .L444+8
 3392 0018 9B78     		ldrb	r3, [r3, #2]	@ zero_extendqisi2
 3393 001a DBB2     		uxtb	r3, r3
 3394 001c 012B     		cmp	r3, #1
 3395 001e 11D9     		bls	.L428
 3396              	.L443:
 3397 0020 022B     		cmp	r3, #2
 3398 0022 03D1     		bne	.L424
 3399              		.loc 1 979 0
 3400 0024 FFF7FEFF 		bl	mcpwm_foc_init_done
 3401              	.LVL257:
 3402 0028 00B9     		cbnz	r0, .L424
 3403              	.L430:
 3404              	.LVL258:
 3405              		.loc 1 974 0
 3406 002a 0124     		movs	r4, #1
 3407              	.LVL259:
 3408              	.L424:
 3409              		.loc 1 989 0
 3410 002c 2046     		mov	r0, r4
 3411 002e 10BD     		pop	{r4, pc}
 3412              	.LVL260:
 3413              	.L441:
 3414              		.loc 1 963 0
 3415 0030 0F4B     		ldr	r3, .L444+12
 3416 0032 1A78     		ldrb	r2, [r3]	@ zero_extendqisi2
 3417 0034 62B9     		cbnz	r2, .L442
 3418              		.loc 1 970 0
 3419 0036 0D4B     		ldr	r3, .L444+8
 3420 0038 9B78     		ldrb	r3, [r3, #2]	@ zero_extendqisi2
ARM GAS  C:\Users\CHRIST~1\AppData\Local\Temp\ccCFoZV9.s 			page 61


 3421 003a DBB2     		uxtb	r3, r3
 3422 003c 012B     		cmp	r3, #1
 3423              		.loc 1 964 0
 3424 003e 4FF00104 		mov	r4, #1
 3425              	.LVL261:
 3426              		.loc 1 970 0
 3427 0042 EDD8     		bhi	.L443
 3428              	.L428:
 3429              		.loc 1 973 0
 3430 0044 FFF7FEFF 		bl	mcpwm_init_done
 3431              	.LVL262:
 3432 0048 0028     		cmp	r0, #0
 3433 004a EED0     		beq	.L430
 3434              		.loc 1 989 0
 3435 004c 2046     		mov	r0, r4
 3436 004e 10BD     		pop	{r4, pc}
 3437              	.LVL263:
 3438              	.L442:
 3439              		.loc 1 966 0
 3440 0050 1C70     		strb	r4, [r3]
 3441 0052 E0E7     		b	.L426
 3442              	.LVL264:
 3443              	.L440:
 3444              		.loc 1 956 0
 3445 0054 FFF7FEFF 		bl	mcpwm_stop_pwm
 3446              	.LVL265:
 3447              		.loc 1 957 0
 3448 0058 024B     		ldr	r3, .L444
 3449 005a 4FF4FA74 		mov	r4, #500
 3450 005e 1C60     		str	r4, [r3]
 3451              	.LVL266:
 3452 0060 D9E7     		b	.L426
 3453              	.L445:
 3454 0062 00BF     		.align	2
 3455              	.L444:
 3456 0064 00000000 		.word	.LANCHOR14
 3457 0068 00000000 		.word	.LANCHOR16
 3458 006c 00000000 		.word	.LANCHOR12
 3459 0070 00000000 		.word	.LANCHOR17
 3460              		.cfi_endproc
 3461              	.LFE305:
 3462              		.size	mc_interface_try_input, .-mc_interface_try_input
 3463              		.section	.text.mc_interface_set_duty,"ax",%progbits
 3464              		.align	1
 3465              		.p2align 4,,15
 3466              		.global	mc_interface_set_duty
 3467              		.syntax unified
 3468              		.thumb
 3469              		.thumb_func
 3470              		.fpu fpv4-sp-d16
 3471              		.type	mc_interface_set_duty, %function
 3472              	mc_interface_set_duty:
 3473              	.LFB267:
 3474              		.loc 1 320 0
 3475              		.cfi_startproc
 3476              		@ args = 0, pretend = 0, frame = 0
 3477              		@ frame_needed = 0, uses_anonymous_args = 0
ARM GAS  C:\Users\CHRIST~1\AppData\Local\Temp\ccCFoZV9.s 			page 62


 3478              	.LVL267:
 3479 0000 08B5     		push	{r3, lr}
 3480              		.cfi_def_cfa_offset 8
 3481              		.cfi_offset 3, -8
 3482              		.cfi_offset 14, -4
 3483 0002 2DED028B 		vpush.64	{d8}
 3484              		.cfi_def_cfa_offset 16
 3485              		.cfi_offset 80, -16
 3486              		.cfi_offset 81, -12
 3487              		.loc 1 320 0
 3488 0006 B0EE408A 		vmov.f32	s16, s0
 3489              		.loc 1 321 0
 3490 000a FFF7FEFF 		bl	mc_interface_try_input
 3491              	.LVL268:
 3492 000e C0B9     		cbnz	r0, .L446
 3493              		.loc 1 325 0
 3494 0010 164A     		ldr	r2, .L455
 3495 0012 9378     		ldrb	r3, [r2, #2]	@ zero_extendqisi2
 3496 0014 DBB2     		uxtb	r3, r3
 3497 0016 012B     		cmp	r3, #1
 3498 0018 16D9     		bls	.L448
 3499 001a 022B     		cmp	r3, #2
 3500 001c 11D1     		bne	.L446
 3501              		.loc 1 332 0
 3502 001e 92F85931 		ldrb	r3, [r2, #345]	@ zero_extendqisi2
 3503 0022 BFEE000A 		vmov.f32	s0, #-1.0e+0
 3504 0026 002B     		cmp	r3, #0
 3505 0028 F7EE007A 		vmov.f32	s15, #1.0e+0
 3506 002c 08BF     		it	eq
 3507 002e B0EE670A 		vmoveq.f32	s0, s15
 3508 0032 20EE080A 		vmul.f32	s0, s0, s16
 3509              		.loc 1 338 0
 3510 0036 BDEC028B 		vldm	sp!, {d8}
 3511              		.cfi_remember_state
 3512              		.cfi_restore 80
 3513              		.cfi_restore 81
 3514              		.cfi_def_cfa_offset 8
 3515              	.LVL269:
 3516 003a BDE80840 		pop	{r3, lr}
 3517              		.cfi_restore 14
 3518              		.cfi_restore 3
 3519              		.cfi_def_cfa_offset 0
 3520              		.loc 1 332 0
 3521 003e FFF7FEBF 		b	mcpwm_foc_set_duty
 3522              	.LVL270:
 3523              	.L446:
 3524              		.cfi_restore_state
 3525              		.loc 1 338 0
 3526 0042 BDEC028B 		vldm	sp!, {d8}
 3527              		.cfi_remember_state
 3528              		.cfi_restore 80
 3529              		.cfi_restore 81
 3530              		.cfi_def_cfa_offset 8
 3531              	.LVL271:
 3532 0046 08BD     		pop	{r3, pc}
 3533              	.LVL272:
 3534              	.L448:
ARM GAS  C:\Users\CHRIST~1\AppData\Local\Temp\ccCFoZV9.s 			page 63


 3535              		.cfi_restore_state
 3536              	.LBB160:
 3537              	.LBB161:
 3538              		.loc 1 328 0
 3539 0048 92F85931 		ldrb	r3, [r2, #345]	@ zero_extendqisi2
 3540 004c BFEE000A 		vmov.f32	s0, #-1.0e+0
 3541 0050 002B     		cmp	r3, #0
 3542 0052 F7EE007A 		vmov.f32	s15, #1.0e+0
 3543 0056 08BF     		it	eq
 3544 0058 B0EE670A 		vmoveq.f32	s0, s15
 3545 005c 28EE000A 		vmul.f32	s0, s16, s0
 3546              	.LBE161:
 3547              	.LBE160:
 3548              		.loc 1 338 0
 3549 0060 BDEC028B 		vldm	sp!, {d8}
 3550              		.cfi_restore 80
 3551              		.cfi_restore 81
 3552              		.cfi_def_cfa_offset 8
 3553              	.LVL273:
 3554 0064 BDE80840 		pop	{r3, lr}
 3555              		.cfi_restore 14
 3556              		.cfi_restore 3
 3557              		.cfi_def_cfa_offset 0
 3558              	.LBB163:
 3559              	.LBB162:
 3560              		.loc 1 328 0
 3561 0068 FFF7FEBF 		b	mcpwm_set_duty
 3562              	.LVL274:
 3563              	.L456:
 3564              		.align	2
 3565              	.L455:
 3566 006c 00000000 		.word	.LANCHOR12
 3567              	.LBE162:
 3568              	.LBE163:
 3569              		.cfi_endproc
 3570              	.LFE267:
 3571              		.size	mc_interface_set_duty, .-mc_interface_set_duty
 3572              		.section	.text.mc_interface_brake_now,"ax",%progbits
 3573              		.align	1
 3574              		.p2align 4,,15
 3575              		.global	mc_interface_brake_now
 3576              		.syntax unified
 3577              		.thumb
 3578              		.thumb_func
 3579              		.fpu fpv4-sp-d16
 3580              		.type	mc_interface_brake_now, %function
 3581              	mc_interface_brake_now:
 3582              	.LFB276:
 3583              		.loc 1 487 0
 3584              		.cfi_startproc
 3585              		@ args = 0, pretend = 0, frame = 0
 3586              		@ frame_needed = 0, uses_anonymous_args = 0
 3587              		@ link register save eliminated.
 3588              		.loc 1 488 0
 3589 0000 9FED010A 		vldr.32	s0, .L458
 3590 0004 FFF7FEBF 		b	mc_interface_set_duty
 3591              	.LVL275:
ARM GAS  C:\Users\CHRIST~1\AppData\Local\Temp\ccCFoZV9.s 			page 64


 3592              	.L459:
 3593              		.align	2
 3594              	.L458:
 3595 0008 00000000 		.word	0
 3596              		.cfi_endproc
 3597              	.LFE276:
 3598              		.size	mc_interface_brake_now, .-mc_interface_brake_now
 3599              		.section	.text.mc_interface_set_duty_noramp,"ax",%progbits
 3600              		.align	1
 3601              		.p2align 4,,15
 3602              		.global	mc_interface_set_duty_noramp
 3603              		.syntax unified
 3604              		.thumb
 3605              		.thumb_func
 3606              		.fpu fpv4-sp-d16
 3607              		.type	mc_interface_set_duty_noramp, %function
 3608              	mc_interface_set_duty_noramp:
 3609              	.LFB268:
 3610              		.loc 1 340 0
 3611              		.cfi_startproc
 3612              		@ args = 0, pretend = 0, frame = 0
 3613              		@ frame_needed = 0, uses_anonymous_args = 0
 3614              	.LVL276:
 3615 0000 08B5     		push	{r3, lr}
 3616              		.cfi_def_cfa_offset 8
 3617              		.cfi_offset 3, -8
 3618              		.cfi_offset 14, -4
 3619 0002 2DED028B 		vpush.64	{d8}
 3620              		.cfi_def_cfa_offset 16
 3621              		.cfi_offset 80, -16
 3622              		.cfi_offset 81, -12
 3623              		.loc 1 340 0
 3624 0006 B0EE408A 		vmov.f32	s16, s0
 3625              		.loc 1 341 0
 3626 000a FFF7FEFF 		bl	mc_interface_try_input
 3627              	.LVL277:
 3628 000e C0B9     		cbnz	r0, .L460
 3629              		.loc 1 345 0
 3630 0010 164A     		ldr	r2, .L469
 3631 0012 9378     		ldrb	r3, [r2, #2]	@ zero_extendqisi2
 3632 0014 DBB2     		uxtb	r3, r3
 3633 0016 012B     		cmp	r3, #1
 3634 0018 16D9     		bls	.L462
 3635 001a 022B     		cmp	r3, #2
 3636 001c 11D1     		bne	.L460
 3637              		.loc 1 352 0
 3638 001e 92F85931 		ldrb	r3, [r2, #345]	@ zero_extendqisi2
 3639 0022 BFEE000A 		vmov.f32	s0, #-1.0e+0
 3640 0026 002B     		cmp	r3, #0
 3641 0028 F7EE007A 		vmov.f32	s15, #1.0e+0
 3642 002c 08BF     		it	eq
 3643 002e B0EE670A 		vmoveq.f32	s0, s15
 3644 0032 20EE080A 		vmul.f32	s0, s0, s16
 3645              		.loc 1 358 0
 3646 0036 BDEC028B 		vldm	sp!, {d8}
 3647              		.cfi_remember_state
 3648              		.cfi_restore 80
ARM GAS  C:\Users\CHRIST~1\AppData\Local\Temp\ccCFoZV9.s 			page 65


 3649              		.cfi_restore 81
 3650              		.cfi_def_cfa_offset 8
 3651              	.LVL278:
 3652 003a BDE80840 		pop	{r3, lr}
 3653              		.cfi_restore 14
 3654              		.cfi_restore 3
 3655              		.cfi_def_cfa_offset 0
 3656              		.loc 1 352 0
 3657 003e FFF7FEBF 		b	mcpwm_foc_set_duty_noramp
 3658              	.LVL279:
 3659              	.L460:
 3660              		.cfi_restore_state
 3661              		.loc 1 358 0
 3662 0042 BDEC028B 		vldm	sp!, {d8}
 3663              		.cfi_remember_state
 3664              		.cfi_restore 80
 3665              		.cfi_restore 81
 3666              		.cfi_def_cfa_offset 8
 3667              	.LVL280:
 3668 0046 08BD     		pop	{r3, pc}
 3669              	.LVL281:
 3670              	.L462:
 3671              		.cfi_restore_state
 3672              		.loc 1 348 0
 3673 0048 92F85931 		ldrb	r3, [r2, #345]	@ zero_extendqisi2
 3674 004c BFEE000A 		vmov.f32	s0, #-1.0e+0
 3675 0050 002B     		cmp	r3, #0
 3676 0052 F7EE007A 		vmov.f32	s15, #1.0e+0
 3677 0056 08BF     		it	eq
 3678 0058 B0EE670A 		vmoveq.f32	s0, s15
 3679 005c 20EE080A 		vmul.f32	s0, s0, s16
 3680              		.loc 1 358 0
 3681 0060 BDEC028B 		vldm	sp!, {d8}
 3682              		.cfi_restore 80
 3683              		.cfi_restore 81
 3684              		.cfi_def_cfa_offset 8
 3685              	.LVL282:
 3686 0064 BDE80840 		pop	{r3, lr}
 3687              		.cfi_restore 14
 3688              		.cfi_restore 3
 3689              		.cfi_def_cfa_offset 0
 3690              		.loc 1 348 0
 3691 0068 FFF7FEBF 		b	mcpwm_set_duty_noramp
 3692              	.LVL283:
 3693              	.L470:
 3694              		.align	2
 3695              	.L469:
 3696 006c 00000000 		.word	.LANCHOR12
 3697              		.cfi_endproc
 3698              	.LFE268:
 3699              		.size	mc_interface_set_duty_noramp, .-mc_interface_set_duty_noramp
 3700              		.section	.text.mc_interface_set_pid_speed,"ax",%progbits
 3701              		.align	1
 3702              		.p2align 4,,15
 3703              		.global	mc_interface_set_pid_speed
 3704              		.syntax unified
 3705              		.thumb
ARM GAS  C:\Users\CHRIST~1\AppData\Local\Temp\ccCFoZV9.s 			page 66


 3706              		.thumb_func
 3707              		.fpu fpv4-sp-d16
 3708              		.type	mc_interface_set_pid_speed, %function
 3709              	mc_interface_set_pid_speed:
 3710              	.LFB269:
 3711              		.loc 1 360 0
 3712              		.cfi_startproc
 3713              		@ args = 0, pretend = 0, frame = 0
 3714              		@ frame_needed = 0, uses_anonymous_args = 0
 3715              	.LVL284:
 3716 0000 08B5     		push	{r3, lr}
 3717              		.cfi_def_cfa_offset 8
 3718              		.cfi_offset 3, -8
 3719              		.cfi_offset 14, -4
 3720 0002 2DED028B 		vpush.64	{d8}
 3721              		.cfi_def_cfa_offset 16
 3722              		.cfi_offset 80, -16
 3723              		.cfi_offset 81, -12
 3724              		.loc 1 360 0
 3725 0006 B0EE408A 		vmov.f32	s16, s0
 3726              		.loc 1 361 0
 3727 000a FFF7FEFF 		bl	mc_interface_try_input
 3728              	.LVL285:
 3729 000e C0B9     		cbnz	r0, .L471
 3730              		.loc 1 365 0
 3731 0010 164A     		ldr	r2, .L480
 3732 0012 9378     		ldrb	r3, [r2, #2]	@ zero_extendqisi2
 3733 0014 DBB2     		uxtb	r3, r3
 3734 0016 012B     		cmp	r3, #1
 3735 0018 16D9     		bls	.L473
 3736 001a 022B     		cmp	r3, #2
 3737 001c 11D1     		bne	.L471
 3738              		.loc 1 372 0
 3739 001e 92F85931 		ldrb	r3, [r2, #345]	@ zero_extendqisi2
 3740 0022 BFEE000A 		vmov.f32	s0, #-1.0e+0
 3741 0026 002B     		cmp	r3, #0
 3742 0028 F7EE007A 		vmov.f32	s15, #1.0e+0
 3743 002c 08BF     		it	eq
 3744 002e B0EE670A 		vmoveq.f32	s0, s15
 3745 0032 20EE080A 		vmul.f32	s0, s0, s16
 3746              		.loc 1 378 0
 3747 0036 BDEC028B 		vldm	sp!, {d8}
 3748              		.cfi_remember_state
 3749              		.cfi_restore 80
 3750              		.cfi_restore 81
 3751              		.cfi_def_cfa_offset 8
 3752              	.LVL286:
 3753 003a BDE80840 		pop	{r3, lr}
 3754              		.cfi_restore 14
 3755              		.cfi_restore 3
 3756              		.cfi_def_cfa_offset 0
 3757              		.loc 1 372 0
 3758 003e FFF7FEBF 		b	mcpwm_foc_set_pid_speed
 3759              	.LVL287:
 3760              	.L471:
 3761              		.cfi_restore_state
 3762              		.loc 1 378 0
ARM GAS  C:\Users\CHRIST~1\AppData\Local\Temp\ccCFoZV9.s 			page 67


 3763 0042 BDEC028B 		vldm	sp!, {d8}
 3764              		.cfi_remember_state
 3765              		.cfi_restore 80
 3766              		.cfi_restore 81
 3767              		.cfi_def_cfa_offset 8
 3768              	.LVL288:
 3769 0046 08BD     		pop	{r3, pc}
 3770              	.LVL289:
 3771              	.L473:
 3772              		.cfi_restore_state
 3773              		.loc 1 368 0
 3774 0048 92F85931 		ldrb	r3, [r2, #345]	@ zero_extendqisi2
 3775 004c BFEE000A 		vmov.f32	s0, #-1.0e+0
 3776 0050 002B     		cmp	r3, #0
 3777 0052 F7EE007A 		vmov.f32	s15, #1.0e+0
 3778 0056 08BF     		it	eq
 3779 0058 B0EE670A 		vmoveq.f32	s0, s15
 3780 005c 20EE080A 		vmul.f32	s0, s0, s16
 3781              		.loc 1 378 0
 3782 0060 BDEC028B 		vldm	sp!, {d8}
 3783              		.cfi_restore 80
 3784              		.cfi_restore 81
 3785              		.cfi_def_cfa_offset 8
 3786              	.LVL290:
 3787 0064 BDE80840 		pop	{r3, lr}
 3788              		.cfi_restore 14
 3789              		.cfi_restore 3
 3790              		.cfi_def_cfa_offset 0
 3791              		.loc 1 368 0
 3792 0068 FFF7FEBF 		b	mcpwm_set_pid_speed
 3793              	.LVL291:
 3794              	.L481:
 3795              		.align	2
 3796              	.L480:
 3797 006c 00000000 		.word	.LANCHOR12
 3798              		.cfi_endproc
 3799              	.LFE269:
 3800              		.size	mc_interface_set_pid_speed, .-mc_interface_set_pid_speed
 3801              		.section	.text.mc_interface_set_pid_pos,"ax",%progbits
 3802              		.align	1
 3803              		.p2align 4,,15
 3804              		.global	mc_interface_set_pid_pos
 3805              		.syntax unified
 3806              		.thumb
 3807              		.thumb_func
 3808              		.fpu fpv4-sp-d16
 3809              		.type	mc_interface_set_pid_pos, %function
 3810              	mc_interface_set_pid_pos:
 3811              	.LFB270:
 3812              		.loc 1 380 0
 3813              		.cfi_startproc
 3814              		@ args = 0, pretend = 0, frame = 0
 3815              		@ frame_needed = 0, uses_anonymous_args = 0
 3816              	.LVL292:
 3817 0000 08B5     		push	{r3, lr}
 3818              		.cfi_def_cfa_offset 8
 3819              		.cfi_offset 3, -8
ARM GAS  C:\Users\CHRIST~1\AppData\Local\Temp\ccCFoZV9.s 			page 68


 3820              		.cfi_offset 14, -4
 3821 0002 2DED028B 		vpush.64	{d8}
 3822              		.cfi_def_cfa_offset 16
 3823              		.cfi_offset 80, -16
 3824              		.cfi_offset 81, -12
 3825              		.loc 1 380 0
 3826 0006 B0EE408A 		vmov.f32	s16, s0
 3827              		.loc 1 381 0
 3828 000a FFF7FEFF 		bl	mc_interface_try_input
 3829              	.LVL293:
 3830 000e E8B9     		cbnz	r0, .L482
 3831              		.loc 1 385 0
 3832 0010 1A4A     		ldr	r2, .L491
 3833              		.loc 1 387 0
 3834 0012 1B49     		ldr	r1, .L491+4
 3835              		.loc 1 385 0
 3836 0014 82ED008A 		vstr.32	s16, [r2]
 3837              		.loc 1 387 0
 3838 0018 8B78     		ldrb	r3, [r1, #2]	@ zero_extendqisi2
 3839 001a DBB2     		uxtb	r3, r3
 3840 001c 012B     		cmp	r3, #1
 3841 001e 18D9     		bls	.L484
 3842 0020 022B     		cmp	r3, #2
 3843 0022 13D1     		bne	.L482
 3844              		.loc 1 400 0
 3845 0024 BDEC028B 		vldm	sp!, {d8}
 3846              		.cfi_remember_state
 3847              		.cfi_restore 80
 3848              		.cfi_restore 81
 3849              		.cfi_def_cfa_offset 8
 3850              	.LVL294:
 3851              		.loc 1 394 0
 3852 0028 91F85931 		ldrb	r3, [r1, #345]	@ zero_extendqisi2
 3853 002c 92ED000A 		vldr.32	s0, [r2]
 3854 0030 002B     		cmp	r3, #0
 3855 0032 FFEE007A 		vmov.f32	s15, #-1.0e+0
 3856 0036 B7EE007A 		vmov.f32	s14, #1.0e+0
 3857 003a 08BF     		it	eq
 3858 003c F0EE477A 		vmoveq.f32	s15, s14
 3859 0040 27EE800A 		vmul.f32	s0, s15, s0
 3860              		.loc 1 400 0
 3861 0044 BDE80840 		pop	{r3, lr}
 3862              		.cfi_restore 14
 3863              		.cfi_restore 3
 3864              		.cfi_def_cfa_offset 0
 3865              		.loc 1 394 0
 3866 0048 FFF7FEBF 		b	mcpwm_foc_set_pid_pos
 3867              	.LVL295:
 3868              	.L482:
 3869              		.cfi_restore_state
 3870              		.loc 1 400 0
 3871 004c BDEC028B 		vldm	sp!, {d8}
 3872              		.cfi_remember_state
 3873              		.cfi_restore 80
 3874              		.cfi_restore 81
 3875              		.cfi_def_cfa_offset 8
 3876              	.LVL296:
ARM GAS  C:\Users\CHRIST~1\AppData\Local\Temp\ccCFoZV9.s 			page 69


 3877 0050 08BD     		pop	{r3, pc}
 3878              	.LVL297:
 3879              	.L484:
 3880              		.cfi_restore_state
 3881 0052 BDEC028B 		vldm	sp!, {d8}
 3882              		.cfi_restore 80
 3883              		.cfi_restore 81
 3884              		.cfi_def_cfa_offset 8
 3885              	.LVL298:
 3886              		.loc 1 390 0
 3887 0056 91F85931 		ldrb	r3, [r1, #345]	@ zero_extendqisi2
 3888 005a 92ED000A 		vldr.32	s0, [r2]
 3889 005e 002B     		cmp	r3, #0
 3890 0060 FFEE007A 		vmov.f32	s15, #-1.0e+0
 3891 0064 B7EE007A 		vmov.f32	s14, #1.0e+0
 3892 0068 08BF     		it	eq
 3893 006a F0EE477A 		vmoveq.f32	s15, s14
 3894 006e 27EE800A 		vmul.f32	s0, s15, s0
 3895              		.loc 1 400 0
 3896 0072 BDE80840 		pop	{r3, lr}
 3897              		.cfi_restore 14
 3898              		.cfi_restore 3
 3899              		.cfi_def_cfa_offset 0
 3900              		.loc 1 390 0
 3901 0076 FFF7FEBF 		b	mcpwm_set_pid_pos
 3902              	.LVL299:
 3903              	.L492:
 3904 007a 00BF     		.align	2
 3905              	.L491:
 3906 007c 00000000 		.word	.LANCHOR30
 3907 0080 00000000 		.word	.LANCHOR12
 3908              		.cfi_endproc
 3909              	.LFE270:
 3910              		.size	mc_interface_set_pid_pos, .-mc_interface_set_pid_pos
 3911              		.section	.text.mc_interface_set_current,"ax",%progbits
 3912              		.align	1
 3913              		.p2align 4,,15
 3914              		.global	mc_interface_set_current
 3915              		.syntax unified
 3916              		.thumb
 3917              		.thumb_func
 3918              		.fpu fpv4-sp-d16
 3919              		.type	mc_interface_set_current, %function
 3920              	mc_interface_set_current:
 3921              	.LFB271:
 3922              		.loc 1 402 0
 3923              		.cfi_startproc
 3924              		@ args = 0, pretend = 0, frame = 0
 3925              		@ frame_needed = 0, uses_anonymous_args = 0
 3926              	.LVL300:
 3927 0000 08B5     		push	{r3, lr}
 3928              		.cfi_def_cfa_offset 8
 3929              		.cfi_offset 3, -8
 3930              		.cfi_offset 14, -4
 3931 0002 2DED028B 		vpush.64	{d8}
 3932              		.cfi_def_cfa_offset 16
 3933              		.cfi_offset 80, -16
ARM GAS  C:\Users\CHRIST~1\AppData\Local\Temp\ccCFoZV9.s 			page 70


 3934              		.cfi_offset 81, -12
 3935              		.loc 1 402 0
 3936 0006 B0EE408A 		vmov.f32	s16, s0
 3937              		.loc 1 403 0
 3938 000a FFF7FEFF 		bl	mc_interface_try_input
 3939              	.LVL301:
 3940 000e C0B9     		cbnz	r0, .L493
 3941              		.loc 1 407 0
 3942 0010 164A     		ldr	r2, .L502
 3943 0012 9378     		ldrb	r3, [r2, #2]	@ zero_extendqisi2
 3944 0014 DBB2     		uxtb	r3, r3
 3945 0016 012B     		cmp	r3, #1
 3946 0018 16D9     		bls	.L495
 3947 001a 022B     		cmp	r3, #2
 3948 001c 11D1     		bne	.L493
 3949              		.loc 1 414 0
 3950 001e 92F85931 		ldrb	r3, [r2, #345]	@ zero_extendqisi2
 3951 0022 BFEE000A 		vmov.f32	s0, #-1.0e+0
 3952 0026 002B     		cmp	r3, #0
 3953 0028 F7EE007A 		vmov.f32	s15, #1.0e+0
 3954 002c 08BF     		it	eq
 3955 002e B0EE670A 		vmoveq.f32	s0, s15
 3956 0032 20EE080A 		vmul.f32	s0, s0, s16
 3957              		.loc 1 420 0
 3958 0036 BDEC028B 		vldm	sp!, {d8}
 3959              		.cfi_remember_state
 3960              		.cfi_restore 80
 3961              		.cfi_restore 81
 3962              		.cfi_def_cfa_offset 8
 3963              	.LVL302:
 3964 003a BDE80840 		pop	{r3, lr}
 3965              		.cfi_restore 14
 3966              		.cfi_restore 3
 3967              		.cfi_def_cfa_offset 0
 3968              		.loc 1 414 0
 3969 003e FFF7FEBF 		b	mcpwm_foc_set_current
 3970              	.LVL303:
 3971              	.L493:
 3972              		.cfi_restore_state
 3973              		.loc 1 420 0
 3974 0042 BDEC028B 		vldm	sp!, {d8}
 3975              		.cfi_remember_state
 3976              		.cfi_restore 80
 3977              		.cfi_restore 81
 3978              		.cfi_def_cfa_offset 8
 3979              	.LVL304:
 3980 0046 08BD     		pop	{r3, pc}
 3981              	.LVL305:
 3982              	.L495:
 3983              		.cfi_restore_state
 3984              	.LBB166:
 3985              	.LBB167:
 3986              		.loc 1 410 0
 3987 0048 92F85931 		ldrb	r3, [r2, #345]	@ zero_extendqisi2
 3988 004c BFEE000A 		vmov.f32	s0, #-1.0e+0
 3989 0050 002B     		cmp	r3, #0
 3990 0052 F7EE007A 		vmov.f32	s15, #1.0e+0
ARM GAS  C:\Users\CHRIST~1\AppData\Local\Temp\ccCFoZV9.s 			page 71


 3991 0056 08BF     		it	eq
 3992 0058 B0EE670A 		vmoveq.f32	s0, s15
 3993 005c 28EE000A 		vmul.f32	s0, s16, s0
 3994              	.LBE167:
 3995              	.LBE166:
 3996              		.loc 1 420 0
 3997 0060 BDEC028B 		vldm	sp!, {d8}
 3998              		.cfi_restore 80
 3999              		.cfi_restore 81
 4000              		.cfi_def_cfa_offset 8
 4001              	.LVL306:
 4002 0064 BDE80840 		pop	{r3, lr}
 4003              		.cfi_restore 14
 4004              		.cfi_restore 3
 4005              		.cfi_def_cfa_offset 0
 4006              	.LBB169:
 4007              	.LBB168:
 4008              		.loc 1 410 0
 4009 0068 FFF7FEBF 		b	mcpwm_set_current
 4010              	.LVL307:
 4011              	.L503:
 4012              		.align	2
 4013              	.L502:
 4014 006c 00000000 		.word	.LANCHOR12
 4015              	.LBE168:
 4016              	.LBE169:
 4017              		.cfi_endproc
 4018              	.LFE271:
 4019              		.size	mc_interface_set_current, .-mc_interface_set_current
 4020              		.section	.text.mc_interface_set_current_rel,"ax",%progbits
 4021              		.align	1
 4022              		.p2align 4,,15
 4023              		.global	mc_interface_set_current_rel
 4024              		.syntax unified
 4025              		.thumb
 4026              		.thumb_func
 4027              		.fpu fpv4-sp-d16
 4028              		.type	mc_interface_set_current_rel, %function
 4029              	mc_interface_set_current_rel:
 4030              	.LFB273:
 4031              		.loc 1 448 0
 4032              		.cfi_startproc
 4033              		@ args = 0, pretend = 0, frame = 0
 4034              		@ frame_needed = 0, uses_anonymous_args = 0
 4035              		@ link register save eliminated.
 4036              	.LVL308:
 4037              		.loc 1 449 0
 4038 0000 B5EEC00A 		vcmpe.f32	s0, #0
 4039 0004 F1EE10FA 		vmrs	APSR_nzcv, FPSCR
 4040              		.loc 1 450 0
 4041 0008 074B     		ldr	r3, .L509
 4042              		.loc 1 449 0
 4043 000a 05DD     		ble	.L508
 4044              		.loc 1 450 0
 4045 000c D3ED1C7A 		vldr.32	s15, [r3, #112]
 4046 0010 20EE270A 		vmul.f32	s0, s0, s15
 4047              	.LVL309:
ARM GAS  C:\Users\CHRIST~1\AppData\Local\Temp\ccCFoZV9.s 			page 72


 4048 0014 FFF7FEBF 		b	mc_interface_set_current
 4049              	.LVL310:
 4050              	.L508:
 4051              		.loc 1 452 0
 4052 0018 D3ED1D7A 		vldr.32	s15, [r3, #116]
 4053 001c F0EEE77A 		vabs.f32	s15, s15
 4054 0020 27EE800A 		vmul.f32	s0, s15, s0
 4055              	.LVL311:
 4056 0024 FFF7FEBF 		b	mc_interface_set_current
 4057              	.LVL312:
 4058              	.L510:
 4059              		.align	2
 4060              	.L509:
 4061 0028 00000000 		.word	.LANCHOR12
 4062              		.cfi_endproc
 4063              	.LFE273:
 4064              		.size	mc_interface_set_current_rel, .-mc_interface_set_current_rel
 4065              		.section	.text.mc_interface_release_motor,"ax",%progbits
 4066              		.align	1
 4067              		.p2align 4,,15
 4068              		.global	mc_interface_release_motor
 4069              		.syntax unified
 4070              		.thumb
 4071              		.thumb_func
 4072              		.fpu fpv4-sp-d16
 4073              		.type	mc_interface_release_motor, %function
 4074              	mc_interface_release_motor:
 4075              	.LFB277:
 4076              		.loc 1 494 0
 4077              		.cfi_startproc
 4078              		@ args = 0, pretend = 0, frame = 0
 4079              		@ frame_needed = 0, uses_anonymous_args = 0
 4080              		@ link register save eliminated.
 4081              		.loc 1 495 0
 4082 0000 9FED010A 		vldr.32	s0, .L512
 4083 0004 FFF7FEBF 		b	mc_interface_set_current
 4084              	.LVL313:
 4085              	.L513:
 4086              		.align	2
 4087              	.L512:
 4088 0008 00000000 		.word	0
 4089              		.cfi_endproc
 4090              	.LFE277:
 4091              		.size	mc_interface_release_motor, .-mc_interface_release_motor
 4092              		.section	.text.mc_interface_set_brake_current,"ax",%progbits
 4093              		.align	1
 4094              		.p2align 4,,15
 4095              		.global	mc_interface_set_brake_current
 4096              		.syntax unified
 4097              		.thumb
 4098              		.thumb_func
 4099              		.fpu fpv4-sp-d16
 4100              		.type	mc_interface_set_brake_current, %function
 4101              	mc_interface_set_brake_current:
 4102              	.LFB272:
 4103              		.loc 1 422 0
 4104              		.cfi_startproc
ARM GAS  C:\Users\CHRIST~1\AppData\Local\Temp\ccCFoZV9.s 			page 73


 4105              		@ args = 0, pretend = 0, frame = 0
 4106              		@ frame_needed = 0, uses_anonymous_args = 0
 4107              	.LVL314:
 4108 0000 08B5     		push	{r3, lr}
 4109              		.cfi_def_cfa_offset 8
 4110              		.cfi_offset 3, -8
 4111              		.cfi_offset 14, -4
 4112 0002 2DED028B 		vpush.64	{d8}
 4113              		.cfi_def_cfa_offset 16
 4114              		.cfi_offset 80, -16
 4115              		.cfi_offset 81, -12
 4116              		.loc 1 422 0
 4117 0006 B0EE408A 		vmov.f32	s16, s0
 4118              		.loc 1 423 0
 4119 000a FFF7FEFF 		bl	mc_interface_try_input
 4120              	.LVL315:
 4121 000e C0B9     		cbnz	r0, .L514
 4122              		.loc 1 427 0
 4123 0010 164A     		ldr	r2, .L523
 4124 0012 9378     		ldrb	r3, [r2, #2]	@ zero_extendqisi2
 4125 0014 DBB2     		uxtb	r3, r3
 4126 0016 012B     		cmp	r3, #1
 4127 0018 16D9     		bls	.L516
 4128 001a 022B     		cmp	r3, #2
 4129 001c 11D1     		bne	.L514
 4130              		.loc 1 434 0
 4131 001e 92F85931 		ldrb	r3, [r2, #345]	@ zero_extendqisi2
 4132 0022 BFEE000A 		vmov.f32	s0, #-1.0e+0
 4133 0026 002B     		cmp	r3, #0
 4134 0028 F7EE007A 		vmov.f32	s15, #1.0e+0
 4135 002c 08BF     		it	eq
 4136 002e B0EE670A 		vmoveq.f32	s0, s15
 4137 0032 20EE080A 		vmul.f32	s0, s0, s16
 4138              		.loc 1 440 0
 4139 0036 BDEC028B 		vldm	sp!, {d8}
 4140              		.cfi_remember_state
 4141              		.cfi_restore 80
 4142              		.cfi_restore 81
 4143              		.cfi_def_cfa_offset 8
 4144              	.LVL316:
 4145 003a BDE80840 		pop	{r3, lr}
 4146              		.cfi_restore 14
 4147              		.cfi_restore 3
 4148              		.cfi_def_cfa_offset 0
 4149              		.loc 1 434 0
 4150 003e FFF7FEBF 		b	mcpwm_foc_set_brake_current
 4151              	.LVL317:
 4152              	.L514:
 4153              		.cfi_restore_state
 4154              		.loc 1 440 0
 4155 0042 BDEC028B 		vldm	sp!, {d8}
 4156              		.cfi_remember_state
 4157              		.cfi_restore 80
 4158              		.cfi_restore 81
 4159              		.cfi_def_cfa_offset 8
 4160              	.LVL318:
 4161 0046 08BD     		pop	{r3, pc}
ARM GAS  C:\Users\CHRIST~1\AppData\Local\Temp\ccCFoZV9.s 			page 74


 4162              	.LVL319:
 4163              	.L516:
 4164              		.cfi_restore_state
 4165              	.LBB172:
 4166              	.LBB173:
 4167              		.loc 1 430 0
 4168 0048 92F85931 		ldrb	r3, [r2, #345]	@ zero_extendqisi2
 4169 004c BFEE000A 		vmov.f32	s0, #-1.0e+0
 4170 0050 002B     		cmp	r3, #0
 4171 0052 F7EE007A 		vmov.f32	s15, #1.0e+0
 4172 0056 08BF     		it	eq
 4173 0058 B0EE670A 		vmoveq.f32	s0, s15
 4174 005c 28EE000A 		vmul.f32	s0, s16, s0
 4175              	.LBE173:
 4176              	.LBE172:
 4177              		.loc 1 440 0
 4178 0060 BDEC028B 		vldm	sp!, {d8}
 4179              		.cfi_restore 80
 4180              		.cfi_restore 81
 4181              		.cfi_def_cfa_offset 8
 4182              	.LVL320:
 4183 0064 BDE80840 		pop	{r3, lr}
 4184              		.cfi_restore 14
 4185              		.cfi_restore 3
 4186              		.cfi_def_cfa_offset 0
 4187              	.LBB175:
 4188              	.LBB174:
 4189              		.loc 1 430 0
 4190 0068 FFF7FEBF 		b	mcpwm_set_brake_current
 4191              	.LVL321:
 4192              	.L524:
 4193              		.align	2
 4194              	.L523:
 4195 006c 00000000 		.word	.LANCHOR12
 4196              	.LBE174:
 4197              	.LBE175:
 4198              		.cfi_endproc
 4199              	.LFE272:
 4200              		.size	mc_interface_set_brake_current, .-mc_interface_set_brake_current
 4201              		.section	.text.mc_interface_set_brake_current_rel,"ax",%progbits
 4202              		.align	1
 4203              		.p2align 4,,15
 4204              		.global	mc_interface_set_brake_current_rel
 4205              		.syntax unified
 4206              		.thumb
 4207              		.thumb_func
 4208              		.fpu fpv4-sp-d16
 4209              		.type	mc_interface_set_brake_current_rel, %function
 4210              	mc_interface_set_brake_current_rel:
 4211              	.LFB274:
 4212              		.loc 1 462 0
 4213              		.cfi_startproc
 4214              		@ args = 0, pretend = 0, frame = 0
 4215              		@ frame_needed = 0, uses_anonymous_args = 0
 4216              		@ link register save eliminated.
 4217              	.LVL322:
 4218              		.loc 1 463 0
ARM GAS  C:\Users\CHRIST~1\AppData\Local\Temp\ccCFoZV9.s 			page 75


 4219 0000 034B     		ldr	r3, .L526
 4220 0002 D3ED1C7A 		vldr.32	s15, [r3, #112]
 4221 0006 27EE800A 		vmul.f32	s0, s15, s0
 4222              	.LVL323:
 4223 000a FFF7FEBF 		b	mc_interface_set_brake_current
 4224              	.LVL324:
 4225              	.L527:
 4226 000e 00BF     		.align	2
 4227              	.L526:
 4228 0010 00000000 		.word	.LANCHOR12
 4229              		.cfi_endproc
 4230              	.LFE274:
 4231              		.size	mc_interface_set_brake_current_rel, .-mc_interface_set_brake_current_rel
 4232              		.section	.text.mc_interface_set_handbrake,"ax",%progbits
 4233              		.align	1
 4234              		.p2align 4,,15
 4235              		.global	mc_interface_set_handbrake
 4236              		.syntax unified
 4237              		.thumb
 4238              		.thumb_func
 4239              		.fpu fpv4-sp-d16
 4240              		.type	mc_interface_set_handbrake, %function
 4241              	mc_interface_set_handbrake:
 4242              	.LFB275:
 4243              		.loc 1 466 0
 4244              		.cfi_startproc
 4245              		@ args = 0, pretend = 0, frame = 0
 4246              		@ frame_needed = 0, uses_anonymous_args = 0
 4247              	.LVL325:
 4248 0000 08B5     		push	{r3, lr}
 4249              		.cfi_def_cfa_offset 8
 4250              		.cfi_offset 3, -8
 4251              		.cfi_offset 14, -4
 4252 0002 2DED028B 		vpush.64	{d8}
 4253              		.cfi_def_cfa_offset 16
 4254              		.cfi_offset 80, -16
 4255              		.cfi_offset 81, -12
 4256              		.loc 1 466 0
 4257 0006 B0EE408A 		vmov.f32	s16, s0
 4258              		.loc 1 467 0
 4259 000a FFF7FEFF 		bl	mc_interface_try_input
 4260              	.LVL326:
 4261 000e 70B9     		cbnz	r0, .L528
 4262              		.loc 1 471 0
 4263 0010 0C4B     		ldr	r3, .L533
 4264 0012 9B78     		ldrb	r3, [r3, #2]	@ zero_extendqisi2
 4265 0014 DBB2     		uxtb	r3, r3
 4266 0016 012B     		cmp	r3, #1
 4267 0018 0CD9     		bls	.L530
 4268 001a 022B     		cmp	r3, #2
 4269 001c 07D1     		bne	.L528
 4270              		.loc 1 479 0
 4271 001e B0EE480A 		vmov.f32	s0, s16
 4272              		.loc 1 485 0
 4273 0022 BDEC028B 		vldm	sp!, {d8}
 4274              		.cfi_remember_state
 4275              		.cfi_restore 80
ARM GAS  C:\Users\CHRIST~1\AppData\Local\Temp\ccCFoZV9.s 			page 76


 4276              		.cfi_restore 81
 4277              		.cfi_def_cfa_offset 8
 4278              	.LVL327:
 4279 0026 BDE80840 		pop	{r3, lr}
 4280              		.cfi_restore 14
 4281              		.cfi_restore 3
 4282              		.cfi_def_cfa_offset 0
 4283              		.loc 1 479 0
 4284 002a FFF7FEBF 		b	mcpwm_foc_set_handbrake
 4285              	.LVL328:
 4286              	.L528:
 4287              		.cfi_restore_state
 4288              		.loc 1 485 0
 4289 002e BDEC028B 		vldm	sp!, {d8}
 4290              		.cfi_remember_state
 4291              		.cfi_restore 80
 4292              		.cfi_restore 81
 4293              		.cfi_def_cfa_offset 8
 4294              	.LVL329:
 4295 0032 08BD     		pop	{r3, pc}
 4296              	.LVL330:
 4297              	.L530:
 4298              		.cfi_restore_state
 4299              		.loc 1 475 0
 4300 0034 B0EE480A 		vmov.f32	s0, s16
 4301              		.loc 1 485 0
 4302 0038 BDEC028B 		vldm	sp!, {d8}
 4303              		.cfi_restore 80
 4304              		.cfi_restore 81
 4305              		.cfi_def_cfa_offset 8
 4306              	.LVL331:
 4307 003c BDE80840 		pop	{r3, lr}
 4308              		.cfi_restore 14
 4309              		.cfi_restore 3
 4310              		.cfi_def_cfa_offset 0
 4311              		.loc 1 475 0
 4312 0040 FFF7FEBF 		b	mcpwm_set_brake_current
 4313              	.LVL332:
 4314              	.L534:
 4315              		.align	2
 4316              	.L533:
 4317 0044 00000000 		.word	.LANCHOR12
 4318              		.cfi_endproc
 4319              	.LFE275:
 4320              		.size	mc_interface_set_handbrake, .-mc_interface_set_handbrake
 4321              		.section	.text.mc_interface_fault_stop,"ax",%progbits
 4322              		.align	1
 4323              		.p2align 4,,15
 4324              		.global	mc_interface_fault_stop
 4325              		.syntax unified
 4326              		.thumb
 4327              		.thumb_func
 4328              		.fpu fpv4-sp-d16
 4329              		.type	mc_interface_fault_stop, %function
 4330              	mc_interface_fault_stop:
 4331              	.LFB306:
 4332              		.loc 1 991 0
ARM GAS  C:\Users\CHRIST~1\AppData\Local\Temp\ccCFoZV9.s 			page 77


 4333              		.cfi_startproc
 4334              		@ args = 0, pretend = 0, frame = 0
 4335              		@ frame_needed = 0, uses_anonymous_args = 0
 4336              		@ link register save eliminated.
 4337              	.LVL333:
 4338              		.loc 1 992 0
 4339 0000 054B     		ldr	r3, .L540
 4340 0002 1B78     		ldrb	r3, [r3]	@ zero_extendqisi2
 4341 0004 8342     		cmp	r3, r0
 4342 0006 01D0     		beq	.L539
 4343 0008 FFF7FEBF 		b	mc_interface_fault_stop.part.3
 4344              	.LVL334:
 4345              	.L539:
 4346              		.loc 1 993 0
 4347 000c 034A     		ldr	r2, .L540+4
 4348 000e 044B     		ldr	r3, .L540+8
 4349 0010 D2F84821 		ldr	r2, [r2, #328]
 4350 0014 1A60     		str	r2, [r3]
 4351              		.loc 1 994 0
 4352 0016 7047     		bx	lr
 4353              	.L541:
 4354              		.align	2
 4355              	.L540:
 4356 0018 00000000 		.word	.LANCHOR13
 4357 001c 00000000 		.word	.LANCHOR12
 4358 0020 00000000 		.word	.LANCHOR14
 4359              		.cfi_endproc
 4360              	.LFE306:
 4361              		.size	mc_interface_fault_stop, .-mc_interface_fault_stop
 4362              		.section	.text.mc_interface_mc_timer_isr,"ax",%progbits
 4363              		.align	1
 4364              		.p2align 4,,15
 4365              		.global	mc_interface_mc_timer_isr
 4366              		.syntax unified
 4367              		.thumb
 4368              		.thumb_func
 4369              		.fpu fpv4-sp-d16
 4370              		.type	mc_interface_mc_timer_isr, %function
 4371              	mc_interface_mc_timer_isr:
 4372              	.LFB307:
 4373              		.loc 1 1047 0
 4374              		.cfi_startproc
 4375              		@ args = 0, pretend = 0, frame = 8
 4376              		@ frame_needed = 0, uses_anonymous_args = 0
 4377 0000 2DE9F043 		push	{r4, r5, r6, r7, r8, r9, lr}
 4378              		.cfi_def_cfa_offset 28
 4379              		.cfi_offset 4, -28
 4380              		.cfi_offset 5, -24
 4381              		.cfi_offset 6, -20
 4382              		.cfi_offset 7, -16
 4383              		.cfi_offset 8, -12
 4384              		.cfi_offset 9, -8
 4385              		.cfi_offset 14, -4
 4386 0004 2DED048B 		vpush.64	{d8, d9}
 4387              		.cfi_def_cfa_offset 44
 4388              		.cfi_offset 80, -44
 4389              		.cfi_offset 81, -40
ARM GAS  C:\Users\CHRIST~1\AppData\Local\Temp\ccCFoZV9.s 			page 78


 4390              		.cfi_offset 82, -36
 4391              		.cfi_offset 83, -32
 4392              		.loc 1 1050 0
 4393 0008 C34E     		ldr	r6, .L651
 4394              		.loc 1 1054 0
 4395 000a C44C     		ldr	r4, .L651+4
 4396              		.loc 1 1047 0
 4397 000c 83B0     		sub	sp, sp, #12
 4398              		.cfi_def_cfa_offset 56
 4399              		.loc 1 1048 0
 4400 000e FFF7FEFF 		bl	ledpwm_update_pwm
 4401              	.LVL335:
 4402              		.loc 1 1050 0
 4403 0012 338A     		ldrh	r3, [r6, #16]
 4404 0014 DFEDC26A 		vldr.32	s13, .L651+8
 4405 0018 9FEDC27A 		vldr.32	s14, .L651+12
 4406              		.loc 1 1054 0
 4407 001c D4ED0B7A 		vldr.32	s15, [r4, #44]
 4408              		.loc 1 1050 0
 4409 0020 9BB2     		uxth	r3, r3
 4410 0022 08EE103A 		vmov	s16, r3	@ int
 4411 0026 B8EE488A 		vcvt.f32.u32	s16, s16
 4412 002a 28EE268A 		vmul.f32	s16, s16, s13
 4413 002e 28EE078A 		vmul.f32	s16, s16, s14
 4414              	.LVL336:
 4415              		.loc 1 1054 0
 4416 0032 B4EEE78A 		vcmpe.f32	s16, s15
 4417 0036 F1EE10FA 		vmrs	APSR_nzcv, FPSCR
 4418 003a 07D4     		bmi	.L543
 4419              		.loc 1 1055 0 discriminator 1
 4420 003c D4ED0C7A 		vldr.32	s15, [r4, #48]
 4421              		.loc 1 1054 0 discriminator 1
 4422 0040 B4EEE78A 		vcmpe.f32	s16, s15
 4423 0044 F1EE10FA 		vmrs	APSR_nzcv, FPSCR
 4424 0048 40F3DD81 		ble	.L623
 4425              	.L543:
 4426              		.loc 1 1056 0
 4427 004c B64A     		ldr	r2, .L651+16
 4428 004e 1368     		ldr	r3, [r2]
 4429 0050 0133     		adds	r3, r3, #1
 4430              		.loc 1 1058 0
 4431 0052 072B     		cmp	r3, #7
 4432              		.loc 1 1056 0
 4433 0054 1360     		str	r3, [r2]
 4434              		.loc 1 1058 0
 4435 0056 00F3BD81 		bgt	.L637
 4436              	.L546:
 4437              		.loc 1 1066 0
 4438 005a FFF7FEFF 		bl	mc_interface_get_state
 4439              	.LVL337:
 4440 005e 0228     		cmp	r0, #2
 4441 0060 00F0CC81 		beq	.L638
 4442              	.L549:
 4443              		.loc 1 1069 0
 4444 0064 B14B     		ldr	r3, .L651+20
 4445 0066 0022     		movs	r2, #0
 4446 0068 1A60     		str	r2, [r3]
ARM GAS  C:\Users\CHRIST~1\AppData\Local\Temp\ccCFoZV9.s 			page 79


 4447              	.L550:
 4448              		.loc 1 1072 0
 4449 006a B14B     		ldr	r3, .L651+24
 4450 006c 1B68     		ldr	r3, [r3]
 4451 006e 03B1     		cbz	r3, .L551
 4452              		.loc 1 1073 0
 4453 0070 9847     		blx	r3
 4454              	.LVL338:
 4455              	.L551:
 4456              		.loc 1 1076 0
 4457 0072 FFF7FEFF 		bl	mc_interface_get_tot_current_filtered
 4458              	.LVL339:
 4459 0076 F0EE408A 		vmov.f32	s17, s0
 4460              	.LVL340:
 4461              		.loc 1 1077 0
 4462 007a FFF7FEFF 		bl	mc_interface_get_tot_current_in_filtered
 4463              	.LVL341:
 4464              		.loc 1 1078 0
 4465 007e AD48     		ldr	r0, .L651+28
 4466              		.loc 1 1079 0
 4467 0080 AD49     		ldr	r1, .L651+32
 4468              		.loc 1 1078 0
 4469 0082 D0ED007A 		vldr.32	s15, [r0]
 4470              		.loc 1 1080 0
 4471 0086 AD4A     		ldr	r2, .L651+36
 4472              		.loc 1 1081 0
 4473 0088 AD4B     		ldr	r3, .L651+40
 4474              		.loc 1 1078 0
 4475 008a 78EEA77A 		vadd.f32	s15, s17, s15
 4476              		.loc 1 1080 0
 4477 008e B7EE009A 		vmov.f32	s18, #1.0e+0
 4478              		.loc 1 1078 0
 4479 0092 C0ED007A 		vstr.32	s15, [r0]
 4480              		.loc 1 1079 0
 4481 0096 D1ED007A 		vldr.32	s15, [r1]
 4482 009a 70EE277A 		vadd.f32	s15, s0, s15
 4483              		.loc 1 1077 0
 4484 009e F0EE409A 		vmov.f32	s19, s0
 4485              	.LVL342:
 4486              		.loc 1 1079 0
 4487 00a2 C1ED007A 		vstr.32	s15, [r1]
 4488              		.loc 1 1080 0
 4489 00a6 D2ED007A 		vldr.32	s15, [r2]
 4490 00aa 77EE897A 		vadd.f32	s15, s15, s18
 4491 00ae C2ED007A 		vstr.32	s15, [r2]
 4492              		.loc 1 1081 0
 4493 00b2 D3ED007A 		vldr.32	s15, [r3]
 4494 00b6 77EE897A 		vadd.f32	s15, s15, s18
 4495 00ba C3ED007A 		vstr.32	s15, [r3]
 4496              		.loc 1 1083 0
 4497 00be FFF7FEFF 		bl	mcpwm_foc_get_id
 4498              	.LVL343:
 4499 00c2 A04B     		ldr	r3, .L651+44
 4500 00c4 D3ED007A 		vldr.32	s15, [r3]
 4501 00c8 30EE270A 		vadd.f32	s0, s0, s15
 4502 00cc 83ED000A 		vstr.32	s0, [r3]
 4503              		.loc 1 1084 0
ARM GAS  C:\Users\CHRIST~1\AppData\Local\Temp\ccCFoZV9.s 			page 80


 4504 00d0 FFF7FEFF 		bl	mcpwm_foc_get_iq
 4505              	.LVL344:
 4506 00d4 9C49     		ldr	r1, .L651+48
 4507              		.loc 1 1085 0
 4508 00d6 9D4A     		ldr	r2, .L651+52
 4509              		.loc 1 1084 0
 4510 00d8 D1ED007A 		vldr.32	s15, [r1]
 4511              		.loc 1 1086 0
 4512 00dc 9C4B     		ldr	r3, .L651+56
 4513              		.loc 1 1084 0
 4514 00de 30EE270A 		vadd.f32	s0, s0, s15
 4515 00e2 81ED000A 		vstr.32	s0, [r1]
 4516              		.loc 1 1085 0
 4517 00e6 D2ED007A 		vldr.32	s15, [r2]
 4518 00ea 77EE897A 		vadd.f32	s15, s15, s18
 4519 00ee C2ED007A 		vstr.32	s15, [r2]
 4520              		.loc 1 1086 0
 4521 00f2 D3ED007A 		vldr.32	s15, [r3]
 4522 00f6 37EE899A 		vadd.f32	s18, s15, s18
 4523 00fa 83ED009A 		vstr.32	s18, [r3]
 4524              		.loc 1 1088 0
 4525 00fe FFF7FEFF 		bl	mc_interface_get_tot_current
 4526              	.LVL345:
 4527              		.loc 1 1090 0
 4528 0102 A378     		ldrb	r3, [r4, #2]	@ zero_extendqisi2
 4529 0104 022B     		cmp	r3, #2
 4530              		.loc 1 1088 0
 4531 0106 B0EE409A 		vmov.f32	s18, s0
 4532              	.LVL346:
 4533              		.loc 1 1090 0
 4534 010a 00F0FB81 		beq	.L639
 4535              		.loc 1 1089 0
 4536 010e B0EE680A 		vmov.f32	s0, s17
 4537              	.LVL347:
 4538              	.L552:
 4539              		.loc 1 1097 0
 4540 0112 94F83C30 		ldrb	r3, [r4, #60]	@ zero_extendqisi2
 4541              		.loc 1 1098 0
 4542 0116 D4ED057A 		vldr.32	s15, [r4, #20]
 4543              		.loc 1 1097 0
 4544 011a 002B     		cmp	r3, #0
 4545 011c 00F04C81 		beq	.L553
 4546              		.loc 1 1098 0
 4547 0120 B0EEC00A 		vabs.f32	s0, s0
 4548              	.LVL348:
 4549 0124 B4EEE70A 		vcmpe.f32	s0, s15
 4550 0128 F1EE10FA 		vmrs	APSR_nzcv, FPSCR
 4551 012c 07DD     		ble	.L554
 4552              	.LVL349:
 4553              	.LBB176:
 4554              	.LBB177:
 4555              		.loc 1 992 0
 4556 012e 894B     		ldr	r3, .L651+60
 4557 0130 1B78     		ldrb	r3, [r3]	@ zero_extendqisi2
 4558 0132 042B     		cmp	r3, #4
 4559 0134 00F0CE81 		beq	.L640
 4560              	.LVL350:
ARM GAS  C:\Users\CHRIST~1\AppData\Local\Temp\ccCFoZV9.s 			page 81


 4561              	.L556:
 4562              	.LBE177:
 4563              	.LBE176:
 4564              	.LBB180:
 4565              	.LBB181:
 4566 0138 0420     		movs	r0, #4
 4567 013a FFF7FEFF 		bl	mc_interface_fault_stop.part.3
 4568              	.LVL351:
 4569              	.L554:
 4570              	.LBE181:
 4571              	.LBE180:
 4572              		.loc 1 1108 0
 4573 013e 864B     		ldr	r3, .L651+64
 4574 0140 1B69     		ldr	r3, [r3, #16]
 4575 0142 DB04     		lsls	r3, r3, #19
 4576 0144 08D4     		bmi	.L560
 4577              	.LVL352:
 4578              	.LBB182:
 4579              	.LBB183:
 4580              		.loc 1 992 0
 4581 0146 834B     		ldr	r3, .L651+60
 4582 0148 1B78     		ldrb	r3, [r3]	@ zero_extendqisi2
 4583 014a 032B     		cmp	r3, #3
 4584 014c 40F0CB81 		bne	.L561
 4585              		.loc 1 993 0
 4586 0150 824B     		ldr	r3, .L651+68
 4587 0152 D4F84821 		ldr	r2, [r4, #328]
 4588 0156 1A60     		str	r2, [r3]
 4589              	.LVL353:
 4590              	.L560:
 4591              	.LBE183:
 4592              	.LBE182:
 4593              		.loc 1 1113 0
 4594 0158 FFF7FEFF 		bl	mc_interface_get_sampling_frequency_now
 4595              	.LVL354:
 4596              		.loc 1 1114 0
 4597 015c F0EEE88A 		vabs.f32	s17, s17
 4598              	.LVL355:
 4599 0160 F7EE006A 		vmov.f32	s13, #1.0e+0
 4600 0164 F4EEE68A 		vcmpe.f32	s17, s13
 4601 0168 F1EE10FA 		vmrs	APSR_nzcv, FPSCR
 4602              		.loc 1 1113 0
 4603 016c B0EE409A 		vmov.f32	s18, s0
 4604              	.LVL356:
 4605              		.loc 1 1114 0
 4606 0170 2FDD     		ble	.L563
 4607              	.LBB185:
 4608              		.loc 1 1120 0
 4609 0172 86EE807A 		vdiv.f32	s14, s13, s0
 4610 0176 7A4A     		ldr	r2, .L651+72
 4611              		.loc 1 1119 0
 4612 0178 7A4B     		ldr	r3, .L651+76
 4613 017a C9EE807A 		vdiv.f32	s15, s19, s0
 4614              		.loc 1 1120 0
 4615 017e 92ED006A 		vldr.32	s12, [r2]
 4616              		.loc 1 1119 0
 4617 0182 D3ED005A 		vldr.32	s11, [r3]
ARM GAS  C:\Users\CHRIST~1\AppData\Local\Temp\ccCFoZV9.s 			page 82


 4618              		.loc 1 1122 0
 4619 0186 DFED786A 		vldr.32	s13, .L651+80
 4620              		.loc 1 1120 0
 4621 018a 37EE067A 		vadd.f32	s14, s14, s12
 4622              		.loc 1 1119 0
 4623 018e 77EEA57A 		vadd.f32	s15, s15, s11
 4624              		.loc 1 1122 0
 4625 0192 B4EEE67A 		vcmpe.f32	s14, s13
 4626 0196 F1EE10FA 		vmrs	APSR_nzcv, FPSCR
 4627              		.loc 1 1119 0
 4628 019a C3ED007A 		vstr.32	s15, [r3]
 4629              		.loc 1 1120 0
 4630 019e 82ED007A 		vstr.32	s14, [r2]
 4631              		.loc 1 1122 0
 4632 01a2 16DB     		blt	.L563
 4633              		.loc 1 1123 0
 4634 01a4 F5EEC07A 		vcmpe.f32	s15, #0
 4635 01a8 F1EE10FA 		vmrs	APSR_nzcv, FPSCR
 4636 01ac 40F3B181 		ble	.L624
 4637              		.loc 1 1124 0
 4638 01b0 6E48     		ldr	r0, .L651+84
 4639              		.loc 1 1125 0
 4640 01b2 6F49     		ldr	r1, .L651+88
 4641              		.loc 1 1124 0
 4642 01b4 90ED007A 		vldr.32	s14, [r0]
 4643 01b8 37EE877A 		vadd.f32	s14, s15, s14
 4644 01bc 80ED007A 		vstr.32	s14, [r0]
 4645              		.loc 1 1125 0
 4646 01c0 91ED007A 		vldr.32	s14, [r1]
 4647 01c4 A8EE277A 		vfma.f32	s14, s16, s15
 4648 01c8 81ED007A 		vstr.32	s14, [r1]
 4649              	.L568:
 4650              		.loc 1 1131 0
 4651 01cc 0021     		movs	r1, #0
 4652 01ce 1160     		str	r1, [r2]	@ float
 4653              		.loc 1 1132 0
 4654 01d0 1960     		str	r1, [r3]	@ float
 4655              	.L563:
 4656              	.LVL357:
 4657              	.LBE185:
 4658              		.loc 1 1138 0
 4659 01d2 684F     		ldr	r7, .L651+92
 4660 01d4 3B78     		ldrb	r3, [r7]	@ zero_extendqisi2
 4661 01d6 013B     		subs	r3, r3, #1
 4662 01d8 052B     		cmp	r3, #5
 4663 01da 00F29780 		bhi	.L542
 4664 01de DFE813F0 		tbh	[pc, r3, lsl #1]
 4665              	.L571:
 4666 01e2 0600     		.2byte	(.L570-.L571)/2
 4667 01e4 5101     		.2byte	(.L572-.L571)/2
 4668 01e6 2B01     		.2byte	(.L573-.L571)/2
 4669 01e8 1601     		.2byte	(.L574-.L571)/2
 4670 01ea 2B01     		.2byte	(.L573-.L571)/2
 4671 01ec 1601     		.2byte	(.L574-.L571)/2
 4672              		.p2align 1
 4673              	.L570:
 4674              		.loc 1 1140 0
ARM GAS  C:\Users\CHRIST~1\AppData\Local\Temp\ccCFoZV9.s 			page 83


 4675 01ee 624D     		ldr	r5, .L651+96
 4676 01f0 624B     		ldr	r3, .L651+100
 4677 01f2 2A68     		ldr	r2, [r5]
 4678 01f4 1B68     		ldr	r3, [r3]
 4679 01f6 9A42     		cmp	r2, r3
 4680 01f8 00F03B82 		beq	.L575
 4681              	.LVL358:
 4682              	.L589:
 4683              	.LBB186:
 4684              		.loc 1 1231 0
 4685 01fc 604A     		ldr	r2, .L651+104
 4686              		.loc 1 1233 0
 4687 01fe 6149     		ldr	r1, .L651+108
 4688              		.loc 1 1231 0
 4689 0200 1368     		ldr	r3, [r2]
 4690              		.loc 1 1233 0
 4691 0202 0968     		ldr	r1, [r1]
 4692              		.loc 1 1231 0
 4693 0204 0133     		adds	r3, r3, #1
 4694              		.loc 1 1233 0
 4695 0206 8B42     		cmp	r3, r1
 4696              		.loc 1 1231 0
 4697 0208 1360     		str	r3, [r2]
 4698              		.loc 1 1233 0
 4699 020a 7FDB     		blt	.L542
 4700              	.LBB187:
 4701              		.loc 1 1236 0
 4702 020c 2968     		ldr	r1, [r5]
 4703              		.loc 1 1234 0
 4704 020e 0023     		movs	r3, #0
 4705              		.loc 1 1236 0
 4706 0210 B1F5FA6F 		cmp	r1, #2000
 4707              		.loc 1 1237 0
 4708 0214 A8BF     		it	ge
 4709 0216 2B60     		strge	r3, [r5]
 4710              		.loc 1 1234 0
 4711 0218 1360     		str	r3, [r2]
 4712              		.loc 1 1241 0
 4713 021a A378     		ldrb	r3, [r4, #2]	@ zero_extendqisi2
 4714 021c 022B     		cmp	r3, #2
 4715 021e 00F00382 		beq	.L641
 4716              		.loc 1 1248 0
 4717 0222 594B     		ldr	r3, .L651+112
 4718              		.loc 1 1249 0
 4719 0224 594F     		ldr	r7, .L651+116
 4720              		.loc 1 1248 0
 4721 0226 1C68     		ldr	r4, [r3]
 4722              		.loc 1 1249 0
 4723 0228 2B68     		ldr	r3, [r5]
 4724 022a 3B44     		add	r3, r3, r7
 4725 022c 0022     		movs	r2, #0
 4726              		.loc 1 1248 0
 4727 022e 24B2     		sxth	r4, r4
 4728              	.LVL359:
 4729              		.loc 1 1249 0
 4730 0230 83F8082E 		strb	r2, [r3, #3592]
 4731              	.L592:
ARM GAS  C:\Users\CHRIST~1\AppData\Local\Temp\ccCFoZV9.s 			page 84


 4732              		.loc 1 1252 0
 4733 0234 FFF7FEFF 		bl	mc_interface_get_state
 4734              	.LVL360:
 4735 0238 0128     		cmp	r0, #1
 4736 023a 00F0A281 		beq	.L642
 4737              		.loc 1 1260 0
 4738 023e 5449     		ldr	r1, .L651+120
 4739 0240 D5F800E0 		ldr	lr, [r5]
 4740 0244 0A68     		ldr	r2, [r1]
 4741 0246 534B     		ldr	r3, .L651+124
 4742              		.loc 1 1263 0
 4743 0248 5348     		ldr	r0, .L651+128
 4744              		.loc 1 1260 0
 4745 024a 12B2     		sxth	r2, r2
 4746 024c 23F81E20 		strh	r2, [r3, lr, lsl #1]	@ movhi
 4747              		.loc 1 1261 0
 4748 0250 D5F800C0 		ldr	ip, [r5]
 4749 0254 4A68     		ldr	r2, [r1, #4]
 4750              		.loc 1 1264 0
 4751 0256 DFF85CE1 		ldr	lr, .L651+156
 4752              		.loc 1 1265 0
 4753 025a 5049     		ldr	r1, .L651+132
 4754              		.loc 1 1261 0
 4755 025c 03EB4C03 		add	r3, r3, ip, lsl #1
 4756 0260 12B2     		sxth	r2, r2
 4757 0262 A3F8A02F 		strh	r2, [r3, #4000]	@ movhi
 4758              		.loc 1 1263 0
 4759 0266 2B68     		ldr	r3, [r5]
 4760 0268 B288     		ldrh	r2, [r6, #4]
 4761 026a 00EB4303 		add	r3, r0, r3, lsl #1
 4762 026e A0B2     		uxth	r0, r4
 4763 0270 121A     		subs	r2, r2, r0
 4764 0272 12B2     		sxth	r2, r2
 4765 0274 A3F8482E 		strh	r2, [r3, #3656]	@ movhi
 4766              		.loc 1 1264 0
 4767 0278 2B68     		ldr	r3, [r5]
 4768 027a 7288     		ldrh	r2, [r6, #2]
 4769 027c 0EEB4303 		add	r3, lr, r3, lsl #1
 4770 0280 121A     		subs	r2, r2, r0
 4771 0282 12B2     		sxth	r2, r2
 4772 0284 A3F8F02C 		strh	r2, [r3, #3312]	@ movhi
 4773              		.loc 1 1265 0
 4774 0288 2A68     		ldr	r2, [r5]
 4775 028a 3388     		ldrh	r3, [r6]
 4776 028c 01EB4202 		add	r2, r1, r2, lsl #1
 4777 0290 1B1A     		subs	r3, r3, r0
 4778 0292 1BB2     		sxth	r3, r3
 4779 0294 A2F8983B 		strh	r3, [r2, #2968]	@ movhi
 4780              	.L594:
 4781              		.loc 1 1268 0
 4782 0298 2A68     		ldr	r2, [r5]
 4783 029a 414B     		ldr	r3, .L651+136
 4784 029c 03EB4203 		add	r3, r3, r2, lsl #1
 4785 02a0 A3F8404A 		strh	r4, [r3, #2624]	@ movhi
 4786              		.loc 1 1269 0
 4787 02a4 2C68     		ldr	r4, [r5]
 4788              	.LVL361:
ARM GAS  C:\Users\CHRIST~1\AppData\Local\Temp\ccCFoZV9.s 			page 85


 4789 02a6 FFF7FEFF 		bl	mc_interface_get_tot_current
 4790              	.LVL362:
 4791              		.loc 1 1270 0
 4792 02aa F2EE047A 		vmov.f32	s15, #1.0e+1
 4793 02ae 89EE277A 		vdiv.f32	s14, s18, s15
 4794              		.loc 1 1269 0
 4795 02b2 3C49     		ldr	r1, .L651+140
 4796              		.loc 1 1270 0
 4797 02b4 3C4B     		ldr	r3, .L651+144
 4798              		.loc 1 1269 0
 4799 02b6 01EB4401 		add	r1, r1, r4, lsl #1
 4800 02ba DFED3C7A 		vldr.32	s15, .L651+148
 4801 02be 20EE270A 		vmul.f32	s0, s0, s15
 4802              		.loc 1 1270 0
 4803 02c2 FDEEC77A 		vcvt.s32.f32	s15, s14
 4804 02c6 CDED017A 		vstr.32	s15, [sp, #4]	@ int
 4805              		.loc 1 1269 0
 4806 02ca FDEEC07A 		vcvt.s32.f32	s15, s0
 4807              		.loc 1 1270 0
 4808 02ce BDF90420 		ldrsh	r2, [sp, #4]
 4809              		.loc 1 1269 0
 4810 02d2 CDED007A 		vstr.32	s15, [sp]	@ int
 4811 02d6 BDF90000 		ldrsh	r0, [sp]
 4812 02da A1F8E808 		strh	r0, [r1, #2280]	@ movhi
 4813              		.loc 1 1270 0
 4814 02de 2968     		ldr	r1, [r5]
 4815 02e0 03EB4103 		add	r3, r3, r1, lsl #1
 4816 02e4 A3F89027 		strh	r2, [r3, #1936]	@ movhi
 4817              		.loc 1 1271 0
 4818 02e8 2E68     		ldr	r6, [r5]
 4819 02ea FFF7FEFF 		bl	mcpwm_get_comm_step
 4820              	.LVL363:
 4821 02ee 0446     		mov	r4, r0
 4822 02f0 FFF7FEFF 		bl	mcpwm_read_hall_phase
 4823              	.LVL364:
 4824 02f4 3744     		add	r7, r7, r6
 4825 02f6 44EAC000 		orr	r0, r4, r0, lsl #3
 4826 02fa C0B2     		uxtb	r0, r0
 4827 02fc 87F83806 		strb	r0, [r7, #1592]
 4828              		.loc 1 1273 0
 4829 0300 2B68     		ldr	r3, [r5]
 4830              	.LBB188:
 4831              	.LBB189:
 4832              		.loc 1 902 0
 4833 0302 2B4A     		ldr	r2, .L651+152
 4834              	.LBE189:
 4835              	.LBE188:
 4836              		.loc 1 1273 0
 4837 0304 0133     		adds	r3, r3, #1
 4838 0306 2B60     		str	r3, [r5]
 4839              	.LBB191:
 4840              	.LBB190:
 4841              		.loc 1 902 0
 4842 0308 1368     		ldr	r3, [r2]	@ float
 4843              	.LBE190:
 4844              	.LBE191:
 4845              		.loc 1 1275 0
ARM GAS  C:\Users\CHRIST~1\AppData\Local\Temp\ccCFoZV9.s 			page 86


 4846 030a 1360     		str	r3, [r2]	@ float
 4847              	.L542:
 4848              	.LBE187:
 4849              	.LBE186:
 4850              		.loc 1 1278 0
 4851 030c 03B0     		add	sp, sp, #12
 4852              		.cfi_remember_state
 4853              		.cfi_def_cfa_offset 44
 4854              		@ sp needed
 4855 030e BDEC048B 		vldm	sp!, {d8-d9}
 4856              		.cfi_restore 82
 4857              		.cfi_restore 83
 4858              		.cfi_restore 80
 4859              		.cfi_restore 81
 4860              		.cfi_def_cfa_offset 28
 4861              	.LVL365:
 4862 0312 BDE8F083 		pop	{r4, r5, r6, r7, r8, r9, pc}
 4863              	.L652:
 4864 0316 00BF     		.align	2
 4865              	.L651:
 4866 0318 00000000 		.word	.LANCHOR41
 4867 031c 00000000 		.word	.LANCHOR12
 4868 0320 6740533A 		.word	978534503
 4869 0324 74D19541 		.word	1100337524
 4870 0328 00000000 		.word	.LANCHOR42
 4871 032c 00000000 		.word	.LANCHOR15
 4872 0330 00000000 		.word	.LANCHOR39
 4873 0334 00000000 		.word	.LANCHOR18
 4874 0338 00000000 		.word	.LANCHOR19
 4875 033c 00000000 		.word	.LANCHOR20
 4876 0340 00000000 		.word	.LANCHOR21
 4877 0344 00000000 		.word	.LANCHOR22
 4878 0348 00000000 		.word	.LANCHOR23
 4879 034c 00000000 		.word	.LANCHOR24
 4880 0350 00000000 		.word	.LANCHOR25
 4881 0354 00000000 		.word	.LANCHOR13
 4882 0358 00080240 		.word	1073874944
 4883 035c 00000000 		.word	.LANCHOR14
 4884 0360 00000000 		.word	.LANCHOR44
 4885 0364 00000000 		.word	.LANCHOR43
 4886 0368 0AD7233C 		.word	1008981770
 4887 036c 00000000 		.word	.LANCHOR26
 4888 0370 00000000 		.word	.LANCHOR28
 4889 0374 00000000 		.word	.LANCHOR36
 4890 0378 00000000 		.word	.LANCHOR35
 4891 037c 00000000 		.word	.LANCHOR2
 4892 0380 00000000 		.word	.LANCHOR45
 4893 0384 00000000 		.word	.LANCHOR34
 4894 0388 00000000 		.word	mcpwm_vzero
 4895 038c C8760000 		.word	.LANCHOR11
 4896 0390 00000000 		.word	.LANCHOR46
 4897 0394 00000000 		.word	.LANCHOR4
 4898 0398 F8100000 		.word	.LANCHOR5
 4899 039c E8320000 		.word	.LANCHOR7
 4900 03a0 E0430000 		.word	.LANCHOR8
 4901 03a4 D8540000 		.word	.LANCHOR9
 4902 03a8 D0650000 		.word	.LANCHOR10
ARM GAS  C:\Users\CHRIST~1\AppData\Local\Temp\ccCFoZV9.s 			page 87


 4903 03ac A48BC642 		.word	1120308132
 4904 03b0 00000000 		.word	.LANCHOR31
 4905 03b4 F0210000 		.word	.LANCHOR6
 4906              	.LVL366:
 4907              	.L553:
 4908              		.cfi_restore_state
 4909              		.loc 1 1102 0
 4910 03b8 B0EEC99A 		vabs.f32	s18, s18
 4911              	.LVL367:
 4912 03bc B4EEE79A 		vcmpe.f32	s18, s15
 4913 03c0 F1EE10FA 		vmrs	APSR_nzcv, FPSCR
 4914 03c4 7FF7BBAE 		ble	.L554
 4915              	.LVL368:
 4916              	.LBB193:
 4917              	.LBB178:
 4918              		.loc 1 992 0
 4919 03c8 C54B     		ldr	r3, .L653
 4920 03ca 1B78     		ldrb	r3, [r3]	@ zero_extendqisi2
 4921 03cc 042B     		cmp	r3, #4
 4922 03ce 7FF4B3AE 		bne	.L556
 4923 03d2 7FE0     		b	.L640
 4924              	.LVL369:
 4925              	.L637:
 4926              	.LBE178:
 4927              	.LBE193:
 4928              		.loc 1 1059 0
 4929 03d4 D4ED0B7A 		vldr.32	s15, [r4, #44]
 4930              	.LBB194:
 4931              	.LBB195:
 4932              		.loc 1 992 0
 4933 03d8 C14B     		ldr	r3, .L653
 4934              	.LBE195:
 4935              	.LBE194:
 4936              		.loc 1 1059 0
 4937 03da B4EEE78A 		vcmpe.f32	s16, s15
 4938 03de F1EE10FA 		vmrs	APSR_nzcv, FPSCR
 4939              	.LBB199:
 4940              	.LBB196:
 4941              		.loc 1 992 0
 4942 03e2 1B78     		ldrb	r3, [r3]	@ zero_extendqisi2
 4943              	.LBE196:
 4944              	.LBE199:
 4945              		.loc 1 1059 0
 4946 03e4 4CBF     		ite	mi
 4947 03e6 0220     		movmi	r0, #2
 4948 03e8 0120     		movpl	r0, #1
 4949              	.LVL370:
 4950              	.LBB200:
 4951              	.LBB197:
 4952              		.loc 1 992 0
 4953 03ea 8342     		cmp	r3, r0
 4954 03ec 7FD0     		beq	.L643
 4955 03ee FFF7FEFF 		bl	mc_interface_fault_stop.part.3
 4956              	.LVL371:
 4957              	.LBE197:
 4958              	.LBE200:
 4959              		.loc 1 1066 0
ARM GAS  C:\Users\CHRIST~1\AppData\Local\Temp\ccCFoZV9.s 			page 88


 4960 03f2 FFF7FEFF 		bl	mc_interface_get_state
 4961              	.LVL372:
 4962 03f6 0228     		cmp	r0, #2
 4963 03f8 7FF434AE 		bne	.L549
 4964              	.L638:
 4965              		.loc 1 1067 0
 4966 03fc B94A     		ldr	r2, .L653+4
 4967 03fe 1368     		ldr	r3, [r2]
 4968 0400 0133     		adds	r3, r3, #1
 4969 0402 1360     		str	r3, [r2]
 4970 0404 31E6     		b	.L550
 4971              	.L623:
 4972              		.loc 1 1063 0
 4973 0406 B84B     		ldr	r3, .L653+8
 4974 0408 0022     		movs	r2, #0
 4975 040a 1A60     		str	r2, [r3]
 4976 040c 25E6     		b	.L546
 4977              	.LVL373:
 4978              	.L574:
 4979              	.LBB201:
 4980              		.loc 1 1200 0
 4981 040e DFF82883 		ldr	r8, .L653+88
 4982 0412 D8F80030 		ldr	r3, [r8]
 4983 0416 002B     		cmp	r3, #0
 4984 0418 71DB     		blt	.L604
 4985              		.loc 1 1201 0
 4986 041a B44A     		ldr	r2, .L653+12
 4987 041c D8F80030 		ldr	r3, [r8]
 4988 0420 1268     		ldr	r2, [r2]
 4989              	.LVL374:
 4990              		.loc 1 1202 0
 4991 0422 9B1A     		subs	r3, r3, r2
 4992              	.LVL375:
 4993 0424 00F14F81 		bmi	.L644
 4994              	.LVL376:
 4995              	.L585:
 4996              		.loc 1 1207 0
 4997 0428 B14D     		ldr	r5, .L653+16
 4998 042a 2A68     		ldr	r2, [r5]
 4999 042c 9342     		cmp	r3, r2
 5000 042e 7FD0     		beq	.L645
 5001              		.loc 1 1220 0
 5002 0430 AB4B     		ldr	r3, .L653
 5003              	.LVL377:
 5004 0432 1B78     		ldrb	r3, [r3]	@ zero_extendqisi2
 5005 0434 BBB9     		cbnz	r3, .L597
 5006 0436 E1E6     		b	.L589
 5007              	.LVL378:
 5008              	.L573:
 5009              	.LBE201:
 5010              	.LBB212:
 5011              		.loc 1 1170 0
 5012 0438 DFF8FC82 		ldr	r8, .L653+88
 5013 043c D8F80030 		ldr	r3, [r8]
 5014 0440 002B     		cmp	r3, #0
 5015 0442 59DB     		blt	.L603
 5016              		.loc 1 1171 0
ARM GAS  C:\Users\CHRIST~1\AppData\Local\Temp\ccCFoZV9.s 			page 89


 5017 0444 A94A     		ldr	r2, .L653+12
 5018 0446 D8F80030 		ldr	r3, [r8]
 5019 044a 1268     		ldr	r2, [r2]
 5020              	.LVL379:
 5021              		.loc 1 1172 0
 5022 044c 9B1A     		subs	r3, r3, r2
 5023              	.LVL380:
 5024 044e 00F13781 		bmi	.L646
 5025              	.LVL381:
 5026              	.L581:
 5027              		.loc 1 1177 0
 5028 0452 A74D     		ldr	r5, .L653+16
 5029 0454 2A68     		ldr	r2, [r5]
 5030 0456 9342     		cmp	r3, r2
 5031 0458 00F08180 		beq	.L647
 5032              		.loc 1 1190 0
 5033 045c FFF7FEFF 		bl	mc_interface_get_state
 5034              	.LVL382:
 5035 0460 0228     		cmp	r0, #2
 5036 0462 7FF4CBAE 		bne	.L589
 5037              	.L597:
 5038              	.LBE212:
 5039              	.LBB223:
 5040              		.loc 1 1220 0
 5041 0466 D8F80030 		ldr	r3, [r8]
 5042 046a 002B     		cmp	r3, #0
 5043 046c BFF6C6AE 		bge	.L589
 5044              		.loc 1 1197 0
 5045 0470 4FF00109 		mov	r9, #1
 5046              	.LVL383:
 5047              	.L600:
 5048              		.loc 1 1221 0
 5049 0474 2B68     		ldr	r3, [r5]
 5050 0476 C8F80030 		str	r3, [r8]
 5051              	.LBE223:
 5052              		.loc 1 1229 0
 5053 047a B9F1000F 		cmp	r9, #0
 5054 047e 7FF4BDAE 		bne	.L589
 5055 0482 43E7     		b	.L542
 5056              	.LVL384:
 5057              	.L572:
 5058              		.loc 1 1152 0
 5059 0484 FFF7FEFF 		bl	mc_interface_get_state
 5060              	.LVL385:
 5061 0488 0228     		cmp	r0, #2
 5062 048a 994D     		ldr	r5, .L653+16
 5063 048c 03D0     		beq	.L578
 5064              		.loc 1 1152 0 is_stmt 0 discriminator 1
 5065 048e 2B68     		ldr	r3, [r5]
 5066 0490 002B     		cmp	r3, #0
 5067 0492 40F31B81 		ble	.L648
 5068              	.L578:
 5069              	.LVL386:
 5070              		.loc 1 1156 0 is_stmt 1
 5071 0496 954B     		ldr	r3, .L653+12
 5072 0498 2A68     		ldr	r2, [r5]
 5073 049a 1B68     		ldr	r3, [r3]
ARM GAS  C:\Users\CHRIST~1\AppData\Local\Temp\ccCFoZV9.s 			page 90


 5074 049c 9A42     		cmp	r2, r3
 5075 049e 7FF4ADAE 		bne	.L589
 5076 04a2 4FF00109 		mov	r9, #1
 5077              	.LVL387:
 5078              	.L595:
 5079              		.loc 1 1157 0
 5080 04a6 3B78     		ldrb	r3, [r7]	@ zero_extendqisi2
 5081 04a8 924A     		ldr	r2, .L653+20
 5082 04aa DBB2     		uxtb	r3, r3
 5083              		.loc 1 1158 0
 5084 04ac 4FF00008 		mov	r8, #0
 5085              		.loc 1 1157 0
 5086 04b0 1370     		strb	r3, [r2]
 5087              	.LBB224:
 5088              	.LBB225:
 5089              	.LBB226:
 5090              	.LBB227:
 5091              	.LBB228:
 5092              		.file 3 "ChibiOS_3.0.2/os/ext/CMSIS/include/core_cmFunc.h"
 5093              		.loc 3 546 0
 5094 04b2 2023     		movs	r3, #32
 5095              	.LBE228:
 5096              	.LBE227:
 5097              	.LBE226:
 5098              	.LBE225:
 5099              	.LBE224:
 5100              		.loc 1 1158 0
 5101 04b4 87F80080 		strb	r8, [r7]
 5102              	.LVL388:
 5103              	.LBB233:
 5104              	.LBB232:
 5105              	.LBB231:
 5106              	.LBB230:
 5107              	.LBB229:
 5108              		.loc 3 546 0
 5109              		.syntax unified
 5110              	@ 546 "ChibiOS_3.0.2/os/ext/CMSIS/include/core_cmFunc.h" 1
 5111 04b8 83F31188 		MSR basepri, r3
 5112              	@ 0 "" 2
 5113              	.LVL389:
 5114              		.thumb
 5115              		.syntax unified
 5116              	.LBE229:
 5117              	.LBE230:
 5118              	.LBE231:
 5119              	.LBE232:
 5120              	.LBE233:
 5121              		.loc 1 1160 0
 5122 04bc 8E4B     		ldr	r3, .L653+24
 5123 04be 0121     		movs	r1, #1
 5124 04c0 1868     		ldr	r0, [r3]
 5125 04c2 FFF7FEFF 		bl	chEvtSignalI
 5126              	.LVL390:
 5127              	.LBB234:
 5128              	.LBB235:
 5129              	.LBB236:
 5130              	.LBB237:
ARM GAS  C:\Users\CHRIST~1\AppData\Local\Temp\ccCFoZV9.s 			page 91


 5131              	.LBB238:
 5132              		.loc 3 546 0
 5133              		.syntax unified
 5134              	@ 546 "ChibiOS_3.0.2/os/ext/CMSIS/include/core_cmFunc.h" 1
 5135 04c6 88F31188 		MSR basepri, r8
 5136              	@ 0 "" 2
 5137              	.LVL391:
 5138              		.thumb
 5139              		.syntax unified
 5140              	.LBE238:
 5141              	.LBE237:
 5142              	.LBE236:
 5143              	.LBE235:
 5144              	.LBE234:
 5145              		.loc 1 1229 0
 5146 04ca B9F1000F 		cmp	r9, #0
 5147 04ce 7FF495AE 		bne	.L589
 5148 04d2 1BE7     		b	.L542
 5149              	.LVL392:
 5150              	.L640:
 5151              	.LBB239:
 5152              	.LBB179:
 5153              		.loc 1 993 0
 5154 04d4 894B     		ldr	r3, .L653+28
 5155 04d6 D4F84821 		ldr	r2, [r4, #328]
 5156 04da 1A60     		str	r2, [r3]
 5157              	.LBE179:
 5158              	.LBE239:
 5159              		.loc 1 1108 0
 5160 04dc 884B     		ldr	r3, .L653+32
 5161 04de 1B69     		ldr	r3, [r3, #16]
 5162 04e0 DA04     		lsls	r2, r3, #19
 5163 04e2 3FF539AE 		bmi	.L560
 5164              	.LVL393:
 5165              	.L561:
 5166              	.LBB240:
 5167              	.LBB184:
 5168 04e6 0320     		movs	r0, #3
 5169 04e8 FFF7FEFF 		bl	mc_interface_fault_stop.part.3
 5170              	.LVL394:
 5171 04ec 34E6     		b	.L560
 5172              	.LVL395:
 5173              	.L643:
 5174              	.LBE184:
 5175              	.LBE240:
 5176              	.LBB241:
 5177              	.LBB198:
 5178              		.loc 1 993 0
 5179 04ee 834B     		ldr	r3, .L653+28
 5180 04f0 D4F84821 		ldr	r2, [r4, #328]
 5181 04f4 1A60     		str	r2, [r3]
 5182 04f6 B0E5     		b	.L546
 5183              	.LVL396:
 5184              	.L603:
 5185              	.LBE198:
 5186              	.LBE241:
 5187              	.LBB242:
ARM GAS  C:\Users\CHRIST~1\AppData\Local\Temp\ccCFoZV9.s 			page 92


 5188              		.loc 1 1169 0
 5189 04f8 4FF0FF33 		mov	r3, #-1
 5190 04fc A9E7     		b	.L581
 5191              	.LVL397:
 5192              	.L604:
 5193              	.LBE242:
 5194              	.LBB243:
 5195              		.loc 1 1199 0
 5196 04fe 4FF0FF33 		mov	r3, #-1
 5197 0502 91E7     		b	.L585
 5198              	.LVL398:
 5199              	.L639:
 5200              	.LBE243:
 5201              		.loc 1 1092 0
 5202 0504 FFF7FEFF 		bl	mcpwm_foc_get_abs_motor_current
 5203              	.LVL399:
 5204 0508 B0EE409A 		vmov.f32	s18, s0
 5205              	.LVL400:
 5206              		.loc 1 1093 0
 5207 050c FFF7FEFF 		bl	mcpwm_foc_get_abs_motor_current_filtered
 5208              	.LVL401:
 5209 0510 FFE5     		b	.L552
 5210              	.LVL402:
 5211              	.L624:
 5212              	.LBB244:
 5213              		.loc 1 1127 0
 5214 0512 7C48     		ldr	r0, .L653+36
 5215              		.loc 1 1128 0
 5216 0514 7C49     		ldr	r1, .L653+40
 5217              		.loc 1 1127 0
 5218 0516 90ED007A 		vldr.32	s14, [r0]
 5219 051a 37EE677A 		vsub.f32	s14, s14, s15
 5220 051e 80ED007A 		vstr.32	s14, [r0]
 5221              		.loc 1 1128 0
 5222 0522 91ED007A 		vldr.32	s14, [r1]
 5223 0526 A8EE677A 		vfms.f32	s14, s16, s15
 5224 052a 81ED007A 		vstr.32	s14, [r1]
 5225 052e 4DE6     		b	.L568
 5226              	.LVL403:
 5227              	.L645:
 5228              	.LBE244:
 5229              	.LBB245:
 5230              		.loc 1 1208 0
 5231 0530 3B78     		ldrb	r3, [r7]	@ zero_extendqisi2
 5232              	.LVL404:
 5233 0532 704A     		ldr	r2, .L653+20
 5234 0534 DBB2     		uxtb	r3, r3
 5235 0536 1370     		strb	r3, [r2]
 5236              	.LVL405:
 5237              		.loc 1 1211 0
 5238 0538 3B78     		ldrb	r3, [r7]	@ zero_extendqisi2
 5239 053a 042B     		cmp	r3, #4
 5240 053c 00F0B480 		beq	.L649
 5241              	.LVL406:
 5242              	.L587:
 5243              		.loc 1 1220 0
 5244 0540 674B     		ldr	r3, .L653
ARM GAS  C:\Users\CHRIST~1\AppData\Local\Temp\ccCFoZV9.s 			page 93


 5245 0542 1B78     		ldrb	r3, [r3]	@ zero_extendqisi2
 5246              		.loc 1 1217 0
 5247 0544 4FF00009 		mov	r9, #0
 5248 0548 87F80090 		strb	r9, [r7]
 5249              		.loc 1 1220 0
 5250 054c 002B     		cmp	r3, #0
 5251 054e 3FF4DDAE 		beq	.L542
 5252              	.L588:
 5253 0552 D8F80030 		ldr	r3, [r8]
 5254 0556 002B     		cmp	r3, #0
 5255 0558 BFF6D8AE 		bge	.L542
 5256 055c 8AE7     		b	.L600
 5257              	.LVL407:
 5258              	.L647:
 5259              	.LBE245:
 5260              	.LBB246:
 5261              		.loc 1 1178 0
 5262 055e 3B78     		ldrb	r3, [r7]	@ zero_extendqisi2
 5263              	.LVL408:
 5264 0560 644A     		ldr	r2, .L653+20
 5265 0562 DBB2     		uxtb	r3, r3
 5266 0564 1370     		strb	r3, [r2]
 5267              	.LVL409:
 5268              		.loc 1 1181 0
 5269 0566 3B78     		ldrb	r3, [r7]	@ zero_extendqisi2
 5270 0568 032B     		cmp	r3, #3
 5271 056a 00F09180 		beq	.L650
 5272              	.LVL410:
 5273              	.L583:
 5274              		.loc 1 1187 0
 5275 056e 4FF00009 		mov	r9, #0
 5276 0572 87F80090 		strb	r9, [r7]
 5277              		.loc 1 1190 0
 5278 0576 FFF7FEFF 		bl	mc_interface_get_state
 5279              	.LVL411:
 5280 057a 0228     		cmp	r0, #2
 5281 057c 7FF4C6AE 		bne	.L542
 5282 0580 E7E7     		b	.L588
 5283              	.LVL412:
 5284              	.L642:
 5285              	.LBE246:
 5286              	.LBB247:
 5287              	.LBB192:
 5288              		.loc 1 1253 0
 5289 0582 D5F80080 		ldr	r8, [r5]
 5290 0586 614E     		ldr	r6, .L653+44
 5291 0588 FFF7FEFF 		bl	mcpwm_get_comm_step
 5292              	.LVL413:
 5293 058c 604B     		ldr	r3, .L653+48
 5294 058e 0138     		subs	r0, r0, #1
 5295 0590 03EB8003 		add	r3, r3, r0, lsl #2
 5296 0594 D3ED007A 		vldr.32	s15, [r3]
 5297 0598 FDEEE77A 		vcvt.s32.f32	s15, s15
 5298 059c CDED007A 		vstr.32	s15, [sp]	@ int
 5299 05a0 BDF90030 		ldrsh	r3, [sp]
 5300 05a4 26F81830 		strh	r3, [r6, r8, lsl #1]	@ movhi
 5301              		.loc 1 1254 0
ARM GAS  C:\Users\CHRIST~1\AppData\Local\Temp\ccCFoZV9.s 			page 94


 5302 05a8 D5F80080 		ldr	r8, [r5]
 5303 05ac FFF7FEFF 		bl	mcpwm_get_comm_step
 5304              	.LVL414:
 5305 05b0 584B     		ldr	r3, .L653+52
 5306              		.loc 1 1256 0
 5307 05b2 594A     		ldr	r2, .L653+56
 5308              		.loc 1 1257 0
 5309 05b4 5949     		ldr	r1, .L653+60
 5310              		.loc 1 1254 0
 5311 05b6 0138     		subs	r0, r0, #1
 5312 05b8 03EB8003 		add	r3, r3, r0, lsl #2
 5313 05bc D3ED007A 		vldr.32	s15, [r3]
 5314              		.loc 1 1256 0
 5315 05c0 5748     		ldr	r0, .L653+64
 5316              		.loc 1 1254 0
 5317 05c2 FDEEE77A 		vcvt.s32.f32	s15, s15
 5318 05c6 06EB4806 		add	r6, r6, r8, lsl #1
 5319 05ca CDED007A 		vstr.32	s15, [sp]	@ int
 5320 05ce BDF90030 		ldrsh	r3, [sp]
 5321 05d2 A6F8A03F 		strh	r3, [r6, #4000]	@ movhi
 5322              		.loc 1 1256 0
 5323 05d6 2E68     		ldr	r6, [r5]
 5324 05d8 D2ED007A 		vldr.32	s15, [r2]
 5325              		.loc 1 1258 0
 5326 05dc 514B     		ldr	r3, .L653+68
 5327              		.loc 1 1256 0
 5328 05de FDEEE77A 		vcvt.s32.f32	s15, s15
 5329 05e2 00EB4600 		add	r0, r0, r6, lsl #1
 5330 05e6 CDED007A 		vstr.32	s15, [sp]	@ int
 5331 05ea BDF90060 		ldrsh	r6, [sp]
 5332 05ee A0F8486E 		strh	r6, [r0, #3656]	@ movhi
 5333              		.loc 1 1257 0
 5334 05f2 2868     		ldr	r0, [r5]
 5335 05f4 D2ED017A 		vldr.32	s15, [r2, #4]
 5336 05f8 FDEEE77A 		vcvt.s32.f32	s15, s15
 5337 05fc 01EB4001 		add	r1, r1, r0, lsl #1
 5338 0600 CDED007A 		vstr.32	s15, [sp]	@ int
 5339 0604 BDF90000 		ldrsh	r0, [sp]
 5340 0608 A1F8F00C 		strh	r0, [r1, #3312]	@ movhi
 5341              		.loc 1 1258 0
 5342 060c 2968     		ldr	r1, [r5]
 5343 060e D2ED027A 		vldr.32	s15, [r2, #8]
 5344 0612 FDEEE77A 		vcvt.s32.f32	s15, s15
 5345 0616 03EB4103 		add	r3, r3, r1, lsl #1
 5346 061a CDED007A 		vstr.32	s15, [sp]	@ int
 5347 061e BDF90020 		ldrsh	r2, [sp]
 5348 0622 A3F8982B 		strh	r2, [r3, #2968]	@ movhi
 5349 0626 37E6     		b	.L594
 5350              	.LVL415:
 5351              	.L641:
 5352              		.loc 1 1242 0
 5353 0628 B288     		ldrh	r2, [r6, #4]
 5354 062a 7188     		ldrh	r1, [r6, #2]
 5355 062c 3388     		ldrh	r3, [r6]
 5356 062e 3E4C     		ldr	r4, .L653+72
 5357              		.loc 1 1243 0
 5358 0630 D5F80080 		ldr	r8, [r5]
ARM GAS  C:\Users\CHRIST~1\AppData\Local\Temp\ccCFoZV9.s 			page 95


 5359 0634 3D4F     		ldr	r7, .L653+76
 5360              		.loc 1 1242 0
 5361 0636 89B2     		uxth	r1, r1
 5362 0638 11FA82F2 		uxtah	r2, r1, r2
 5363 063c 12FA83F3 		uxtah	r3, r2, r3
 5364 0640 84FB0324 		smull	r2, r4, r4, r3
 5365 0644 A4EBE374 		sub	r4, r4, r3, asr #31
 5366              		.loc 1 1243 0
 5367 0648 FFF7FEFF 		bl	mcpwm_foc_get_phase
 5368              	.LVL416:
 5369 064c 9FED387A 		vldr.32	s14, .L653+80
 5370 0650 DFED387A 		vldr.32	s15, .L653+84
 5371 0654 80EE070A 		vdiv.f32	s0, s0, s14
 5372 0658 B844     		add	r8, r8, r7
 5373              		.loc 1 1242 0
 5374 065a 24B2     		sxth	r4, r4
 5375              	.LVL417:
 5376              		.loc 1 1243 0
 5377 065c 20EE270A 		vmul.f32	s0, s0, s15
 5378 0660 FCEEC07A 		vcvt.u32.f32	s15, s0
 5379 0664 CDED007A 		vstr.32	s15, [sp]	@ int
 5380 0668 9DF90030 		ldrsb	r3, [sp]
 5381 066c 88F8083E 		strb	r3, [r8, #3592]
 5382 0670 E0E5     		b	.L592
 5383              	.LVL418:
 5384              	.L575:
 5385              	.LBE192:
 5386              	.LBE247:
 5387              		.loc 1 1142 0
 5388 0672 204A     		ldr	r2, .L653+20
 5389              		.loc 1 1141 0
 5390 0674 0024     		movs	r4, #0
 5391              		.loc 1 1142 0
 5392 0676 0121     		movs	r1, #1
 5393              		.loc 1 1141 0
 5394 0678 3C70     		strb	r4, [r7]
 5395              	.LBB248:
 5396              	.LBB249:
 5397              	.LBB250:
 5398              	.LBB251:
 5399              	.LBB252:
 5400              		.loc 3 546 0
 5401 067a 2023     		movs	r3, #32
 5402              	.LBE252:
 5403              	.LBE251:
 5404              	.LBE250:
 5405              	.LBE249:
 5406              	.LBE248:
 5407              		.loc 1 1142 0
 5408 067c 1170     		strb	r1, [r2]
 5409              	.LVL419:
 5410              	.LBB257:
 5411              	.LBB256:
 5412              	.LBB255:
 5413              	.LBB254:
 5414              	.LBB253:
 5415              		.loc 3 546 0
ARM GAS  C:\Users\CHRIST~1\AppData\Local\Temp\ccCFoZV9.s 			page 96


 5416              		.syntax unified
 5417              	@ 546 "ChibiOS_3.0.2/os/ext/CMSIS/include/core_cmFunc.h" 1
 5418 067e 83F31188 		MSR basepri, r3
 5419              	@ 0 "" 2
 5420              	.LVL420:
 5421              		.thumb
 5422              		.syntax unified
 5423              	.LBE253:
 5424              	.LBE254:
 5425              	.LBE255:
 5426              	.LBE256:
 5427              	.LBE257:
 5428              		.loc 1 1144 0
 5429 0682 1D4B     		ldr	r3, .L653+24
 5430 0684 1868     		ldr	r0, [r3]
 5431 0686 FFF7FEFF 		bl	chEvtSignalI
 5432              	.LVL421:
 5433              	.LBB258:
 5434              	.LBB259:
 5435              	.LBB260:
 5436              	.LBB261:
 5437              	.LBB262:
 5438              		.loc 3 546 0
 5439              		.syntax unified
 5440              	@ 546 "ChibiOS_3.0.2/os/ext/CMSIS/include/core_cmFunc.h" 1
 5441 068a 84F31188 		MSR basepri, r4
 5442              	@ 0 "" 2
 5443              	.LVL422:
 5444              		.thumb
 5445              		.syntax unified
 5446 068e 3DE6     		b	.L542
 5447              	.LVL423:
 5448              	.L650:
 5449              	.LBE262:
 5450              	.LBE261:
 5451              	.LBE260:
 5452              	.LBE259:
 5453              	.LBE258:
 5454              	.LBB263:
 5455              	.LBB213:
 5456              	.LBB214:
 5457              	.LBB215:
 5458              	.LBB216:
 5459              	.LBB217:
 5460 0690 2023     		movs	r3, #32
 5461              		.syntax unified
 5462              	@ 546 "ChibiOS_3.0.2/os/ext/CMSIS/include/core_cmFunc.h" 1
 5463 0692 83F31188 		MSR basepri, r3
 5464              	@ 0 "" 2
 5465              	.LVL424:
 5466              		.thumb
 5467              		.syntax unified
 5468              	.LBE217:
 5469              	.LBE216:
 5470              	.LBE215:
 5471              	.LBE214:
 5472              	.LBE213:
ARM GAS  C:\Users\CHRIST~1\AppData\Local\Temp\ccCFoZV9.s 			page 97


 5473              		.loc 1 1183 0
 5474 0696 184B     		ldr	r3, .L653+24
 5475 0698 0121     		movs	r1, #1
 5476 069a 1868     		ldr	r0, [r3]
 5477 069c FFF7FEFF 		bl	chEvtSignalI
 5478              	.LVL425:
 5479              	.LBB218:
 5480              	.LBB219:
 5481              	.LBB220:
 5482              	.LBB221:
 5483              	.LBB222:
 5484              		.loc 3 546 0
 5485 06a0 0023     		movs	r3, #0
 5486              		.syntax unified
 5487              	@ 546 "ChibiOS_3.0.2/os/ext/CMSIS/include/core_cmFunc.h" 1
 5488 06a2 83F31188 		MSR basepri, r3
 5489              	@ 0 "" 2
 5490              	.LVL426:
 5491              		.thumb
 5492              		.syntax unified
 5493 06a6 62E7     		b	.L583
 5494              	.LVL427:
 5495              	.L649:
 5496              	.LBE222:
 5497              	.LBE221:
 5498              	.LBE220:
 5499              	.LBE219:
 5500              	.LBE218:
 5501              	.LBE263:
 5502              	.LBB264:
 5503              	.LBB202:
 5504              	.LBB203:
 5505              	.LBB204:
 5506              	.LBB205:
 5507              	.LBB206:
 5508 06a8 2023     		movs	r3, #32
 5509              		.syntax unified
 5510              	@ 546 "ChibiOS_3.0.2/os/ext/CMSIS/include/core_cmFunc.h" 1
 5511 06aa 83F31188 		MSR basepri, r3
 5512              	@ 0 "" 2
 5513              	.LVL428:
 5514              		.thumb
 5515              		.syntax unified
 5516              	.LBE206:
 5517              	.LBE205:
 5518              	.LBE204:
 5519              	.LBE203:
 5520              	.LBE202:
 5521              		.loc 1 1213 0
 5522 06ae 124B     		ldr	r3, .L653+24
 5523 06b0 0121     		movs	r1, #1
 5524 06b2 1868     		ldr	r0, [r3]
 5525 06b4 FFF7FEFF 		bl	chEvtSignalI
 5526              	.LVL429:
 5527              	.LBB207:
 5528              	.LBB208:
 5529              	.LBB209:
ARM GAS  C:\Users\CHRIST~1\AppData\Local\Temp\ccCFoZV9.s 			page 98


 5530              	.LBB210:
 5531              	.LBB211:
 5532              		.loc 3 546 0
 5533 06b8 0023     		movs	r3, #0
 5534              		.syntax unified
 5535              	@ 546 "ChibiOS_3.0.2/os/ext/CMSIS/include/core_cmFunc.h" 1
 5536 06ba 83F31188 		MSR basepri, r3
 5537              	@ 0 "" 2
 5538              	.LVL430:
 5539              		.thumb
 5540              		.syntax unified
 5541 06be 3FE7     		b	.L587
 5542              	.LVL431:
 5543              	.L646:
 5544              	.LBE211:
 5545              	.LBE210:
 5546              	.LBE209:
 5547              	.LBE208:
 5548              	.LBE207:
 5549              	.LBE264:
 5550              	.LBB265:
 5551              		.loc 1 1173 0
 5552 06c0 03F5FA63 		add	r3, r3, #2000
 5553              	.LVL432:
 5554 06c4 C5E6     		b	.L581
 5555              	.LVL433:
 5556              	.L644:
 5557              	.LBE265:
 5558              	.LBB266:
 5559              		.loc 1 1203 0
 5560 06c6 03F5FA63 		add	r3, r3, #2000
 5561              	.LVL434:
 5562 06ca ADE6     		b	.L585
 5563              	.LVL435:
 5564              	.L648:
 5565              	.LBE266:
 5566              		.loc 1 1156 0
 5567 06cc 074B     		ldr	r3, .L653+12
 5568 06ce 2A68     		ldr	r2, [r5]
 5569 06d0 1B68     		ldr	r3, [r3]
 5570 06d2 9A42     		cmp	r2, r3
 5571 06d4 7FF41AAE 		bne	.L542
 5572              		.loc 1 1136 0
 5573 06d8 4FF00009 		mov	r9, #0
 5574 06dc E3E6     		b	.L595
 5575              	.L654:
 5576 06de 00BF     		.align	2
 5577              	.L653:
 5578 06e0 00000000 		.word	.LANCHOR13
 5579 06e4 00000000 		.word	.LANCHOR15
 5580 06e8 00000000 		.word	.LANCHOR42
 5581 06ec 00000000 		.word	.LANCHOR2
 5582 06f0 00000000 		.word	.LANCHOR35
 5583 06f4 00000000 		.word	.LANCHOR1
 5584 06f8 00000000 		.word	.LANCHOR0
 5585 06fc 00000000 		.word	.LANCHOR14
 5586 0700 00080240 		.word	1073874944
ARM GAS  C:\Users\CHRIST~1\AppData\Local\Temp\ccCFoZV9.s 			page 99


 5587 0704 00000000 		.word	.LANCHOR27
 5588 0708 00000000 		.word	.LANCHOR29
 5589 070c 00000000 		.word	.LANCHOR4
 5590 0710 00000000 		.word	mcpwm_detect_currents
 5591 0714 00000000 		.word	mcpwm_detect_currents_diff
 5592 0718 00000000 		.word	mcpwm_detect_voltages
 5593 071c F0210000 		.word	.LANCHOR6
 5594 0720 F8100000 		.word	.LANCHOR5
 5595 0724 E8320000 		.word	.LANCHOR7
 5596 0728 56555555 		.word	1431655766
 5597 072c C8760000 		.word	.LANCHOR11
 5598 0730 0000B443 		.word	1135869952
 5599 0734 00007A43 		.word	1132068864
 5600 0738 00000000 		.word	.LANCHOR3
 5601              		.cfi_endproc
 5602              	.LFE307:
 5603              		.size	mc_interface_mc_timer_isr, .-mc_interface_mc_timer_isr
 5604              		.section	.text.mc_interface_adc_inj_int_handler,"ax",%progbits
 5605              		.align	1
 5606              		.p2align 4,,15
 5607              		.global	mc_interface_adc_inj_int_handler
 5608              		.syntax unified
 5609              		.thumb
 5610              		.thumb_func
 5611              		.fpu fpv4-sp-d16
 5612              		.type	mc_interface_adc_inj_int_handler, %function
 5613              	mc_interface_adc_inj_int_handler:
 5614              	.LFB308:
 5615              		.loc 1 1280 0
 5616              		.cfi_startproc
 5617              		@ args = 0, pretend = 0, frame = 0
 5618              		@ frame_needed = 0, uses_anonymous_args = 0
 5619              		@ link register save eliminated.
 5620              		.loc 1 1281 0
 5621 0000 034B     		ldr	r3, .L659
 5622 0002 9B78     		ldrb	r3, [r3, #2]	@ zero_extendqisi2
 5623 0004 012B     		cmp	r3, #1
 5624 0006 00D9     		bls	.L658
 5625 0008 7047     		bx	lr
 5626              	.L658:
 5627              		.loc 1 1284 0
 5628 000a FFF7FEBF 		b	mcpwm_adc_inj_int_handler
 5629              	.LVL436:
 5630              	.L660:
 5631 000e 00BF     		.align	2
 5632              	.L659:
 5633 0010 00000000 		.word	.LANCHOR12
 5634              		.cfi_endproc
 5635              	.LFE308:
 5636              		.size	mc_interface_adc_inj_int_handler, .-mc_interface_adc_inj_int_handler
 5637              		.global	ADC_curr_norm_value
 5638              		.global	ADC_Value
 5639              		.section	.bss.ADC_Value,"aw",%nobits
 5640              		.align	2
 5641              		.set	.LANCHOR41,. + 0
 5642              		.type	ADC_Value, %object
 5643              		.size	ADC_Value, 24
ARM GAS  C:\Users\CHRIST~1\AppData\Local\Temp\ccCFoZV9.s 			page 100


 5644              	ADC_Value:
 5645 0000 00000000 		.space	24
 5645      00000000 
 5645      00000000 
 5645      00000000 
 5645      00000000 
 5646              		.section	.bss.ADC_curr_norm_value,"aw",%nobits
 5647              		.align	2
 5648              		.set	.LANCHOR46,. + 0
 5649              		.type	ADC_curr_norm_value, %object
 5650              		.size	ADC_curr_norm_value, 12
 5651              	ADC_curr_norm_value:
 5652 0000 00000000 		.space	12
 5652      00000000 
 5652      00000000 
 5653              		.section	.bss.a.11933,"aw",%nobits
 5654              		.align	2
 5655              		.set	.LANCHOR45,. + 0
 5656              		.type	a.11933, %object
 5657              		.size	a.11933, 4
 5658              	a.11933:
 5659 0000 00000000 		.space	4
 5660              		.section	.bss.curr_diff_samples.11921,"aw",%nobits
 5661              		.align	2
 5662              		.set	.LANCHOR44,. + 0
 5663              		.type	curr_diff_samples.11921, %object
 5664              		.size	curr_diff_samples.11921, 4
 5665              	curr_diff_samples.11921:
 5666 0000 00000000 		.space	4
 5667              		.section	.bss.curr_diff_sum.11920,"aw",%nobits
 5668              		.align	2
 5669              		.set	.LANCHOR43,. + 0
 5670              		.type	curr_diff_sum.11920, %object
 5671              		.size	curr_diff_sum.11920, 4
 5672              	curr_diff_sum.11920:
 5673 0000 00000000 		.space	4
 5674              		.section	.bss.m_amp_seconds,"aw",%nobits
 5675              		.align	2
 5676              		.set	.LANCHOR26,. + 0
 5677              		.type	m_amp_seconds, %object
 5678              		.size	m_amp_seconds, 4
 5679              	m_amp_seconds:
 5680 0000 00000000 		.space	4
 5681              		.section	.bss.m_amp_seconds_charged,"aw",%nobits
 5682              		.align	2
 5683              		.set	.LANCHOR27,. + 0
 5684              		.type	m_amp_seconds_charged, %object
 5685              		.size	m_amp_seconds_charged, 4
 5686              	m_amp_seconds_charged:
 5687 0000 00000000 		.space	4
 5688              		.section	.bss.m_conf,"aw",%nobits
 5689              		.align	2
 5690              		.set	.LANCHOR12,. + 0
 5691              		.type	m_conf, %object
 5692              		.size	m_conf, 368
 5693              	m_conf:
 5694 0000 00000000 		.space	368
ARM GAS  C:\Users\CHRIST~1\AppData\Local\Temp\ccCFoZV9.s 			page 101


 5694      00000000 
 5694      00000000 
 5694      00000000 
 5694      00000000 
 5695              		.section	.bss.m_cycles_running,"aw",%nobits
 5696              		.align	2
 5697              		.set	.LANCHOR15,. + 0
 5698              		.type	m_cycles_running, %object
 5699              		.size	m_cycles_running, 4
 5700              	m_cycles_running:
 5701 0000 00000000 		.space	4
 5702              		.section	.bss.m_fault_now,"aw",%nobits
 5703              		.set	.LANCHOR13,. + 0
 5704              		.type	m_fault_now, %object
 5705              		.size	m_fault_now, 1
 5706              	m_fault_now:
 5707 0000 00       		.space	1
 5708              		.section	.bss.m_ignore_iterations,"aw",%nobits
 5709              		.align	2
 5710              		.set	.LANCHOR14,. + 0
 5711              		.type	m_ignore_iterations, %object
 5712              		.size	m_ignore_iterations, 4
 5713              	m_ignore_iterations:
 5714 0000 00000000 		.space	4
 5715              		.section	.bss.m_input_current_iterations,"aw",%nobits
 5716              		.align	2
 5717              		.set	.LANCHOR21,. + 0
 5718              		.type	m_input_current_iterations, %object
 5719              		.size	m_input_current_iterations, 4
 5720              	m_input_current_iterations:
 5721 0000 00000000 		.space	4
 5722              		.section	.bss.m_input_current_sum,"aw",%nobits
 5723              		.align	2
 5724              		.set	.LANCHOR19,. + 0
 5725              		.type	m_input_current_sum, %object
 5726              		.size	m_input_current_sum, 4
 5727              	m_input_current_sum:
 5728 0000 00000000 		.space	4
 5729              		.section	.bss.m_last_adc_duration_sample,"aw",%nobits
 5730              		.align	2
 5731              		.set	.LANCHOR31,. + 0
 5732              		.type	m_last_adc_duration_sample, %object
 5733              		.size	m_last_adc_duration_sample, 4
 5734              	m_last_adc_duration_sample:
 5735 0000 00000000 		.space	4
 5736              		.section	.bss.m_lock_enabled,"aw",%nobits
 5737              		.set	.LANCHOR16,. + 0
 5738              		.type	m_lock_enabled, %object
 5739              		.size	m_lock_enabled, 1
 5740              	m_lock_enabled:
 5741 0000 00       		.space	1
 5742              		.section	.bss.m_lock_override_once,"aw",%nobits
 5743              		.set	.LANCHOR17,. + 0
 5744              		.type	m_lock_override_once, %object
 5745              		.size	m_lock_override_once, 1
 5746              	m_lock_override_once:
 5747 0000 00       		.space	1
ARM GAS  C:\Users\CHRIST~1\AppData\Local\Temp\ccCFoZV9.s 			page 102


 5748              		.section	.bss.m_motor_current_iterations,"aw",%nobits
 5749              		.align	2
 5750              		.set	.LANCHOR20,. + 0
 5751              		.type	m_motor_current_iterations, %object
 5752              		.size	m_motor_current_iterations, 4
 5753              	m_motor_current_iterations:
 5754 0000 00000000 		.space	4
 5755              		.section	.bss.m_motor_current_sum,"aw",%nobits
 5756              		.align	2
 5757              		.set	.LANCHOR18,. + 0
 5758              		.type	m_motor_current_sum, %object
 5759              		.size	m_motor_current_sum, 4
 5760              	m_motor_current_sum:
 5761 0000 00000000 		.space	4
 5762              		.section	.bss.m_motor_id_iterations,"aw",%nobits
 5763              		.align	2
 5764              		.set	.LANCHOR24,. + 0
 5765              		.type	m_motor_id_iterations, %object
 5766              		.size	m_motor_id_iterations, 4
 5767              	m_motor_id_iterations:
 5768 0000 00000000 		.space	4
 5769              		.section	.bss.m_motor_id_sum,"aw",%nobits
 5770              		.align	2
 5771              		.set	.LANCHOR22,. + 0
 5772              		.type	m_motor_id_sum, %object
 5773              		.size	m_motor_id_sum, 4
 5774              	m_motor_id_sum:
 5775 0000 00000000 		.space	4
 5776              		.section	.bss.m_motor_iq_iterations,"aw",%nobits
 5777              		.align	2
 5778              		.set	.LANCHOR25,. + 0
 5779              		.type	m_motor_iq_iterations, %object
 5780              		.size	m_motor_iq_iterations, 4
 5781              	m_motor_iq_iterations:
 5782 0000 00000000 		.space	4
 5783              		.section	.bss.m_motor_iq_sum,"aw",%nobits
 5784              		.align	2
 5785              		.set	.LANCHOR23,. + 0
 5786              		.type	m_motor_iq_sum, %object
 5787              		.size	m_motor_iq_sum, 4
 5788              	m_motor_iq_sum:
 5789 0000 00000000 		.space	4
 5790              		.section	.bss.m_position_set,"aw",%nobits
 5791              		.align	2
 5792              		.set	.LANCHOR30,. + 0
 5793              		.type	m_position_set, %object
 5794              		.size	m_position_set, 4
 5795              	m_position_set:
 5796 0000 00000000 		.space	4
 5797              		.section	.bss.m_sample_int,"aw",%nobits
 5798              		.align	2
 5799              		.set	.LANCHOR34,. + 0
 5800              		.type	m_sample_int, %object
 5801              		.size	m_sample_int, 4
 5802              	m_sample_int:
 5803 0000 00000000 		.space	4
 5804              		.section	.bss.m_sample_len,"aw",%nobits
ARM GAS  C:\Users\CHRIST~1\AppData\Local\Temp\ccCFoZV9.s 			page 103


 5805              		.align	2
 5806              		.set	.LANCHOR2,. + 0
 5807              		.type	m_sample_len, %object
 5808              		.size	m_sample_len, 4
 5809              	m_sample_len:
 5810 0000 00000000 		.space	4
 5811              		.section	.bss.m_sample_mode,"aw",%nobits
 5812              		.set	.LANCHOR36,. + 0
 5813              		.type	m_sample_mode, %object
 5814              		.size	m_sample_mode, 1
 5815              	m_sample_mode:
 5816 0000 00       		.space	1
 5817              		.section	.bss.m_sample_mode_last,"aw",%nobits
 5818              		.set	.LANCHOR1,. + 0
 5819              		.type	m_sample_mode_last, %object
 5820              		.size	m_sample_mode_last, 1
 5821              	m_sample_mode_last:
 5822 0000 00       		.space	1
 5823              		.section	.bss.m_sample_now,"aw",%nobits
 5824              		.align	2
 5825              		.set	.LANCHOR35,. + 0
 5826              		.type	m_sample_now, %object
 5827              		.size	m_sample_now, 4
 5828              	m_sample_now:
 5829 0000 00000000 		.space	4
 5830              		.section	.bss.m_sample_trigger,"aw",%nobits
 5831              		.align	2
 5832              		.set	.LANCHOR3,. + 0
 5833              		.type	m_sample_trigger, %object
 5834              		.size	m_sample_trigger, 4
 5835              	m_sample_trigger:
 5836 0000 00000000 		.space	4
 5837              		.section	.bss.m_temp_fet,"aw",%nobits
 5838              		.align	2
 5839              		.set	.LANCHOR32,. + 0
 5840              		.type	m_temp_fet, %object
 5841              		.size	m_temp_fet, 4
 5842              	m_temp_fet:
 5843 0000 00000000 		.space	4
 5844              		.section	.bss.m_temp_motor,"aw",%nobits
 5845              		.align	2
 5846              		.set	.LANCHOR33,. + 0
 5847              		.type	m_temp_motor, %object
 5848              		.size	m_temp_motor, 4
 5849              	m_temp_motor:
 5850 0000 00000000 		.space	4
 5851              		.section	.bss.m_watt_seconds,"aw",%nobits
 5852              		.align	2
 5853              		.set	.LANCHOR28,. + 0
 5854              		.type	m_watt_seconds, %object
 5855              		.size	m_watt_seconds, 4
 5856              	m_watt_seconds:
 5857 0000 00000000 		.space	4
 5858              		.section	.bss.m_watt_seconds_charged,"aw",%nobits
 5859              		.align	2
 5860              		.set	.LANCHOR29,. + 0
 5861              		.type	m_watt_seconds_charged, %object
ARM GAS  C:\Users\CHRIST~1\AppData\Local\Temp\ccCFoZV9.s 			page 104


 5862              		.size	m_watt_seconds_charged, 4
 5863              	m_watt_seconds_charged:
 5864 0000 00000000 		.space	4
 5865              		.section	.bss.pwn_done_func,"aw",%nobits
 5866              		.align	2
 5867              		.set	.LANCHOR39,. + 0
 5868              		.type	pwn_done_func, %object
 5869              		.size	pwn_done_func, 4
 5870              	pwn_done_func:
 5871 0000 00000000 		.space	4
 5872              		.section	.bss.sample_send_thread_wa,"aw",%nobits
 5873              		.align	3
 5874              		.set	.LANCHOR38,. + 0
 5875              		.type	sample_send_thread_wa, %object
 5876              		.size	sample_send_thread_wa, 1432
 5877              	sample_send_thread_wa:
 5878 0000 00000000 		.space	1432
 5878      00000000 
 5878      00000000 
 5878      00000000 
 5878      00000000 
 5879              		.section	.bss.sample_send_tp,"aw",%nobits
 5880              		.align	2
 5881              		.set	.LANCHOR0,. + 0
 5882              		.type	sample_send_tp, %object
 5883              		.size	sample_send_tp, 4
 5884              	sample_send_tp:
 5885 0000 00000000 		.space	4
 5886              		.section	.bss.timer_thread_wa,"aw",%nobits
 5887              		.align	3
 5888              		.set	.LANCHOR37,. + 0
 5889              		.type	timer_thread_wa, %object
 5890              		.size	timer_thread_wa, 1432
 5891              	timer_thread_wa:
 5892 0000 00000000 		.space	1432
 5892      00000000 
 5892      00000000 
 5892      00000000 
 5892      00000000 
 5893              		.section	.bss.wrong_voltage_iterations.11914,"aw",%nobits
 5894              		.align	2
 5895              		.set	.LANCHOR42,. + 0
 5896              		.type	wrong_voltage_iterations.11914, %object
 5897              		.size	wrong_voltage_iterations.11914, 4
 5898              	wrong_voltage_iterations.11914:
 5899 0000 00000000 		.space	4
 5900              		.section	.ram4,"aw",%progbits
 5901              		.align	2
 5902              		.set	.LANCHOR4,. + 0
 5903              		.set	.LANCHOR5,. + 4344
 5904              		.set	.LANCHOR6,. + 8688
 5905              		.set	.LANCHOR7,. + 13032
 5906              		.set	.LANCHOR8,. + 17376
 5907              		.set	.LANCHOR9,. + 21720
 5908              		.set	.LANCHOR10,. + 26064
 5909              		.set	.LANCHOR11,. + 30408
 5910              		.type	m_curr0_samples, %object
ARM GAS  C:\Users\CHRIST~1\AppData\Local\Temp\ccCFoZV9.s 			page 105


 5911              		.size	m_curr0_samples, 4000
 5912              	m_curr0_samples:
 5913 0000 00000000 		.space	4000
 5913      00000000 
 5913      00000000 
 5913      00000000 
 5913      00000000 
 5914              		.type	m_curr1_samples, %object
 5915              		.size	m_curr1_samples, 4000
 5916              	m_curr1_samples:
 5917 0fa0 00000000 		.space	4000
 5917      00000000 
 5917      00000000 
 5917      00000000 
 5917      00000000 
 5918              		.type	m_ph1_samples, %object
 5919              		.size	m_ph1_samples, 4000
 5920              	m_ph1_samples:
 5921 1f40 00000000 		.space	4000
 5921      00000000 
 5921      00000000 
 5921      00000000 
 5921      00000000 
 5922              		.type	m_ph2_samples, %object
 5923              		.size	m_ph2_samples, 4000
 5924              	m_ph2_samples:
 5925 2ee0 00000000 		.space	4000
 5925      00000000 
 5925      00000000 
 5925      00000000 
 5925      00000000 
 5926              		.type	m_ph3_samples, %object
 5927              		.size	m_ph3_samples, 4000
 5928              	m_ph3_samples:
 5929 3e80 00000000 		.space	4000
 5929      00000000 
 5929      00000000 
 5929      00000000 
 5929      00000000 
 5930              		.type	m_vzero_samples, %object
 5931              		.size	m_vzero_samples, 4000
 5932              	m_vzero_samples:
 5933 4e20 00000000 		.space	4000
 5933      00000000 
 5933      00000000 
 5933      00000000 
 5933      00000000 
 5934              		.type	m_curr_fir_samples, %object
 5935              		.size	m_curr_fir_samples, 4000
 5936              	m_curr_fir_samples:
 5937 5dc0 00000000 		.space	4000
 5937      00000000 
 5937      00000000 
 5937      00000000 
 5937      00000000 
 5938              		.type	m_f_sw_samples, %object
 5939              		.size	m_f_sw_samples, 4000
ARM GAS  C:\Users\CHRIST~1\AppData\Local\Temp\ccCFoZV9.s 			page 106


 5940              	m_f_sw_samples:
 5941 6d60 00000000 		.space	4000
 5941      00000000 
 5941      00000000 
 5941      00000000 
 5941      00000000 
 5942              		.type	m_status_samples, %object
 5943              		.size	m_status_samples, 2000
 5944              	m_status_samples:
 5945 7d00 00000000 		.space	2000
 5945      00000000 
 5945      00000000 
 5945      00000000 
 5945      00000000 
 5946              		.type	m_phase_samples, %object
 5947              		.size	m_phase_samples, 2000
 5948              	m_phase_samples:
 5949 84d0 00000000 		.space	2000
 5949      00000000 
 5949      00000000 
 5949      00000000 
 5949      00000000 
 5950              		.section	.rodata.CSWTCH.162,"a",%progbits
 5951              		.align	2
 5952              		.set	.LANCHOR40,. + 0
 5953              		.type	CSWTCH.162, %object
 5954              		.size	CSWTCH.162, 28
 5955              	CSWTCH.162:
 5956 0000 00000000 		.word	.LC3
 5957 0004 10000000 		.word	.LC4
 5958 0008 28000000 		.word	.LC5
 5959 000c 44000000 		.word	.LC6
 5960 0010 54000000 		.word	.LC7
 5961 0014 70000000 		.word	.LC8
 5962 0018 8C000000 		.word	.LC9
 5963              		.section	.rodata.mc_interface_fault_to_string.str1.4,"aMS",%progbits,1
 5964              		.align	2
 5965              	.LC1:
 5966 0000 4641554C 		.ascii	"FAULT_UNKNOWN\000"
 5966      545F554E 
 5966      4B4E4F57 
 5966      4E00
 5967              		.section	.rodata.sample_send_thread.str1.4,"aMS",%progbits,1
 5968              		.align	2
 5969              	.LC0:
 5970 0000 53616D70 		.ascii	"SampleSender\000"
 5970      6C655365 
 5970      6E646572 
 5970      00
 5971              		.section	.rodata.str1.4,"aMS",%progbits,1
 5972              		.align	2
 5973              	.LC3:
 5974 0000 4641554C 		.ascii	"FAULT_CODE_NONE\000"
 5974      545F434F 
 5974      44455F4E 
 5974      4F4E4500 
 5975              	.LC4:
ARM GAS  C:\Users\CHRIST~1\AppData\Local\Temp\ccCFoZV9.s 			page 107


 5976 0010 4641554C 		.ascii	"FAULT_CODE_OVER_VOLTAGE\000"
 5976      545F434F 
 5976      44455F4F 
 5976      5645525F 
 5976      564F4C54 
 5977              	.LC5:
 5978 0028 4641554C 		.ascii	"FAULT_CODE_UNDER_VOLTAGE\000"
 5978      545F434F 
 5978      44455F55 
 5978      4E444552 
 5978      5F564F4C 
 5979 0041 000000   		.space	3
 5980              	.LC6:
 5981 0044 4641554C 		.ascii	"FAULT_CODE_DRV\000"
 5981      545F434F 
 5981      44455F44 
 5981      525600
 5982 0053 00       		.space	1
 5983              	.LC7:
 5984 0054 4641554C 		.ascii	"FAULT_CODE_ABS_OVER_CURRENT\000"
 5984      545F434F 
 5984      44455F41 
 5984      42535F4F 
 5984      5645525F 
 5985              	.LC8:
 5986 0070 4641554C 		.ascii	"FAULT_CODE_OVER_TEMP_FET\000"
 5986      545F434F 
 5986      44455F4F 
 5986      5645525F 
 5986      54454D50 
 5987 0089 000000   		.space	3
 5988              	.LC9:
 5989 008c 4641554C 		.ascii	"FAULT_CODE_OVER_TEMP_MOTOR\000"
 5989      545F434F 
 5989      44455F4F 
 5989      5645525F 
 5989      54454D50 
 5990              		.section	.rodata.timer_thread.str1.4,"aMS",%progbits,1
 5991              		.align	2
 5992              	.LC2:
 5993 0000 6D636966 		.ascii	"mcif timer\000"
 5993      2074696D 
 5993      657200
 5994              		.text
 5995              	.Letext0:
 5996              		.file 4 "c:\\program files (x86)\\gnu tools arm embedded\\6 2017-q2-update\\arm-none-eabi\\include
 5997              		.file 5 "c:\\program files (x86)\\gnu tools arm embedded\\6 2017-q2-update\\arm-none-eabi\\include
 5998              		.file 6 "c:\\program files (x86)\\gnu tools arm embedded\\6 2017-q2-update\\lib\\gcc\\arm-none-eab
 5999              		.file 7 "ChibiOS_3.0.2/os/rt/ports/ARMCMx/compilers/GCC/chtypes.h"
 6000              		.file 8 "ChibiOS_3.0.2/os/rt/include/chsystypes.h"
 6001              		.file 9 "ChibiOS_3.0.2/os/rt/include/chschd.h"
 6002              		.file 10 "ChibiOS_3.0.2/os/ext/CMSIS/include/core_cm4.h"
 6003              		.file 11 "ChibiOS_3.0.2/os/ext/CMSIS/ST/system_stm32f4xx.h"
 6004              		.file 12 "ChibiOS_3.0.2/os/ext/CMSIS/ST/stm32f407xx.h"
 6005              		.file 13 "ChibiOS_3.0.2/os/rt/ports/ARMCMx/chcore.h"
 6006              		.file 14 "ChibiOS_3.0.2/os/rt/ports/ARMCMx/chcore_v7m.h"
 6007              		.file 15 "ChibiOS_3.0.2/os/rt/include/chtm.h"
ARM GAS  C:\Users\CHRIST~1\AppData\Local\Temp\ccCFoZV9.s 			page 108


 6008              		.file 16 "ChibiOS_3.0.2/os/rt/include/chsem.h"
 6009              		.file 17 "ChibiOS_3.0.2/os/rt/include/chmtx.h"
 6010              		.file 18 "ChibiOS_3.0.2/os/rt/include/chevents.h"
 6011              		.file 19 "ChibiOS_3.0.2/os/rt/include/chqueues.h"
 6012              		.file 20 "datatypes.h"
 6013              		.file 21 "conf_general.h"
 6014              		.file 22 "mc_interface.h"
 6015              		.file 23 "mcpwm.h"
 6016              		.file 24 "ChibiOS_3.0.2/os/hal/ports/STM32/STM32F4xx/stm32_dma.h"
 6017              		.file 25 "ChibiOS_3.0.2/os/hal/ports/STM32/LLD/GPIOv2/pal_lld.h"
 6018              		.file 26 "ChibiOS_3.0.2/os/hal/include/can.h"
 6019              		.file 27 "ChibiOS_3.0.2/os/hal/ports/STM32/LLD/can_lld.h"
 6020              		.file 28 "ChibiOS_3.0.2/os/hal/include/i2c.h"
 6021              		.file 29 "ChibiOS_3.0.2/os/hal/ports/STM32/LLD/I2Cv1/i2c_lld.h"
 6022              		.file 30 "ChibiOS_3.0.2/os/hal/include/icu.h"
 6023              		.file 31 "ChibiOS_3.0.2/os/hal/ports/STM32/LLD/TIMv1/icu_lld.h"
 6024              		.file 32 "ChibiOS_3.0.2/os/hal/ports/STM32/LLD/TIMv1/stm32_tim.h"
 6025              		.file 33 "ChibiOS_3.0.2/os/hal/include/spi.h"
 6026              		.file 34 "ChibiOS_3.0.2/os/hal/ports/STM32/LLD/SPIv1/spi_lld.h"
 6027              		.file 35 "ChibiOS_3.0.2/os/hal/include/uart.h"
 6028              		.file 36 "ChibiOS_3.0.2/os/hal/ports/STM32/LLD/USARTv1/uart_lld.h"
 6029              		.file 37 "ChibiOS_3.0.2/os/hal/include/usb.h"
 6030              		.file 38 "ChibiOS_3.0.2/os/hal/ports/STM32/LLD/OTGv1/usb_lld.h"
 6031              		.file 39 "ChibiOS_3.0.2/os/hal/ports/STM32/LLD/OTGv1/stm32_otg.h"
 6032              		.file 40 "c:\\program files (x86)\\gnu tools arm embedded\\6 2017-q2-update\\arm-none-eabi\\includ
 6033              		.file 41 "c:\\program files (x86)\\gnu tools arm embedded\\6 2017-q2-update\\arm-none-eabi\\includ
 6034              		.file 42 "c:\\program files (x86)\\gnu tools arm embedded\\6 2017-q2-update\\arm-none-eabi\\includ
 6035              		.file 43 "c:\\program files (x86)\\gnu tools arm embedded\\6 2017-q2-update\\arm-none-eabi\\includ
 6036              		.file 44 "ChibiOS_3.0.2/os/rt/include/chsys.h"
 6037              		.file 45 "buffer.h"
 6038              		.file 46 "commands.h"
 6039              		.file 47 "ChibiOS_3.0.2/os/rt/include/chthreads.h"
 6040              		.file 48 "mcpwm_foc.h"
 6041              		.file 49 "ledpwm.h"
 6042              		.file 50 "encoder.h"
 6043              		.file 51 "utils.h"
 6044              		.file 52 "terminal.h"
 6045              		.section	.debug_info,"",%progbits
 6046              	.Ldebug_info0:
 6047 0000 8D570000 		.4byte	0x578d
 6048 0004 0400     		.2byte	0x4
 6049 0006 00000000 		.4byte	.Ldebug_abbrev0
 6050 000a 04       		.byte	0x4
 6051 000b 01       		.uleb128 0x1
 6052 000c B80A0000 		.4byte	.LASF1082
 6053 0010 0C       		.byte	0xc
 6054 0011 8F120000 		.4byte	.LASF1083
 6055 0015 1F080000 		.4byte	.LASF1084
 6056 0019 F0020000 		.4byte	.Ldebug_ranges0+0x2f0
 6057 001d 00000000 		.4byte	0
 6058 0021 00000000 		.4byte	.Ldebug_line0
 6059 0025 02       		.uleb128 0x2
 6060 0026 04       		.byte	0x4
 6061 0027 04       		.byte	0x4
 6062 0028 BD0D0000 		.4byte	.LASF0
 6063 002c 03       		.uleb128 0x3
 6064 002d 8B380000 		.4byte	.LASF2
ARM GAS  C:\Users\CHRIST~1\AppData\Local\Temp\ccCFoZV9.s 			page 109


 6065 0031 04       		.byte	0x4
 6066 0032 29       		.byte	0x29
 6067 0033 37000000 		.4byte	0x37
 6068 0037 02       		.uleb128 0x2
 6069 0038 01       		.byte	0x1
 6070 0039 06       		.byte	0x6
 6071 003a A21F0000 		.4byte	.LASF1
 6072 003e 03       		.uleb128 0x3
 6073 003f 50010000 		.4byte	.LASF3
 6074 0043 04       		.byte	0x4
 6075 0044 2B       		.byte	0x2b
 6076 0045 49000000 		.4byte	0x49
 6077 0049 02       		.uleb128 0x2
 6078 004a 01       		.byte	0x1
 6079 004b 08       		.byte	0x8
 6080 004c 330D0000 		.4byte	.LASF4
 6081 0050 03       		.uleb128 0x3
 6082 0051 ED090000 		.4byte	.LASF5
 6083 0055 04       		.byte	0x4
 6084 0056 37       		.byte	0x37
 6085 0057 5B000000 		.4byte	0x5b
 6086 005b 02       		.uleb128 0x2
 6087 005c 02       		.byte	0x2
 6088 005d 05       		.byte	0x5
 6089 005e DF390000 		.4byte	.LASF6
 6090 0062 03       		.uleb128 0x3
 6091 0063 F7090000 		.4byte	.LASF7
 6092 0067 04       		.byte	0x4
 6093 0068 39       		.byte	0x39
 6094 0069 6D000000 		.4byte	0x6d
 6095 006d 02       		.uleb128 0x2
 6096 006e 02       		.byte	0x2
 6097 006f 07       		.byte	0x7
 6098 0070 8A1F0000 		.4byte	.LASF8
 6099 0074 03       		.uleb128 0x3
 6100 0075 962E0000 		.4byte	.LASF9
 6101 0079 04       		.byte	0x4
 6102 007a 4D       		.byte	0x4d
 6103 007b 7F000000 		.4byte	0x7f
 6104 007f 02       		.uleb128 0x2
 6105 0080 04       		.byte	0x4
 6106 0081 05       		.byte	0x5
 6107 0082 79230000 		.4byte	.LASF10
 6108 0086 03       		.uleb128 0x3
 6109 0087 A02E0000 		.4byte	.LASF11
 6110 008b 04       		.byte	0x4
 6111 008c 4F       		.byte	0x4f
 6112 008d 91000000 		.4byte	0x91
 6113 0091 02       		.uleb128 0x2
 6114 0092 04       		.byte	0x4
 6115 0093 07       		.byte	0x7
 6116 0094 FD250000 		.4byte	.LASF12
 6117 0098 02       		.uleb128 0x2
 6118 0099 08       		.byte	0x8
 6119 009a 05       		.byte	0x5
 6120 009b E4350000 		.4byte	.LASF13
 6121 009f 03       		.uleb128 0x3
ARM GAS  C:\Users\CHRIST~1\AppData\Local\Temp\ccCFoZV9.s 			page 110


 6122 00a0 5D180000 		.4byte	.LASF14
 6123 00a4 04       		.byte	0x4
 6124 00a5 69       		.byte	0x69
 6125 00a6 AA000000 		.4byte	0xaa
 6126 00aa 02       		.uleb128 0x2
 6127 00ab 08       		.byte	0x8
 6128 00ac 07       		.byte	0x7
 6129 00ad 69310000 		.4byte	.LASF15
 6130 00b1 04       		.uleb128 0x4
 6131 00b2 04       		.byte	0x4
 6132 00b3 05       		.byte	0x5
 6133 00b4 696E7400 		.ascii	"int\000"
 6134 00b8 05       		.uleb128 0x5
 6135 00b9 B1000000 		.4byte	0xb1
 6136 00bd 02       		.uleb128 0x2
 6137 00be 04       		.byte	0x4
 6138 00bf 07       		.byte	0x7
 6139 00c0 64390000 		.4byte	.LASF16
 6140 00c4 05       		.uleb128 0x5
 6141 00c5 BD000000 		.4byte	0xbd
 6142 00c9 03       		.uleb128 0x3
 6143 00ca B51D0000 		.4byte	.LASF17
 6144 00ce 05       		.byte	0x5
 6145 00cf 14       		.byte	0x14
 6146 00d0 2C000000 		.4byte	0x2c
 6147 00d4 05       		.uleb128 0x5
 6148 00d5 C9000000 		.4byte	0xc9
 6149 00d9 03       		.uleb128 0x3
 6150 00da 35130000 		.4byte	.LASF18
 6151 00de 05       		.byte	0x5
 6152 00df 18       		.byte	0x18
 6153 00e0 3E000000 		.4byte	0x3e
 6154 00e4 05       		.uleb128 0x5
 6155 00e5 D9000000 		.4byte	0xd9
 6156 00e9 06       		.uleb128 0x6
 6157 00ea D9000000 		.4byte	0xd9
 6158 00ee 03       		.uleb128 0x3
 6159 00ef 821F0000 		.4byte	.LASF19
 6160 00f3 05       		.byte	0x5
 6161 00f4 20       		.byte	0x20
 6162 00f5 50000000 		.4byte	0x50
 6163 00f9 05       		.uleb128 0x5
 6164 00fa EE000000 		.4byte	0xee
 6165 00fe 03       		.uleb128 0x3
 6166 00ff 64020000 		.4byte	.LASF20
 6167 0103 05       		.byte	0x5
 6168 0104 24       		.byte	0x24
 6169 0105 62000000 		.4byte	0x62
 6170 0109 05       		.uleb128 0x5
 6171 010a FE000000 		.4byte	0xfe
 6172 010e 03       		.uleb128 0x3
 6173 010f D9040000 		.4byte	.LASF21
 6174 0113 05       		.byte	0x5
 6175 0114 2C       		.byte	0x2c
 6176 0115 74000000 		.4byte	0x74
 6177 0119 05       		.uleb128 0x5
 6178 011a 0E010000 		.4byte	0x10e
ARM GAS  C:\Users\CHRIST~1\AppData\Local\Temp\ccCFoZV9.s 			page 111


 6179 011e 03       		.uleb128 0x3
 6180 011f 0E250000 		.4byte	.LASF22
 6181 0123 05       		.byte	0x5
 6182 0124 30       		.byte	0x30
 6183 0125 86000000 		.4byte	0x86
 6184 0129 05       		.uleb128 0x5
 6185 012a 1E010000 		.4byte	0x11e
 6186 012e 03       		.uleb128 0x3
 6187 012f 8E0F0000 		.4byte	.LASF23
 6188 0133 05       		.byte	0x5
 6189 0134 3C       		.byte	0x3c
 6190 0135 9F000000 		.4byte	0x9f
 6191 0139 03       		.uleb128 0x3
 6192 013a DE120000 		.4byte	.LASF24
 6193 013e 06       		.byte	0x6
 6194 013f D8       		.byte	0xd8
 6195 0140 BD000000 		.4byte	0xbd
 6196 0144 05       		.uleb128 0x5
 6197 0145 39010000 		.4byte	0x139
 6198 0149 03       		.uleb128 0x3
 6199 014a 0A120000 		.4byte	.LASF25
 6200 014e 07       		.byte	0x7
 6201 014f 45       		.byte	0x45
 6202 0150 1E010000 		.4byte	0x11e
 6203 0154 03       		.uleb128 0x3
 6204 0155 831B0000 		.4byte	.LASF26
 6205 0159 07       		.byte	0x7
 6206 015a 48       		.byte	0x48
 6207 015b D9000000 		.4byte	0xd9
 6208 015f 03       		.uleb128 0x3
 6209 0160 77330000 		.4byte	.LASF27
 6210 0164 07       		.byte	0x7
 6211 0165 49       		.byte	0x49
 6212 0166 D9000000 		.4byte	0xd9
 6213 016a 03       		.uleb128 0x3
 6214 016b 741A0000 		.4byte	.LASF28
 6215 016f 07       		.byte	0x7
 6216 0170 4A       		.byte	0x4a
 6217 0171 D9000000 		.4byte	0xd9
 6218 0175 03       		.uleb128 0x3
 6219 0176 B21E0000 		.4byte	.LASF29
 6220 017a 07       		.byte	0x7
 6221 017b 4B       		.byte	0x4b
 6222 017c D9000000 		.4byte	0xd9
 6223 0180 03       		.uleb128 0x3
 6224 0181 59080000 		.4byte	.LASF30
 6225 0185 07       		.byte	0x7
 6226 0186 4C       		.byte	0x4c
 6227 0187 1E010000 		.4byte	0x11e
 6228 018b 03       		.uleb128 0x3
 6229 018c 9D000000 		.4byte	.LASF31
 6230 0190 07       		.byte	0x7
 6231 0191 4D       		.byte	0x4d
 6232 0192 0E010000 		.4byte	0x10e
 6233 0196 03       		.uleb128 0x3
 6234 0197 AC250000 		.4byte	.LASF32
 6235 019b 07       		.byte	0x7
ARM GAS  C:\Users\CHRIST~1\AppData\Local\Temp\ccCFoZV9.s 			page 112


 6236 019c 4F       		.byte	0x4f
 6237 019d 1E010000 		.4byte	0x11e
 6238 01a1 03       		.uleb128 0x3
 6239 01a2 B9360000 		.4byte	.LASF33
 6240 01a6 07       		.byte	0x7
 6241 01a7 50       		.byte	0x50
 6242 01a8 1E010000 		.4byte	0x11e
 6243 01ac 03       		.uleb128 0x3
 6244 01ad 872A0000 		.4byte	.LASF34
 6245 01b1 07       		.byte	0x7
 6246 01b2 51       		.byte	0x51
 6247 01b3 0E010000 		.4byte	0x10e
 6248 01b7 03       		.uleb128 0x3
 6249 01b8 FB040000 		.4byte	.LASF35
 6250 01bc 08       		.byte	0x8
 6251 01bd 33       		.byte	0x33
 6252 01be 1E010000 		.4byte	0x11e
 6253 01c2 05       		.uleb128 0x5
 6254 01c3 B7010000 		.4byte	0x1b7
 6255 01c7 03       		.uleb128 0x3
 6256 01c8 93040000 		.4byte	.LASF36
 6257 01cc 08       		.byte	0x8
 6258 01cd 3F       		.byte	0x3f
 6259 01ce D2010000 		.4byte	0x1d2
 6260 01d2 07       		.uleb128 0x7
 6261 01d3 820D0000 		.4byte	.LASF58
 6262 01d7 48       		.byte	0x48
 6263 01d8 09       		.byte	0x9
 6264 01d9 C2       		.byte	0xc2
 6265 01da D7020000 		.4byte	0x2d7
 6266 01de 08       		.uleb128 0x8
 6267 01df D0190000 		.4byte	.LASF37
 6268 01e3 09       		.byte	0x9
 6269 01e4 C3       		.byte	0xc3
 6270 01e5 E2020000 		.4byte	0x2e2
 6271 01e9 00       		.byte	0
 6272 01ea 08       		.uleb128 0x8
 6273 01eb 87130000 		.4byte	.LASF38
 6274 01ef 09       		.byte	0x9
 6275 01f0 C5       		.byte	0xc5
 6276 01f1 E2020000 		.4byte	0x2e2
 6277 01f5 04       		.byte	0x4
 6278 01f6 08       		.uleb128 0x8
 6279 01f7 0A180000 		.4byte	.LASF39
 6280 01fb 09       		.byte	0x9
 6281 01fc C7       		.byte	0xc7
 6282 01fd 80010000 		.4byte	0x180
 6283 0201 08       		.byte	0x8
 6284 0202 08       		.uleb128 0x8
 6285 0203 7A0E0000 		.4byte	.LASF40
 6286 0207 09       		.byte	0x9
 6287 0208 C8       		.byte	0xc8
 6288 0209 D90A0000 		.4byte	0xad9
 6289 020d 0C       		.byte	0xc
 6290 020e 08       		.uleb128 0x8
 6291 020f 2E030000 		.4byte	.LASF41
 6292 0213 09       		.byte	0x9
ARM GAS  C:\Users\CHRIST~1\AppData\Local\Temp\ccCFoZV9.s 			page 113


 6293 0214 CA       		.byte	0xca
 6294 0215 E2020000 		.4byte	0x2e2
 6295 0219 10       		.byte	0x10
 6296 021a 08       		.uleb128 0x8
 6297 021b AA370000 		.4byte	.LASF42
 6298 021f 09       		.byte	0x9
 6299 0220 CB       		.byte	0xcb
 6300 0221 E2020000 		.4byte	0x2e2
 6301 0225 14       		.byte	0x14
 6302 0226 08       		.uleb128 0x8
 6303 0227 1F340000 		.4byte	.LASF43
 6304 022b 09       		.byte	0x9
 6305 022c D2       		.byte	0xd2
 6306 022d 1E0D0000 		.4byte	0xd1e
 6307 0231 18       		.byte	0x18
 6308 0232 08       		.uleb128 0x8
 6309 0233 583B0000 		.4byte	.LASF44
 6310 0237 09       		.byte	0x9
 6311 0238 DD       		.byte	0xdd
 6312 0239 5F010000 		.4byte	0x15f
 6313 023d 1C       		.byte	0x1c
 6314 023e 08       		.uleb128 0x8
 6315 023f BB320000 		.4byte	.LASF45
 6316 0243 09       		.byte	0x9
 6317 0244 E1       		.byte	0xe1
 6318 0245 54010000 		.4byte	0x154
 6319 0249 1D       		.byte	0x1d
 6320 024a 08       		.uleb128 0x8
 6321 024b 30230000 		.4byte	.LASF46
 6322 024f 09       		.byte	0x9
 6323 0250 E6       		.byte	0xe6
 6324 0251 6A010000 		.4byte	0x16a
 6325 0255 1E       		.byte	0x1e
 6326 0256 08       		.uleb128 0x8
 6327 0257 F41F0000 		.4byte	.LASF47
 6328 025b 09       		.byte	0x9
 6329 025c EC       		.byte	0xec
 6330 025d 75010000 		.4byte	0x175
 6331 0261 1F       		.byte	0x1f
 6332 0262 08       		.uleb128 0x8
 6333 0263 09200000 		.4byte	.LASF48
 6334 0267 09       		.byte	0x9
 6335 0268 F3       		.byte	0xf3
 6336 0269 C2010000 		.4byte	0x1c2
 6337 026d 20       		.byte	0x20
 6338 026e 09       		.uleb128 0x9
 6339 026f 705F7500 		.ascii	"p_u\000"
 6340 0273 09       		.byte	0x9
 6341 0274 3101     		.2byte	0x131
 6342 0276 590C0000 		.4byte	0xc59
 6343 027a 24       		.byte	0x24
 6344 027b 0A       		.uleb128 0xa
 6345 027c 94060000 		.4byte	.LASF49
 6346 0280 09       		.byte	0x9
 6347 0281 3601     		.2byte	0x136
 6348 0283 E8020000 		.4byte	0x2e8
 6349 0287 28       		.byte	0x28
ARM GAS  C:\Users\CHRIST~1\AppData\Local\Temp\ccCFoZV9.s 			page 114


 6350 0288 0A       		.uleb128 0xa
 6351 0289 27210000 		.4byte	.LASF50
 6352 028d 09       		.byte	0x9
 6353 028e 3C01     		.2byte	0x13c
 6354 0290 0C030000 		.4byte	0x30c
 6355 0294 2C       		.byte	0x2c
 6356 0295 0A       		.uleb128 0xa
 6357 0296 1D0A0000 		.4byte	.LASF51
 6358 029a 09       		.byte	0x9
 6359 029b 4001     		.2byte	0x140
 6360 029d 8B010000 		.4byte	0x18b
 6361 02a1 34       		.byte	0x34
 6362 02a2 0A       		.uleb128 0xa
 6363 02a3 A32F0000 		.4byte	.LASF52
 6364 02a7 09       		.byte	0x9
 6365 02a8 4601     		.2byte	0x146
 6366 02aa 96010000 		.4byte	0x196
 6367 02ae 38       		.byte	0x38
 6368 02af 0A       		.uleb128 0xa
 6369 02b0 4E330000 		.4byte	.LASF53
 6370 02b4 09       		.byte	0x9
 6371 02b5 4D01     		.2byte	0x14d
 6372 02b7 180D0000 		.4byte	0xd18
 6373 02bb 3C       		.byte	0x3c
 6374 02bc 0A       		.uleb128 0xa
 6375 02bd D32C0000 		.4byte	.LASF54
 6376 02c1 09       		.byte	0x9
 6377 02c2 5101     		.2byte	0x151
 6378 02c4 80010000 		.4byte	0x180
 6379 02c8 40       		.byte	0x40
 6380 02c9 0A       		.uleb128 0xa
 6381 02ca 7C1A0000 		.4byte	.LASF55
 6382 02ce 09       		.byte	0x9
 6383 02cf 5801     		.2byte	0x158
 6384 02d1 BF030000 		.4byte	0x3bf
 6385 02d5 44       		.byte	0x44
 6386 02d6 00       		.byte	0
 6387 02d7 03       		.uleb128 0x3
 6388 02d8 F7370000 		.4byte	.LASF56
 6389 02dc 08       		.byte	0x8
 6390 02dd 44       		.byte	0x44
 6391 02de E2020000 		.4byte	0x2e2
 6392 02e2 0B       		.uleb128 0xb
 6393 02e3 04       		.byte	0x4
 6394 02e4 C7010000 		.4byte	0x1c7
 6395 02e8 03       		.uleb128 0x3
 6396 02e9 D0060000 		.4byte	.LASF57
 6397 02ed 08       		.byte	0x8
 6398 02ee 49       		.byte	0x49
 6399 02ef F3020000 		.4byte	0x2f3
 6400 02f3 07       		.uleb128 0x7
 6401 02f4 6F3B0000 		.4byte	.LASF59
 6402 02f8 04       		.byte	0x4
 6403 02f9 09       		.byte	0x9
 6404 02fa B0       		.byte	0xb0
 6405 02fb 0C030000 		.4byte	0x30c
 6406 02ff 08       		.uleb128 0x8
ARM GAS  C:\Users\CHRIST~1\AppData\Local\Temp\ccCFoZV9.s 			page 115


 6407 0300 D0190000 		.4byte	.LASF37
 6408 0304 09       		.byte	0x9
 6409 0305 B1       		.byte	0xb1
 6410 0306 E2020000 		.4byte	0x2e2
 6411 030a 00       		.byte	0
 6412 030b 00       		.byte	0
 6413 030c 03       		.uleb128 0x3
 6414 030d D4220000 		.4byte	.LASF60
 6415 0311 08       		.byte	0x8
 6416 0312 50       		.byte	0x50
 6417 0313 17030000 		.4byte	0x317
 6418 0317 07       		.uleb128 0x7
 6419 0318 04030000 		.4byte	.LASF61
 6420 031c 08       		.byte	0x8
 6421 031d 09       		.byte	0x9
 6422 031e B7       		.byte	0xb7
 6423 031f 3C030000 		.4byte	0x33c
 6424 0323 08       		.uleb128 0x8
 6425 0324 D0190000 		.4byte	.LASF37
 6426 0328 09       		.byte	0x9
 6427 0329 B8       		.byte	0xb8
 6428 032a E2020000 		.4byte	0x2e2
 6429 032e 00       		.byte	0
 6430 032f 08       		.uleb128 0x8
 6431 0330 87130000 		.4byte	.LASF38
 6432 0334 09       		.byte	0x9
 6433 0335 B9       		.byte	0xb9
 6434 0336 E2020000 		.4byte	0x2e2
 6435 033a 04       		.byte	0x4
 6436 033b 00       		.byte	0
 6437 033c 03       		.uleb128 0x3
 6438 033d 750D0000 		.4byte	.LASF62
 6439 0341 08       		.byte	0x8
 6440 0342 57       		.byte	0x57
 6441 0343 47030000 		.4byte	0x347
 6442 0347 0C       		.uleb128 0xc
 6443 0348 5B2E0000 		.4byte	.LASF63
 6444 034c 1C       		.byte	0x1c
 6445 034d 09       		.byte	0x9
 6446 034e 9001     		.2byte	0x190
 6447 0350 A3030000 		.4byte	0x3a3
 6448 0354 0A       		.uleb128 0xa
 6449 0355 44270000 		.4byte	.LASF64
 6450 0359 09       		.byte	0x9
 6451 035a 9101     		.2byte	0x191
 6452 035c 0C030000 		.4byte	0x30c
 6453 0360 00       		.byte	0
 6454 0361 0A       		.uleb128 0xa
 6455 0362 15310000 		.4byte	.LASF65
 6456 0366 09       		.byte	0x9
 6457 0367 9201     		.2byte	0x192
 6458 0369 80010000 		.4byte	0x180
 6459 036d 08       		.byte	0x8
 6460 036e 0A       		.uleb128 0xa
 6461 036f BA110000 		.4byte	.LASF66
 6462 0373 09       		.byte	0x9
 6463 0374 9401     		.2byte	0x194
ARM GAS  C:\Users\CHRIST~1\AppData\Local\Temp\ccCFoZV9.s 			page 116


 6464 0376 D90A0000 		.4byte	0xad9
 6465 037a 0C       		.byte	0xc
 6466 037b 0A       		.uleb128 0xa
 6467 037c EC1D0000 		.4byte	.LASF67
 6468 0380 09       		.byte	0x9
 6469 0381 9701     		.2byte	0x197
 6470 0383 E2020000 		.4byte	0x2e2
 6471 0387 10       		.byte	0x10
 6472 0388 0A       		.uleb128 0xa
 6473 0389 70130000 		.4byte	.LASF68
 6474 038d 09       		.byte	0x9
 6475 038e 9801     		.2byte	0x198
 6476 0390 E2020000 		.4byte	0x2e2
 6477 0394 14       		.byte	0x14
 6478 0395 0A       		.uleb128 0xa
 6479 0396 BB0E0000 		.4byte	.LASF69
 6480 039a 09       		.byte	0x9
 6481 039b 9B01     		.2byte	0x19b
 6482 039d E2020000 		.4byte	0x2e2
 6483 03a1 18       		.byte	0x18
 6484 03a2 00       		.byte	0
 6485 03a3 03       		.uleb128 0x3
 6486 03a4 832C0000 		.4byte	.LASF70
 6487 03a8 08       		.byte	0x8
 6488 03a9 5C       		.byte	0x5c
 6489 03aa AE030000 		.4byte	0x3ae
 6490 03ae 0B       		.uleb128 0xb
 6491 03af 04       		.byte	0x4
 6492 03b0 B4030000 		.4byte	0x3b4
 6493 03b4 0D       		.uleb128 0xd
 6494 03b5 BF030000 		.4byte	0x3bf
 6495 03b9 0E       		.uleb128 0xe
 6496 03ba BF030000 		.4byte	0x3bf
 6497 03be 00       		.byte	0
 6498 03bf 0F       		.uleb128 0xf
 6499 03c0 04       		.byte	0x4
 6500 03c1 03       		.uleb128 0x3
 6501 03c2 AA110000 		.4byte	.LASF71
 6502 03c6 08       		.byte	0x8
 6503 03c7 61       		.byte	0x61
 6504 03c8 CC030000 		.4byte	0x3cc
 6505 03cc 0C       		.uleb128 0xc
 6506 03cd AA320000 		.4byte	.LASF72
 6507 03d1 14       		.byte	0x14
 6508 03d2 09       		.byte	0x9
 6509 03d3 6B01     		.2byte	0x16b
 6510 03d5 1B040000 		.4byte	0x41b
 6511 03d9 0A       		.uleb128 0xa
 6512 03da C0110000 		.4byte	.LASF73
 6513 03de 09       		.byte	0x9
 6514 03df 6C01     		.2byte	0x16c
 6515 03e1 350D0000 		.4byte	0xd35
 6516 03e5 00       		.byte	0
 6517 03e6 0A       		.uleb128 0xa
 6518 03e7 090D0000 		.4byte	.LASF74
 6519 03eb 09       		.byte	0x9
 6520 03ec 6D01     		.2byte	0x16d
ARM GAS  C:\Users\CHRIST~1\AppData\Local\Temp\ccCFoZV9.s 			page 117


 6521 03ee 350D0000 		.4byte	0xd35
 6522 03f2 04       		.byte	0x4
 6523 03f3 0A       		.uleb128 0xa
 6524 03f4 181F0000 		.4byte	.LASF75
 6525 03f8 09       		.byte	0x9
 6526 03f9 6E01     		.2byte	0x16e
 6527 03fb B7010000 		.4byte	0x1b7
 6528 03ff 08       		.byte	0x8
 6529 0400 0A       		.uleb128 0xa
 6530 0401 3C320000 		.4byte	.LASF76
 6531 0405 09       		.byte	0x9
 6532 0406 6F01     		.2byte	0x16f
 6533 0408 A3030000 		.4byte	0x3a3
 6534 040c 0C       		.byte	0xc
 6535 040d 0A       		.uleb128 0xa
 6536 040e 800E0000 		.4byte	.LASF77
 6537 0412 09       		.byte	0x9
 6538 0413 7101     		.2byte	0x171
 6539 0415 BF030000 		.4byte	0x3bf
 6540 0419 10       		.byte	0x10
 6541 041a 00       		.byte	0
 6542 041b 03       		.uleb128 0x3
 6543 041c B1340000 		.4byte	.LASF78
 6544 0420 08       		.byte	0x8
 6545 0421 66       		.byte	0x66
 6546 0422 26040000 		.4byte	0x426
 6547 0426 0C       		.uleb128 0xc
 6548 0427 BB040000 		.4byte	.LASF79
 6549 042b 10       		.byte	0x10
 6550 042c 09       		.byte	0x9
 6551 042d 7B01     		.2byte	0x17b
 6552 042f 68040000 		.4byte	0x468
 6553 0433 0A       		.uleb128 0xa
 6554 0434 C0110000 		.4byte	.LASF73
 6555 0438 09       		.byte	0x9
 6556 0439 7C01     		.2byte	0x17c
 6557 043b 350D0000 		.4byte	0xd35
 6558 043f 00       		.byte	0
 6559 0440 0A       		.uleb128 0xa
 6560 0441 090D0000 		.4byte	.LASF74
 6561 0445 09       		.byte	0x9
 6562 0446 7E01     		.2byte	0x17e
 6563 0448 350D0000 		.4byte	0xd35
 6564 044c 04       		.byte	0x4
 6565 044d 0A       		.uleb128 0xa
 6566 044e 181F0000 		.4byte	.LASF75
 6567 0452 09       		.byte	0x9
 6568 0453 8001     		.2byte	0x180
 6569 0455 B7010000 		.4byte	0x1b7
 6570 0459 08       		.byte	0x8
 6571 045a 0A       		.uleb128 0xa
 6572 045b D2010000 		.4byte	.LASF80
 6573 045f 09       		.byte	0x9
 6574 0460 8201     		.2byte	0x182
 6575 0462 C2010000 		.4byte	0x1c2
 6576 0466 0C       		.byte	0xc
 6577 0467 00       		.byte	0
ARM GAS  C:\Users\CHRIST~1\AppData\Local\Temp\ccCFoZV9.s 			page 118


 6578 0468 03       		.uleb128 0x3
 6579 0469 550E0000 		.4byte	.LASF81
 6580 046d 08       		.byte	0x8
 6581 046e 6B       		.byte	0x6b
 6582 046f 73040000 		.4byte	0x473
 6583 0473 0C       		.uleb128 0xc
 6584 0474 B12E0000 		.4byte	.LASF82
 6585 0478 04       		.byte	0x4
 6586 0479 09       		.byte	0x9
 6587 047a A201     		.2byte	0x1a2
 6588 047c 8E040000 		.4byte	0x48e
 6589 0480 0A       		.uleb128 0xa
 6590 0481 CF1D0000 		.4byte	.LASF83
 6591 0485 09       		.byte	0x9
 6592 0486 AA01     		.2byte	0x1aa
 6593 0488 240D0000 		.4byte	0xd24
 6594 048c 00       		.byte	0
 6595 048d 00       		.byte	0
 6596 048e 03       		.uleb128 0x3
 6597 048f 44010000 		.4byte	.LASF84
 6598 0493 08       		.byte	0x8
 6599 0494 70       		.byte	0x70
 6600 0495 99040000 		.4byte	0x499
 6601 0499 10       		.uleb128 0x10
 6602 049a 23220000 		.4byte	.LASF85
 6603 049e 5802     		.2byte	0x258
 6604 04a0 09       		.byte	0x9
 6605 04a1 C201     		.2byte	0x1c2
 6606 04a3 F5040000 		.4byte	0x4f5
 6607 04a7 0A       		.uleb128 0xa
 6608 04a8 CA060000 		.4byte	.LASF86
 6609 04ac 09       		.byte	0x9
 6610 04ad C601     		.2byte	0x1c6
 6611 04af 3C030000 		.4byte	0x33c
 6612 04b3 00       		.byte	0
 6613 04b4 0A       		.uleb128 0xa
 6614 04b5 74060000 		.4byte	.LASF87
 6615 04b9 09       		.byte	0x9
 6616 04ba CA01     		.2byte	0x1ca
 6617 04bc 1B040000 		.4byte	0x41b
 6618 04c0 1C       		.byte	0x1c
 6619 04c1 09       		.uleb128 0x9
 6620 04c2 64626700 		.ascii	"dbg\000"
 6621 04c6 09       		.byte	0x9
 6622 04c7 CE01     		.2byte	0x1ce
 6623 04c9 68040000 		.4byte	0x468
 6624 04cd 2C       		.byte	0x2c
 6625 04ce 0A       		.uleb128 0xa
 6626 04cf 91230000 		.4byte	.LASF88
 6627 04d3 09       		.byte	0x9
 6628 04d4 D201     		.2byte	0x1d2
 6629 04d6 C7010000 		.4byte	0x1c7
 6630 04da 30       		.byte	0x30
 6631 04db 09       		.uleb128 0x9
 6632 04dc 746D00   		.ascii	"tm\000"
 6633 04df 09       		.byte	0x9
 6634 04e0 D701     		.2byte	0x1d7
ARM GAS  C:\Users\CHRIST~1\AppData\Local\Temp\ccCFoZV9.s 			page 119


 6635 04e2 4E0C0000 		.4byte	0xc4e
 6636 04e6 78       		.byte	0x78
 6637 04e7 0A       		.uleb128 0xa
 6638 04e8 0E320000 		.4byte	.LASF89
 6639 04ec 09       		.byte	0x9
 6640 04ed E301     		.2byte	0x1e3
 6641 04ef 3B0D0000 		.4byte	0xd3b
 6642 04f3 80       		.byte	0x80
 6643 04f4 00       		.byte	0
 6644 04f5 02       		.uleb128 0x2
 6645 04f6 04       		.byte	0x4
 6646 04f7 07       		.byte	0x7
 6647 04f8 211F0000 		.4byte	.LASF90
 6648 04fc 11       		.uleb128 0x11
 6649 04fd 1E010000 		.4byte	0x11e
 6650 0501 0C050000 		.4byte	0x50c
 6651 0505 12       		.uleb128 0x12
 6652 0506 F5040000 		.4byte	0x4f5
 6653 050a 07       		.byte	0x7
 6654 050b 00       		.byte	0
 6655 050c 13       		.uleb128 0x13
 6656 050d 39310000 		.4byte	.LASF91
 6657 0511 0A       		.byte	0xa
 6658 0512 A706     		.2byte	0x6a7
 6659 0514 19010000 		.4byte	0x119
 6660 0518 14       		.uleb128 0x14
 6661 0519 8F210000 		.4byte	.LASF92
 6662 051d 0B       		.byte	0xb
 6663 051e 4C       		.byte	0x4c
 6664 051f 1E010000 		.4byte	0x11e
 6665 0523 15       		.uleb128 0x15
 6666 0524 10       		.byte	0x10
 6667 0525 0C       		.byte	0xc
 6668 0526 E9       		.byte	0xe9
 6669 0527 5C050000 		.4byte	0x55c
 6670 052b 16       		.uleb128 0x16
 6671 052c 54495200 		.ascii	"TIR\000"
 6672 0530 0C       		.byte	0xc
 6673 0531 EB       		.byte	0xeb
 6674 0532 29010000 		.4byte	0x129
 6675 0536 00       		.byte	0
 6676 0537 08       		.uleb128 0x8
 6677 0538 8B170000 		.4byte	.LASF93
 6678 053c 0C       		.byte	0xc
 6679 053d EC       		.byte	0xec
 6680 053e 29010000 		.4byte	0x129
 6681 0542 04       		.byte	0x4
 6682 0543 08       		.uleb128 0x8
 6683 0544 74230000 		.4byte	.LASF94
 6684 0548 0C       		.byte	0xc
 6685 0549 ED       		.byte	0xed
 6686 054a 29010000 		.4byte	0x129
 6687 054e 08       		.byte	0x8
 6688 054f 08       		.uleb128 0x8
 6689 0550 10200000 		.4byte	.LASF95
 6690 0554 0C       		.byte	0xc
 6691 0555 EE       		.byte	0xee
ARM GAS  C:\Users\CHRIST~1\AppData\Local\Temp\ccCFoZV9.s 			page 120


 6692 0556 29010000 		.4byte	0x129
 6693 055a 0C       		.byte	0xc
 6694 055b 00       		.byte	0
 6695 055c 03       		.uleb128 0x3
 6696 055d B4060000 		.4byte	.LASF96
 6697 0561 0C       		.byte	0xc
 6698 0562 EF       		.byte	0xef
 6699 0563 23050000 		.4byte	0x523
 6700 0567 15       		.uleb128 0x15
 6701 0568 10       		.byte	0x10
 6702 0569 0C       		.byte	0xc
 6703 056a F5       		.byte	0xf5
 6704 056b A0050000 		.4byte	0x5a0
 6705 056f 16       		.uleb128 0x16
 6706 0570 52495200 		.ascii	"RIR\000"
 6707 0574 0C       		.byte	0xc
 6708 0575 F7       		.byte	0xf7
 6709 0576 29010000 		.4byte	0x129
 6710 057a 00       		.byte	0
 6711 057b 08       		.uleb128 0x8
 6712 057c 0C2E0000 		.4byte	.LASF97
 6713 0580 0C       		.byte	0xc
 6714 0581 F8       		.byte	0xf8
 6715 0582 29010000 		.4byte	0x129
 6716 0586 04       		.byte	0x4
 6717 0587 08       		.uleb128 0x8
 6718 0588 59250000 		.4byte	.LASF98
 6719 058c 0C       		.byte	0xc
 6720 058d F9       		.byte	0xf9
 6721 058e 29010000 		.4byte	0x129
 6722 0592 08       		.byte	0x8
 6723 0593 08       		.uleb128 0x8
 6724 0594 FF210000 		.4byte	.LASF99
 6725 0598 0C       		.byte	0xc
 6726 0599 FA       		.byte	0xfa
 6727 059a 29010000 		.4byte	0x129
 6728 059e 0C       		.byte	0xc
 6729 059f 00       		.byte	0
 6730 05a0 03       		.uleb128 0x3
 6731 05a1 8C2C0000 		.4byte	.LASF100
 6732 05a5 0C       		.byte	0xc
 6733 05a6 FB       		.byte	0xfb
 6734 05a7 67050000 		.4byte	0x567
 6735 05ab 17       		.uleb128 0x17
 6736 05ac 08       		.byte	0x8
 6737 05ad 0C       		.byte	0xc
 6738 05ae 0101     		.2byte	0x101
 6739 05b0 CF050000 		.4byte	0x5cf
 6740 05b4 09       		.uleb128 0x9
 6741 05b5 46523100 		.ascii	"FR1\000"
 6742 05b9 0C       		.byte	0xc
 6743 05ba 0301     		.2byte	0x103
 6744 05bc 29010000 		.4byte	0x129
 6745 05c0 00       		.byte	0
 6746 05c1 09       		.uleb128 0x9
 6747 05c2 46523200 		.ascii	"FR2\000"
 6748 05c6 0C       		.byte	0xc
ARM GAS  C:\Users\CHRIST~1\AppData\Local\Temp\ccCFoZV9.s 			page 121


 6749 05c7 0401     		.2byte	0x104
 6750 05c9 29010000 		.4byte	0x129
 6751 05cd 04       		.byte	0x4
 6752 05ce 00       		.byte	0
 6753 05cf 18       		.uleb128 0x18
 6754 05d0 A8170000 		.4byte	.LASF101
 6755 05d4 0C       		.byte	0xc
 6756 05d5 0501     		.2byte	0x105
 6757 05d7 AB050000 		.4byte	0x5ab
 6758 05db 19       		.uleb128 0x19
 6759 05dc 2003     		.2byte	0x320
 6760 05de 0C       		.byte	0xc
 6761 05df 0B01     		.2byte	0x10b
 6762 05e1 11070000 		.4byte	0x711
 6763 05e5 09       		.uleb128 0x9
 6764 05e6 4D435200 		.ascii	"MCR\000"
 6765 05ea 0C       		.byte	0xc
 6766 05eb 0D01     		.2byte	0x10d
 6767 05ed 29010000 		.4byte	0x129
 6768 05f1 00       		.byte	0
 6769 05f2 09       		.uleb128 0x9
 6770 05f3 4D535200 		.ascii	"MSR\000"
 6771 05f7 0C       		.byte	0xc
 6772 05f8 0E01     		.2byte	0x10e
 6773 05fa 29010000 		.4byte	0x129
 6774 05fe 04       		.byte	0x4
 6775 05ff 09       		.uleb128 0x9
 6776 0600 54535200 		.ascii	"TSR\000"
 6777 0604 0C       		.byte	0xc
 6778 0605 0F01     		.2byte	0x10f
 6779 0607 29010000 		.4byte	0x129
 6780 060b 08       		.byte	0x8
 6781 060c 0A       		.uleb128 0xa
 6782 060d CD140000 		.4byte	.LASF102
 6783 0611 0C       		.byte	0xc
 6784 0612 1001     		.2byte	0x110
 6785 0614 29010000 		.4byte	0x129
 6786 0618 0C       		.byte	0xc
 6787 0619 0A       		.uleb128 0xa
 6788 061a E4150000 		.4byte	.LASF103
 6789 061e 0C       		.byte	0xc
 6790 061f 1101     		.2byte	0x111
 6791 0621 29010000 		.4byte	0x129
 6792 0625 10       		.byte	0x10
 6793 0626 09       		.uleb128 0x9
 6794 0627 49455200 		.ascii	"IER\000"
 6795 062b 0C       		.byte	0xc
 6796 062c 1201     		.2byte	0x112
 6797 062e 29010000 		.4byte	0x129
 6798 0632 14       		.byte	0x14
 6799 0633 09       		.uleb128 0x9
 6800 0634 45535200 		.ascii	"ESR\000"
 6801 0638 0C       		.byte	0xc
 6802 0639 1301     		.2byte	0x113
 6803 063b 29010000 		.4byte	0x129
 6804 063f 18       		.byte	0x18
 6805 0640 09       		.uleb128 0x9
ARM GAS  C:\Users\CHRIST~1\AppData\Local\Temp\ccCFoZV9.s 			page 122


 6806 0641 42545200 		.ascii	"BTR\000"
 6807 0645 0C       		.byte	0xc
 6808 0646 1401     		.2byte	0x114
 6809 0648 29010000 		.4byte	0x129
 6810 064c 1C       		.byte	0x1c
 6811 064d 0A       		.uleb128 0xa
 6812 064e 01300000 		.4byte	.LASF104
 6813 0652 0C       		.byte	0xc
 6814 0653 1501     		.2byte	0x115
 6815 0655 11070000 		.4byte	0x711
 6816 0659 20       		.byte	0x20
 6817 065a 1A       		.uleb128 0x1a
 6818 065b B1190000 		.4byte	.LASF105
 6819 065f 0C       		.byte	0xc
 6820 0660 1601     		.2byte	0x116
 6821 0662 21070000 		.4byte	0x721
 6822 0666 8001     		.2byte	0x180
 6823 0668 1A       		.uleb128 0x1a
 6824 0669 02370000 		.4byte	.LASF106
 6825 066d 0C       		.byte	0xc
 6826 066e 1701     		.2byte	0x117
 6827 0670 31070000 		.4byte	0x731
 6828 0674 B001     		.2byte	0x1b0
 6829 0676 1A       		.uleb128 0x1a
 6830 0677 0B300000 		.4byte	.LASF107
 6831 067b 0C       		.byte	0xc
 6832 067c 1801     		.2byte	0x118
 6833 067e 41070000 		.4byte	0x741
 6834 0682 D001     		.2byte	0x1d0
 6835 0684 1B       		.uleb128 0x1b
 6836 0685 464D5200 		.ascii	"FMR\000"
 6837 0689 0C       		.byte	0xc
 6838 068a 1901     		.2byte	0x119
 6839 068c 29010000 		.4byte	0x129
 6840 0690 0002     		.2byte	0x200
 6841 0692 1A       		.uleb128 0x1a
 6842 0693 A00F0000 		.4byte	.LASF108
 6843 0697 0C       		.byte	0xc
 6844 0698 1A01     		.2byte	0x11a
 6845 069a 29010000 		.4byte	0x129
 6846 069e 0402     		.2byte	0x204
 6847 06a0 1A       		.uleb128 0x1a
 6848 06a1 15300000 		.4byte	.LASF109
 6849 06a5 0C       		.byte	0xc
 6850 06a6 1B01     		.2byte	0x11b
 6851 06a8 1E010000 		.4byte	0x11e
 6852 06ac 0802     		.2byte	0x208
 6853 06ae 1A       		.uleb128 0x1a
 6854 06af 72330000 		.4byte	.LASF110
 6855 06b3 0C       		.byte	0xc
 6856 06b4 1C01     		.2byte	0x11c
 6857 06b6 29010000 		.4byte	0x129
 6858 06ba 0C02     		.2byte	0x20c
 6859 06bc 1A       		.uleb128 0x1a
 6860 06bd 1F300000 		.4byte	.LASF111
 6861 06c1 0C       		.byte	0xc
 6862 06c2 1D01     		.2byte	0x11d
ARM GAS  C:\Users\CHRIST~1\AppData\Local\Temp\ccCFoZV9.s 			page 123


 6863 06c4 1E010000 		.4byte	0x11e
 6864 06c8 1002     		.2byte	0x210
 6865 06ca 1A       		.uleb128 0x1a
 6866 06cb C8250000 		.4byte	.LASF112
 6867 06cf 0C       		.byte	0xc
 6868 06d0 1E01     		.2byte	0x11e
 6869 06d2 29010000 		.4byte	0x129
 6870 06d6 1402     		.2byte	0x214
 6871 06d8 1A       		.uleb128 0x1a
 6872 06d9 29300000 		.4byte	.LASF113
 6873 06dd 0C       		.byte	0xc
 6874 06de 1F01     		.2byte	0x11f
 6875 06e0 1E010000 		.4byte	0x11e
 6876 06e4 1802     		.2byte	0x218
 6877 06e6 1A       		.uleb128 0x1a
 6878 06e7 75050000 		.4byte	.LASF114
 6879 06eb 0C       		.byte	0xc
 6880 06ec 2001     		.2byte	0x120
 6881 06ee 29010000 		.4byte	0x129
 6882 06f2 1C02     		.2byte	0x21c
 6883 06f4 1A       		.uleb128 0x1a
 6884 06f5 33300000 		.4byte	.LASF115
 6885 06f9 0C       		.byte	0xc
 6886 06fa 2101     		.2byte	0x121
 6887 06fc FC040000 		.4byte	0x4fc
 6888 0700 2002     		.2byte	0x220
 6889 0702 1A       		.uleb128 0x1a
 6890 0703 92070000 		.4byte	.LASF116
 6891 0707 0C       		.byte	0xc
 6892 0708 2201     		.2byte	0x122
 6893 070a 51070000 		.4byte	0x751
 6894 070e 4002     		.2byte	0x240
 6895 0710 00       		.byte	0
 6896 0711 11       		.uleb128 0x11
 6897 0712 1E010000 		.4byte	0x11e
 6898 0716 21070000 		.4byte	0x721
 6899 071a 12       		.uleb128 0x12
 6900 071b F5040000 		.4byte	0x4f5
 6901 071f 57       		.byte	0x57
 6902 0720 00       		.byte	0
 6903 0721 11       		.uleb128 0x11
 6904 0722 5C050000 		.4byte	0x55c
 6905 0726 31070000 		.4byte	0x731
 6906 072a 12       		.uleb128 0x12
 6907 072b F5040000 		.4byte	0x4f5
 6908 072f 02       		.byte	0x2
 6909 0730 00       		.byte	0
 6910 0731 11       		.uleb128 0x11
 6911 0732 A0050000 		.4byte	0x5a0
 6912 0736 41070000 		.4byte	0x741
 6913 073a 12       		.uleb128 0x12
 6914 073b F5040000 		.4byte	0x4f5
 6915 073f 01       		.byte	0x1
 6916 0740 00       		.byte	0
 6917 0741 11       		.uleb128 0x11
 6918 0742 1E010000 		.4byte	0x11e
 6919 0746 51070000 		.4byte	0x751
ARM GAS  C:\Users\CHRIST~1\AppData\Local\Temp\ccCFoZV9.s 			page 124


 6920 074a 12       		.uleb128 0x12
 6921 074b F5040000 		.4byte	0x4f5
 6922 074f 0B       		.byte	0xb
 6923 0750 00       		.byte	0
 6924 0751 11       		.uleb128 0x11
 6925 0752 CF050000 		.4byte	0x5cf
 6926 0756 61070000 		.4byte	0x761
 6927 075a 12       		.uleb128 0x12
 6928 075b F5040000 		.4byte	0x4f5
 6929 075f 1B       		.byte	0x1b
 6930 0760 00       		.byte	0
 6931 0761 18       		.uleb128 0x18
 6932 0762 AF120000 		.4byte	.LASF117
 6933 0766 0C       		.byte	0xc
 6934 0767 2301     		.2byte	0x123
 6935 0769 DB050000 		.4byte	0x5db
 6936 076d 17       		.uleb128 0x17
 6937 076e 18       		.byte	0x18
 6938 076f 0C       		.byte	0xc
 6939 0770 6B01     		.2byte	0x16b
 6940 0772 C4070000 		.4byte	0x7c4
 6941 0776 09       		.uleb128 0x9
 6942 0777 435200   		.ascii	"CR\000"
 6943 077a 0C       		.byte	0xc
 6944 077b 6D01     		.2byte	0x16d
 6945 077d 29010000 		.4byte	0x129
 6946 0781 00       		.byte	0
 6947 0782 0A       		.uleb128 0xa
 6948 0783 EA310000 		.4byte	.LASF118
 6949 0787 0C       		.byte	0xc
 6950 0788 6E01     		.2byte	0x16e
 6951 078a 29010000 		.4byte	0x129
 6952 078e 04       		.byte	0x4
 6953 078f 09       		.uleb128 0x9
 6954 0790 50415200 		.ascii	"PAR\000"
 6955 0794 0C       		.byte	0xc
 6956 0795 6F01     		.2byte	0x16f
 6957 0797 29010000 		.4byte	0x129
 6958 079b 08       		.byte	0x8
 6959 079c 0A       		.uleb128 0xa
 6960 079d 1F050000 		.4byte	.LASF119
 6961 07a1 0C       		.byte	0xc
 6962 07a2 7001     		.2byte	0x170
 6963 07a4 29010000 		.4byte	0x129
 6964 07a8 0C       		.byte	0xc
 6965 07a9 0A       		.uleb128 0xa
 6966 07aa 550A0000 		.4byte	.LASF120
 6967 07ae 0C       		.byte	0xc
 6968 07af 7101     		.2byte	0x171
 6969 07b1 29010000 		.4byte	0x129
 6970 07b5 10       		.byte	0x10
 6971 07b6 09       		.uleb128 0x9
 6972 07b7 46435200 		.ascii	"FCR\000"
 6973 07bb 0C       		.byte	0xc
 6974 07bc 7201     		.2byte	0x172
 6975 07be 29010000 		.4byte	0x129
 6976 07c2 14       		.byte	0x14
ARM GAS  C:\Users\CHRIST~1\AppData\Local\Temp\ccCFoZV9.s 			page 125


 6977 07c3 00       		.byte	0
 6978 07c4 18       		.uleb128 0x18
 6979 07c5 5F0A0000 		.4byte	.LASF121
 6980 07c9 0C       		.byte	0xc
 6981 07ca 7301     		.2byte	0x173
 6982 07cc 6D070000 		.4byte	0x76d
 6983 07d0 11       		.uleb128 0x11
 6984 07d1 29010000 		.4byte	0x129
 6985 07d5 E0070000 		.4byte	0x7e0
 6986 07d9 12       		.uleb128 0x12
 6987 07da F5040000 		.4byte	0x4f5
 6988 07de 01       		.byte	0x1
 6989 07df 00       		.byte	0
 6990 07e0 05       		.uleb128 0x5
 6991 07e1 D0070000 		.4byte	0x7d0
 6992 07e5 11       		.uleb128 0x11
 6993 07e6 29010000 		.4byte	0x129
 6994 07ea F5070000 		.4byte	0x7f5
 6995 07ee 12       		.uleb128 0x12
 6996 07ef F5040000 		.4byte	0x4f5
 6997 07f3 03       		.byte	0x3
 6998 07f4 00       		.byte	0
 6999 07f5 05       		.uleb128 0x5
 7000 07f6 E5070000 		.4byte	0x7e5
 7001 07fa 17       		.uleb128 0x17
 7002 07fb 28       		.byte	0x28
 7003 07fc 0C       		.byte	0xc
 7004 07fd 3F02     		.2byte	0x23f
 7005 07ff 85080000 		.4byte	0x885
 7006 0803 09       		.uleb128 0x9
 7007 0804 43523100 		.ascii	"CR1\000"
 7008 0808 0C       		.byte	0xc
 7009 0809 4102     		.2byte	0x241
 7010 080b 29010000 		.4byte	0x129
 7011 080f 00       		.byte	0
 7012 0810 09       		.uleb128 0x9
 7013 0811 43523200 		.ascii	"CR2\000"
 7014 0815 0C       		.byte	0xc
 7015 0816 4202     		.2byte	0x242
 7016 0818 29010000 		.4byte	0x129
 7017 081c 04       		.byte	0x4
 7018 081d 0A       		.uleb128 0xa
 7019 081e 8F3B0000 		.4byte	.LASF122
 7020 0822 0C       		.byte	0xc
 7021 0823 4302     		.2byte	0x243
 7022 0825 29010000 		.4byte	0x129
 7023 0829 08       		.byte	0x8
 7024 082a 0A       		.uleb128 0xa
 7025 082b 943B0000 		.4byte	.LASF123
 7026 082f 0C       		.byte	0xc
 7027 0830 4402     		.2byte	0x244
 7028 0832 29010000 		.4byte	0x129
 7029 0836 0C       		.byte	0xc
 7030 0837 09       		.uleb128 0x9
 7031 0838 445200   		.ascii	"DR\000"
 7032 083b 0C       		.byte	0xc
 7033 083c 4502     		.2byte	0x245
ARM GAS  C:\Users\CHRIST~1\AppData\Local\Temp\ccCFoZV9.s 			page 126


 7034 083e 29010000 		.4byte	0x129
 7035 0842 10       		.byte	0x10
 7036 0843 09       		.uleb128 0x9
 7037 0844 53523100 		.ascii	"SR1\000"
 7038 0848 0C       		.byte	0xc
 7039 0849 4602     		.2byte	0x246
 7040 084b 29010000 		.4byte	0x129
 7041 084f 14       		.byte	0x14
 7042 0850 09       		.uleb128 0x9
 7043 0851 53523200 		.ascii	"SR2\000"
 7044 0855 0C       		.byte	0xc
 7045 0856 4702     		.2byte	0x247
 7046 0858 29010000 		.4byte	0x129
 7047 085c 18       		.byte	0x18
 7048 085d 09       		.uleb128 0x9
 7049 085e 43435200 		.ascii	"CCR\000"
 7050 0862 0C       		.byte	0xc
 7051 0863 4802     		.2byte	0x248
 7052 0865 29010000 		.4byte	0x129
 7053 0869 1C       		.byte	0x1c
 7054 086a 0A       		.uleb128 0xa
 7055 086b 85060000 		.4byte	.LASF124
 7056 086f 0C       		.byte	0xc
 7057 0870 4902     		.2byte	0x249
 7058 0872 29010000 		.4byte	0x129
 7059 0876 20       		.byte	0x20
 7060 0877 0A       		.uleb128 0xa
 7061 0878 19390000 		.4byte	.LASF125
 7062 087c 0C       		.byte	0xc
 7063 087d 4A02     		.2byte	0x24a
 7064 087f 29010000 		.4byte	0x129
 7065 0883 24       		.byte	0x24
 7066 0884 00       		.byte	0
 7067 0885 18       		.uleb128 0x18
 7068 0886 F3210000 		.4byte	.LASF126
 7069 088a 0C       		.byte	0xc
 7070 088b 4B02     		.2byte	0x24b
 7071 088d FA070000 		.4byte	0x7fa
 7072 0891 17       		.uleb128 0x17
 7073 0892 24       		.byte	0x24
 7074 0893 0C       		.byte	0xc
 7075 0894 DB02     		.2byte	0x2db
 7076 0896 0E090000 		.4byte	0x90e
 7077 089a 09       		.uleb128 0x9
 7078 089b 43523100 		.ascii	"CR1\000"
 7079 089f 0C       		.byte	0xc
 7080 08a0 DD02     		.2byte	0x2dd
 7081 08a2 29010000 		.4byte	0x129
 7082 08a6 00       		.byte	0
 7083 08a7 09       		.uleb128 0x9
 7084 08a8 43523200 		.ascii	"CR2\000"
 7085 08ac 0C       		.byte	0xc
 7086 08ad DE02     		.2byte	0x2de
 7087 08af 29010000 		.4byte	0x129
 7088 08b3 04       		.byte	0x4
 7089 08b4 09       		.uleb128 0x9
 7090 08b5 535200   		.ascii	"SR\000"
ARM GAS  C:\Users\CHRIST~1\AppData\Local\Temp\ccCFoZV9.s 			page 127


 7091 08b8 0C       		.byte	0xc
 7092 08b9 DF02     		.2byte	0x2df
 7093 08bb 29010000 		.4byte	0x129
 7094 08bf 08       		.byte	0x8
 7095 08c0 09       		.uleb128 0x9
 7096 08c1 445200   		.ascii	"DR\000"
 7097 08c4 0C       		.byte	0xc
 7098 08c5 E002     		.2byte	0x2e0
 7099 08c7 29010000 		.4byte	0x129
 7100 08cb 0C       		.byte	0xc
 7101 08cc 0A       		.uleb128 0xa
 7102 08cd D0090000 		.4byte	.LASF127
 7103 08d1 0C       		.byte	0xc
 7104 08d2 E102     		.2byte	0x2e1
 7105 08d4 29010000 		.4byte	0x129
 7106 08d8 10       		.byte	0x10
 7107 08d9 0A       		.uleb128 0xa
 7108 08da 59100000 		.4byte	.LASF128
 7109 08de 0C       		.byte	0xc
 7110 08df E202     		.2byte	0x2e2
 7111 08e1 29010000 		.4byte	0x129
 7112 08e5 14       		.byte	0x14
 7113 08e6 0A       		.uleb128 0xa
 7114 08e7 EC0E0000 		.4byte	.LASF129
 7115 08eb 0C       		.byte	0xc
 7116 08ec E302     		.2byte	0x2e3
 7117 08ee 29010000 		.4byte	0x129
 7118 08f2 18       		.byte	0x18
 7119 08f3 0A       		.uleb128 0xa
 7120 08f4 78350000 		.4byte	.LASF130
 7121 08f8 0C       		.byte	0xc
 7122 08f9 E402     		.2byte	0x2e4
 7123 08fb 29010000 		.4byte	0x129
 7124 08ff 1C       		.byte	0x1c
 7125 0900 0A       		.uleb128 0xa
 7126 0901 6B090000 		.4byte	.LASF131
 7127 0905 0C       		.byte	0xc
 7128 0906 E502     		.2byte	0x2e5
 7129 0908 29010000 		.4byte	0x129
 7130 090c 20       		.byte	0x20
 7131 090d 00       		.byte	0
 7132 090e 18       		.uleb128 0x18
 7133 090f 30320000 		.4byte	.LASF132
 7134 0913 0C       		.byte	0xc
 7135 0914 E602     		.2byte	0x2e6
 7136 0916 91080000 		.4byte	0x891
 7137 091a 17       		.uleb128 0x17
 7138 091b 54       		.byte	0x54
 7139 091c 0C       		.byte	0xc
 7140 091d EC02     		.2byte	0x2ec
 7141 091f 330A0000 		.4byte	0xa33
 7142 0923 09       		.uleb128 0x9
 7143 0924 43523100 		.ascii	"CR1\000"
 7144 0928 0C       		.byte	0xc
 7145 0929 EE02     		.2byte	0x2ee
 7146 092b 29010000 		.4byte	0x129
 7147 092f 00       		.byte	0
ARM GAS  C:\Users\CHRIST~1\AppData\Local\Temp\ccCFoZV9.s 			page 128


 7148 0930 09       		.uleb128 0x9
 7149 0931 43523200 		.ascii	"CR2\000"
 7150 0935 0C       		.byte	0xc
 7151 0936 EF02     		.2byte	0x2ef
 7152 0938 29010000 		.4byte	0x129
 7153 093c 04       		.byte	0x4
 7154 093d 0A       		.uleb128 0xa
 7155 093e 44320000 		.4byte	.LASF133
 7156 0942 0C       		.byte	0xc
 7157 0943 F002     		.2byte	0x2f0
 7158 0945 29010000 		.4byte	0x129
 7159 0949 08       		.byte	0x8
 7160 094a 0A       		.uleb128 0xa
 7161 094b 750E0000 		.4byte	.LASF134
 7162 094f 0C       		.byte	0xc
 7163 0950 F102     		.2byte	0x2f1
 7164 0952 29010000 		.4byte	0x129
 7165 0956 0C       		.byte	0xc
 7166 0957 09       		.uleb128 0x9
 7167 0958 535200   		.ascii	"SR\000"
 7168 095b 0C       		.byte	0xc
 7169 095c F202     		.2byte	0x2f2
 7170 095e 29010000 		.4byte	0x129
 7171 0962 10       		.byte	0x10
 7172 0963 09       		.uleb128 0x9
 7173 0964 45475200 		.ascii	"EGR\000"
 7174 0968 0C       		.byte	0xc
 7175 0969 F302     		.2byte	0x2f3
 7176 096b 29010000 		.4byte	0x129
 7177 096f 14       		.byte	0x14
 7178 0970 0A       		.uleb128 0xa
 7179 0971 3F390000 		.4byte	.LASF135
 7180 0975 0C       		.byte	0xc
 7181 0976 F402     		.2byte	0x2f4
 7182 0978 29010000 		.4byte	0x129
 7183 097c 18       		.byte	0x18
 7184 097d 0A       		.uleb128 0xa
 7185 097e 45390000 		.4byte	.LASF136
 7186 0982 0C       		.byte	0xc
 7187 0983 F502     		.2byte	0x2f5
 7188 0985 29010000 		.4byte	0x129
 7189 0989 1C       		.byte	0x1c
 7190 098a 0A       		.uleb128 0xa
 7191 098b 66090000 		.4byte	.LASF137
 7192 098f 0C       		.byte	0xc
 7193 0990 F602     		.2byte	0x2f6
 7194 0992 29010000 		.4byte	0x129
 7195 0996 20       		.byte	0x20
 7196 0997 09       		.uleb128 0x9
 7197 0998 434E5400 		.ascii	"CNT\000"
 7198 099c 0C       		.byte	0xc
 7199 099d F702     		.2byte	0x2f7
 7200 099f 29010000 		.4byte	0x129
 7201 09a3 24       		.byte	0x24
 7202 09a4 09       		.uleb128 0x9
 7203 09a5 50534300 		.ascii	"PSC\000"
 7204 09a9 0C       		.byte	0xc
ARM GAS  C:\Users\CHRIST~1\AppData\Local\Temp\ccCFoZV9.s 			page 129


 7205 09aa F802     		.2byte	0x2f8
 7206 09ac 29010000 		.4byte	0x129
 7207 09b0 28       		.byte	0x28
 7208 09b1 09       		.uleb128 0x9
 7209 09b2 41525200 		.ascii	"ARR\000"
 7210 09b6 0C       		.byte	0xc
 7211 09b7 F902     		.2byte	0x2f9
 7212 09b9 29010000 		.4byte	0x129
 7213 09bd 2C       		.byte	0x2c
 7214 09be 09       		.uleb128 0x9
 7215 09bf 52435200 		.ascii	"RCR\000"
 7216 09c3 0C       		.byte	0xc
 7217 09c4 FA02     		.2byte	0x2fa
 7218 09c6 29010000 		.4byte	0x129
 7219 09ca 30       		.byte	0x30
 7220 09cb 0A       		.uleb128 0xa
 7221 09cc 84160000 		.4byte	.LASF138
 7222 09d0 0C       		.byte	0xc
 7223 09d1 FB02     		.2byte	0x2fb
 7224 09d3 29010000 		.4byte	0x129
 7225 09d7 34       		.byte	0x34
 7226 09d8 0A       		.uleb128 0xa
 7227 09d9 89160000 		.4byte	.LASF139
 7228 09dd 0C       		.byte	0xc
 7229 09de FC02     		.2byte	0x2fc
 7230 09e0 29010000 		.4byte	0x129
 7231 09e4 38       		.byte	0x38
 7232 09e5 0A       		.uleb128 0xa
 7233 09e6 8E160000 		.4byte	.LASF140
 7234 09ea 0C       		.byte	0xc
 7235 09eb FD02     		.2byte	0x2fd
 7236 09ed 29010000 		.4byte	0x129
 7237 09f1 3C       		.byte	0x3c
 7238 09f2 0A       		.uleb128 0xa
 7239 09f3 93160000 		.4byte	.LASF141
 7240 09f7 0C       		.byte	0xc
 7241 09f8 FE02     		.2byte	0x2fe
 7242 09fa 29010000 		.4byte	0x129
 7243 09fe 40       		.byte	0x40
 7244 09ff 0A       		.uleb128 0xa
 7245 0a00 55020000 		.4byte	.LASF142
 7246 0a04 0C       		.byte	0xc
 7247 0a05 FF02     		.2byte	0x2ff
 7248 0a07 29010000 		.4byte	0x129
 7249 0a0b 44       		.byte	0x44
 7250 0a0c 09       		.uleb128 0x9
 7251 0a0d 44435200 		.ascii	"DCR\000"
 7252 0a11 0C       		.byte	0xc
 7253 0a12 0003     		.2byte	0x300
 7254 0a14 29010000 		.4byte	0x129
 7255 0a18 48       		.byte	0x48
 7256 0a19 0A       		.uleb128 0xa
 7257 0a1a 1E220000 		.4byte	.LASF143
 7258 0a1e 0C       		.byte	0xc
 7259 0a1f 0103     		.2byte	0x301
 7260 0a21 29010000 		.4byte	0x129
 7261 0a25 4C       		.byte	0x4c
ARM GAS  C:\Users\CHRIST~1\AppData\Local\Temp\ccCFoZV9.s 			page 130


 7262 0a26 09       		.uleb128 0x9
 7263 0a27 4F5200   		.ascii	"OR\000"
 7264 0a2a 0C       		.byte	0xc
 7265 0a2b 0203     		.2byte	0x302
 7266 0a2d 29010000 		.4byte	0x129
 7267 0a31 50       		.byte	0x50
 7268 0a32 00       		.byte	0
 7269 0a33 18       		.uleb128 0x18
 7270 0a34 031C0000 		.4byte	.LASF144
 7271 0a38 0C       		.byte	0xc
 7272 0a39 0303     		.2byte	0x303
 7273 0a3b 1A090000 		.4byte	0x91a
 7274 0a3f 17       		.uleb128 0x17
 7275 0a40 1C       		.byte	0x1c
 7276 0a41 0C       		.byte	0xc
 7277 0a42 0903     		.2byte	0x309
 7278 0a44 A20A0000 		.4byte	0xaa2
 7279 0a48 09       		.uleb128 0x9
 7280 0a49 535200   		.ascii	"SR\000"
 7281 0a4c 0C       		.byte	0xc
 7282 0a4d 0B03     		.2byte	0x30b
 7283 0a4f 29010000 		.4byte	0x129
 7284 0a53 00       		.byte	0
 7285 0a54 09       		.uleb128 0x9
 7286 0a55 445200   		.ascii	"DR\000"
 7287 0a58 0C       		.byte	0xc
 7288 0a59 0C03     		.2byte	0x30c
 7289 0a5b 29010000 		.4byte	0x129
 7290 0a5f 04       		.byte	0x4
 7291 0a60 09       		.uleb128 0x9
 7292 0a61 42525200 		.ascii	"BRR\000"
 7293 0a65 0C       		.byte	0xc
 7294 0a66 0D03     		.2byte	0x30d
 7295 0a68 29010000 		.4byte	0x129
 7296 0a6c 08       		.byte	0x8
 7297 0a6d 09       		.uleb128 0x9
 7298 0a6e 43523100 		.ascii	"CR1\000"
 7299 0a72 0C       		.byte	0xc
 7300 0a73 0E03     		.2byte	0x30e
 7301 0a75 29010000 		.4byte	0x129
 7302 0a79 0C       		.byte	0xc
 7303 0a7a 09       		.uleb128 0x9
 7304 0a7b 43523200 		.ascii	"CR2\000"
 7305 0a7f 0C       		.byte	0xc
 7306 0a80 0F03     		.2byte	0x30f
 7307 0a82 29010000 		.4byte	0x129
 7308 0a86 10       		.byte	0x10
 7309 0a87 09       		.uleb128 0x9
 7310 0a88 43523300 		.ascii	"CR3\000"
 7311 0a8c 0C       		.byte	0xc
 7312 0a8d 1003     		.2byte	0x310
 7313 0a8f 29010000 		.4byte	0x129
 7314 0a93 14       		.byte	0x14
 7315 0a94 0A       		.uleb128 0xa
 7316 0a95 AF380000 		.4byte	.LASF145
 7317 0a99 0C       		.byte	0xc
 7318 0a9a 1103     		.2byte	0x311
ARM GAS  C:\Users\CHRIST~1\AppData\Local\Temp\ccCFoZV9.s 			page 131


 7319 0a9c 29010000 		.4byte	0x129
 7320 0aa0 18       		.byte	0x18
 7321 0aa1 00       		.byte	0
 7322 0aa2 18       		.uleb128 0x18
 7323 0aa3 2B3A0000 		.4byte	.LASF146
 7324 0aa7 0C       		.byte	0xc
 7325 0aa8 1203     		.2byte	0x312
 7326 0aaa 3F0A0000 		.4byte	0xa3f
 7327 0aae 11       		.uleb128 0x11
 7328 0aaf 29010000 		.4byte	0x129
 7329 0ab3 BE0A0000 		.4byte	0xabe
 7330 0ab7 12       		.uleb128 0x12
 7331 0ab8 F5040000 		.4byte	0x4f5
 7332 0abc 0E       		.byte	0xe
 7333 0abd 00       		.byte	0
 7334 0abe 05       		.uleb128 0x5
 7335 0abf AE0A0000 		.4byte	0xaae
 7336 0ac3 03       		.uleb128 0x3
 7337 0ac4 A3250000 		.4byte	.LASF147
 7338 0ac8 0D       		.byte	0xd
 7339 0ac9 65       		.byte	0x65
 7340 0aca BF030000 		.4byte	0x3bf
 7341 0ace 03       		.uleb128 0x3
 7342 0acf E40C0000 		.4byte	.LASF148
 7343 0ad3 0D       		.byte	0xd
 7344 0ad4 6D       		.byte	0x6d
 7345 0ad5 2E010000 		.4byte	0x12e
 7346 0ad9 07       		.uleb128 0x7
 7347 0ada 67240000 		.4byte	.LASF149
 7348 0ade 04       		.byte	0x4
 7349 0adf 0D       		.byte	0xd
 7350 0ae0 89       		.byte	0x89
 7351 0ae1 F20A0000 		.4byte	0xaf2
 7352 0ae5 16       		.uleb128 0x16
 7353 0ae6 72313300 		.ascii	"r13\000"
 7354 0aea 0D       		.byte	0xd
 7355 0aeb 8A       		.byte	0x8a
 7356 0aec 330C0000 		.4byte	0xc33
 7357 0af0 00       		.byte	0
 7358 0af1 00       		.byte	0
 7359 0af2 07       		.uleb128 0x7
 7360 0af3 09000000 		.4byte	.LASF150
 7361 0af7 64       		.byte	0x64
 7362 0af8 0E       		.byte	0xe
 7363 0af9 F4       		.byte	0xf4
 7364 0afa 330C0000 		.4byte	0xc33
 7365 0afe 16       		.uleb128 0x16
 7366 0aff 73313600 		.ascii	"s16\000"
 7367 0b03 0E       		.byte	0xe
 7368 0b04 F6       		.byte	0xf6
 7369 0b05 C30A0000 		.4byte	0xac3
 7370 0b09 00       		.byte	0
 7371 0b0a 16       		.uleb128 0x16
 7372 0b0b 73313700 		.ascii	"s17\000"
 7373 0b0f 0E       		.byte	0xe
 7374 0b10 F7       		.byte	0xf7
 7375 0b11 C30A0000 		.4byte	0xac3
ARM GAS  C:\Users\CHRIST~1\AppData\Local\Temp\ccCFoZV9.s 			page 132


 7376 0b15 04       		.byte	0x4
 7377 0b16 16       		.uleb128 0x16
 7378 0b17 73313800 		.ascii	"s18\000"
 7379 0b1b 0E       		.byte	0xe
 7380 0b1c F8       		.byte	0xf8
 7381 0b1d C30A0000 		.4byte	0xac3
 7382 0b21 08       		.byte	0x8
 7383 0b22 16       		.uleb128 0x16
 7384 0b23 73313900 		.ascii	"s19\000"
 7385 0b27 0E       		.byte	0xe
 7386 0b28 F9       		.byte	0xf9
 7387 0b29 C30A0000 		.4byte	0xac3
 7388 0b2d 0C       		.byte	0xc
 7389 0b2e 16       		.uleb128 0x16
 7390 0b2f 73323000 		.ascii	"s20\000"
 7391 0b33 0E       		.byte	0xe
 7392 0b34 FA       		.byte	0xfa
 7393 0b35 C30A0000 		.4byte	0xac3
 7394 0b39 10       		.byte	0x10
 7395 0b3a 16       		.uleb128 0x16
 7396 0b3b 73323100 		.ascii	"s21\000"
 7397 0b3f 0E       		.byte	0xe
 7398 0b40 FB       		.byte	0xfb
 7399 0b41 C30A0000 		.4byte	0xac3
 7400 0b45 14       		.byte	0x14
 7401 0b46 16       		.uleb128 0x16
 7402 0b47 73323200 		.ascii	"s22\000"
 7403 0b4b 0E       		.byte	0xe
 7404 0b4c FC       		.byte	0xfc
 7405 0b4d C30A0000 		.4byte	0xac3
 7406 0b51 18       		.byte	0x18
 7407 0b52 16       		.uleb128 0x16
 7408 0b53 73323300 		.ascii	"s23\000"
 7409 0b57 0E       		.byte	0xe
 7410 0b58 FD       		.byte	0xfd
 7411 0b59 C30A0000 		.4byte	0xac3
 7412 0b5d 1C       		.byte	0x1c
 7413 0b5e 16       		.uleb128 0x16
 7414 0b5f 73323400 		.ascii	"s24\000"
 7415 0b63 0E       		.byte	0xe
 7416 0b64 FE       		.byte	0xfe
 7417 0b65 C30A0000 		.4byte	0xac3
 7418 0b69 20       		.byte	0x20
 7419 0b6a 16       		.uleb128 0x16
 7420 0b6b 73323500 		.ascii	"s25\000"
 7421 0b6f 0E       		.byte	0xe
 7422 0b70 FF       		.byte	0xff
 7423 0b71 C30A0000 		.4byte	0xac3
 7424 0b75 24       		.byte	0x24
 7425 0b76 09       		.uleb128 0x9
 7426 0b77 73323600 		.ascii	"s26\000"
 7427 0b7b 0E       		.byte	0xe
 7428 0b7c 0001     		.2byte	0x100
 7429 0b7e C30A0000 		.4byte	0xac3
 7430 0b82 28       		.byte	0x28
 7431 0b83 09       		.uleb128 0x9
 7432 0b84 73323700 		.ascii	"s27\000"
ARM GAS  C:\Users\CHRIST~1\AppData\Local\Temp\ccCFoZV9.s 			page 133


 7433 0b88 0E       		.byte	0xe
 7434 0b89 0101     		.2byte	0x101
 7435 0b8b C30A0000 		.4byte	0xac3
 7436 0b8f 2C       		.byte	0x2c
 7437 0b90 09       		.uleb128 0x9
 7438 0b91 73323800 		.ascii	"s28\000"
 7439 0b95 0E       		.byte	0xe
 7440 0b96 0201     		.2byte	0x102
 7441 0b98 C30A0000 		.4byte	0xac3
 7442 0b9c 30       		.byte	0x30
 7443 0b9d 09       		.uleb128 0x9
 7444 0b9e 73323900 		.ascii	"s29\000"
 7445 0ba2 0E       		.byte	0xe
 7446 0ba3 0301     		.2byte	0x103
 7447 0ba5 C30A0000 		.4byte	0xac3
 7448 0ba9 34       		.byte	0x34
 7449 0baa 09       		.uleb128 0x9
 7450 0bab 73333000 		.ascii	"s30\000"
 7451 0baf 0E       		.byte	0xe
 7452 0bb0 0401     		.2byte	0x104
 7453 0bb2 C30A0000 		.4byte	0xac3
 7454 0bb6 38       		.byte	0x38
 7455 0bb7 09       		.uleb128 0x9
 7456 0bb8 73333100 		.ascii	"s31\000"
 7457 0bbc 0E       		.byte	0xe
 7458 0bbd 0501     		.2byte	0x105
 7459 0bbf C30A0000 		.4byte	0xac3
 7460 0bc3 3C       		.byte	0x3c
 7461 0bc4 09       		.uleb128 0x9
 7462 0bc5 723400   		.ascii	"r4\000"
 7463 0bc8 0E       		.byte	0xe
 7464 0bc9 0701     		.2byte	0x107
 7465 0bcb C30A0000 		.4byte	0xac3
 7466 0bcf 40       		.byte	0x40
 7467 0bd0 09       		.uleb128 0x9
 7468 0bd1 723500   		.ascii	"r5\000"
 7469 0bd4 0E       		.byte	0xe
 7470 0bd5 0801     		.2byte	0x108
 7471 0bd7 C30A0000 		.4byte	0xac3
 7472 0bdb 44       		.byte	0x44
 7473 0bdc 09       		.uleb128 0x9
 7474 0bdd 723600   		.ascii	"r6\000"
 7475 0be0 0E       		.byte	0xe
 7476 0be1 0901     		.2byte	0x109
 7477 0be3 C30A0000 		.4byte	0xac3
 7478 0be7 48       		.byte	0x48
 7479 0be8 09       		.uleb128 0x9
 7480 0be9 723700   		.ascii	"r7\000"
 7481 0bec 0E       		.byte	0xe
 7482 0bed 0A01     		.2byte	0x10a
 7483 0bef C30A0000 		.4byte	0xac3
 7484 0bf3 4C       		.byte	0x4c
 7485 0bf4 09       		.uleb128 0x9
 7486 0bf5 723800   		.ascii	"r8\000"
 7487 0bf8 0E       		.byte	0xe
 7488 0bf9 0B01     		.2byte	0x10b
 7489 0bfb C30A0000 		.4byte	0xac3
ARM GAS  C:\Users\CHRIST~1\AppData\Local\Temp\ccCFoZV9.s 			page 134


 7490 0bff 50       		.byte	0x50
 7491 0c00 09       		.uleb128 0x9
 7492 0c01 723900   		.ascii	"r9\000"
 7493 0c04 0E       		.byte	0xe
 7494 0c05 0C01     		.2byte	0x10c
 7495 0c07 C30A0000 		.4byte	0xac3
 7496 0c0b 54       		.byte	0x54
 7497 0c0c 09       		.uleb128 0x9
 7498 0c0d 72313000 		.ascii	"r10\000"
 7499 0c11 0E       		.byte	0xe
 7500 0c12 0D01     		.2byte	0x10d
 7501 0c14 C30A0000 		.4byte	0xac3
 7502 0c18 58       		.byte	0x58
 7503 0c19 09       		.uleb128 0x9
 7504 0c1a 72313100 		.ascii	"r11\000"
 7505 0c1e 0E       		.byte	0xe
 7506 0c1f 0E01     		.2byte	0x10e
 7507 0c21 C30A0000 		.4byte	0xac3
 7508 0c25 5C       		.byte	0x5c
 7509 0c26 09       		.uleb128 0x9
 7510 0c27 6C7200   		.ascii	"lr\000"
 7511 0c2a 0E       		.byte	0xe
 7512 0c2b 0F01     		.2byte	0x10f
 7513 0c2d C30A0000 		.4byte	0xac3
 7514 0c31 60       		.byte	0x60
 7515 0c32 00       		.byte	0
 7516 0c33 0B       		.uleb128 0xb
 7517 0c34 04       		.byte	0x4
 7518 0c35 F20A0000 		.4byte	0xaf2
 7519 0c39 15       		.uleb128 0x15
 7520 0c3a 04       		.byte	0x4
 7521 0c3b 0F       		.byte	0xf
 7522 0c3c 38       		.byte	0x38
 7523 0c3d 4E0C0000 		.4byte	0xc4e
 7524 0c41 08       		.uleb128 0x8
 7525 0c42 80310000 		.4byte	.LASF151
 7526 0c46 0F       		.byte	0xf
 7527 0c47 3C       		.byte	0x3c
 7528 0c48 49010000 		.4byte	0x149
 7529 0c4c 00       		.byte	0
 7530 0c4d 00       		.byte	0
 7531 0c4e 03       		.uleb128 0x3
 7532 0c4f 62380000 		.4byte	.LASF152
 7533 0c53 0F       		.byte	0xf
 7534 0c54 3D       		.byte	0x3d
 7535 0c55 390C0000 		.4byte	0xc39
 7536 0c59 1C       		.uleb128 0x1c
 7537 0c5a 04       		.byte	0x4
 7538 0c5b 09       		.byte	0x9
 7539 0c5c FA       		.byte	0xfa
 7540 0c5d B60C0000 		.4byte	0xcb6
 7541 0c61 1D       		.uleb128 0x1d
 7542 0c62 7C170000 		.4byte	.LASF153
 7543 0c66 09       		.byte	0x9
 7544 0c67 0101     		.2byte	0x101
 7545 0c69 8B010000 		.4byte	0x18b
 7546 0c6d 1D       		.uleb128 0x1d
ARM GAS  C:\Users\CHRIST~1\AppData\Local\Temp\ccCFoZV9.s 			page 135


 7547 0c6e 25140000 		.4byte	.LASF154
 7548 0c72 09       		.byte	0x9
 7549 0c73 0801     		.2byte	0x108
 7550 0c75 8B010000 		.4byte	0x18b
 7551 0c79 1D       		.uleb128 0x1d
 7552 0c7a A42C0000 		.4byte	.LASF155
 7553 0c7e 09       		.byte	0x9
 7554 0c7f 0F01     		.2byte	0x10f
 7555 0c81 BF030000 		.4byte	0x3bf
 7556 0c85 1D       		.uleb128 0x1d
 7557 0c86 59240000 		.4byte	.LASF156
 7558 0c8a 09       		.byte	0x9
 7559 0c8b 1601     		.2byte	0x116
 7560 0c8d B60C0000 		.4byte	0xcb6
 7561 0c91 1D       		.uleb128 0x1d
 7562 0c92 5A010000 		.4byte	.LASF157
 7563 0c96 09       		.byte	0x9
 7564 0c97 1E01     		.2byte	0x11e
 7565 0c99 E10C0000 		.4byte	0xce1
 7566 0c9d 1D       		.uleb128 0x1d
 7567 0c9e FB2C0000 		.4byte	.LASF158
 7568 0ca2 09       		.byte	0x9
 7569 0ca3 2701     		.2byte	0x127
 7570 0ca5 180D0000 		.4byte	0xd18
 7571 0ca9 1D       		.uleb128 0x1d
 7572 0caa D3320000 		.4byte	.LASF159
 7573 0cae 09       		.byte	0x9
 7574 0caf 2F01     		.2byte	0x12f
 7575 0cb1 96010000 		.4byte	0x196
 7576 0cb5 00       		.byte	0
 7577 0cb6 0B       		.uleb128 0xb
 7578 0cb7 04       		.byte	0x4
 7579 0cb8 D7020000 		.4byte	0x2d7
 7580 0cbc 07       		.uleb128 0x7
 7581 0cbd 96220000 		.4byte	.LASF160
 7582 0cc1 0C       		.byte	0xc
 7583 0cc2 10       		.byte	0x10
 7584 0cc3 34       		.byte	0x34
 7585 0cc4 E10C0000 		.4byte	0xce1
 7586 0cc8 08       		.uleb128 0x8
 7587 0cc9 50350000 		.4byte	.LASF161
 7588 0ccd 10       		.byte	0x10
 7589 0cce 35       		.byte	0x35
 7590 0ccf 0C030000 		.4byte	0x30c
 7591 0cd3 00       		.byte	0
 7592 0cd4 08       		.uleb128 0x8
 7593 0cd5 6F0D0000 		.4byte	.LASF162
 7594 0cd9 10       		.byte	0x10
 7595 0cda 37       		.byte	0x37
 7596 0cdb AC010000 		.4byte	0x1ac
 7597 0cdf 08       		.byte	0x8
 7598 0ce0 00       		.byte	0
 7599 0ce1 0B       		.uleb128 0xb
 7600 0ce2 04       		.byte	0x4
 7601 0ce3 BC0C0000 		.4byte	0xcbc
 7602 0ce7 07       		.uleb128 0x7
 7603 0ce8 6E100000 		.4byte	.LASF163
ARM GAS  C:\Users\CHRIST~1\AppData\Local\Temp\ccCFoZV9.s 			page 136


 7604 0cec 10       		.byte	0x10
 7605 0ced 11       		.byte	0x11
 7606 0cee 39       		.byte	0x39
 7607 0cef 180D0000 		.4byte	0xd18
 7608 0cf3 08       		.uleb128 0x8
 7609 0cf4 B0230000 		.4byte	.LASF164
 7610 0cf8 11       		.byte	0x11
 7611 0cf9 3A       		.byte	0x3a
 7612 0cfa 0C030000 		.4byte	0x30c
 7613 0cfe 00       		.byte	0
 7614 0cff 08       		.uleb128 0x8
 7615 0d00 53210000 		.4byte	.LASF165
 7616 0d04 11       		.byte	0x11
 7617 0d05 3C       		.byte	0x3c
 7618 0d06 E2020000 		.4byte	0x2e2
 7619 0d0a 08       		.byte	0x8
 7620 0d0b 08       		.uleb128 0x8
 7621 0d0c 08020000 		.4byte	.LASF166
 7622 0d10 11       		.byte	0x11
 7623 0d11 3E       		.byte	0x3e
 7624 0d12 6D0E0000 		.4byte	0xe6d
 7625 0d16 0C       		.byte	0xc
 7626 0d17 00       		.byte	0
 7627 0d18 0B       		.uleb128 0xb
 7628 0d19 04       		.byte	0x4
 7629 0d1a E70C0000 		.4byte	0xce7
 7630 0d1e 0B       		.uleb128 0xb
 7631 0d1f 04       		.byte	0x4
 7632 0d20 300D0000 		.4byte	0xd30
 7633 0d24 05       		.uleb128 0x5
 7634 0d25 1E0D0000 		.4byte	0xd1e
 7635 0d29 02       		.uleb128 0x2
 7636 0d2a 01       		.byte	0x1
 7637 0d2b 08       		.byte	0x8
 7638 0d2c 2E270000 		.4byte	.LASF167
 7639 0d30 06       		.uleb128 0x6
 7640 0d31 290D0000 		.4byte	0xd29
 7641 0d35 0B       		.uleb128 0xb
 7642 0d36 04       		.byte	0x4
 7643 0d37 C1030000 		.4byte	0x3c1
 7644 0d3b 11       		.uleb128 0x11
 7645 0d3c CE0A0000 		.4byte	0xace
 7646 0d40 4B0D0000 		.4byte	0xd4b
 7647 0d44 12       		.uleb128 0x12
 7648 0d45 F5040000 		.4byte	0x4f5
 7649 0d49 3A       		.byte	0x3a
 7650 0d4a 00       		.byte	0
 7651 0d4b 1E       		.uleb128 0x1e
 7652 0d4c 636800   		.ascii	"ch\000"
 7653 0d4f 09       		.byte	0x9
 7654 0d50 0902     		.2byte	0x209
 7655 0d52 8E040000 		.4byte	0x48e
 7656 0d56 15       		.uleb128 0x15
 7657 0d57 16       		.byte	0x16
 7658 0d58 02       		.byte	0x2
 7659 0d59 34       		.byte	0x34
 7660 0d5a 370E0000 		.4byte	0xe37
ARM GAS  C:\Users\CHRIST~1\AppData\Local\Temp\ccCFoZV9.s 			page 137


 7661 0d5e 08       		.uleb128 0x8
 7662 0d5f D6350000 		.4byte	.LASF168
 7663 0d63 02       		.byte	0x2
 7664 0d64 35       		.byte	0x35
 7665 0d65 370E0000 		.4byte	0xe37
 7666 0d69 00       		.byte	0
 7667 0d6a 08       		.uleb128 0x8
 7668 0d6b E6380000 		.4byte	.LASF169
 7669 0d6f 02       		.byte	0x2
 7670 0d70 36       		.byte	0x36
 7671 0d71 D9000000 		.4byte	0xd9
 7672 0d75 04       		.byte	0x4
 7673 0d76 08       		.uleb128 0x8
 7674 0d77 FA030000 		.4byte	.LASF170
 7675 0d7b 02       		.byte	0x2
 7676 0d7c 37       		.byte	0x37
 7677 0d7d D9000000 		.4byte	0xd9
 7678 0d81 05       		.byte	0x5
 7679 0d82 08       		.uleb128 0x8
 7680 0d83 CD210000 		.4byte	.LASF171
 7681 0d87 02       		.byte	0x2
 7682 0d88 38       		.byte	0x38
 7683 0d89 FE000000 		.4byte	0xfe
 7684 0d8d 06       		.byte	0x6
 7685 0d8e 08       		.uleb128 0x8
 7686 0d8f 27000000 		.4byte	.LASF172
 7687 0d93 02       		.byte	0x2
 7688 0d94 39       		.byte	0x39
 7689 0d95 D9000000 		.4byte	0xd9
 7690 0d99 08       		.byte	0x8
 7691 0d9a 08       		.uleb128 0x8
 7692 0d9b D71E0000 		.4byte	.LASF173
 7693 0d9f 02       		.byte	0x2
 7694 0da0 3A       		.byte	0x3a
 7695 0da1 D9000000 		.4byte	0xd9
 7696 0da5 09       		.byte	0x9
 7697 0da6 08       		.uleb128 0x8
 7698 0da7 0B390000 		.4byte	.LASF174
 7699 0dab 02       		.byte	0x2
 7700 0dac 3B       		.byte	0x3b
 7701 0dad D9000000 		.4byte	0xd9
 7702 0db1 0A       		.byte	0xa
 7703 0db2 08       		.uleb128 0x8
 7704 0db3 0D360000 		.4byte	.LASF175
 7705 0db7 02       		.byte	0x2
 7706 0db8 3C       		.byte	0x3c
 7707 0db9 D9000000 		.4byte	0xd9
 7708 0dbd 0B       		.byte	0xb
 7709 0dbe 08       		.uleb128 0x8
 7710 0dbf DF060000 		.4byte	.LASF176
 7711 0dc3 02       		.byte	0x2
 7712 0dc4 3D       		.byte	0x3d
 7713 0dc5 D9000000 		.4byte	0xd9
 7714 0dc9 0C       		.byte	0xc
 7715 0dca 08       		.uleb128 0x8
 7716 0dcb E4100000 		.4byte	.LASF177
 7717 0dcf 02       		.byte	0x2
ARM GAS  C:\Users\CHRIST~1\AppData\Local\Temp\ccCFoZV9.s 			page 138


 7718 0dd0 3E       		.byte	0x3e
 7719 0dd1 D9000000 		.4byte	0xd9
 7720 0dd5 0D       		.byte	0xd
 7721 0dd6 08       		.uleb128 0x8
 7722 0dd7 35070000 		.4byte	.LASF178
 7723 0ddb 02       		.byte	0x2
 7724 0ddc 3F       		.byte	0x3f
 7725 0ddd D9000000 		.4byte	0xd9
 7726 0de1 0E       		.byte	0xe
 7727 0de2 08       		.uleb128 0x8
 7728 0de3 8E130000 		.4byte	.LASF179
 7729 0de7 02       		.byte	0x2
 7730 0de8 40       		.byte	0x40
 7731 0de9 D9000000 		.4byte	0xd9
 7732 0ded 0F       		.byte	0xf
 7733 0dee 08       		.uleb128 0x8
 7734 0def 0F050000 		.4byte	.LASF180
 7735 0df3 02       		.byte	0x2
 7736 0df4 41       		.byte	0x41
 7737 0df5 D9000000 		.4byte	0xd9
 7738 0df9 10       		.byte	0x10
 7739 0dfa 08       		.uleb128 0x8
 7740 0dfb 8B0C0000 		.4byte	.LASF181
 7741 0dff 02       		.byte	0x2
 7742 0e00 43       		.byte	0x43
 7743 0e01 D9000000 		.4byte	0xd9
 7744 0e05 11       		.byte	0x11
 7745 0e06 08       		.uleb128 0x8
 7746 0e07 A5030000 		.4byte	.LASF182
 7747 0e0b 02       		.byte	0x2
 7748 0e0c 44       		.byte	0x44
 7749 0e0d D9000000 		.4byte	0xd9
 7750 0e11 12       		.byte	0x12
 7751 0e12 08       		.uleb128 0x8
 7752 0e13 32210000 		.4byte	.LASF183
 7753 0e17 02       		.byte	0x2
 7754 0e18 45       		.byte	0x45
 7755 0e19 D9000000 		.4byte	0xd9
 7756 0e1d 13       		.byte	0x13
 7757 0e1e 08       		.uleb128 0x8
 7758 0e1f 4B2B0000 		.4byte	.LASF184
 7759 0e23 02       		.byte	0x2
 7760 0e24 46       		.byte	0x46
 7761 0e25 D9000000 		.4byte	0xd9
 7762 0e29 14       		.byte	0x14
 7763 0e2a 08       		.uleb128 0x8
 7764 0e2b 38010000 		.4byte	.LASF185
 7765 0e2f 02       		.byte	0x2
 7766 0e30 48       		.byte	0x48
 7767 0e31 D9000000 		.4byte	0xd9
 7768 0e35 15       		.byte	0x15
 7769 0e36 00       		.byte	0
 7770 0e37 11       		.uleb128 0x11
 7771 0e38 290D0000 		.4byte	0xd29
 7772 0e3c 470E0000 		.4byte	0xe47
 7773 0e40 12       		.uleb128 0x12
 7774 0e41 F5040000 		.4byte	0x4f5
ARM GAS  C:\Users\CHRIST~1\AppData\Local\Temp\ccCFoZV9.s 			page 139


 7775 0e45 03       		.byte	0x3
 7776 0e46 00       		.byte	0
 7777 0e47 03       		.uleb128 0x3
 7778 0e48 471E0000 		.4byte	.LASF186
 7779 0e4c 02       		.byte	0x2
 7780 0e4d 49       		.byte	0x49
 7781 0e4e 560D0000 		.4byte	0xd56
 7782 0e52 06       		.uleb128 0x6
 7783 0e53 470E0000 		.4byte	0xe47
 7784 0e57 14       		.uleb128 0x14
 7785 0e58 970F0000 		.4byte	.LASF187
 7786 0e5c 02       		.byte	0x2
 7787 0e5d 6E       		.byte	0x6e
 7788 0e5e 520E0000 		.4byte	0xe52
 7789 0e62 03       		.uleb128 0x3
 7790 0e63 792F0000 		.4byte	.LASF188
 7791 0e67 11       		.byte	0x11
 7792 0e68 34       		.byte	0x34
 7793 0e69 E70C0000 		.4byte	0xce7
 7794 0e6d 0B       		.uleb128 0xb
 7795 0e6e 04       		.byte	0x4
 7796 0e6f 620E0000 		.4byte	0xe62
 7797 0e73 03       		.uleb128 0x3
 7798 0e74 EC0F0000 		.4byte	.LASF189
 7799 0e78 12       		.byte	0x12
 7800 0e79 34       		.byte	0x34
 7801 0e7a 7E0E0000 		.4byte	0xe7e
 7802 0e7e 07       		.uleb128 0x7
 7803 0e7f 490D0000 		.4byte	.LASF190
 7804 0e83 14       		.byte	0x14
 7805 0e84 12       		.byte	0x12
 7806 0e85 39       		.byte	0x39
 7807 0e86 C70E0000 		.4byte	0xec7
 7808 0e8a 08       		.uleb128 0x8
 7809 0e8b DE020000 		.4byte	.LASF191
 7810 0e8f 12       		.byte	0x12
 7811 0e90 3A       		.byte	0x3a
 7812 0e91 C70E0000 		.4byte	0xec7
 7813 0e95 00       		.byte	0
 7814 0e96 08       		.uleb128 0x8
 7815 0e97 AA300000 		.4byte	.LASF192
 7816 0e9b 12       		.byte	0x12
 7817 0e9c 3D       		.byte	0x3d
 7818 0e9d E2020000 		.4byte	0x2e2
 7819 0ea1 04       		.byte	0x4
 7820 0ea2 08       		.uleb128 0x8
 7821 0ea3 9C040000 		.4byte	.LASF193
 7822 0ea7 12       		.byte	0x12
 7823 0ea8 3F       		.byte	0x3f
 7824 0ea9 96010000 		.4byte	0x196
 7825 0ead 08       		.byte	0x8
 7826 0eae 08       		.uleb128 0x8
 7827 0eaf 06330000 		.4byte	.LASF194
 7828 0eb3 12       		.byte	0x12
 7829 0eb4 41       		.byte	0x41
 7830 0eb5 A1010000 		.4byte	0x1a1
 7831 0eb9 0C       		.byte	0xc
ARM GAS  C:\Users\CHRIST~1\AppData\Local\Temp\ccCFoZV9.s 			page 140


 7832 0eba 08       		.uleb128 0x8
 7833 0ebb 11140000 		.4byte	.LASF195
 7834 0ebf 12       		.byte	0x12
 7835 0ec0 43       		.byte	0x43
 7836 0ec1 A1010000 		.4byte	0x1a1
 7837 0ec5 10       		.byte	0x10
 7838 0ec6 00       		.byte	0
 7839 0ec7 0B       		.uleb128 0xb
 7840 0ec8 04       		.byte	0x4
 7841 0ec9 730E0000 		.4byte	0xe73
 7842 0ecd 07       		.uleb128 0x7
 7843 0ece 0F330000 		.4byte	.LASF196
 7844 0ed2 04       		.byte	0x4
 7845 0ed3 12       		.byte	0x12
 7846 0ed4 4A       		.byte	0x4a
 7847 0ed5 E60E0000 		.4byte	0xee6
 7848 0ed9 08       		.uleb128 0x8
 7849 0eda EF310000 		.4byte	.LASF197
 7850 0ede 12       		.byte	0x12
 7851 0edf 4B       		.byte	0x4b
 7852 0ee0 C70E0000 		.4byte	0xec7
 7853 0ee4 00       		.byte	0
 7854 0ee5 00       		.byte	0
 7855 0ee6 03       		.uleb128 0x3
 7856 0ee7 001F0000 		.4byte	.LASF198
 7857 0eeb 12       		.byte	0x12
 7858 0eec 4E       		.byte	0x4e
 7859 0eed CD0E0000 		.4byte	0xecd
 7860 0ef1 03       		.uleb128 0x3
 7861 0ef2 6D140000 		.4byte	.LASF199
 7862 0ef6 13       		.byte	0x13
 7863 0ef7 3F       		.byte	0x3f
 7864 0ef8 FC0E0000 		.4byte	0xefc
 7865 0efc 07       		.uleb128 0x7
 7866 0efd 11180000 		.4byte	.LASF200
 7867 0f01 24       		.byte	0x24
 7868 0f02 13       		.byte	0x13
 7869 0f03 4D       		.byte	0x4d
 7870 0f04 690F0000 		.4byte	0xf69
 7871 0f08 08       		.uleb128 0x8
 7872 0f09 AA060000 		.4byte	.LASF201
 7873 0f0d 13       		.byte	0x13
 7874 0f0e 4E       		.byte	0x4e
 7875 0f0f 0C030000 		.4byte	0x30c
 7876 0f13 00       		.byte	0
 7877 0f14 08       		.uleb128 0x8
 7878 0f15 D72E0000 		.4byte	.LASF202
 7879 0f19 13       		.byte	0x13
 7880 0f1a 4F       		.byte	0x4f
 7881 0f1b 44010000 		.4byte	0x144
 7882 0f1f 08       		.byte	0x8
 7883 0f20 08       		.uleb128 0x8
 7884 0f21 C7190000 		.4byte	.LASF203
 7885 0f25 13       		.byte	0x13
 7886 0f26 50       		.byte	0x50
 7887 0f27 8B0F0000 		.4byte	0xf8b
 7888 0f2b 0C       		.byte	0xc
ARM GAS  C:\Users\CHRIST~1\AppData\Local\Temp\ccCFoZV9.s 			page 141


 7889 0f2c 08       		.uleb128 0x8
 7890 0f2d E2050000 		.4byte	.LASF204
 7891 0f31 13       		.byte	0x13
 7892 0f32 51       		.byte	0x51
 7893 0f33 8B0F0000 		.4byte	0xf8b
 7894 0f37 10       		.byte	0x10
 7895 0f38 08       		.uleb128 0x8
 7896 0f39 4E260000 		.4byte	.LASF205
 7897 0f3d 13       		.byte	0x13
 7898 0f3e 53       		.byte	0x53
 7899 0f3f 8B0F0000 		.4byte	0xf8b
 7900 0f43 14       		.byte	0x14
 7901 0f44 08       		.uleb128 0x8
 7902 0f45 5F240000 		.4byte	.LASF206
 7903 0f49 13       		.byte	0x13
 7904 0f4a 54       		.byte	0x54
 7905 0f4b 8B0F0000 		.4byte	0xf8b
 7906 0f4f 18       		.byte	0x18
 7907 0f50 08       		.uleb128 0x8
 7908 0f51 F22C0000 		.4byte	.LASF207
 7909 0f55 13       		.byte	0x13
 7910 0f56 55       		.byte	0x55
 7911 0f57 690F0000 		.4byte	0xf69
 7912 0f5b 1C       		.byte	0x1c
 7913 0f5c 08       		.uleb128 0x8
 7914 0f5d 0A280000 		.4byte	.LASF208
 7915 0f61 13       		.byte	0x13
 7916 0f62 56       		.byte	0x56
 7917 0f63 BF030000 		.4byte	0x3bf
 7918 0f67 20       		.byte	0x20
 7919 0f68 00       		.byte	0
 7920 0f69 03       		.uleb128 0x3
 7921 0f6a A7050000 		.4byte	.LASF209
 7922 0f6e 13       		.byte	0x13
 7923 0f6f 42       		.byte	0x42
 7924 0f70 740F0000 		.4byte	0xf74
 7925 0f74 0B       		.uleb128 0xb
 7926 0f75 04       		.byte	0x4
 7927 0f76 7A0F0000 		.4byte	0xf7a
 7928 0f7a 0D       		.uleb128 0xd
 7929 0f7b 850F0000 		.4byte	0xf85
 7930 0f7f 0E       		.uleb128 0xe
 7931 0f80 850F0000 		.4byte	0xf85
 7932 0f84 00       		.byte	0
 7933 0f85 0B       		.uleb128 0xb
 7934 0f86 04       		.byte	0x4
 7935 0f87 F10E0000 		.4byte	0xef1
 7936 0f8b 0B       		.uleb128 0xb
 7937 0f8c 04       		.byte	0x4
 7938 0f8d D9000000 		.4byte	0xd9
 7939 0f91 03       		.uleb128 0x3
 7940 0f92 EA060000 		.4byte	.LASF210
 7941 0f96 13       		.byte	0x13
 7942 0f97 64       		.byte	0x64
 7943 0f98 F10E0000 		.4byte	0xef1
 7944 0f9c 03       		.uleb128 0x3
 7945 0f9d 5F3A0000 		.4byte	.LASF211
ARM GAS  C:\Users\CHRIST~1\AppData\Local\Temp\ccCFoZV9.s 			page 142


 7946 0fa1 13       		.byte	0x13
 7947 0fa2 71       		.byte	0x71
 7948 0fa3 F10E0000 		.4byte	0xef1
 7949 0fa7 0B       		.uleb128 0xb
 7950 0fa8 04       		.byte	0x4
 7951 0fa9 E9000000 		.4byte	0xe9
 7952 0fad 1F       		.uleb128 0x1f
 7953 0fae 01       		.byte	0x1
 7954 0faf 49000000 		.4byte	0x49
 7955 0fb3 14       		.byte	0x14
 7956 0fb4 1C       		.byte	0x1c
 7957 0fb5 D20F0000 		.4byte	0xfd2
 7958 0fb9 20       		.uleb128 0x20
 7959 0fba 2F370000 		.4byte	.LASF212
 7960 0fbe 00       		.byte	0
 7961 0fbf 20       		.uleb128 0x20
 7962 0fc0 C7030000 		.4byte	.LASF213
 7963 0fc4 01       		.byte	0x1
 7964 0fc5 20       		.uleb128 0x20
 7965 0fc6 161D0000 		.4byte	.LASF214
 7966 0fca 02       		.byte	0x2
 7967 0fcb 20       		.uleb128 0x20
 7968 0fcc 17250000 		.4byte	.LASF215
 7969 0fd0 03       		.byte	0x3
 7970 0fd1 00       		.byte	0
 7971 0fd2 03       		.uleb128 0x3
 7972 0fd3 47280000 		.4byte	.LASF216
 7973 0fd7 14       		.byte	0x14
 7974 0fd8 21       		.byte	0x21
 7975 0fd9 AD0F0000 		.4byte	0xfad
 7976 0fdd 1F       		.uleb128 0x1f
 7977 0fde 01       		.byte	0x1
 7978 0fdf 49000000 		.4byte	0x49
 7979 0fe3 14       		.byte	0x14
 7980 0fe4 23       		.byte	0x23
 7981 0fe5 FC0F0000 		.4byte	0xffc
 7982 0fe9 20       		.uleb128 0x20
 7983 0fea C7340000 		.4byte	.LASF217
 7984 0fee 00       		.byte	0
 7985 0fef 20       		.uleb128 0x20
 7986 0ff0 7D260000 		.4byte	.LASF218
 7987 0ff4 01       		.byte	0x1
 7988 0ff5 20       		.uleb128 0x20
 7989 0ff6 7A050000 		.4byte	.LASF219
 7990 0ffa 02       		.byte	0x2
 7991 0ffb 00       		.byte	0
 7992 0ffc 03       		.uleb128 0x3
 7993 0ffd 8B050000 		.4byte	.LASF220
 7994 1001 14       		.byte	0x14
 7995 1002 27       		.byte	0x27
 7996 1003 DD0F0000 		.4byte	0xfdd
 7997 1007 1F       		.uleb128 0x1f
 7998 1008 01       		.byte	0x1
 7999 1009 49000000 		.4byte	0x49
 8000 100d 14       		.byte	0x14
 8001 100e 29       		.byte	0x29
 8002 100f 20100000 		.4byte	0x1020
ARM GAS  C:\Users\CHRIST~1\AppData\Local\Temp\ccCFoZV9.s 			page 143


 8003 1013 20       		.uleb128 0x20
 8004 1014 05240000 		.4byte	.LASF221
 8005 1018 00       		.byte	0
 8006 1019 20       		.uleb128 0x20
 8007 101a 7F3B0000 		.4byte	.LASF222
 8008 101e 01       		.byte	0x1
 8009 101f 00       		.byte	0
 8010 1020 03       		.uleb128 0x3
 8011 1021 01340000 		.4byte	.LASF223
 8012 1025 14       		.byte	0x14
 8013 1026 2C       		.byte	0x2c
 8014 1027 07100000 		.4byte	0x1007
 8015 102b 1F       		.uleb128 0x1f
 8016 102c 01       		.byte	0x1
 8017 102d 49000000 		.4byte	0x49
 8018 1031 14       		.byte	0x14
 8019 1032 2E       		.byte	0x2e
 8020 1033 4A100000 		.4byte	0x104a
 8021 1037 20       		.uleb128 0x20
 8022 1038 3E2E0000 		.4byte	.LASF224
 8023 103c 00       		.byte	0
 8024 103d 20       		.uleb128 0x20
 8025 103e CF100000 		.4byte	.LASF225
 8026 1042 01       		.byte	0x1
 8027 1043 20       		.uleb128 0x20
 8028 1044 18120000 		.4byte	.LASF226
 8029 1048 02       		.byte	0x2
 8030 1049 00       		.byte	0
 8031 104a 03       		.uleb128 0x3
 8032 104b 65230000 		.4byte	.LASF227
 8033 104f 14       		.byte	0x14
 8034 1050 32       		.byte	0x32
 8035 1051 2B100000 		.4byte	0x102b
 8036 1055 1F       		.uleb128 0x1f
 8037 1056 01       		.byte	0x1
 8038 1057 49000000 		.4byte	0x49
 8039 105b 14       		.byte	0x14
 8040 105c 34       		.byte	0x34
 8041 105d 74100000 		.4byte	0x1074
 8042 1061 20       		.uleb128 0x20
 8043 1062 15230000 		.4byte	.LASF228
 8044 1066 00       		.byte	0
 8045 1067 20       		.uleb128 0x20
 8046 1068 71090000 		.4byte	.LASF229
 8047 106c 01       		.byte	0x1
 8048 106d 20       		.uleb128 0x20
 8049 106e 54310000 		.4byte	.LASF230
 8050 1072 02       		.byte	0x2
 8051 1073 00       		.byte	0
 8052 1074 03       		.uleb128 0x3
 8053 1075 51390000 		.4byte	.LASF231
 8054 1079 14       		.byte	0x14
 8055 107a 38       		.byte	0x38
 8056 107b 55100000 		.4byte	0x1055
 8057 107f 1F       		.uleb128 0x1f
 8058 1080 01       		.byte	0x1
 8059 1081 49000000 		.4byte	0x49
ARM GAS  C:\Users\CHRIST~1\AppData\Local\Temp\ccCFoZV9.s 			page 144


 8060 1085 14       		.byte	0x14
 8061 1086 3A       		.byte	0x3a
 8062 1087 9E100000 		.4byte	0x109e
 8063 108b 20       		.uleb128 0x20
 8064 108c 8C3A0000 		.4byte	.LASF232
 8065 1090 00       		.byte	0
 8066 1091 20       		.uleb128 0x20
 8067 1092 F51C0000 		.4byte	.LASF233
 8068 1096 01       		.byte	0x1
 8069 1097 20       		.uleb128 0x20
 8070 1098 50160000 		.4byte	.LASF234
 8071 109c 02       		.byte	0x2
 8072 109d 00       		.byte	0
 8073 109e 03       		.uleb128 0x3
 8074 109f 022D0000 		.4byte	.LASF235
 8075 10a3 14       		.byte	0x14
 8076 10a4 3E       		.byte	0x3e
 8077 10a5 7F100000 		.4byte	0x107f
 8078 10a9 1F       		.uleb128 0x1f
 8079 10aa 01       		.byte	0x1
 8080 10ab 49000000 		.4byte	0x49
 8081 10af 14       		.byte	0x14
 8082 10b0 40       		.byte	0x40
 8083 10b1 E0100000 		.4byte	0x10e0
 8084 10b5 20       		.uleb128 0x20
 8085 10b6 BB2A0000 		.4byte	.LASF236
 8086 10ba 00       		.byte	0
 8087 10bb 20       		.uleb128 0x20
 8088 10bc 01170000 		.4byte	.LASF237
 8089 10c0 01       		.byte	0x1
 8090 10c1 20       		.uleb128 0x20
 8091 10c2 F6290000 		.4byte	.LASF238
 8092 10c6 02       		.byte	0x2
 8093 10c7 20       		.uleb128 0x20
 8094 10c8 CA0C0000 		.4byte	.LASF239
 8095 10cc 03       		.byte	0x3
 8096 10cd 20       		.uleb128 0x20
 8097 10ce 320F0000 		.4byte	.LASF240
 8098 10d2 04       		.byte	0x4
 8099 10d3 20       		.uleb128 0x20
 8100 10d4 55050000 		.4byte	.LASF241
 8101 10d8 05       		.byte	0x5
 8102 10d9 20       		.uleb128 0x20
 8103 10da CC200000 		.4byte	.LASF242
 8104 10de 06       		.byte	0x6
 8105 10df 00       		.byte	0
 8106 10e0 03       		.uleb128 0x3
 8107 10e1 80350000 		.4byte	.LASF243
 8108 10e5 14       		.byte	0x14
 8109 10e6 48       		.byte	0x48
 8110 10e7 A9100000 		.4byte	0x10a9
 8111 10eb 1F       		.uleb128 0x1f
 8112 10ec 01       		.byte	0x1
 8113 10ed 49000000 		.4byte	0x49
 8114 10f1 14       		.byte	0x14
 8115 10f2 5F       		.byte	0x5f
 8116 10f3 0A110000 		.4byte	0x110a
ARM GAS  C:\Users\CHRIST~1\AppData\Local\Temp\ccCFoZV9.s 			page 145


 8117 10f7 20       		.uleb128 0x20
 8118 10f8 E4220000 		.4byte	.LASF244
 8119 10fc 00       		.byte	0
 8120 10fd 20       		.uleb128 0x20
 8121 10fe 7A120000 		.4byte	.LASF245
 8122 1102 01       		.byte	0x1
 8123 1103 20       		.uleb128 0x20
 8124 1104 F4120000 		.4byte	.LASF246
 8125 1108 02       		.byte	0x2
 8126 1109 00       		.byte	0
 8127 110a 03       		.uleb128 0x3
 8128 110b 1E390000 		.4byte	.LASF247
 8129 110f 14       		.byte	0x14
 8130 1110 63       		.byte	0x63
 8131 1111 EB100000 		.4byte	0x10eb
 8132 1115 05       		.uleb128 0x5
 8133 1116 25000000 		.4byte	0x25
 8134 111a 06       		.uleb128 0x6
 8135 111b 25000000 		.4byte	0x25
 8136 111f 1F       		.uleb128 0x1f
 8137 1120 01       		.byte	0x1
 8138 1121 49000000 		.4byte	0x49
 8139 1125 14       		.byte	0x14
 8140 1126 6F       		.byte	0x6f
 8141 1127 44110000 		.4byte	0x1144
 8142 112b 20       		.uleb128 0x20
 8143 112c 24050000 		.4byte	.LASF248
 8144 1130 00       		.byte	0
 8145 1131 20       		.uleb128 0x20
 8146 1132 B92C0000 		.4byte	.LASF249
 8147 1136 01       		.byte	0x1
 8148 1137 20       		.uleb128 0x20
 8149 1138 D6090000 		.4byte	.LASF250
 8150 113c 02       		.byte	0x2
 8151 113d 20       		.uleb128 0x20
 8152 113e F2340000 		.4byte	.LASF251
 8153 1142 03       		.byte	0x3
 8154 1143 00       		.byte	0
 8155 1144 03       		.uleb128 0x3
 8156 1145 AD260000 		.4byte	.LASF252
 8157 1149 14       		.byte	0x14
 8158 114a 74       		.byte	0x74
 8159 114b 1F110000 		.4byte	0x111f
 8160 114f 1F       		.uleb128 0x1f
 8161 1150 01       		.byte	0x1
 8162 1151 49000000 		.4byte	0x49
 8163 1155 14       		.byte	0x14
 8164 1156 76       		.byte	0x76
 8165 1157 8C110000 		.4byte	0x118c
 8166 115b 20       		.uleb128 0x20
 8167 115c 5E290000 		.4byte	.LASF253
 8168 1160 00       		.byte	0
 8169 1161 20       		.uleb128 0x20
 8170 1162 182D0000 		.4byte	.LASF254
 8171 1166 01       		.byte	0x1
 8172 1167 20       		.uleb128 0x20
 8173 1168 DA170000 		.4byte	.LASF255
ARM GAS  C:\Users\CHRIST~1\AppData\Local\Temp\ccCFoZV9.s 			page 146


 8174 116c 02       		.byte	0x2
 8175 116d 20       		.uleb128 0x20
 8176 116e 2B2C0000 		.4byte	.LASF256
 8177 1172 03       		.byte	0x3
 8178 1173 20       		.uleb128 0x20
 8179 1174 18130000 		.4byte	.LASF257
 8180 1178 04       		.byte	0x4
 8181 1179 20       		.uleb128 0x20
 8182 117a 322F0000 		.4byte	.LASF258
 8183 117e 05       		.byte	0x5
 8184 117f 20       		.uleb128 0x20
 8185 1180 E92A0000 		.4byte	.LASF259
 8186 1184 06       		.byte	0x6
 8187 1185 20       		.uleb128 0x20
 8188 1186 D41C0000 		.4byte	.LASF260
 8189 118a 07       		.byte	0x7
 8190 118b 00       		.byte	0
 8191 118c 03       		.uleb128 0x3
 8192 118d 8E350000 		.4byte	.LASF261
 8193 1191 14       		.byte	0x14
 8194 1192 7F       		.byte	0x7f
 8195 1193 4F110000 		.4byte	0x114f
 8196 1197 05       		.uleb128 0x5
 8197 1198 8C110000 		.4byte	0x118c
 8198 119c 21       		.uleb128 0x21
 8199 119d 7001     		.2byte	0x170
 8200 119f 14       		.byte	0x14
 8201 11a0 81       		.byte	0x81
 8202 11a1 45160000 		.4byte	0x1645
 8203 11a5 08       		.uleb128 0x8
 8204 11a6 A41A0000 		.4byte	.LASF262
 8205 11aa 14       		.byte	0x14
 8206 11ab 83       		.byte	0x83
 8207 11ac FC0F0000 		.4byte	0xffc
 8208 11b0 00       		.byte	0
 8209 11b1 08       		.uleb128 0x8
 8210 11b2 F30E0000 		.4byte	.LASF263
 8211 11b6 14       		.byte	0x14
 8212 11b7 84       		.byte	0x84
 8213 11b8 20100000 		.4byte	0x1020
 8214 11bc 01       		.byte	0x1
 8215 11bd 08       		.uleb128 0x8
 8216 11be CB1A0000 		.4byte	.LASF264
 8217 11c2 14       		.byte	0x14
 8218 11c3 85       		.byte	0x85
 8219 11c4 9E100000 		.4byte	0x109e
 8220 11c8 02       		.byte	0x2
 8221 11c9 08       		.uleb128 0x8
 8222 11ca 322E0000 		.4byte	.LASF265
 8223 11ce 14       		.byte	0x14
 8224 11cf 86       		.byte	0x86
 8225 11d0 4A100000 		.4byte	0x104a
 8226 11d4 03       		.byte	0x3
 8227 11d5 08       		.uleb128 0x8
 8228 11d6 47220000 		.4byte	.LASF266
 8229 11da 14       		.byte	0x14
 8230 11db 88       		.byte	0x88
ARM GAS  C:\Users\CHRIST~1\AppData\Local\Temp\ccCFoZV9.s 			page 147


 8231 11dc 25000000 		.4byte	0x25
 8232 11e0 04       		.byte	0x4
 8233 11e1 08       		.uleb128 0x8
 8234 11e2 78290000 		.4byte	.LASF267
 8235 11e6 14       		.byte	0x14
 8236 11e7 89       		.byte	0x89
 8237 11e8 25000000 		.4byte	0x25
 8238 11ec 08       		.byte	0x8
 8239 11ed 08       		.uleb128 0x8
 8240 11ee 8A370000 		.4byte	.LASF268
 8241 11f2 14       		.byte	0x14
 8242 11f3 8A       		.byte	0x8a
 8243 11f4 25000000 		.4byte	0x25
 8244 11f8 0C       		.byte	0xc
 8245 11f9 08       		.uleb128 0x8
 8246 11fa 44020000 		.4byte	.LASF269
 8247 11fe 14       		.byte	0x14
 8248 11ff 8B       		.byte	0x8b
 8249 1200 25000000 		.4byte	0x25
 8250 1204 10       		.byte	0x10
 8251 1205 08       		.uleb128 0x8
 8252 1206 32000000 		.4byte	.LASF270
 8253 120a 14       		.byte	0x14
 8254 120b 8C       		.byte	0x8c
 8255 120c 25000000 		.4byte	0x25
 8256 1210 14       		.byte	0x14
 8257 1211 08       		.uleb128 0x8
 8258 1212 23030000 		.4byte	.LASF271
 8259 1216 14       		.byte	0x14
 8260 1217 8D       		.byte	0x8d
 8261 1218 25000000 		.4byte	0x25
 8262 121c 18       		.byte	0x18
 8263 121d 08       		.uleb128 0x8
 8264 121e FE1F0000 		.4byte	.LASF272
 8265 1222 14       		.byte	0x14
 8266 1223 8E       		.byte	0x8e
 8267 1224 25000000 		.4byte	0x25
 8268 1228 1C       		.byte	0x1c
 8269 1229 08       		.uleb128 0x8
 8270 122a E10D0000 		.4byte	.LASF273
 8271 122e 14       		.byte	0x14
 8272 122f 8F       		.byte	0x8f
 8273 1230 25000000 		.4byte	0x25
 8274 1234 20       		.byte	0x20
 8275 1235 08       		.uleb128 0x8
 8276 1236 15000000 		.4byte	.LASF274
 8277 123a 14       		.byte	0x14
 8278 123b 90       		.byte	0x90
 8279 123c 25000000 		.4byte	0x25
 8280 1240 24       		.byte	0x24
 8281 1241 08       		.uleb128 0x8
 8282 1242 9C360000 		.4byte	.LASF275
 8283 1246 14       		.byte	0x14
 8284 1247 91       		.byte	0x91
 8285 1248 25000000 		.4byte	0x25
 8286 124c 28       		.byte	0x28
 8287 124d 08       		.uleb128 0x8
ARM GAS  C:\Users\CHRIST~1\AppData\Local\Temp\ccCFoZV9.s 			page 148


 8288 124e 75150000 		.4byte	.LASF276
 8289 1252 14       		.byte	0x14
 8290 1253 92       		.byte	0x92
 8291 1254 25000000 		.4byte	0x25
 8292 1258 2C       		.byte	0x2c
 8293 1259 08       		.uleb128 0x8
 8294 125a 07140000 		.4byte	.LASF277
 8295 125e 14       		.byte	0x14
 8296 125f 93       		.byte	0x93
 8297 1260 25000000 		.4byte	0x25
 8298 1264 30       		.byte	0x30
 8299 1265 08       		.uleb128 0x8
 8300 1266 21150000 		.4byte	.LASF278
 8301 126a 14       		.byte	0x14
 8302 126b 94       		.byte	0x94
 8303 126c 25000000 		.4byte	0x25
 8304 1270 34       		.byte	0x34
 8305 1271 08       		.uleb128 0x8
 8306 1272 57150000 		.4byte	.LASF279
 8307 1276 14       		.byte	0x14
 8308 1277 95       		.byte	0x95
 8309 1278 25000000 		.4byte	0x25
 8310 127c 38       		.byte	0x38
 8311 127d 08       		.uleb128 0x8
 8312 127e 21020000 		.4byte	.LASF280
 8313 1282 14       		.byte	0x14
 8314 1283 96       		.byte	0x96
 8315 1284 45160000 		.4byte	0x1645
 8316 1288 3C       		.byte	0x3c
 8317 1289 08       		.uleb128 0x8
 8318 128a 640E0000 		.4byte	.LASF281
 8319 128e 14       		.byte	0x14
 8320 128f 97       		.byte	0x97
 8321 1290 25000000 		.4byte	0x25
 8322 1294 40       		.byte	0x40
 8323 1295 08       		.uleb128 0x8
 8324 1296 1C040000 		.4byte	.LASF282
 8325 129a 14       		.byte	0x14
 8326 129b 98       		.byte	0x98
 8327 129c 25000000 		.4byte	0x25
 8328 12a0 44       		.byte	0x44
 8329 12a1 08       		.uleb128 0x8
 8330 12a2 64190000 		.4byte	.LASF283
 8331 12a6 14       		.byte	0x14
 8332 12a7 99       		.byte	0x99
 8333 12a8 25000000 		.4byte	0x25
 8334 12ac 48       		.byte	0x48
 8335 12ad 08       		.uleb128 0x8
 8336 12ae C42D0000 		.4byte	.LASF284
 8337 12b2 14       		.byte	0x14
 8338 12b3 9A       		.byte	0x9a
 8339 12b4 25000000 		.4byte	0x25
 8340 12b8 4C       		.byte	0x4c
 8341 12b9 08       		.uleb128 0x8
 8342 12ba EE380000 		.4byte	.LASF285
 8343 12be 14       		.byte	0x14
 8344 12bf 9B       		.byte	0x9b
ARM GAS  C:\Users\CHRIST~1\AppData\Local\Temp\ccCFoZV9.s 			page 149


 8345 12c0 25000000 		.4byte	0x25
 8346 12c4 50       		.byte	0x50
 8347 12c5 08       		.uleb128 0x8
 8348 12c6 9D170000 		.4byte	.LASF286
 8349 12ca 14       		.byte	0x14
 8350 12cb 9C       		.byte	0x9c
 8351 12cc 25000000 		.4byte	0x25
 8352 12d0 54       		.byte	0x54
 8353 12d1 08       		.uleb128 0x8
 8354 12d2 C30D0000 		.4byte	.LASF287
 8355 12d6 14       		.byte	0x14
 8356 12d7 9D       		.byte	0x9d
 8357 12d8 25000000 		.4byte	0x25
 8358 12dc 58       		.byte	0x58
 8359 12dd 08       		.uleb128 0x8
 8360 12de 5D360000 		.4byte	.LASF288
 8361 12e2 14       		.byte	0x14
 8362 12e3 9E       		.byte	0x9e
 8363 12e4 25000000 		.4byte	0x25
 8364 12e8 5C       		.byte	0x5c
 8365 12e9 08       		.uleb128 0x8
 8366 12ea 3D120000 		.4byte	.LASF289
 8367 12ee 14       		.byte	0x14
 8368 12ef A0       		.byte	0xa0
 8369 12f0 25000000 		.4byte	0x25
 8370 12f4 60       		.byte	0x60
 8371 12f5 08       		.uleb128 0x8
 8372 12f6 D61A0000 		.4byte	.LASF290
 8373 12fa 14       		.byte	0x14
 8374 12fb A1       		.byte	0xa1
 8375 12fc 25000000 		.4byte	0x25
 8376 1300 64       		.byte	0x64
 8377 1301 08       		.uleb128 0x8
 8378 1302 C5300000 		.4byte	.LASF291
 8379 1306 14       		.byte	0x14
 8380 1307 A2       		.byte	0xa2
 8381 1308 25000000 		.4byte	0x25
 8382 130c 68       		.byte	0x68
 8383 130d 08       		.uleb128 0x8
 8384 130e 94380000 		.4byte	.LASF292
 8385 1312 14       		.byte	0x14
 8386 1313 A3       		.byte	0xa3
 8387 1314 25000000 		.4byte	0x25
 8388 1318 6C       		.byte	0x6c
 8389 1319 08       		.uleb128 0x8
 8390 131a 262B0000 		.4byte	.LASF293
 8391 131e 14       		.byte	0x14
 8392 131f A4       		.byte	0xa4
 8393 1320 25000000 		.4byte	0x25
 8394 1324 70       		.byte	0x70
 8395 1325 08       		.uleb128 0x8
 8396 1326 D8130000 		.4byte	.LASF294
 8397 132a 14       		.byte	0x14
 8398 132b A5       		.byte	0xa5
 8399 132c 25000000 		.4byte	0x25
 8400 1330 74       		.byte	0x74
 8401 1331 08       		.uleb128 0x8
ARM GAS  C:\Users\CHRIST~1\AppData\Local\Temp\ccCFoZV9.s 			page 150


 8402 1332 66160000 		.4byte	.LASF295
 8403 1336 14       		.byte	0x14
 8404 1337 A7       		.byte	0xa7
 8405 1338 25000000 		.4byte	0x25
 8406 133c 78       		.byte	0x78
 8407 133d 08       		.uleb128 0x8
 8408 133e 0F070000 		.4byte	.LASF296
 8409 1342 14       		.byte	0x14
 8410 1343 A8       		.byte	0xa8
 8411 1344 25000000 		.4byte	0x25
 8412 1348 7C       		.byte	0x7c
 8413 1349 08       		.uleb128 0x8
 8414 134a F31A0000 		.4byte	.LASF297
 8415 134e 14       		.byte	0x14
 8416 134f A9       		.byte	0xa9
 8417 1350 25000000 		.4byte	0x25
 8418 1354 80       		.byte	0x80
 8419 1355 08       		.uleb128 0x8
 8420 1356 A21D0000 		.4byte	.LASF298
 8421 135a 14       		.byte	0x14
 8422 135b AA       		.byte	0xaa
 8423 135c 25000000 		.4byte	0x25
 8424 1360 84       		.byte	0x84
 8425 1361 08       		.uleb128 0x8
 8426 1362 8C190000 		.4byte	.LASF299
 8427 1366 14       		.byte	0x14
 8428 1367 AB       		.byte	0xab
 8429 1368 25000000 		.4byte	0x25
 8430 136c 88       		.byte	0x88
 8431 136d 08       		.uleb128 0x8
 8432 136e 58330000 		.4byte	.LASF300
 8433 1372 14       		.byte	0x14
 8434 1373 AC       		.byte	0xac
 8435 1374 25000000 		.4byte	0x25
 8436 1378 8C       		.byte	0x8c
 8437 1379 08       		.uleb128 0x8
 8438 137a 52270000 		.4byte	.LASF301
 8439 137e 14       		.byte	0x14
 8440 137f AD       		.byte	0xad
 8441 1380 25000000 		.4byte	0x25
 8442 1384 90       		.byte	0x90
 8443 1385 08       		.uleb128 0x8
 8444 1386 2F1C0000 		.4byte	.LASF302
 8445 138a 14       		.byte	0x14
 8446 138b AF       		.byte	0xaf
 8447 138c 51160000 		.4byte	0x1651
 8448 1390 94       		.byte	0x94
 8449 1391 08       		.uleb128 0x8
 8450 1392 7A2A0000 		.4byte	.LASF303
 8451 1396 14       		.byte	0x14
 8452 1397 B0       		.byte	0xb0
 8453 1398 25000000 		.4byte	0x25
 8454 139c 9C       		.byte	0x9c
 8455 139d 08       		.uleb128 0x8
 8456 139e 5A070000 		.4byte	.LASF304
 8457 13a2 14       		.byte	0x14
 8458 13a3 B2       		.byte	0xb2
ARM GAS  C:\Users\CHRIST~1\AppData\Local\Temp\ccCFoZV9.s 			page 151


 8459 13a4 25000000 		.4byte	0x25
 8460 13a8 A0       		.byte	0xa0
 8461 13a9 08       		.uleb128 0x8
 8462 13aa 42070000 		.4byte	.LASF305
 8463 13ae 14       		.byte	0x14
 8464 13af B3       		.byte	0xb3
 8465 13b0 25000000 		.4byte	0x25
 8466 13b4 A4       		.byte	0xa4
 8467 13b5 08       		.uleb128 0x8
 8468 13b6 D80D0000 		.4byte	.LASF306
 8469 13ba 14       		.byte	0x14
 8470 13bb B4       		.byte	0xb4
 8471 13bc 25000000 		.4byte	0x25
 8472 13c0 A8       		.byte	0xa8
 8473 13c1 08       		.uleb128 0x8
 8474 13c2 BA310000 		.4byte	.LASF307
 8475 13c6 14       		.byte	0x14
 8476 13c7 B5       		.byte	0xb5
 8477 13c8 25000000 		.4byte	0x25
 8478 13cc AC       		.byte	0xac
 8479 13cd 08       		.uleb128 0x8
 8480 13ce 4A030000 		.4byte	.LASF308
 8481 13d2 14       		.byte	0x14
 8482 13d3 B6       		.byte	0xb6
 8483 13d4 25000000 		.4byte	0x25
 8484 13d8 B0       		.byte	0xb0
 8485 13d9 08       		.uleb128 0x8
 8486 13da 4C120000 		.4byte	.LASF309
 8487 13de 14       		.byte	0x14
 8488 13df B7       		.byte	0xb7
 8489 13e0 45160000 		.4byte	0x1645
 8490 13e4 B4       		.byte	0xb4
 8491 13e5 08       		.uleb128 0x8
 8492 13e6 FC240000 		.4byte	.LASF310
 8493 13ea 14       		.byte	0x14
 8494 13eb B8       		.byte	0xb8
 8495 13ec 25000000 		.4byte	0x25
 8496 13f0 B8       		.byte	0xb8
 8497 13f1 08       		.uleb128 0x8
 8498 13f2 A80C0000 		.4byte	.LASF311
 8499 13f6 14       		.byte	0x14
 8500 13f7 B9       		.byte	0xb9
 8501 13f8 25000000 		.4byte	0x25
 8502 13fc BC       		.byte	0xbc
 8503 13fd 08       		.uleb128 0x8
 8504 13fe B40C0000 		.4byte	.LASF312
 8505 1402 14       		.byte	0x14
 8506 1403 BA       		.byte	0xba
 8507 1404 25000000 		.4byte	0x25
 8508 1408 C0       		.byte	0xc0
 8509 1409 08       		.uleb128 0x8
 8510 140a 5C1D0000 		.4byte	.LASF313
 8511 140e 14       		.byte	0x14
 8512 140f BB       		.byte	0xbb
 8513 1410 25000000 		.4byte	0x25
 8514 1414 C4       		.byte	0xc4
 8515 1415 08       		.uleb128 0x8
ARM GAS  C:\Users\CHRIST~1\AppData\Local\Temp\ccCFoZV9.s 			page 152


 8516 1416 4E0F0000 		.4byte	.LASF314
 8517 141a 14       		.byte	0x14
 8518 141b BC       		.byte	0xbc
 8519 141c 25000000 		.4byte	0x25
 8520 1420 C8       		.byte	0xc8
 8521 1421 08       		.uleb128 0x8
 8522 1422 EE000000 		.4byte	.LASF315
 8523 1426 14       		.byte	0x14
 8524 1427 BD       		.byte	0xbd
 8525 1428 25000000 		.4byte	0x25
 8526 142c CC       		.byte	0xcc
 8527 142d 08       		.uleb128 0x8
 8528 142e 112C0000 		.4byte	.LASF316
 8529 1432 14       		.byte	0x14
 8530 1433 BE       		.byte	0xbe
 8531 1434 25000000 		.4byte	0x25
 8532 1438 D0       		.byte	0xd0
 8533 1439 08       		.uleb128 0x8
 8534 143a E82B0000 		.4byte	.LASF317
 8535 143e 14       		.byte	0x14
 8536 143f BF       		.byte	0xbf
 8537 1440 25000000 		.4byte	0x25
 8538 1444 D4       		.byte	0xd4
 8539 1445 08       		.uleb128 0x8
 8540 1446 5B210000 		.4byte	.LASF318
 8541 144a 14       		.byte	0x14
 8542 144b C0       		.byte	0xc0
 8543 144c 25000000 		.4byte	0x25
 8544 1450 D8       		.byte	0xd8
 8545 1451 08       		.uleb128 0x8
 8546 1452 3E210000 		.4byte	.LASF319
 8547 1456 14       		.byte	0x14
 8548 1457 C1       		.byte	0xc1
 8549 1458 25000000 		.4byte	0x25
 8550 145c DC       		.byte	0xdc
 8551 145d 08       		.uleb128 0x8
 8552 145e 9F2B0000 		.4byte	.LASF320
 8553 1462 14       		.byte	0x14
 8554 1463 C2       		.byte	0xc2
 8555 1464 25000000 		.4byte	0x25
 8556 1468 E0       		.byte	0xe0
 8557 1469 08       		.uleb128 0x8
 8558 146a EC2F0000 		.4byte	.LASF321
 8559 146e 14       		.byte	0x14
 8560 146f C3       		.byte	0xc3
 8561 1470 25000000 		.4byte	0x25
 8562 1474 E4       		.byte	0xe4
 8563 1475 08       		.uleb128 0x8
 8564 1476 4D380000 		.4byte	.LASF322
 8565 147a 14       		.byte	0x14
 8566 147b C4       		.byte	0xc4
 8567 147c 25000000 		.4byte	0x25
 8568 1480 E8       		.byte	0xe8
 8569 1481 08       		.uleb128 0x8
 8570 1482 D21B0000 		.4byte	.LASF323
 8571 1486 14       		.byte	0x14
 8572 1487 C5       		.byte	0xc5
ARM GAS  C:\Users\CHRIST~1\AppData\Local\Temp\ccCFoZV9.s 			page 153


 8573 1488 25000000 		.4byte	0x25
 8574 148c EC       		.byte	0xec
 8575 148d 08       		.uleb128 0x8
 8576 148e B02B0000 		.4byte	.LASF324
 8577 1492 14       		.byte	0x14
 8578 1493 C6       		.byte	0xc6
 8579 1494 25000000 		.4byte	0x25
 8580 1498 F0       		.byte	0xf0
 8581 1499 08       		.uleb128 0x8
 8582 149a 23310000 		.4byte	.LASF325
 8583 149e 14       		.byte	0x14
 8584 149f C7       		.byte	0xc7
 8585 14a0 74100000 		.4byte	0x1074
 8586 14a4 F4       		.byte	0xf4
 8587 14a5 08       		.uleb128 0x8
 8588 14a6 D5150000 		.4byte	.LASF326
 8589 14aa 14       		.byte	0x14
 8590 14ab C8       		.byte	0xc8
 8591 14ac 61160000 		.4byte	0x1661
 8592 14b0 F5       		.byte	0xf5
 8593 14b1 22       		.uleb128 0x22
 8594 14b2 AF180000 		.4byte	.LASF327
 8595 14b6 14       		.byte	0x14
 8596 14b7 C9       		.byte	0xc9
 8597 14b8 25000000 		.4byte	0x25
 8598 14bc 0001     		.2byte	0x100
 8599 14be 22       		.uleb128 0x22
 8600 14bf E9390000 		.4byte	.LASF328
 8601 14c3 14       		.byte	0x14
 8602 14c4 CA       		.byte	0xca
 8603 14c5 45160000 		.4byte	0x1645
 8604 14c9 0401     		.2byte	0x104
 8605 14cb 22       		.uleb128 0x22
 8606 14cc C3330000 		.4byte	.LASF329
 8607 14d0 14       		.byte	0x14
 8608 14d1 CB       		.byte	0xcb
 8609 14d2 45160000 		.4byte	0x1645
 8610 14d6 0501     		.2byte	0x105
 8611 14d8 22       		.uleb128 0x22
 8612 14d9 DD310000 		.4byte	.LASF330
 8613 14dd 14       		.byte	0x14
 8614 14de CC       		.byte	0xcc
 8615 14df 25000000 		.4byte	0x25
 8616 14e3 0801     		.2byte	0x108
 8617 14e5 22       		.uleb128 0x22
 8618 14e6 C6260000 		.4byte	.LASF331
 8619 14ea 14       		.byte	0x14
 8620 14eb CD       		.byte	0xcd
 8621 14ec 45160000 		.4byte	0x1645
 8622 14f0 0C01     		.2byte	0x10c
 8623 14f2 22       		.uleb128 0x22
 8624 14f3 F42D0000 		.4byte	.LASF332
 8625 14f7 14       		.byte	0x14
 8626 14f8 CE       		.byte	0xce
 8627 14f9 25000000 		.4byte	0x25
 8628 14fd 1001     		.2byte	0x110
 8629 14ff 22       		.uleb128 0x22
ARM GAS  C:\Users\CHRIST~1\AppData\Local\Temp\ccCFoZV9.s 			page 154


 8630 1500 0D2B0000 		.4byte	.LASF333
 8631 1504 14       		.byte	0x14
 8632 1505 D0       		.byte	0xd0
 8633 1506 25000000 		.4byte	0x25
 8634 150a 1401     		.2byte	0x114
 8635 150c 22       		.uleb128 0x22
 8636 150d CB2A0000 		.4byte	.LASF334
 8637 1511 14       		.byte	0x14
 8638 1512 D1       		.byte	0xd1
 8639 1513 25000000 		.4byte	0x25
 8640 1517 1801     		.2byte	0x118
 8641 1519 22       		.uleb128 0x22
 8642 151a DC0B0000 		.4byte	.LASF335
 8643 151e 14       		.byte	0x14
 8644 151f D2       		.byte	0xd2
 8645 1520 25000000 		.4byte	0x25
 8646 1524 1C01     		.2byte	0x11c
 8647 1526 22       		.uleb128 0x22
 8648 1527 580D0000 		.4byte	.LASF336
 8649 152b 14       		.byte	0x14
 8650 152c D3       		.byte	0xd3
 8651 152d 25000000 		.4byte	0x25
 8652 1531 2001     		.2byte	0x120
 8653 1533 22       		.uleb128 0x22
 8654 1534 A0100000 		.4byte	.LASF337
 8655 1538 14       		.byte	0x14
 8656 1539 D4       		.byte	0xd4
 8657 153a 45160000 		.4byte	0x1645
 8658 153e 2401     		.2byte	0x124
 8659 1540 22       		.uleb128 0x22
 8660 1541 56260000 		.4byte	.LASF338
 8661 1545 14       		.byte	0x14
 8662 1546 D6       		.byte	0xd6
 8663 1547 25000000 		.4byte	0x25
 8664 154b 2801     		.2byte	0x128
 8665 154d 22       		.uleb128 0x22
 8666 154e 45260000 		.4byte	.LASF339
 8667 1552 14       		.byte	0x14
 8668 1553 D7       		.byte	0xd7
 8669 1554 25000000 		.4byte	0x25
 8670 1558 2C01     		.2byte	0x12c
 8671 155a 22       		.uleb128 0x22
 8672 155b 3C260000 		.4byte	.LASF340
 8673 155f 14       		.byte	0x14
 8674 1560 D8       		.byte	0xd8
 8675 1561 25000000 		.4byte	0x25
 8676 1565 3001     		.2byte	0x130
 8677 1567 22       		.uleb128 0x22
 8678 1568 0A380000 		.4byte	.LASF341
 8679 156c 14       		.byte	0x14
 8680 156d D9       		.byte	0xd9
 8681 156e 25000000 		.4byte	0x25
 8682 1572 3401     		.2byte	0x134
 8683 1574 22       		.uleb128 0x22
 8684 1575 E6020000 		.4byte	.LASF342
 8685 1579 14       		.byte	0x14
 8686 157a DB       		.byte	0xdb
ARM GAS  C:\Users\CHRIST~1\AppData\Local\Temp\ccCFoZV9.s 			page 155


 8687 157b 25000000 		.4byte	0x25
 8688 157f 3801     		.2byte	0x138
 8689 1581 22       		.uleb128 0x22
 8690 1582 61120000 		.4byte	.LASF343
 8691 1586 14       		.byte	0x14
 8692 1587 DC       		.byte	0xdc
 8693 1588 25000000 		.4byte	0x25
 8694 158c 3C01     		.2byte	0x13c
 8695 158e 22       		.uleb128 0x22
 8696 158f 4F1A0000 		.4byte	.LASF344
 8697 1593 14       		.byte	0x14
 8698 1594 DD       		.byte	0xdd
 8699 1595 25000000 		.4byte	0x25
 8700 1599 4001     		.2byte	0x140
 8701 159b 22       		.uleb128 0x22
 8702 159c 0F260000 		.4byte	.LASF345
 8703 15a0 14       		.byte	0x14
 8704 15a1 DE       		.byte	0xde
 8705 15a2 25000000 		.4byte	0x25
 8706 15a6 4401     		.2byte	0x144
 8707 15a8 22       		.uleb128 0x22
 8708 15a9 300A0000 		.4byte	.LASF346
 8709 15ad 14       		.byte	0x14
 8710 15ae E0       		.byte	0xe0
 8711 15af 0E010000 		.4byte	0x10e
 8712 15b3 4801     		.2byte	0x148
 8713 15b5 22       		.uleb128 0x22
 8714 15b6 AD350000 		.4byte	.LASF347
 8715 15ba 14       		.byte	0x14
 8716 15bb E1       		.byte	0xe1
 8717 15bc 25000000 		.4byte	0x25
 8718 15c0 4C01     		.2byte	0x14c
 8719 15c2 22       		.uleb128 0x22
 8720 15c3 19170000 		.4byte	.LASF348
 8721 15c7 14       		.byte	0x14
 8722 15c8 E2       		.byte	0xe2
 8723 15c9 25000000 		.4byte	0x25
 8724 15cd 5001     		.2byte	0x150
 8725 15cf 22       		.uleb128 0x22
 8726 15d0 993B0000 		.4byte	.LASF349
 8727 15d4 14       		.byte	0x14
 8728 15d5 E3       		.byte	0xe3
 8729 15d6 1E010000 		.4byte	0x11e
 8730 15da 5401     		.2byte	0x154
 8731 15dc 22       		.uleb128 0x22
 8732 15dd D1160000 		.4byte	.LASF350
 8733 15e1 14       		.byte	0x14
 8734 15e2 E4       		.byte	0xe4
 8735 15e3 0A110000 		.4byte	0x110a
 8736 15e7 5801     		.2byte	0x158
 8737 15e9 22       		.uleb128 0x22
 8738 15ea 3A170000 		.4byte	.LASF351
 8739 15ee 14       		.byte	0x14
 8740 15ef E5       		.byte	0xe5
 8741 15f0 45160000 		.4byte	0x1645
 8742 15f4 5901     		.2byte	0x159
 8743 15f6 22       		.uleb128 0x22
ARM GAS  C:\Users\CHRIST~1\AppData\Local\Temp\ccCFoZV9.s 			page 156


 8744 15f7 2B120000 		.4byte	.LASF352
 8745 15fb 14       		.byte	0x14
 8746 15fc E6       		.byte	0xe6
 8747 15fd 44110000 		.4byte	0x1144
 8748 1601 5A01     		.2byte	0x15a
 8749 1603 22       		.uleb128 0x22
 8750 1604 DD010000 		.4byte	.LASF353
 8751 1608 14       		.byte	0x14
 8752 1609 E7       		.byte	0xe7
 8753 160a B1000000 		.4byte	0xb1
 8754 160e 5C01     		.2byte	0x15c
 8755 1610 22       		.uleb128 0x22
 8756 1611 562F0000 		.4byte	.LASF354
 8757 1615 14       		.byte	0x14
 8758 1616 E8       		.byte	0xe8
 8759 1617 25000000 		.4byte	0x25
 8760 161b 6001     		.2byte	0x160
 8761 161d 22       		.uleb128 0x22
 8762 161e 92260000 		.4byte	.LASF355
 8763 1622 14       		.byte	0x14
 8764 1623 E9       		.byte	0xe9
 8765 1624 25000000 		.4byte	0x25
 8766 1628 6401     		.2byte	0x164
 8767 162a 22       		.uleb128 0x22
 8768 162b B9330000 		.4byte	.LASF356
 8769 162f 14       		.byte	0x14
 8770 1630 EA       		.byte	0xea
 8771 1631 25000000 		.4byte	0x25
 8772 1635 6801     		.2byte	0x168
 8773 1637 22       		.uleb128 0x22
 8774 1638 DE070000 		.4byte	.LASF357
 8775 163c 14       		.byte	0x14
 8776 163d EB       		.byte	0xeb
 8777 163e 25000000 		.4byte	0x25
 8778 1642 6C01     		.2byte	0x16c
 8779 1644 00       		.byte	0
 8780 1645 02       		.uleb128 0x2
 8781 1646 01       		.byte	0x1
 8782 1647 02       		.byte	0x2
 8783 1648 61010000 		.4byte	.LASF358
 8784 164c 05       		.uleb128 0x5
 8785 164d 45160000 		.4byte	0x1645
 8786 1651 11       		.uleb128 0x11
 8787 1652 C9000000 		.4byte	0xc9
 8788 1656 61160000 		.4byte	0x1661
 8789 165a 12       		.uleb128 0x12
 8790 165b F5040000 		.4byte	0x4f5
 8791 165f 07       		.byte	0x7
 8792 1660 00       		.byte	0
 8793 1661 11       		.uleb128 0x11
 8794 1662 D9000000 		.4byte	0xd9
 8795 1666 71160000 		.4byte	0x1671
 8796 166a 12       		.uleb128 0x12
 8797 166b F5040000 		.4byte	0x4f5
 8798 166f 07       		.byte	0x7
 8799 1670 00       		.byte	0
 8800 1671 03       		.uleb128 0x3
ARM GAS  C:\Users\CHRIST~1\AppData\Local\Temp\ccCFoZV9.s 			page 157


 8801 1672 BE350000 		.4byte	.LASF359
 8802 1676 14       		.byte	0x14
 8803 1677 EC       		.byte	0xec
 8804 1678 9C110000 		.4byte	0x119c
 8805 167c 05       		.uleb128 0x5
 8806 167d 71160000 		.4byte	0x1671
 8807 1681 06       		.uleb128 0x6
 8808 1682 7C160000 		.4byte	0x167c
 8809 1686 11       		.uleb128 0x11
 8810 1687 49000000 		.4byte	0x49
 8811 168b 96160000 		.4byte	0x1696
 8812 168f 12       		.uleb128 0x12
 8813 1690 F5040000 		.4byte	0x4f5
 8814 1694 02       		.byte	0x2
 8815 1695 00       		.byte	0
 8816 1696 23       		.uleb128 0x23
 8817 1697 01       		.byte	0x1
 8818 1698 49000000 		.4byte	0x49
 8819 169c 14       		.byte	0x14
 8820 169d B201     		.2byte	0x1b2
 8821 169f 88170000 		.4byte	0x1788
 8822 16a3 20       		.uleb128 0x20
 8823 16a4 AE270000 		.4byte	.LASF360
 8824 16a8 00       		.byte	0
 8825 16a9 20       		.uleb128 0x20
 8826 16aa ED230000 		.4byte	.LASF361
 8827 16ae 01       		.byte	0x1
 8828 16af 20       		.uleb128 0x20
 8829 16b0 F7110000 		.4byte	.LASF362
 8830 16b4 02       		.byte	0x2
 8831 16b5 20       		.uleb128 0x20
 8832 16b6 DF110000 		.4byte	.LASF363
 8833 16ba 03       		.byte	0x3
 8834 16bb 20       		.uleb128 0x20
 8835 16bc 6A2A0000 		.4byte	.LASF364
 8836 16c0 04       		.byte	0x4
 8837 16c1 20       		.uleb128 0x20
 8838 16c2 F4140000 		.4byte	.LASF365
 8839 16c6 05       		.byte	0x5
 8840 16c7 20       		.uleb128 0x20
 8841 16c8 F41D0000 		.4byte	.LASF366
 8842 16cc 06       		.byte	0x6
 8843 16cd 20       		.uleb128 0x20
 8844 16ce 7C320000 		.4byte	.LASF367
 8845 16d2 07       		.byte	0x7
 8846 16d3 20       		.uleb128 0x20
 8847 16d4 F9320000 		.4byte	.LASF368
 8848 16d8 08       		.byte	0x8
 8849 16d9 20       		.uleb128 0x20
 8850 16da 96250000 		.4byte	.LASF369
 8851 16de 09       		.byte	0x9
 8852 16df 20       		.uleb128 0x20
 8853 16e0 5E250000 		.4byte	.LASF370
 8854 16e4 0A       		.byte	0xa
 8855 16e5 20       		.uleb128 0x20
 8856 16e6 B8230000 		.4byte	.LASF371
 8857 16ea 0B       		.byte	0xb
ARM GAS  C:\Users\CHRIST~1\AppData\Local\Temp\ccCFoZV9.s 			page 158


 8858 16eb 20       		.uleb128 0x20
 8859 16ec E9150000 		.4byte	.LASF372
 8860 16f0 0C       		.byte	0xc
 8861 16f1 20       		.uleb128 0x20
 8862 16f2 C3320000 		.4byte	.LASF373
 8863 16f6 0D       		.byte	0xd
 8864 16f7 20       		.uleb128 0x20
 8865 16f8 9B150000 		.4byte	.LASF374
 8866 16fc 0E       		.byte	0xe
 8867 16fd 20       		.uleb128 0x20
 8868 16fe 412A0000 		.4byte	.LASF375
 8869 1702 0F       		.byte	0xf
 8870 1703 20       		.uleb128 0x20
 8871 1704 99300000 		.4byte	.LASF376
 8872 1708 10       		.byte	0x10
 8873 1709 20       		.uleb128 0x20
 8874 170a 6E2D0000 		.4byte	.LASF377
 8875 170e 11       		.byte	0x11
 8876 170f 20       		.uleb128 0x20
 8877 1710 D0360000 		.4byte	.LASF378
 8878 1714 12       		.byte	0x12
 8879 1715 20       		.uleb128 0x20
 8880 1716 020A0000 		.4byte	.LASF379
 8881 171a 13       		.byte	0x13
 8882 171b 20       		.uleb128 0x20
 8883 171c 4B360000 		.4byte	.LASF380
 8884 1720 14       		.byte	0x14
 8885 1721 20       		.uleb128 0x20
 8886 1722 162B0000 		.4byte	.LASF381
 8887 1726 15       		.byte	0x15
 8888 1727 20       		.uleb128 0x20
 8889 1728 3C350000 		.4byte	.LASF382
 8890 172c 16       		.byte	0x16
 8891 172d 20       		.uleb128 0x20
 8892 172e C3170000 		.4byte	.LASF383
 8893 1732 17       		.byte	0x17
 8894 1733 20       		.uleb128 0x20
 8895 1734 E2300000 		.4byte	.LASF384
 8896 1738 18       		.byte	0x18
 8897 1739 20       		.uleb128 0x20
 8898 173a CB0E0000 		.4byte	.LASF385
 8899 173e 19       		.byte	0x19
 8900 173f 20       		.uleb128 0x20
 8901 1740 9A130000 		.4byte	.LASF386
 8902 1744 1A       		.byte	0x1a
 8903 1745 20       		.uleb128 0x20
 8904 1746 0F2A0000 		.4byte	.LASF387
 8905 174a 1B       		.byte	0x1b
 8906 174b 20       		.uleb128 0x20
 8907 174c D9000000 		.4byte	.LASF388
 8908 1750 1C       		.byte	0x1c
 8909 1751 20       		.uleb128 0x20
 8910 1752 BB3A0000 		.4byte	.LASF389
 8911 1756 1D       		.byte	0x1d
 8912 1757 20       		.uleb128 0x20
 8913 1758 E10E0000 		.4byte	.LASF390
 8914 175c 1E       		.byte	0x1e
ARM GAS  C:\Users\CHRIST~1\AppData\Local\Temp\ccCFoZV9.s 			page 159


 8915 175d 20       		.uleb128 0x20
 8916 175e 33160000 		.4byte	.LASF391
 8917 1762 1F       		.byte	0x1f
 8918 1763 20       		.uleb128 0x20
 8919 1764 73300000 		.4byte	.LASF392
 8920 1768 20       		.byte	0x20
 8921 1769 20       		.uleb128 0x20
 8922 176a 2B250000 		.4byte	.LASF393
 8923 176e 21       		.byte	0x21
 8924 176f 20       		.uleb128 0x20
 8925 1770 6B170000 		.4byte	.LASF394
 8926 1774 22       		.byte	0x22
 8927 1775 20       		.uleb128 0x20
 8928 1776 DE2C0000 		.4byte	.LASF395
 8929 177a 23       		.byte	0x23
 8930 177b 20       		.uleb128 0x20
 8931 177c 27350000 		.4byte	.LASF396
 8932 1780 24       		.byte	0x24
 8933 1781 20       		.uleb128 0x20
 8934 1782 37330000 		.4byte	.LASF397
 8935 1786 25       		.byte	0x25
 8936 1787 00       		.byte	0
 8937 1788 17       		.uleb128 0x17
 8938 1789 38       		.byte	0x38
 8939 178a 14       		.byte	0x14
 8940 178b EC01     		.2byte	0x1ec
 8941 178d 48180000 		.4byte	0x1848
 8942 1791 0A       		.uleb128 0xa
 8943 1792 AC280000 		.4byte	.LASF398
 8944 1796 14       		.byte	0x14
 8945 1797 ED01     		.2byte	0x1ed
 8946 1799 E0100000 		.4byte	0x10e0
 8947 179d 00       		.byte	0
 8948 179e 0A       		.uleb128 0xa
 8949 179f 39200000 		.4byte	.LASF399
 8950 17a3 14       		.byte	0x14
 8951 17a4 EE01     		.2byte	0x1ee
 8952 17a6 25000000 		.4byte	0x25
 8953 17aa 04       		.byte	0x4
 8954 17ab 0A       		.uleb128 0xa
 8955 17ac 54340000 		.4byte	.LASF400
 8956 17b0 14       		.byte	0x14
 8957 17b1 EF01     		.2byte	0x1ef
 8958 17b3 25000000 		.4byte	0x25
 8959 17b7 08       		.byte	0x8
 8960 17b8 0A       		.uleb128 0xa
 8961 17b9 BD300000 		.4byte	.LASF401
 8962 17bd 14       		.byte	0x14
 8963 17be F001     		.2byte	0x1f0
 8964 17c0 25000000 		.4byte	0x25
 8965 17c4 0C       		.byte	0xc
 8966 17c5 0A       		.uleb128 0xa
 8967 17c6 B62A0000 		.4byte	.LASF402
 8968 17ca 14       		.byte	0x14
 8969 17cb F101     		.2byte	0x1f1
 8970 17cd 25000000 		.4byte	0x25
 8971 17d1 10       		.byte	0x10
ARM GAS  C:\Users\CHRIST~1\AppData\Local\Temp\ccCFoZV9.s 			page 160


 8972 17d2 09       		.uleb128 0x9
 8973 17d3 72706D00 		.ascii	"rpm\000"
 8974 17d7 14       		.byte	0x14
 8975 17d8 F201     		.2byte	0x1f2
 8976 17da 25000000 		.4byte	0x25
 8977 17de 14       		.byte	0x14
 8978 17df 0A       		.uleb128 0xa
 8979 17e0 CD290000 		.4byte	.LASF403
 8980 17e4 14       		.byte	0x14
 8981 17e5 F301     		.2byte	0x1f3
 8982 17e7 B1000000 		.4byte	0xb1
 8983 17eb 18       		.byte	0x18
 8984 17ec 0A       		.uleb128 0xa
 8985 17ed E91E0000 		.4byte	.LASF404
 8986 17f1 14       		.byte	0x14
 8987 17f2 F401     		.2byte	0x1f4
 8988 17f4 B1000000 		.4byte	0xb1
 8989 17f8 1C       		.byte	0x1c
 8990 17f9 0A       		.uleb128 0xa
 8991 17fa 7B110000 		.4byte	.LASF405
 8992 17fe 14       		.byte	0x14
 8993 17ff F501     		.2byte	0x1f5
 8994 1801 B1000000 		.4byte	0xb1
 8995 1805 20       		.byte	0x20
 8996 1806 0A       		.uleb128 0xa
 8997 1807 0E340000 		.4byte	.LASF406
 8998 180b 14       		.byte	0x14
 8999 180c F601     		.2byte	0x1f6
 9000 180e B1000000 		.4byte	0xb1
 9001 1812 24       		.byte	0x24
 9002 1813 0A       		.uleb128 0xa
 9003 1814 C12E0000 		.4byte	.LASF407
 9004 1818 14       		.byte	0x14
 9005 1819 F701     		.2byte	0x1f7
 9006 181b B1000000 		.4byte	0xb1
 9007 181f 28       		.byte	0x28
 9008 1820 0A       		.uleb128 0xa
 9009 1821 69260000 		.4byte	.LASF408
 9010 1825 14       		.byte	0x14
 9011 1826 F801     		.2byte	0x1f8
 9012 1828 B1000000 		.4byte	0xb1
 9013 182c 2C       		.byte	0x2c
 9014 182d 0A       		.uleb128 0xa
 9015 182e 68320000 		.4byte	.LASF409
 9016 1832 14       		.byte	0x14
 9017 1833 F901     		.2byte	0x1f9
 9018 1835 25000000 		.4byte	0x25
 9019 1839 30       		.byte	0x30
 9020 183a 0A       		.uleb128 0xa
 9021 183b 5F220000 		.4byte	.LASF410
 9022 183f 14       		.byte	0x14
 9023 1840 FA01     		.2byte	0x1fa
 9024 1842 B1000000 		.4byte	0xb1
 9025 1846 34       		.byte	0x34
 9026 1847 00       		.byte	0
 9027 1848 18       		.uleb128 0x18
 9028 1849 6E3A0000 		.4byte	.LASF411
ARM GAS  C:\Users\CHRIST~1\AppData\Local\Temp\ccCFoZV9.s 			page 161


 9029 184d 14       		.byte	0x14
 9030 184e FB01     		.2byte	0x1fb
 9031 1850 88170000 		.4byte	0x1788
 9032 1854 14       		.uleb128 0x14
 9033 1855 FE200000 		.4byte	.LASF412
 9034 1859 15       		.byte	0x15
 9035 185a 9E       		.byte	0x9e
 9036 185b 45160000 		.4byte	0x1645
 9037 185f 11       		.uleb128 0x11
 9038 1860 09010000 		.4byte	0x109
 9039 1864 6A180000 		.4byte	0x186a
 9040 1868 24       		.uleb128 0x24
 9041 1869 00       		.byte	0
 9042 186a 05       		.uleb128 0x5
 9043 186b 5F180000 		.4byte	0x185f
 9044 186f 14       		.uleb128 0x14
 9045 1870 0B230000 		.4byte	.LASF413
 9046 1874 16       		.byte	0x16
 9047 1875 55       		.byte	0x55
 9048 1876 6A180000 		.4byte	0x186a
 9049 187a 11       		.uleb128 0x11
 9050 187b B8000000 		.4byte	0xb8
 9051 187f 85180000 		.4byte	0x1885
 9052 1883 24       		.uleb128 0x24
 9053 1884 00       		.byte	0
 9054 1885 05       		.uleb128 0x5
 9055 1886 7A180000 		.4byte	0x187a
 9056 188a 14       		.uleb128 0x14
 9057 188b 571A0000 		.4byte	.LASF414
 9058 188f 16       		.byte	0x16
 9059 1890 56       		.byte	0x56
 9060 1891 85180000 		.4byte	0x1885
 9061 1895 11       		.uleb128 0x11
 9062 1896 15110000 		.4byte	0x1115
 9063 189a A0180000 		.4byte	0x18a0
 9064 189e 24       		.uleb128 0x24
 9065 189f 00       		.byte	0
 9066 18a0 05       		.uleb128 0x5
 9067 18a1 95180000 		.4byte	0x1895
 9068 18a5 14       		.uleb128 0x14
 9069 18a6 1E240000 		.4byte	.LASF415
 9070 18aa 17       		.byte	0x17
 9071 18ab 4B       		.byte	0x4b
 9072 18ac A0180000 		.4byte	0x18a0
 9073 18b0 14       		.uleb128 0x14
 9074 18b1 B3240000 		.4byte	.LASF416
 9075 18b5 17       		.byte	0x17
 9076 18b6 4C       		.byte	0x4c
 9077 18b7 A0180000 		.4byte	0x18a0
 9078 18bb 14       		.uleb128 0x14
 9079 18bc 083A0000 		.4byte	.LASF417
 9080 18c0 17       		.byte	0x17
 9081 18c1 4D       		.byte	0x4d
 9082 18c2 A0180000 		.4byte	0x18a0
 9083 18c6 14       		.uleb128 0x14
 9084 18c7 69150000 		.4byte	.LASF418
 9085 18cb 17       		.byte	0x17
ARM GAS  C:\Users\CHRIST~1\AppData\Local\Temp\ccCFoZV9.s 			page 162


 9086 18cc 4E       		.byte	0x4e
 9087 18cd B8000000 		.4byte	0xb8
 9088 18d1 15       		.uleb128 0x15
 9089 18d2 0C       		.byte	0xc
 9090 18d3 18       		.byte	0x18
 9091 18d4 DA       		.byte	0xda
 9092 18d5 16190000 		.4byte	0x1916
 9093 18d9 08       		.uleb128 0x8
 9094 18da B0390000 		.4byte	.LASF419
 9095 18de 18       		.byte	0x18
 9096 18df DB       		.byte	0xdb
 9097 18e0 16190000 		.4byte	0x1916
 9098 18e4 00       		.byte	0
 9099 18e5 08       		.uleb128 0x8
 9100 18e6 4D170000 		.4byte	.LASF420
 9101 18ea 18       		.byte	0x18
 9102 18eb DC       		.byte	0xdc
 9103 18ec 1C190000 		.4byte	0x191c
 9104 18f0 04       		.byte	0x4
 9105 18f1 08       		.uleb128 0x8
 9106 18f2 CB050000 		.4byte	.LASF421
 9107 18f6 18       		.byte	0x18
 9108 18f7 DD       		.byte	0xdd
 9109 18f8 D9000000 		.4byte	0xd9
 9110 18fc 08       		.byte	0x8
 9111 18fd 08       		.uleb128 0x8
 9112 18fe 6F2F0000 		.4byte	.LASF422
 9113 1902 18       		.byte	0x18
 9114 1903 DF       		.byte	0xdf
 9115 1904 D9000000 		.4byte	0xd9
 9116 1908 09       		.byte	0x9
 9117 1909 08       		.uleb128 0x8
 9118 190a D2040000 		.4byte	.LASF423
 9119 190e 18       		.byte	0x18
 9120 190f E0       		.byte	0xe0
 9121 1910 D9000000 		.4byte	0xd9
 9122 1914 0A       		.byte	0xa
 9123 1915 00       		.byte	0
 9124 1916 0B       		.uleb128 0xb
 9125 1917 04       		.byte	0x4
 9126 1918 C4070000 		.4byte	0x7c4
 9127 191c 0B       		.uleb128 0xb
 9128 191d 04       		.byte	0x4
 9129 191e 29010000 		.4byte	0x129
 9130 1922 03       		.uleb128 0x3
 9131 1923 13060000 		.4byte	.LASF424
 9132 1927 18       		.byte	0x18
 9133 1928 E1       		.byte	0xe1
 9134 1929 D1180000 		.4byte	0x18d1
 9135 192d 06       		.uleb128 0x6
 9136 192e 22190000 		.4byte	0x1922
 9137 1932 11       		.uleb128 0x11
 9138 1933 2D190000 		.4byte	0x192d
 9139 1937 42190000 		.4byte	0x1942
 9140 193b 12       		.uleb128 0x12
 9141 193c F5040000 		.4byte	0x4f5
 9142 1940 0F       		.byte	0xf
ARM GAS  C:\Users\CHRIST~1\AppData\Local\Temp\ccCFoZV9.s 			page 163


 9143 1941 00       		.byte	0
 9144 1942 06       		.uleb128 0x6
 9145 1943 32190000 		.4byte	0x1932
 9146 1947 13       		.uleb128 0x13
 9147 1948 A6290000 		.4byte	.LASF425
 9148 194c 18       		.byte	0x18
 9149 194d BB01     		.2byte	0x1bb
 9150 194f 42190000 		.4byte	0x1942
 9151 1953 15       		.uleb128 0x15
 9152 1954 04       		.byte	0x4
 9153 1955 19       		.byte	0x19
 9154 1956 B3       		.byte	0xb3
 9155 1957 74190000 		.4byte	0x1974
 9156 195b 16       		.uleb128 0x16
 9157 195c 73657400 		.ascii	"set\000"
 9158 1960 19       		.byte	0x19
 9159 1961 B4       		.byte	0xb4
 9160 1962 FE000000 		.4byte	0xfe
 9161 1966 00       		.byte	0
 9162 1967 08       		.uleb128 0x8
 9163 1968 9E120000 		.4byte	.LASF426
 9164 196c 19       		.byte	0x19
 9165 196d B5       		.byte	0xb5
 9166 196e FE000000 		.4byte	0xfe
 9167 1972 02       		.byte	0x2
 9168 1973 00       		.byte	0
 9169 1974 1C       		.uleb128 0x1c
 9170 1975 04       		.byte	0x4
 9171 1976 19       		.byte	0x19
 9172 1977 B1       		.byte	0xb1
 9173 1978 8F190000 		.4byte	0x198f
 9174 197c 25       		.uleb128 0x25
 9175 197d 5700     		.ascii	"W\000"
 9176 197f 19       		.byte	0x19
 9177 1980 B2       		.byte	0xb2
 9178 1981 1E010000 		.4byte	0x11e
 9179 1985 25       		.uleb128 0x25
 9180 1986 4800     		.ascii	"H\000"
 9181 1988 19       		.byte	0x19
 9182 1989 B6       		.byte	0xb6
 9183 198a 53190000 		.4byte	0x1953
 9184 198e 00       		.byte	0
 9185 198f 05       		.uleb128 0x5
 9186 1990 74190000 		.4byte	0x1974
 9187 1994 15       		.uleb128 0x15
 9188 1995 2C       		.byte	0x2c
 9189 1996 19       		.byte	0x19
 9190 1997 A9       		.byte	0xa9
 9191 1998 211A0000 		.4byte	0x1a21
 9192 199c 08       		.uleb128 0x8
 9193 199d C12F0000 		.4byte	.LASF427
 9194 19a1 19       		.byte	0x19
 9195 19a2 AB       		.byte	0xab
 9196 19a3 29010000 		.4byte	0x129
 9197 19a7 00       		.byte	0
 9198 19a8 08       		.uleb128 0x8
 9199 19a9 36040000 		.4byte	.LASF428
ARM GAS  C:\Users\CHRIST~1\AppData\Local\Temp\ccCFoZV9.s 			page 164


 9200 19ad 19       		.byte	0x19
 9201 19ae AC       		.byte	0xac
 9202 19af 29010000 		.4byte	0x129
 9203 19b3 04       		.byte	0x4
 9204 19b4 08       		.uleb128 0x8
 9205 19b5 02150000 		.4byte	.LASF429
 9206 19b9 19       		.byte	0x19
 9207 19ba AD       		.byte	0xad
 9208 19bb 29010000 		.4byte	0x129
 9209 19bf 08       		.byte	0x8
 9210 19c0 08       		.uleb128 0x8
 9211 19c1 902E0000 		.4byte	.LASF430
 9212 19c5 19       		.byte	0x19
 9213 19c6 AE       		.byte	0xae
 9214 19c7 29010000 		.4byte	0x129
 9215 19cb 0C       		.byte	0xc
 9216 19cc 16       		.uleb128 0x16
 9217 19cd 49445200 		.ascii	"IDR\000"
 9218 19d1 19       		.byte	0x19
 9219 19d2 AF       		.byte	0xaf
 9220 19d3 29010000 		.4byte	0x129
 9221 19d7 10       		.byte	0x10
 9222 19d8 16       		.uleb128 0x16
 9223 19d9 4F445200 		.ascii	"ODR\000"
 9224 19dd 19       		.byte	0x19
 9225 19de B0       		.byte	0xb0
 9226 19df 29010000 		.4byte	0x129
 9227 19e3 14       		.byte	0x14
 9228 19e4 08       		.uleb128 0x8
 9229 19e5 F31B0000 		.4byte	.LASF431
 9230 19e9 19       		.byte	0x19
 9231 19ea B7       		.byte	0xb7
 9232 19eb 8F190000 		.4byte	0x198f
 9233 19ef 18       		.byte	0x18
 9234 19f0 08       		.uleb128 0x8
 9235 19f1 F7240000 		.4byte	.LASF432
 9236 19f5 19       		.byte	0x19
 9237 19f6 B8       		.byte	0xb8
 9238 19f7 29010000 		.4byte	0x129
 9239 19fb 1C       		.byte	0x1c
 9240 19fc 08       		.uleb128 0x8
 9241 19fd 212B0000 		.4byte	.LASF433
 9242 1a01 19       		.byte	0x19
 9243 1a02 B9       		.byte	0xb9
 9244 1a03 29010000 		.4byte	0x129
 9245 1a07 20       		.byte	0x20
 9246 1a08 08       		.uleb128 0x8
 9247 1a09 3C2A0000 		.4byte	.LASF434
 9248 1a0d 19       		.byte	0x19
 9249 1a0e BA       		.byte	0xba
 9250 1a0f 29010000 		.4byte	0x129
 9251 1a13 24       		.byte	0x24
 9252 1a14 16       		.uleb128 0x16
 9253 1a15 42525200 		.ascii	"BRR\000"
 9254 1a19 19       		.byte	0x19
 9255 1a1a BB       		.byte	0xbb
 9256 1a1b 29010000 		.4byte	0x129
ARM GAS  C:\Users\CHRIST~1\AppData\Local\Temp\ccCFoZV9.s 			page 165


 9257 1a1f 28       		.byte	0x28
 9258 1a20 00       		.byte	0
 9259 1a21 03       		.uleb128 0x3
 9260 1a22 5E170000 		.4byte	.LASF435
 9261 1a26 19       		.byte	0x19
 9262 1a27 BC       		.byte	0xbc
 9263 1a28 94190000 		.4byte	0x1994
 9264 1a2c 15       		.uleb128 0x15
 9265 1a2d 1C       		.byte	0x1c
 9266 1a2e 19       		.byte	0x19
 9267 1a2f C1       		.byte	0xc1
 9268 1a30 891A0000 		.4byte	0x1a89
 9269 1a34 08       		.uleb128 0x8
 9270 1a35 21350000 		.4byte	.LASF436
 9271 1a39 19       		.byte	0x19
 9272 1a3a C3       		.byte	0xc3
 9273 1a3b 1E010000 		.4byte	0x11e
 9274 1a3f 00       		.byte	0
 9275 1a40 08       		.uleb128 0x8
 9276 1a41 0A040000 		.4byte	.LASF437
 9277 1a45 19       		.byte	0x19
 9278 1a46 C5       		.byte	0xc5
 9279 1a47 1E010000 		.4byte	0x11e
 9280 1a4b 04       		.byte	0x4
 9281 1a4c 08       		.uleb128 0x8
 9282 1a4d CE020000 		.4byte	.LASF438
 9283 1a51 19       		.byte	0x19
 9284 1a52 C7       		.byte	0xc7
 9285 1a53 1E010000 		.4byte	0x11e
 9286 1a57 08       		.byte	0x8
 9287 1a58 08       		.uleb128 0x8
 9288 1a59 B3330000 		.4byte	.LASF439
 9289 1a5d 19       		.byte	0x19
 9290 1a5e C9       		.byte	0xc9
 9291 1a5f 1E010000 		.4byte	0x11e
 9292 1a63 0C       		.byte	0xc
 9293 1a64 16       		.uleb128 0x16
 9294 1a65 6F647200 		.ascii	"odr\000"
 9295 1a69 19       		.byte	0x19
 9296 1a6a CB       		.byte	0xcb
 9297 1a6b 1E010000 		.4byte	0x11e
 9298 1a6f 10       		.byte	0x10
 9299 1a70 08       		.uleb128 0x8
 9300 1a71 272F0000 		.4byte	.LASF440
 9301 1a75 19       		.byte	0x19
 9302 1a76 CD       		.byte	0xcd
 9303 1a77 1E010000 		.4byte	0x11e
 9304 1a7b 14       		.byte	0x14
 9305 1a7c 08       		.uleb128 0x8
 9306 1a7d FF2E0000 		.4byte	.LASF441
 9307 1a81 19       		.byte	0x19
 9308 1a82 CF       		.byte	0xcf
 9309 1a83 1E010000 		.4byte	0x11e
 9310 1a87 18       		.byte	0x18
 9311 1a88 00       		.byte	0
 9312 1a89 03       		.uleb128 0x3
 9313 1a8a 36290000 		.4byte	.LASF442
ARM GAS  C:\Users\CHRIST~1\AppData\Local\Temp\ccCFoZV9.s 			page 166


 9314 1a8e 19       		.byte	0x19
 9315 1a8f D0       		.byte	0xd0
 9316 1a90 2C1A0000 		.4byte	0x1a2c
 9317 1a94 15       		.uleb128 0x15
 9318 1a95 FC       		.byte	0xfc
 9319 1a96 19       		.byte	0x19
 9320 1a97 D9       		.byte	0xd9
 9321 1a98 091B0000 		.4byte	0x1b09
 9322 1a9c 08       		.uleb128 0x8
 9323 1a9d 3F180000 		.4byte	.LASF443
 9324 1aa1 19       		.byte	0x19
 9325 1aa2 DC       		.byte	0xdc
 9326 1aa3 891A0000 		.4byte	0x1a89
 9327 1aa7 00       		.byte	0
 9328 1aa8 08       		.uleb128 0x8
 9329 1aa9 DA030000 		.4byte	.LASF444
 9330 1aad 19       		.byte	0x19
 9331 1aae E0       		.byte	0xe0
 9332 1aaf 891A0000 		.4byte	0x1a89
 9333 1ab3 1C       		.byte	0x1c
 9334 1ab4 08       		.uleb128 0x8
 9335 1ab5 0F020000 		.4byte	.LASF445
 9336 1ab9 19       		.byte	0x19
 9337 1aba E4       		.byte	0xe4
 9338 1abb 891A0000 		.4byte	0x1a89
 9339 1abf 38       		.byte	0x38
 9340 1ac0 08       		.uleb128 0x8
 9341 1ac1 2E140000 		.4byte	.LASF446
 9342 1ac5 19       		.byte	0x19
 9343 1ac6 E8       		.byte	0xe8
 9344 1ac7 891A0000 		.4byte	0x1a89
 9345 1acb 54       		.byte	0x54
 9346 1acc 08       		.uleb128 0x8
 9347 1acd 3D270000 		.4byte	.LASF447
 9348 1ad1 19       		.byte	0x19
 9349 1ad2 EC       		.byte	0xec
 9350 1ad3 891A0000 		.4byte	0x1a89
 9351 1ad7 70       		.byte	0x70
 9352 1ad8 08       		.uleb128 0x8
 9353 1ad9 403B0000 		.4byte	.LASF448
 9354 1add 19       		.byte	0x19
 9355 1ade F0       		.byte	0xf0
 9356 1adf 891A0000 		.4byte	0x1a89
 9357 1ae3 8C       		.byte	0x8c
 9358 1ae4 08       		.uleb128 0x8
 9359 1ae5 B4100000 		.4byte	.LASF449
 9360 1ae9 19       		.byte	0x19
 9361 1aea F4       		.byte	0xf4
 9362 1aeb 891A0000 		.4byte	0x1a89
 9363 1aef A8       		.byte	0xa8
 9364 1af0 08       		.uleb128 0x8
 9365 1af1 C8230000 		.4byte	.LASF450
 9366 1af5 19       		.byte	0x19
 9367 1af6 F8       		.byte	0xf8
 9368 1af7 891A0000 		.4byte	0x1a89
 9369 1afb C4       		.byte	0xc4
 9370 1afc 08       		.uleb128 0x8
ARM GAS  C:\Users\CHRIST~1\AppData\Local\Temp\ccCFoZV9.s 			page 167


 9371 1afd B2370000 		.4byte	.LASF451
 9372 1b01 19       		.byte	0x19
 9373 1b02 FC       		.byte	0xfc
 9374 1b03 891A0000 		.4byte	0x1a89
 9375 1b07 E0       		.byte	0xe0
 9376 1b08 00       		.byte	0
 9377 1b09 03       		.uleb128 0x3
 9378 1b0a AE0F0000 		.4byte	.LASF452
 9379 1b0e 19       		.byte	0x19
 9380 1b0f FE       		.byte	0xfe
 9381 1b10 941A0000 		.4byte	0x1a94
 9382 1b14 06       		.uleb128 0x6
 9383 1b15 091B0000 		.4byte	0x1b09
 9384 1b19 18       		.uleb128 0x18
 9385 1b1a E2230000 		.4byte	.LASF453
 9386 1b1e 19       		.byte	0x19
 9387 1b1f 1B01     		.2byte	0x11b
 9388 1b21 251B0000 		.4byte	0x1b25
 9389 1b25 0B       		.uleb128 0xb
 9390 1b26 04       		.byte	0x4
 9391 1b27 211A0000 		.4byte	0x1a21
 9392 1b2b 13       		.uleb128 0x13
 9393 1b2c 60300000 		.4byte	.LASF454
 9394 1b30 19       		.byte	0x19
 9395 1b31 DA01     		.2byte	0x1da
 9396 1b33 141B0000 		.4byte	0x1b14
 9397 1b37 1F       		.uleb128 0x1f
 9398 1b38 01       		.byte	0x1
 9399 1b39 49000000 		.4byte	0x49
 9400 1b3d 1A       		.byte	0x1a
 9401 1b3e 5F       		.byte	0x5f
 9402 1b3f 621B0000 		.4byte	0x1b62
 9403 1b43 20       		.uleb128 0x20
 9404 1b44 4A0E0000 		.4byte	.LASF455
 9405 1b48 00       		.byte	0
 9406 1b49 20       		.uleb128 0x20
 9407 1b4a 2F010000 		.4byte	.LASF456
 9408 1b4e 01       		.byte	0x1
 9409 1b4f 20       		.uleb128 0x20
 9410 1b50 53000000 		.4byte	.LASF457
 9411 1b54 02       		.byte	0x2
 9412 1b55 20       		.uleb128 0x20
 9413 1b56 2B070000 		.4byte	.LASF458
 9414 1b5a 03       		.byte	0x3
 9415 1b5b 20       		.uleb128 0x20
 9416 1b5c CE0D0000 		.4byte	.LASF459
 9417 1b60 04       		.byte	0x4
 9418 1b61 00       		.byte	0
 9419 1b62 03       		.uleb128 0x3
 9420 1b63 87070000 		.4byte	.LASF460
 9421 1b67 1A       		.byte	0x1a
 9422 1b68 65       		.byte	0x65
 9423 1b69 371B0000 		.4byte	0x1b37
 9424 1b6d 15       		.uleb128 0x15
 9425 1b6e 08       		.byte	0x8
 9426 1b6f 1B       		.byte	0x1b
 9427 1b70 F4       		.byte	0xf4
ARM GAS  C:\Users\CHRIST~1\AppData\Local\Temp\ccCFoZV9.s 			page 168


 9428 1b71 8F1B0000 		.4byte	0x1b8f
 9429 1b75 16       		.uleb128 0x16
 9430 1b76 6D637200 		.ascii	"mcr\000"
 9431 1b7a 1B       		.byte	0x1b
 9432 1b7b FA       		.byte	0xfa
 9433 1b7c 1E010000 		.4byte	0x11e
 9434 1b80 00       		.byte	0
 9435 1b81 09       		.uleb128 0x9
 9436 1b82 62747200 		.ascii	"btr\000"
 9437 1b86 1B       		.byte	0x1b
 9438 1b87 0001     		.2byte	0x100
 9439 1b89 1E010000 		.4byte	0x11e
 9440 1b8d 04       		.byte	0x4
 9441 1b8e 00       		.byte	0
 9442 1b8f 18       		.uleb128 0x18
 9443 1b90 33270000 		.4byte	.LASF461
 9444 1b94 1B       		.byte	0x1b
 9445 1b95 0101     		.2byte	0x101
 9446 1b97 6D1B0000 		.4byte	0x1b6d
 9447 1b9b 06       		.uleb128 0x6
 9448 1b9c 8F1B0000 		.4byte	0x1b8f
 9449 1ba0 17       		.uleb128 0x17
 9450 1ba1 30       		.byte	0x30
 9451 1ba2 1B       		.byte	0x1b
 9452 1ba3 0601     		.2byte	0x106
 9453 1ba5 2C1C0000 		.4byte	0x1c2c
 9454 1ba9 0A       		.uleb128 0xa
 9455 1baa C7210000 		.4byte	.LASF462
 9456 1bae 1B       		.byte	0x1b
 9457 1baf 0A01     		.2byte	0x10a
 9458 1bb1 621B0000 		.4byte	0x1b62
 9459 1bb5 00       		.byte	0
 9460 1bb6 0A       		.uleb128 0xa
 9461 1bb7 CF350000 		.4byte	.LASF463
 9462 1bbb 1B       		.byte	0x1b
 9463 1bbc 0E01     		.2byte	0x10e
 9464 1bbe 2C1C0000 		.4byte	0x1c2c
 9465 1bc2 04       		.byte	0x4
 9466 1bc3 0A       		.uleb128 0xa
 9467 1bc4 670D0000 		.4byte	.LASF464
 9468 1bc8 1B       		.byte	0x1b
 9469 1bc9 1201     		.2byte	0x112
 9470 1bcb 0C030000 		.4byte	0x30c
 9471 1bcf 08       		.byte	0x8
 9472 1bd0 0A       		.uleb128 0xa
 9473 1bd1 4F300000 		.4byte	.LASF465
 9474 1bd5 1B       		.byte	0x1b
 9475 1bd6 1601     		.2byte	0x116
 9476 1bd8 0C030000 		.4byte	0x30c
 9477 1bdc 10       		.byte	0x10
 9478 1bdd 0A       		.uleb128 0xa
 9479 1bde EC260000 		.4byte	.LASF466
 9480 1be2 1B       		.byte	0x1b
 9481 1be3 2301     		.2byte	0x123
 9482 1be5 E60E0000 		.4byte	0xee6
 9483 1be9 18       		.byte	0x18
 9484 1bea 0A       		.uleb128 0xa
ARM GAS  C:\Users\CHRIST~1\AppData\Local\Temp\ccCFoZV9.s 			page 169


 9485 1beb 92100000 		.4byte	.LASF467
 9486 1bef 1B       		.byte	0x1b
 9487 1bf0 2A01     		.2byte	0x12a
 9488 1bf2 E60E0000 		.4byte	0xee6
 9489 1bf6 1C       		.byte	0x1c
 9490 1bf7 0A       		.uleb128 0xa
 9491 1bf8 E8140000 		.4byte	.LASF468
 9492 1bfc 1B       		.byte	0x1b
 9493 1bfd 3001     		.2byte	0x130
 9494 1bff E60E0000 		.4byte	0xee6
 9495 1c03 20       		.byte	0x20
 9496 1c04 0A       		.uleb128 0xa
 9497 1c05 AF040000 		.4byte	.LASF469
 9498 1c09 1B       		.byte	0x1b
 9499 1c0a 3501     		.2byte	0x135
 9500 1c0c E60E0000 		.4byte	0xee6
 9501 1c10 24       		.byte	0x24
 9502 1c11 0A       		.uleb128 0xa
 9503 1c12 FC0C0000 		.4byte	.LASF470
 9504 1c16 1B       		.byte	0x1b
 9505 1c17 3901     		.2byte	0x139
 9506 1c19 E60E0000 		.4byte	0xee6
 9507 1c1d 28       		.byte	0x28
 9508 1c1e 09       		.uleb128 0x9
 9509 1c1f 63616E00 		.ascii	"can\000"
 9510 1c23 1B       		.byte	0x1b
 9511 1c24 3F01     		.2byte	0x13f
 9512 1c26 321C0000 		.4byte	0x1c32
 9513 1c2a 2C       		.byte	0x2c
 9514 1c2b 00       		.byte	0
 9515 1c2c 0B       		.uleb128 0xb
 9516 1c2d 04       		.byte	0x4
 9517 1c2e 9B1B0000 		.4byte	0x1b9b
 9518 1c32 0B       		.uleb128 0xb
 9519 1c33 04       		.byte	0x4
 9520 1c34 61070000 		.4byte	0x761
 9521 1c38 18       		.uleb128 0x18
 9522 1c39 05050000 		.4byte	.LASF471
 9523 1c3d 1B       		.byte	0x1b
 9524 1c3e 4001     		.2byte	0x140
 9525 1c40 A01B0000 		.4byte	0x1ba0
 9526 1c44 13       		.uleb128 0x13
 9527 1c45 6C330000 		.4byte	.LASF472
 9528 1c49 1B       		.byte	0x1b
 9529 1c4a 4B01     		.2byte	0x14b
 9530 1c4c 381C0000 		.4byte	0x1c38
 9531 1c50 1F       		.uleb128 0x1f
 9532 1c51 01       		.byte	0x1
 9533 1c52 49000000 		.4byte	0x49
 9534 1c56 1C       		.byte	0x1c
 9535 1c57 4C       		.byte	0x4c
 9536 1c58 811C0000 		.4byte	0x1c81
 9537 1c5c 20       		.uleb128 0x20
 9538 1c5d F8070000 		.4byte	.LASF473
 9539 1c61 00       		.byte	0
 9540 1c62 20       		.uleb128 0x20
 9541 1c63 B4140000 		.4byte	.LASF474
ARM GAS  C:\Users\CHRIST~1\AppData\Local\Temp\ccCFoZV9.s 			page 170


 9542 1c67 01       		.byte	0x1
 9543 1c68 20       		.uleb128 0x20
 9544 1c69 92080000 		.4byte	.LASF475
 9545 1c6d 02       		.byte	0x2
 9546 1c6e 20       		.uleb128 0x20
 9547 1c6f 05060000 		.4byte	.LASF476
 9548 1c73 03       		.byte	0x3
 9549 1c74 20       		.uleb128 0x20
 9550 1c75 85040000 		.4byte	.LASF477
 9551 1c79 04       		.byte	0x4
 9552 1c7a 20       		.uleb128 0x20
 9553 1c7b C91C0000 		.4byte	.LASF478
 9554 1c7f 05       		.byte	0x5
 9555 1c80 00       		.byte	0
 9556 1c81 03       		.uleb128 0x3
 9557 1c82 51190000 		.4byte	.LASF479
 9558 1c86 1C       		.byte	0x1c
 9559 1c87 53       		.byte	0x53
 9560 1c88 501C0000 		.4byte	0x1c50
 9561 1c8c 18       		.uleb128 0x18
 9562 1c8d 6A060000 		.4byte	.LASF480
 9563 1c91 1D       		.byte	0x1d
 9564 1c92 6A01     		.2byte	0x16a
 9565 1c94 FE000000 		.4byte	0xfe
 9566 1c98 18       		.uleb128 0x18
 9567 1c99 44050000 		.4byte	.LASF481
 9568 1c9d 1D       		.byte	0x1d
 9569 1c9e 6F01     		.2byte	0x16f
 9570 1ca0 1E010000 		.4byte	0x11e
 9571 1ca4 23       		.uleb128 0x23
 9572 1ca5 01       		.byte	0x1
 9573 1ca6 49000000 		.4byte	0x49
 9574 1caa 1D       		.byte	0x1d
 9575 1cab 7401     		.2byte	0x174
 9576 1cad C41C0000 		.4byte	0x1cc4
 9577 1cb1 20       		.uleb128 0x20
 9578 1cb2 C2140000 		.4byte	.LASF482
 9579 1cb6 01       		.byte	0x1
 9580 1cb7 20       		.uleb128 0x20
 9581 1cb8 A3000000 		.4byte	.LASF483
 9582 1cbc 02       		.byte	0x2
 9583 1cbd 20       		.uleb128 0x20
 9584 1cbe 8C0D0000 		.4byte	.LASF484
 9585 1cc2 03       		.byte	0x3
 9586 1cc3 00       		.byte	0
 9587 1cc4 18       		.uleb128 0x18
 9588 1cc5 B7390000 		.4byte	.LASF485
 9589 1cc9 1D       		.byte	0x1d
 9590 1cca 7801     		.2byte	0x178
 9591 1ccc A41C0000 		.4byte	0x1ca4
 9592 1cd0 23       		.uleb128 0x23
 9593 1cd1 01       		.byte	0x1
 9594 1cd2 49000000 		.4byte	0x49
 9595 1cd6 1D       		.byte	0x1d
 9596 1cd7 7D01     		.2byte	0x17d
 9597 1cd9 F01C0000 		.4byte	0x1cf0
 9598 1cdd 20       		.uleb128 0x20
ARM GAS  C:\Users\CHRIST~1\AppData\Local\Temp\ccCFoZV9.s 			page 171


 9599 1cde 78130000 		.4byte	.LASF486
 9600 1ce2 01       		.byte	0x1
 9601 1ce3 20       		.uleb128 0x20
 9602 1ce4 F9380000 		.4byte	.LASF487
 9603 1ce8 02       		.byte	0x2
 9604 1ce9 20       		.uleb128 0x20
 9605 1cea 6D0F0000 		.4byte	.LASF488
 9606 1cee 03       		.byte	0x3
 9607 1cef 00       		.byte	0
 9608 1cf0 18       		.uleb128 0x18
 9609 1cf1 A5080000 		.4byte	.LASF489
 9610 1cf5 1D       		.byte	0x1d
 9611 1cf6 8101     		.2byte	0x181
 9612 1cf8 D01C0000 		.4byte	0x1cd0
 9613 1cfc 17       		.uleb128 0x17
 9614 1cfd 0C       		.byte	0xc
 9615 1cfe 1D       		.byte	0x1d
 9616 1cff 8601     		.2byte	0x186
 9617 1d01 2D1D0000 		.4byte	0x1d2d
 9618 1d05 0A       		.uleb128 0xa
 9619 1d06 C8070000 		.4byte	.LASF490
 9620 1d0a 1D       		.byte	0x1d
 9621 1d0b 8801     		.2byte	0x188
 9622 1d0d C41C0000 		.4byte	0x1cc4
 9623 1d11 00       		.byte	0
 9624 1d12 0A       		.uleb128 0xa
 9625 1d13 EF040000 		.4byte	.LASF491
 9626 1d17 1D       		.byte	0x1d
 9627 1d18 8901     		.2byte	0x189
 9628 1d1a 1E010000 		.4byte	0x11e
 9629 1d1e 04       		.byte	0x4
 9630 1d1f 0A       		.uleb128 0xa
 9631 1d20 B03A0000 		.4byte	.LASF492
 9632 1d24 1D       		.byte	0x1d
 9633 1d25 8C01     		.2byte	0x18c
 9634 1d27 F01C0000 		.4byte	0x1cf0
 9635 1d2b 08       		.byte	0x8
 9636 1d2c 00       		.byte	0
 9637 1d2d 18       		.uleb128 0x18
 9638 1d2e 5A020000 		.4byte	.LASF493
 9639 1d32 1D       		.byte	0x1d
 9640 1d33 8E01     		.2byte	0x18e
 9641 1d35 FC1C0000 		.4byte	0x1cfc
 9642 1d39 06       		.uleb128 0x6
 9643 1d3a 2D1D0000 		.4byte	0x1d2d
 9644 1d3e 18       		.uleb128 0x18
 9645 1d3f FB050000 		.4byte	.LASF494
 9646 1d43 1D       		.byte	0x1d
 9647 1d44 9301     		.2byte	0x193
 9648 1d46 4A1D0000 		.4byte	0x1d4a
 9649 1d4a 0C       		.uleb128 0xc
 9650 1d4b FB050000 		.4byte	.LASF494
 9651 1d4f 38       		.byte	0x38
 9652 1d50 1D       		.byte	0x1d
 9653 1d51 9801     		.2byte	0x198
 9654 1d53 E71D0000 		.4byte	0x1de7
 9655 1d57 0A       		.uleb128 0xa
ARM GAS  C:\Users\CHRIST~1\AppData\Local\Temp\ccCFoZV9.s 			page 172


 9656 1d58 C7210000 		.4byte	.LASF462
 9657 1d5c 1D       		.byte	0x1d
 9658 1d5d 9C01     		.2byte	0x19c
 9659 1d5f 811C0000 		.4byte	0x1c81
 9660 1d63 00       		.byte	0
 9661 1d64 0A       		.uleb128 0xa
 9662 1d65 CF350000 		.4byte	.LASF463
 9663 1d69 1D       		.byte	0x1d
 9664 1d6a A001     		.2byte	0x1a0
 9665 1d6c E71D0000 		.4byte	0x1de7
 9666 1d70 04       		.byte	0x4
 9667 1d71 0A       		.uleb128 0xa
 9668 1d72 BD010000 		.4byte	.LASF495
 9669 1d76 1D       		.byte	0x1d
 9670 1d77 A401     		.2byte	0x1a4
 9671 1d79 981C0000 		.4byte	0x1c98
 9672 1d7d 08       		.byte	0x8
 9673 1d7e 0A       		.uleb128 0xa
 9674 1d7f 12120000 		.4byte	.LASF496
 9675 1d83 1D       		.byte	0x1d
 9676 1d84 A901     		.2byte	0x1a9
 9677 1d86 620E0000 		.4byte	0xe62
 9678 1d8a 0C       		.byte	0xc
 9679 1d8b 0A       		.uleb128 0xa
 9680 1d8c E8080000 		.4byte	.LASF497
 9681 1d90 1D       		.byte	0x1d
 9682 1d91 B201     		.2byte	0x1b2
 9683 1d93 D7020000 		.4byte	0x2d7
 9684 1d97 1C       		.byte	0x1c
 9685 1d98 0A       		.uleb128 0xa
 9686 1d99 BD140000 		.4byte	.LASF498
 9687 1d9d 1D       		.byte	0x1d
 9688 1d9e B601     		.2byte	0x1b6
 9689 1da0 8C1C0000 		.4byte	0x1c8c
 9690 1da4 20       		.byte	0x20
 9691 1da5 0A       		.uleb128 0xa
 9692 1da6 0D0C0000 		.4byte	.LASF499
 9693 1daa 1D       		.byte	0x1d
 9694 1dab BA01     		.2byte	0x1ba
 9695 1dad 1E010000 		.4byte	0x11e
 9696 1db1 24       		.byte	0x24
 9697 1db2 0A       		.uleb128 0xa
 9698 1db3 9E0C0000 		.4byte	.LASF500
 9699 1db7 1D       		.byte	0x1d
 9700 1db8 BE01     		.2byte	0x1be
 9701 1dba 1E010000 		.4byte	0x11e
 9702 1dbe 28       		.byte	0x28
 9703 1dbf 0A       		.uleb128 0xa
 9704 1dc0 67010000 		.4byte	.LASF501
 9705 1dc4 1D       		.byte	0x1d
 9706 1dc5 C201     		.2byte	0x1c2
 9707 1dc7 ED1D0000 		.4byte	0x1ded
 9708 1dcb 2C       		.byte	0x2c
 9709 1dcc 0A       		.uleb128 0xa
 9710 1dcd A6020000 		.4byte	.LASF502
 9711 1dd1 1D       		.byte	0x1d
 9712 1dd2 C601     		.2byte	0x1c6
ARM GAS  C:\Users\CHRIST~1\AppData\Local\Temp\ccCFoZV9.s 			page 173


 9713 1dd4 ED1D0000 		.4byte	0x1ded
 9714 1dd8 30       		.byte	0x30
 9715 1dd9 09       		.uleb128 0x9
 9716 1dda 69326300 		.ascii	"i2c\000"
 9717 1dde 1D       		.byte	0x1d
 9718 1ddf CA01     		.2byte	0x1ca
 9719 1de1 F31D0000 		.4byte	0x1df3
 9720 1de5 34       		.byte	0x34
 9721 1de6 00       		.byte	0
 9722 1de7 0B       		.uleb128 0xb
 9723 1de8 04       		.byte	0x4
 9724 1de9 391D0000 		.4byte	0x1d39
 9725 1ded 0B       		.uleb128 0xb
 9726 1dee 04       		.byte	0x4
 9727 1def 2D190000 		.4byte	0x192d
 9728 1df3 0B       		.uleb128 0xb
 9729 1df4 04       		.byte	0x4
 9730 1df5 85080000 		.4byte	0x885
 9731 1df9 13       		.uleb128 0x13
 9732 1dfa D7190000 		.4byte	.LASF503
 9733 1dfe 1D       		.byte	0x1d
 9734 1dff E401     		.2byte	0x1e4
 9735 1e01 3E1D0000 		.4byte	0x1d3e
 9736 1e05 1F       		.uleb128 0x1f
 9737 1e06 01       		.byte	0x1
 9738 1e07 49000000 		.4byte	0x49
 9739 1e0b 1E       		.byte	0x1e
 9740 1e0c 31       		.byte	0x31
 9741 1e0d 301E0000 		.4byte	0x1e30
 9742 1e11 20       		.uleb128 0x20
 9743 1e12 EC370000 		.4byte	.LASF504
 9744 1e16 00       		.byte	0
 9745 1e17 20       		.uleb128 0x20
 9746 1e18 1E2F0000 		.4byte	.LASF505
 9747 1e1c 01       		.byte	0x1
 9748 1e1d 20       		.uleb128 0x20
 9749 1e1e 7B060000 		.4byte	.LASF506
 9750 1e22 02       		.byte	0x2
 9751 1e23 20       		.uleb128 0x20
 9752 1e24 7C1E0000 		.4byte	.LASF507
 9753 1e28 03       		.byte	0x3
 9754 1e29 20       		.uleb128 0x20
 9755 1e2a 482C0000 		.4byte	.LASF508
 9756 1e2e 04       		.byte	0x4
 9757 1e2f 00       		.byte	0
 9758 1e30 03       		.uleb128 0x3
 9759 1e31 25320000 		.4byte	.LASF509
 9760 1e35 1E       		.byte	0x1e
 9761 1e36 37       		.byte	0x37
 9762 1e37 051E0000 		.4byte	0x1e05
 9763 1e3b 03       		.uleb128 0x3
 9764 1e3c 5F260000 		.4byte	.LASF510
 9765 1e40 1E       		.byte	0x1e
 9766 1e41 3C       		.byte	0x3c
 9767 1e42 461E0000 		.4byte	0x1e46
 9768 1e46 0C       		.uleb128 0xc
 9769 1e47 5F260000 		.4byte	.LASF510
ARM GAS  C:\Users\CHRIST~1\AppData\Local\Temp\ccCFoZV9.s 			page 174


 9770 1e4b 18       		.byte	0x18
 9771 1e4c 1F       		.byte	0x1f
 9772 1e4d 3101     		.2byte	0x131
 9773 1e4f A21E0000 		.4byte	0x1ea2
 9774 1e53 0A       		.uleb128 0xa
 9775 1e54 C7210000 		.4byte	.LASF462
 9776 1e58 1F       		.byte	0x1f
 9777 1e59 3501     		.2byte	0x135
 9778 1e5b 301E0000 		.4byte	0x1e30
 9779 1e5f 00       		.byte	0
 9780 1e60 0A       		.uleb128 0xa
 9781 1e61 CF350000 		.4byte	.LASF463
 9782 1e65 1F       		.byte	0x1f
 9783 1e66 3901     		.2byte	0x139
 9784 1e68 A5200000 		.4byte	0x20a5
 9785 1e6c 04       		.byte	0x4
 9786 1e6d 0A       		.uleb128 0xa
 9787 1e6e E62F0000 		.4byte	.LASF511
 9788 1e72 1F       		.byte	0x1f
 9789 1e73 4101     		.2byte	0x141
 9790 1e75 1E010000 		.4byte	0x11e
 9791 1e79 08       		.byte	0x8
 9792 1e7a 09       		.uleb128 0x9
 9793 1e7b 74696D00 		.ascii	"tim\000"
 9794 1e7f 1F       		.byte	0x1f
 9795 1e80 4501     		.2byte	0x145
 9796 1e82 AB200000 		.4byte	0x20ab
 9797 1e86 0C       		.byte	0xc
 9798 1e87 0A       		.uleb128 0xa
 9799 1e88 AB2E0000 		.4byte	.LASF512
 9800 1e8c 1F       		.byte	0x1f
 9801 1e8d 4901     		.2byte	0x149
 9802 1e8f 1C190000 		.4byte	0x191c
 9803 1e93 10       		.byte	0x10
 9804 1e94 0A       		.uleb128 0xa
 9805 1e95 A4060000 		.4byte	.LASF513
 9806 1e99 1F       		.byte	0x1f
 9807 1e9a 4D01     		.2byte	0x14d
 9808 1e9c 1C190000 		.4byte	0x191c
 9809 1ea0 14       		.byte	0x14
 9810 1ea1 00       		.byte	0
 9811 1ea2 03       		.uleb128 0x3
 9812 1ea3 76280000 		.4byte	.LASF514
 9813 1ea7 1E       		.byte	0x1e
 9814 1ea8 43       		.byte	0x43
 9815 1ea9 AD1E0000 		.4byte	0x1ead
 9816 1ead 0B       		.uleb128 0xb
 9817 1eae 04       		.byte	0x4
 9818 1eaf B31E0000 		.4byte	0x1eb3
 9819 1eb3 0D       		.uleb128 0xd
 9820 1eb4 BE1E0000 		.4byte	0x1ebe
 9821 1eb8 0E       		.uleb128 0xe
 9822 1eb9 BE1E0000 		.4byte	0x1ebe
 9823 1ebd 00       		.byte	0
 9824 1ebe 0B       		.uleb128 0xb
 9825 1ebf 04       		.byte	0x4
 9826 1ec0 3B1E0000 		.4byte	0x1e3b
ARM GAS  C:\Users\CHRIST~1\AppData\Local\Temp\ccCFoZV9.s 			page 175


 9827 1ec4 17       		.uleb128 0x17
 9828 1ec5 60       		.byte	0x60
 9829 1ec6 20       		.byte	0x20
 9830 1ec7 9E01     		.2byte	0x19e
 9831 1ec9 D01F0000 		.4byte	0x1fd0
 9832 1ecd 09       		.uleb128 0x9
 9833 1ece 43523100 		.ascii	"CR1\000"
 9834 1ed2 20       		.byte	0x20
 9835 1ed3 9F01     		.2byte	0x19f
 9836 1ed5 29010000 		.4byte	0x129
 9837 1ed9 00       		.byte	0
 9838 1eda 09       		.uleb128 0x9
 9839 1edb 43523200 		.ascii	"CR2\000"
 9840 1edf 20       		.byte	0x20
 9841 1ee0 A001     		.2byte	0x1a0
 9842 1ee2 29010000 		.4byte	0x129
 9843 1ee6 04       		.byte	0x4
 9844 1ee7 0A       		.uleb128 0xa
 9845 1ee8 44320000 		.4byte	.LASF133
 9846 1eec 20       		.byte	0x20
 9847 1eed A101     		.2byte	0x1a1
 9848 1eef 29010000 		.4byte	0x129
 9849 1ef3 08       		.byte	0x8
 9850 1ef4 0A       		.uleb128 0xa
 9851 1ef5 750E0000 		.4byte	.LASF134
 9852 1ef9 20       		.byte	0x20
 9853 1efa A201     		.2byte	0x1a2
 9854 1efc 29010000 		.4byte	0x129
 9855 1f00 0C       		.byte	0xc
 9856 1f01 09       		.uleb128 0x9
 9857 1f02 535200   		.ascii	"SR\000"
 9858 1f05 20       		.byte	0x20
 9859 1f06 A301     		.2byte	0x1a3
 9860 1f08 29010000 		.4byte	0x129
 9861 1f0c 10       		.byte	0x10
 9862 1f0d 09       		.uleb128 0x9
 9863 1f0e 45475200 		.ascii	"EGR\000"
 9864 1f12 20       		.byte	0x20
 9865 1f13 A401     		.2byte	0x1a4
 9866 1f15 29010000 		.4byte	0x129
 9867 1f19 14       		.byte	0x14
 9868 1f1a 0A       		.uleb128 0xa
 9869 1f1b 3F390000 		.4byte	.LASF135
 9870 1f1f 20       		.byte	0x20
 9871 1f20 A501     		.2byte	0x1a5
 9872 1f22 29010000 		.4byte	0x129
 9873 1f26 18       		.byte	0x18
 9874 1f27 0A       		.uleb128 0xa
 9875 1f28 45390000 		.4byte	.LASF136
 9876 1f2c 20       		.byte	0x20
 9877 1f2d A601     		.2byte	0x1a6
 9878 1f2f 29010000 		.4byte	0x129
 9879 1f33 1C       		.byte	0x1c
 9880 1f34 0A       		.uleb128 0xa
 9881 1f35 66090000 		.4byte	.LASF137
 9882 1f39 20       		.byte	0x20
 9883 1f3a A701     		.2byte	0x1a7
ARM GAS  C:\Users\CHRIST~1\AppData\Local\Temp\ccCFoZV9.s 			page 176


 9884 1f3c 29010000 		.4byte	0x129
 9885 1f40 20       		.byte	0x20
 9886 1f41 09       		.uleb128 0x9
 9887 1f42 434E5400 		.ascii	"CNT\000"
 9888 1f46 20       		.byte	0x20
 9889 1f47 A801     		.2byte	0x1a8
 9890 1f49 29010000 		.4byte	0x129
 9891 1f4d 24       		.byte	0x24
 9892 1f4e 09       		.uleb128 0x9
 9893 1f4f 50534300 		.ascii	"PSC\000"
 9894 1f53 20       		.byte	0x20
 9895 1f54 A901     		.2byte	0x1a9
 9896 1f56 29010000 		.4byte	0x129
 9897 1f5a 28       		.byte	0x28
 9898 1f5b 09       		.uleb128 0x9
 9899 1f5c 41525200 		.ascii	"ARR\000"
 9900 1f60 20       		.byte	0x20
 9901 1f61 AA01     		.2byte	0x1aa
 9902 1f63 29010000 		.4byte	0x129
 9903 1f67 2C       		.byte	0x2c
 9904 1f68 09       		.uleb128 0x9
 9905 1f69 52435200 		.ascii	"RCR\000"
 9906 1f6d 20       		.byte	0x20
 9907 1f6e AB01     		.2byte	0x1ab
 9908 1f70 29010000 		.4byte	0x129
 9909 1f74 30       		.byte	0x30
 9910 1f75 09       		.uleb128 0x9
 9911 1f76 43435200 		.ascii	"CCR\000"
 9912 1f7a 20       		.byte	0x20
 9913 1f7b AC01     		.2byte	0x1ac
 9914 1f7d F5070000 		.4byte	0x7f5
 9915 1f81 34       		.byte	0x34
 9916 1f82 0A       		.uleb128 0xa
 9917 1f83 55020000 		.4byte	.LASF142
 9918 1f87 20       		.byte	0x20
 9919 1f88 AD01     		.2byte	0x1ad
 9920 1f8a 29010000 		.4byte	0x129
 9921 1f8e 44       		.byte	0x44
 9922 1f8f 09       		.uleb128 0x9
 9923 1f90 44435200 		.ascii	"DCR\000"
 9924 1f94 20       		.byte	0x20
 9925 1f95 AE01     		.2byte	0x1ae
 9926 1f97 29010000 		.4byte	0x129
 9927 1f9b 48       		.byte	0x48
 9928 1f9c 0A       		.uleb128 0xa
 9929 1f9d 1E220000 		.4byte	.LASF143
 9930 1fa1 20       		.byte	0x20
 9931 1fa2 AF01     		.2byte	0x1af
 9932 1fa4 29010000 		.4byte	0x129
 9933 1fa8 4C       		.byte	0x4c
 9934 1fa9 09       		.uleb128 0x9
 9935 1faa 4F5200   		.ascii	"OR\000"
 9936 1fad 20       		.byte	0x20
 9937 1fae B001     		.2byte	0x1b0
 9938 1fb0 29010000 		.4byte	0x129
 9939 1fb4 50       		.byte	0x50
 9940 1fb5 0A       		.uleb128 0xa
ARM GAS  C:\Users\CHRIST~1\AppData\Local\Temp\ccCFoZV9.s 			page 177


 9941 1fb6 4B390000 		.4byte	.LASF515
 9942 1fba 20       		.byte	0x20
 9943 1fbb B101     		.2byte	0x1b1
 9944 1fbd 29010000 		.4byte	0x129
 9945 1fc1 54       		.byte	0x54
 9946 1fc2 0A       		.uleb128 0xa
 9947 1fc3 A4120000 		.4byte	.LASF516
 9948 1fc7 20       		.byte	0x20
 9949 1fc8 B201     		.2byte	0x1b2
 9950 1fca E0070000 		.4byte	0x7e0
 9951 1fce 58       		.byte	0x58
 9952 1fcf 00       		.byte	0
 9953 1fd0 18       		.uleb128 0x18
 9954 1fd1 FA300000 		.4byte	.LASF517
 9955 1fd5 20       		.byte	0x20
 9956 1fd6 B301     		.2byte	0x1b3
 9957 1fd8 C41E0000 		.4byte	0x1ec4
 9958 1fdc 1F       		.uleb128 0x1f
 9959 1fdd 01       		.byte	0x1
 9960 1fde 49000000 		.4byte	0x49
 9961 1fe2 1F       		.byte	0x1f
 9962 1fe3 EE       		.byte	0xee
 9963 1fe4 F51F0000 		.4byte	0x1ff5
 9964 1fe8 20       		.uleb128 0x20
 9965 1fe9 450C0000 		.4byte	.LASF518
 9966 1fed 00       		.byte	0
 9967 1fee 20       		.uleb128 0x20
 9968 1fef 49290000 		.4byte	.LASF519
 9969 1ff3 01       		.byte	0x1
 9970 1ff4 00       		.byte	0
 9971 1ff5 03       		.uleb128 0x3
 9972 1ff6 68360000 		.4byte	.LASF520
 9973 1ffa 1F       		.byte	0x1f
 9974 1ffb F1       		.byte	0xf1
 9975 1ffc DC1F0000 		.4byte	0x1fdc
 9976 2000 03       		.uleb128 0x3
 9977 2001 D3290000 		.4byte	.LASF521
 9978 2005 1F       		.byte	0x1f
 9979 2006 F6       		.byte	0xf6
 9980 2007 1E010000 		.4byte	0x11e
 9981 200b 1F       		.uleb128 0x1f
 9982 200c 01       		.byte	0x1
 9983 200d 49000000 		.4byte	0x49
 9984 2011 1F       		.byte	0x1f
 9985 2012 FB       		.byte	0xfb
 9986 2013 24200000 		.4byte	0x2024
 9987 2017 20       		.uleb128 0x20
 9988 2018 11280000 		.4byte	.LASF522
 9989 201c 00       		.byte	0
 9990 201d 20       		.uleb128 0x20
 9991 201e 46310000 		.4byte	.LASF523
 9992 2022 01       		.byte	0x1
 9993 2023 00       		.byte	0
 9994 2024 03       		.uleb128 0x3
 9995 2025 7A070000 		.4byte	.LASF524
 9996 2029 1F       		.byte	0x1f
 9997 202a FE       		.byte	0xfe
ARM GAS  C:\Users\CHRIST~1\AppData\Local\Temp\ccCFoZV9.s 			page 178


 9998 202b 0B200000 		.4byte	0x200b
 9999 202f 17       		.uleb128 0x17
 10000 2030 1C       		.byte	0x1c
 10001 2031 1F       		.byte	0x1f
 10002 2032 0901     		.2byte	0x109
 10003 2034 94200000 		.4byte	0x2094
 10004 2038 0A       		.uleb128 0xa
 10005 2039 210C0000 		.4byte	.LASF525
 10006 203d 1F       		.byte	0x1f
 10007 203e 0D01     		.2byte	0x10d
 10008 2040 F51F0000 		.4byte	0x1ff5
 10009 2044 00       		.byte	0
 10010 2045 0A       		.uleb128 0xa
 10011 2046 29380000 		.4byte	.LASF526
 10012 204a 1F       		.byte	0x1f
 10013 204b 1301     		.2byte	0x113
 10014 204d 00200000 		.4byte	0x2000
 10015 2051 04       		.byte	0x4
 10016 2052 0A       		.uleb128 0xa
 10017 2053 B1310000 		.4byte	.LASF527
 10018 2057 1F       		.byte	0x1f
 10019 2058 1701     		.2byte	0x117
 10020 205a A21E0000 		.4byte	0x1ea2
 10021 205e 08       		.byte	0x8
 10022 205f 0A       		.uleb128 0xa
 10023 2060 2C190000 		.4byte	.LASF528
 10024 2064 1F       		.byte	0x1f
 10025 2065 1B01     		.2byte	0x11b
 10026 2067 A21E0000 		.4byte	0x1ea2
 10027 206b 0C       		.byte	0xc
 10028 206c 0A       		.uleb128 0xa
 10029 206d 820F0000 		.4byte	.LASF529
 10030 2071 1F       		.byte	0x1f
 10031 2072 1F01     		.2byte	0x11f
 10032 2074 A21E0000 		.4byte	0x1ea2
 10033 2078 10       		.byte	0x10
 10034 2079 0A       		.uleb128 0xa
 10035 207a 1B1A0000 		.4byte	.LASF530
 10036 207e 1F       		.byte	0x1f
 10037 207f 2501     		.2byte	0x125
 10038 2081 24200000 		.4byte	0x2024
 10039 2085 14       		.byte	0x14
 10040 2086 0A       		.uleb128 0xa
 10041 2087 5D110000 		.4byte	.LASF531
 10042 208b 1F       		.byte	0x1f
 10043 208c 2B01     		.2byte	0x12b
 10044 208e 1E010000 		.4byte	0x11e
 10045 2092 18       		.byte	0x18
 10046 2093 00       		.byte	0
 10047 2094 18       		.uleb128 0x18
 10048 2095 73260000 		.4byte	.LASF532
 10049 2099 1F       		.byte	0x1f
 10050 209a 2C01     		.2byte	0x12c
 10051 209c 2F200000 		.4byte	0x202f
 10052 20a0 06       		.uleb128 0x6
 10053 20a1 94200000 		.4byte	0x2094
 10054 20a5 0B       		.uleb128 0xb
ARM GAS  C:\Users\CHRIST~1\AppData\Local\Temp\ccCFoZV9.s 			page 179


 10055 20a6 04       		.byte	0x4
 10056 20a7 A0200000 		.4byte	0x20a0
 10057 20ab 0B       		.uleb128 0xb
 10058 20ac 04       		.byte	0x4
 10059 20ad D01F0000 		.4byte	0x1fd0
 10060 20b1 13       		.uleb128 0x13
 10061 20b2 33310000 		.4byte	.LASF533
 10062 20b6 1F       		.byte	0x1f
 10063 20b7 8601     		.2byte	0x186
 10064 20b9 3B1E0000 		.4byte	0x1e3b
 10065 20bd 1F       		.uleb128 0x1f
 10066 20be 01       		.byte	0x1
 10067 20bf 49000000 		.4byte	0x49
 10068 20c3 21       		.byte	0x21
 10069 20c4 46       		.byte	0x46
 10070 20c5 E8200000 		.4byte	0x20e8
 10071 20c9 20       		.uleb128 0x20
 10072 20ca 00090000 		.4byte	.LASF534
 10073 20ce 00       		.byte	0
 10074 20cf 20       		.uleb128 0x20
 10075 20d0 BE030000 		.4byte	.LASF535
 10076 20d4 01       		.byte	0x1
 10077 20d5 20       		.uleb128 0x20
 10078 20d6 C6360000 		.4byte	.LASF536
 10079 20da 02       		.byte	0x2
 10080 20db 20       		.uleb128 0x20
 10081 20dc BC190000 		.4byte	.LASF537
 10082 20e0 03       		.byte	0x3
 10083 20e1 20       		.uleb128 0x20
 10084 20e2 D91D0000 		.4byte	.LASF538
 10085 20e6 04       		.byte	0x4
 10086 20e7 00       		.byte	0
 10087 20e8 03       		.uleb128 0x3
 10088 20e9 3D040000 		.4byte	.LASF539
 10089 20ed 21       		.byte	0x21
 10090 20ee 4C       		.byte	0x4c
 10091 20ef BD200000 		.4byte	0x20bd
 10092 20f3 18       		.uleb128 0x18
 10093 20f4 80330000 		.4byte	.LASF540
 10094 20f8 22       		.byte	0x22
 10095 20f9 9601     		.2byte	0x196
 10096 20fb FF200000 		.4byte	0x20ff
 10097 20ff 0C       		.uleb128 0xc
 10098 2100 80330000 		.4byte	.LASF540
 10099 2104 30       		.byte	0x30
 10100 2105 22       		.byte	0x22
 10101 2106 BA01     		.2byte	0x1ba
 10102 2108 82210000 		.4byte	0x2182
 10103 210c 0A       		.uleb128 0xa
 10104 210d C7210000 		.4byte	.LASF462
 10105 2111 22       		.byte	0x22
 10106 2112 BE01     		.2byte	0x1be
 10107 2114 E8200000 		.4byte	0x20e8
 10108 2118 00       		.byte	0
 10109 2119 0A       		.uleb128 0xa
 10110 211a CF350000 		.4byte	.LASF463
 10111 211e 22       		.byte	0x22
ARM GAS  C:\Users\CHRIST~1\AppData\Local\Temp\ccCFoZV9.s 			page 180


 10112 211f C201     		.2byte	0x1c2
 10113 2121 F4210000 		.4byte	0x21f4
 10114 2125 04       		.byte	0x4
 10115 2126 0A       		.uleb128 0xa
 10116 2127 E8080000 		.4byte	.LASF497
 10117 212b 22       		.byte	0x22
 10118 212c C701     		.2byte	0x1c7
 10119 212e D7020000 		.4byte	0x2d7
 10120 2132 08       		.byte	0x8
 10121 2133 0A       		.uleb128 0xa
 10122 2134 12120000 		.4byte	.LASF496
 10123 2138 22       		.byte	0x22
 10124 2139 CD01     		.2byte	0x1cd
 10125 213b 620E0000 		.4byte	0xe62
 10126 213f 0C       		.byte	0xc
 10127 2140 09       		.uleb128 0x9
 10128 2141 73706900 		.ascii	"spi\000"
 10129 2145 22       		.byte	0x22
 10130 2146 D601     		.2byte	0x1d6
 10131 2148 FA210000 		.4byte	0x21fa
 10132 214c 1C       		.byte	0x1c
 10133 214d 0A       		.uleb128 0xa
 10134 214e 67010000 		.4byte	.LASF501
 10135 2152 22       		.byte	0x22
 10136 2153 DA01     		.2byte	0x1da
 10137 2155 ED1D0000 		.4byte	0x1ded
 10138 2159 20       		.byte	0x20
 10139 215a 0A       		.uleb128 0xa
 10140 215b A6020000 		.4byte	.LASF502
 10141 215f 22       		.byte	0x22
 10142 2160 DE01     		.2byte	0x1de
 10143 2162 ED1D0000 		.4byte	0x1ded
 10144 2166 24       		.byte	0x24
 10145 2167 0A       		.uleb128 0xa
 10146 2168 0D0C0000 		.4byte	.LASF499
 10147 216c 22       		.byte	0x22
 10148 216d E201     		.2byte	0x1e2
 10149 216f 1E010000 		.4byte	0x11e
 10150 2173 28       		.byte	0x28
 10151 2174 0A       		.uleb128 0xa
 10152 2175 9E0C0000 		.4byte	.LASF500
 10153 2179 22       		.byte	0x22
 10154 217a E601     		.2byte	0x1e6
 10155 217c 1E010000 		.4byte	0x11e
 10156 2180 2C       		.byte	0x2c
 10157 2181 00       		.byte	0
 10158 2182 18       		.uleb128 0x18
 10159 2183 C4010000 		.4byte	.LASF541
 10160 2187 22       		.byte	0x22
 10161 2188 9E01     		.2byte	0x19e
 10162 218a 8E210000 		.4byte	0x218e
 10163 218e 0B       		.uleb128 0xb
 10164 218f 04       		.byte	0x4
 10165 2190 94210000 		.4byte	0x2194
 10166 2194 0D       		.uleb128 0xd
 10167 2195 9F210000 		.4byte	0x219f
 10168 2199 0E       		.uleb128 0xe
ARM GAS  C:\Users\CHRIST~1\AppData\Local\Temp\ccCFoZV9.s 			page 181


 10169 219a 9F210000 		.4byte	0x219f
 10170 219e 00       		.byte	0
 10171 219f 0B       		.uleb128 0xb
 10172 21a0 04       		.byte	0x4
 10173 21a1 F3200000 		.4byte	0x20f3
 10174 21a5 17       		.uleb128 0x17
 10175 21a6 0C       		.byte	0xc
 10176 21a7 22       		.byte	0x22
 10177 21a8 A301     		.2byte	0x1a3
 10178 21aa E3210000 		.4byte	0x21e3
 10179 21ae 0A       		.uleb128 0xa
 10180 21af 110D0000 		.4byte	.LASF542
 10181 21b3 22       		.byte	0x22
 10182 21b4 A701     		.2byte	0x1a7
 10183 21b6 82210000 		.4byte	0x2182
 10184 21ba 00       		.byte	0
 10185 21bb 0A       		.uleb128 0xa
 10186 21bc E5370000 		.4byte	.LASF543
 10187 21c0 22       		.byte	0x22
 10188 21c1 AC01     		.2byte	0x1ac
 10189 21c3 191B0000 		.4byte	0x1b19
 10190 21c7 04       		.byte	0x4
 10191 21c8 0A       		.uleb128 0xa
 10192 21c9 980C0000 		.4byte	.LASF544
 10193 21cd 22       		.byte	0x22
 10194 21ce B001     		.2byte	0x1b0
 10195 21d0 FE000000 		.4byte	0xfe
 10196 21d4 08       		.byte	0x8
 10197 21d5 09       		.uleb128 0x9
 10198 21d6 63723100 		.ascii	"cr1\000"
 10199 21da 22       		.byte	0x22
 10200 21db B401     		.2byte	0x1b4
 10201 21dd FE000000 		.4byte	0xfe
 10202 21e1 0A       		.byte	0xa
 10203 21e2 00       		.byte	0
 10204 21e3 18       		.uleb128 0x18
 10205 21e4 90330000 		.4byte	.LASF545
 10206 21e8 22       		.byte	0x22
 10207 21e9 B501     		.2byte	0x1b5
 10208 21eb A5210000 		.4byte	0x21a5
 10209 21ef 06       		.uleb128 0x6
 10210 21f0 E3210000 		.4byte	0x21e3
 10211 21f4 0B       		.uleb128 0xb
 10212 21f5 04       		.byte	0x4
 10213 21f6 EF210000 		.4byte	0x21ef
 10214 21fa 0B       		.uleb128 0xb
 10215 21fb 04       		.byte	0x4
 10216 21fc 0E090000 		.4byte	0x90e
 10217 2200 13       		.uleb128 0x13
 10218 2201 42240000 		.4byte	.LASF546
 10219 2205 22       		.byte	0x22
 10220 2206 F201     		.2byte	0x1f2
 10221 2208 F3200000 		.4byte	0x20f3
 10222 220c 1F       		.uleb128 0x1f
 10223 220d 01       		.byte	0x1
 10224 220e 49000000 		.4byte	0x49
 10225 2212 23       		.byte	0x23
ARM GAS  C:\Users\CHRIST~1\AppData\Local\Temp\ccCFoZV9.s 			page 182


 10226 2213 3D       		.byte	0x3d
 10227 2214 2B220000 		.4byte	0x222b
 10228 2218 20       		.uleb128 0x20
 10229 2219 0A110000 		.4byte	.LASF547
 10230 221d 00       		.byte	0
 10231 221e 20       		.uleb128 0x20
 10232 221f 212C0000 		.4byte	.LASF548
 10233 2223 01       		.byte	0x1
 10234 2224 20       		.uleb128 0x20
 10235 2225 BC1D0000 		.4byte	.LASF549
 10236 2229 02       		.byte	0x2
 10237 222a 00       		.byte	0
 10238 222b 03       		.uleb128 0x3
 10239 222c 4D240000 		.4byte	.LASF550
 10240 2230 23       		.byte	0x23
 10241 2231 41       		.byte	0x41
 10242 2232 0C220000 		.4byte	0x220c
 10243 2236 1F       		.uleb128 0x1f
 10244 2237 01       		.byte	0x1
 10245 2238 49000000 		.4byte	0x49
 10246 223c 23       		.byte	0x23
 10247 223d 46       		.byte	0x46
 10248 223e 55220000 		.4byte	0x2255
 10249 2242 20       		.uleb128 0x20
 10250 2243 CC000000 		.4byte	.LASF551
 10251 2247 00       		.byte	0
 10252 2248 20       		.uleb128 0x20
 10253 2249 230F0000 		.4byte	.LASF552
 10254 224d 01       		.byte	0x1
 10255 224e 20       		.uleb128 0x20
 10256 224f 473B0000 		.4byte	.LASF553
 10257 2253 02       		.byte	0x2
 10258 2254 00       		.byte	0
 10259 2255 03       		.uleb128 0x3
 10260 2256 E4340000 		.4byte	.LASF554
 10261 225a 23       		.byte	0x23
 10262 225b 4A       		.byte	0x4a
 10263 225c 36220000 		.4byte	0x2236
 10264 2260 1F       		.uleb128 0x1f
 10265 2261 01       		.byte	0x1
 10266 2262 49000000 		.4byte	0x49
 10267 2266 23       		.byte	0x23
 10268 2267 4F       		.byte	0x4f
 10269 2268 7F220000 		.4byte	0x227f
 10270 226c 20       		.uleb128 0x20
 10271 226d 7B220000 		.4byte	.LASF555
 10272 2271 00       		.byte	0
 10273 2272 20       		.uleb128 0x20
 10274 2273 8E0E0000 		.4byte	.LASF556
 10275 2277 01       		.byte	0x1
 10276 2278 20       		.uleb128 0x20
 10277 2279 88300000 		.4byte	.LASF557
 10278 227d 02       		.byte	0x2
 10279 227e 00       		.byte	0
 10280 227f 03       		.uleb128 0x3
 10281 2280 9A340000 		.4byte	.LASF558
 10282 2284 23       		.byte	0x23
ARM GAS  C:\Users\CHRIST~1\AppData\Local\Temp\ccCFoZV9.s 			page 183


 10283 2285 53       		.byte	0x53
 10284 2286 60220000 		.4byte	0x2260
 10285 228a 18       		.uleb128 0x18
 10286 228b 052C0000 		.4byte	.LASF559
 10287 228f 24       		.byte	0x24
 10288 2290 B101     		.2byte	0x1b1
 10289 2292 1E010000 		.4byte	0x11e
 10290 2296 18       		.uleb128 0x18
 10291 2297 E81B0000 		.4byte	.LASF560
 10292 229b 24       		.byte	0x24
 10293 229c B601     		.2byte	0x1b6
 10294 229e A2220000 		.4byte	0x22a2
 10295 22a2 0C       		.uleb128 0xc
 10296 22a3 E81B0000 		.4byte	.LASF560
 10297 22a7 1C       		.byte	0x1c
 10298 22a8 24       		.byte	0x24
 10299 22a9 FE01     		.2byte	0x1fe
 10300 22ab 25230000 		.4byte	0x2325
 10301 22af 0A       		.uleb128 0xa
 10302 22b0 C7210000 		.4byte	.LASF462
 10303 22b4 24       		.byte	0x24
 10304 22b5 0202     		.2byte	0x202
 10305 22b7 2B220000 		.4byte	0x222b
 10306 22bb 00       		.byte	0
 10307 22bc 0A       		.uleb128 0xa
 10308 22bd 573A0000 		.4byte	.LASF561
 10309 22c1 24       		.byte	0x24
 10310 22c2 0602     		.2byte	0x206
 10311 22c4 55220000 		.4byte	0x2255
 10312 22c8 01       		.byte	0x1
 10313 22c9 0A       		.uleb128 0xa
 10314 22ca C4200000 		.4byte	.LASF562
 10315 22ce 24       		.byte	0x24
 10316 22cf 0A02     		.2byte	0x20a
 10317 22d1 7F220000 		.4byte	0x227f
 10318 22d5 02       		.byte	0x2
 10319 22d6 0A       		.uleb128 0xa
 10320 22d7 CF350000 		.4byte	.LASF463
 10321 22db 24       		.byte	0x24
 10322 22dc 0E02     		.2byte	0x20e
 10323 22de 1C240000 		.4byte	0x241c
 10324 22e2 04       		.byte	0x4
 10325 22e3 0A       		.uleb128 0xa
 10326 22e4 CC270000 		.4byte	.LASF563
 10327 22e8 24       		.byte	0x24
 10328 22e9 1602     		.2byte	0x216
 10329 22eb 22240000 		.4byte	0x2422
 10330 22ef 08       		.byte	0x8
 10331 22f0 0A       		.uleb128 0xa
 10332 22f1 34240000 		.4byte	.LASF564
 10333 22f5 24       		.byte	0x24
 10334 22f6 1A02     		.2byte	0x21a
 10335 22f8 1E010000 		.4byte	0x11e
 10336 22fc 0C       		.byte	0xc
 10337 22fd 0A       		.uleb128 0xa
 10338 22fe 67010000 		.4byte	.LASF501
 10339 2302 24       		.byte	0x24
ARM GAS  C:\Users\CHRIST~1\AppData\Local\Temp\ccCFoZV9.s 			page 184


 10340 2303 1E02     		.2byte	0x21e
 10341 2305 ED1D0000 		.4byte	0x1ded
 10342 2309 10       		.byte	0x10
 10343 230a 0A       		.uleb128 0xa
 10344 230b A6020000 		.4byte	.LASF502
 10345 230f 24       		.byte	0x24
 10346 2310 2202     		.2byte	0x222
 10347 2312 ED1D0000 		.4byte	0x1ded
 10348 2316 14       		.byte	0x14
 10349 2317 0A       		.uleb128 0xa
 10350 2318 60100000 		.4byte	.LASF565
 10351 231c 24       		.byte	0x24
 10352 231d 2602     		.2byte	0x226
 10353 231f 09010000 		.4byte	0x109
 10354 2323 18       		.byte	0x18
 10355 2324 00       		.byte	0
 10356 2325 18       		.uleb128 0x18
 10357 2326 BD260000 		.4byte	.LASF566
 10358 232a 24       		.byte	0x24
 10359 232b BD01     		.2byte	0x1bd
 10360 232d 31230000 		.4byte	0x2331
 10361 2331 0B       		.uleb128 0xb
 10362 2332 04       		.byte	0x4
 10363 2333 37230000 		.4byte	0x2337
 10364 2337 0D       		.uleb128 0xd
 10365 2338 42230000 		.4byte	0x2342
 10366 233c 0E       		.uleb128 0xe
 10367 233d 42230000 		.4byte	0x2342
 10368 2341 00       		.byte	0
 10369 2342 0B       		.uleb128 0xb
 10370 2343 04       		.byte	0x4
 10371 2344 96220000 		.4byte	0x2296
 10372 2348 18       		.uleb128 0x18
 10373 2349 7B1D0000 		.4byte	.LASF567
 10374 234d 24       		.byte	0x24
 10375 234e C501     		.2byte	0x1c5
 10376 2350 54230000 		.4byte	0x2354
 10377 2354 0B       		.uleb128 0xb
 10378 2355 04       		.byte	0x4
 10379 2356 5A230000 		.4byte	0x235a
 10380 235a 0D       		.uleb128 0xd
 10381 235b 6A230000 		.4byte	0x236a
 10382 235f 0E       		.uleb128 0xe
 10383 2360 42230000 		.4byte	0x2342
 10384 2364 0E       		.uleb128 0xe
 10385 2365 FE000000 		.4byte	0xfe
 10386 2369 00       		.byte	0
 10387 236a 18       		.uleb128 0x18
 10388 236b 97050000 		.4byte	.LASF568
 10389 236f 24       		.byte	0x24
 10390 2370 CD01     		.2byte	0x1cd
 10391 2372 76230000 		.4byte	0x2376
 10392 2376 0B       		.uleb128 0xb
 10393 2377 04       		.byte	0x4
 10394 2378 7C230000 		.4byte	0x237c
 10395 237c 0D       		.uleb128 0xd
 10396 237d 8C230000 		.4byte	0x238c
ARM GAS  C:\Users\CHRIST~1\AppData\Local\Temp\ccCFoZV9.s 			page 185


 10397 2381 0E       		.uleb128 0xe
 10398 2382 42230000 		.4byte	0x2342
 10399 2386 0E       		.uleb128 0xe
 10400 2387 8A220000 		.4byte	0x228a
 10401 238b 00       		.byte	0
 10402 238c 17       		.uleb128 0x17
 10403 238d 20       		.byte	0x20
 10404 238e 24       		.byte	0x24
 10405 238f D301     		.2byte	0x1d3
 10406 2391 0B240000 		.4byte	0x240b
 10407 2395 0A       		.uleb128 0xa
 10408 2396 5E1C0000 		.4byte	.LASF569
 10409 239a 24       		.byte	0x24
 10410 239b D701     		.2byte	0x1d7
 10411 239d 25230000 		.4byte	0x2325
 10412 23a1 00       		.byte	0
 10413 23a2 0A       		.uleb128 0xa
 10414 23a3 692E0000 		.4byte	.LASF570
 10415 23a7 24       		.byte	0x24
 10416 23a8 DB01     		.2byte	0x1db
 10417 23aa 25230000 		.4byte	0x2325
 10418 23ae 04       		.byte	0x4
 10419 23af 0A       		.uleb128 0xa
 10420 23b0 532C0000 		.4byte	.LASF571
 10421 23b4 24       		.byte	0x24
 10422 23b5 DF01     		.2byte	0x1df
 10423 23b7 25230000 		.4byte	0x2325
 10424 23bb 08       		.byte	0x8
 10425 23bc 0A       		.uleb128 0xa
 10426 23bd BF1C0000 		.4byte	.LASF572
 10427 23c1 24       		.byte	0x24
 10428 23c2 E301     		.2byte	0x1e3
 10429 23c4 48230000 		.4byte	0x2348
 10430 23c8 0C       		.byte	0xc
 10431 23c9 0A       		.uleb128 0xa
 10432 23ca D4310000 		.4byte	.LASF573
 10433 23ce 24       		.byte	0x24
 10434 23cf E701     		.2byte	0x1e7
 10435 23d1 6A230000 		.4byte	0x236a
 10436 23d5 10       		.byte	0x10
 10437 23d6 0A       		.uleb128 0xa
 10438 23d7 552E0000 		.4byte	.LASF574
 10439 23db 24       		.byte	0x24
 10440 23dc EC01     		.2byte	0x1ec
 10441 23de 1E010000 		.4byte	0x11e
 10442 23e2 14       		.byte	0x14
 10443 23e3 09       		.uleb128 0x9
 10444 23e4 63723100 		.ascii	"cr1\000"
 10445 23e8 24       		.byte	0x24
 10446 23e9 F001     		.2byte	0x1f0
 10447 23eb FE000000 		.4byte	0xfe
 10448 23ef 18       		.byte	0x18
 10449 23f0 09       		.uleb128 0x9
 10450 23f1 63723200 		.ascii	"cr2\000"
 10451 23f5 24       		.byte	0x24
 10452 23f6 F401     		.2byte	0x1f4
 10453 23f8 FE000000 		.4byte	0xfe
ARM GAS  C:\Users\CHRIST~1\AppData\Local\Temp\ccCFoZV9.s 			page 186


 10454 23fc 1A       		.byte	0x1a
 10455 23fd 09       		.uleb128 0x9
 10456 23fe 63723300 		.ascii	"cr3\000"
 10457 2402 24       		.byte	0x24
 10458 2403 F801     		.2byte	0x1f8
 10459 2405 FE000000 		.4byte	0xfe
 10460 2409 1C       		.byte	0x1c
 10461 240a 00       		.byte	0
 10462 240b 18       		.uleb128 0x18
 10463 240c F81B0000 		.4byte	.LASF575
 10464 2410 24       		.byte	0x24
 10465 2411 F901     		.2byte	0x1f9
 10466 2413 8C230000 		.4byte	0x238c
 10467 2417 06       		.uleb128 0x6
 10468 2418 0B240000 		.4byte	0x240b
 10469 241c 0B       		.uleb128 0xb
 10470 241d 04       		.byte	0x4
 10471 241e 17240000 		.4byte	0x2417
 10472 2422 0B       		.uleb128 0xb
 10473 2423 04       		.byte	0x4
 10474 2424 A20A0000 		.4byte	0xaa2
 10475 2428 13       		.uleb128 0x13
 10476 2429 681C0000 		.4byte	.LASF576
 10477 242d 24       		.byte	0x24
 10478 242e 3A02     		.2byte	0x23a
 10479 2430 96220000 		.4byte	0x2296
 10480 2434 13       		.uleb128 0x13
 10481 2435 8A1C0000 		.4byte	.LASF577
 10482 2439 24       		.byte	0x24
 10483 243a 4602     		.2byte	0x246
 10484 243c 96220000 		.4byte	0x2296
 10485 2440 03       		.uleb128 0x3
 10486 2441 F7190000 		.4byte	.LASF578
 10487 2445 25       		.byte	0x25
 10488 2446 FA       		.byte	0xfa
 10489 2447 4B240000 		.4byte	0x244b
 10490 244b 10       		.uleb128 0x10
 10491 244c F7190000 		.4byte	.LASF578
 10492 2450 8002     		.2byte	0x280
 10493 2452 26       		.byte	0x26
 10494 2453 7701     		.2byte	0x177
 10495 2455 77250000 		.4byte	0x2577
 10496 2459 0A       		.uleb128 0xa
 10497 245a C7210000 		.4byte	.LASF462
 10498 245e 26       		.byte	0x26
 10499 245f 7B01     		.2byte	0x17b
 10500 2461 AE250000 		.4byte	0x25ae
 10501 2465 00       		.byte	0
 10502 2466 0A       		.uleb128 0xa
 10503 2467 CF350000 		.4byte	.LASF463
 10504 246b 26       		.byte	0x26
 10505 246c 7F01     		.2byte	0x17f
 10506 246e CF2E0000 		.4byte	0x2ecf
 10507 2472 04       		.byte	0x4
 10508 2473 0A       		.uleb128 0xa
 10509 2474 E3330000 		.4byte	.LASF579
 10510 2478 26       		.byte	0x26
ARM GAS  C:\Users\CHRIST~1\AppData\Local\Temp\ccCFoZV9.s 			page 187


 10511 2479 8301     		.2byte	0x183
 10512 247b FE000000 		.4byte	0xfe
 10513 247f 08       		.byte	0x8
 10514 2480 0A       		.uleb128 0xa
 10515 2481 18380000 		.4byte	.LASF580
 10516 2485 26       		.byte	0x26
 10517 2486 8701     		.2byte	0x187
 10518 2488 FE000000 		.4byte	0xfe
 10519 248c 0A       		.byte	0xa
 10520 248d 09       		.uleb128 0x9
 10521 248e 65706300 		.ascii	"epc\000"
 10522 2492 26       		.byte	0x26
 10523 2493 8B01     		.2byte	0x18b
 10524 2495 D52E0000 		.4byte	0x2ed5
 10525 2499 0C       		.byte	0xc
 10526 249a 0A       		.uleb128 0xa
 10527 249b 5C090000 		.4byte	.LASF581
 10528 249f 26       		.byte	0x26
 10529 24a0 9201     		.2byte	0x192
 10530 24a2 EB2E0000 		.4byte	0x2eeb
 10531 24a6 1C       		.byte	0x1c
 10532 24a7 0A       		.uleb128 0xa
 10533 24a8 26110000 		.4byte	.LASF582
 10534 24ac 26       		.byte	0x26
 10535 24ad 9901     		.2byte	0x199
 10536 24af EB2E0000 		.4byte	0x2eeb
 10537 24b3 28       		.byte	0x28
 10538 24b4 0A       		.uleb128 0xa
 10539 24b5 9E0D0000 		.4byte	.LASF583
 10540 24b9 26       		.byte	0x26
 10541 24ba 9D01     		.2byte	0x19d
 10542 24bc F2250000 		.4byte	0x25f2
 10543 24c0 34       		.byte	0x34
 10544 24c1 0A       		.uleb128 0xa
 10545 24c2 52060000 		.4byte	.LASF584
 10546 24c6 26       		.byte	0x26
 10547 24c7 A101     		.2byte	0x1a1
 10548 24c9 8B0F0000 		.4byte	0xf8b
 10549 24cd 38       		.byte	0x38
 10550 24ce 0A       		.uleb128 0xa
 10551 24cf 9C230000 		.4byte	.LASF585
 10552 24d3 26       		.byte	0x26
 10553 24d4 A501     		.2byte	0x1a5
 10554 24d6 39010000 		.4byte	0x139
 10555 24da 3C       		.byte	0x3c
 10556 24db 0A       		.uleb128 0xa
 10557 24dc 662F0000 		.4byte	.LASF586
 10558 24e0 26       		.byte	0x26
 10559 24e1 A901     		.2byte	0x1a9
 10560 24e3 71260000 		.4byte	0x2671
 10561 24e7 40       		.byte	0x40
 10562 24e8 0A       		.uleb128 0xa
 10563 24e9 FA080000 		.4byte	.LASF587
 10564 24ed 26       		.byte	0x26
 10565 24ee AD01     		.2byte	0x1ad
 10566 24f0 61160000 		.4byte	0x1661
 10567 24f4 44       		.byte	0x44
ARM GAS  C:\Users\CHRIST~1\AppData\Local\Temp\ccCFoZV9.s 			page 188


 10568 24f5 0A       		.uleb128 0xa
 10569 24f6 6C200000 		.4byte	.LASF588
 10570 24fa 26       		.byte	0x26
 10571 24fb B101     		.2byte	0x1b1
 10572 24fd FE000000 		.4byte	0xfe
 10573 2501 4C       		.byte	0x4c
 10574 2502 0A       		.uleb128 0xa
 10575 2503 1F210000 		.4byte	.LASF589
 10576 2507 26       		.byte	0x26
 10577 2508 B501     		.2byte	0x1b5
 10578 250a D9000000 		.4byte	0xd9
 10579 250e 4E       		.byte	0x4e
 10580 250f 0A       		.uleb128 0xa
 10581 2510 B2280000 		.4byte	.LASF590
 10582 2514 26       		.byte	0x26
 10583 2515 B901     		.2byte	0x1b9
 10584 2517 D9000000 		.4byte	0xd9
 10585 251b 4F       		.byte	0x4f
 10586 251c 09       		.uleb128 0x9
 10587 251d 6F746700 		.ascii	"otg\000"
 10588 2521 26       		.byte	0x26
 10589 2522 C101     		.2byte	0x1c1
 10590 2524 FB2E0000 		.4byte	0x2efb
 10591 2528 50       		.byte	0x50
 10592 2529 0A       		.uleb128 0xa
 10593 252a 1B140000 		.4byte	.LASF591
 10594 252e 26       		.byte	0x26
 10595 252f C501     		.2byte	0x1c5
 10596 2531 012F0000 		.4byte	0x2f01
 10597 2535 54       		.byte	0x54
 10598 2536 0A       		.uleb128 0xa
 10599 2537 1C310000 		.4byte	.LASF592
 10600 253b 26       		.byte	0x26
 10601 253c C901     		.2byte	0x1c9
 10602 253e 1E010000 		.4byte	0x11e
 10603 2542 58       		.byte	0x58
 10604 2543 0A       		.uleb128 0xa
 10605 2544 70120000 		.4byte	.LASF593
 10606 2548 26       		.byte	0x26
 10607 2549 CD01     		.2byte	0x1cd
 10608 254b 1E010000 		.4byte	0x11e
 10609 254f 5C       		.byte	0x5c
 10610 2550 0A       		.uleb128 0xa
 10611 2551 5A0A0000 		.4byte	.LASF594
 10612 2555 26       		.byte	0x26
 10613 2556 D101     		.2byte	0x1d1
 10614 2558 D7020000 		.4byte	0x2d7
 10615 255c 60       		.byte	0x60
 10616 255d 09       		.uleb128 0x9
 10617 255e 747200   		.ascii	"tr\000"
 10618 2561 26       		.byte	0x26
 10619 2562 D601     		.2byte	0x1d6
 10620 2564 D7020000 		.4byte	0x2d7
 10621 2568 64       		.byte	0x64
 10622 2569 0A       		.uleb128 0xa
 10623 256a F81E0000 		.4byte	.LASF595
 10624 256e 26       		.byte	0x26
ARM GAS  C:\Users\CHRIST~1\AppData\Local\Temp\ccCFoZV9.s 			page 189


 10625 256f DA01     		.2byte	0x1da
 10626 2571 072F0000 		.4byte	0x2f07
 10627 2575 68       		.byte	0x68
 10628 2576 00       		.byte	0
 10629 2577 03       		.uleb128 0x3
 10630 2578 EE010000 		.4byte	.LASF596
 10631 257c 25       		.byte	0x25
 10632 257d FF       		.byte	0xff
 10633 257e D9000000 		.4byte	0xd9
 10634 2582 23       		.uleb128 0x23
 10635 2583 01       		.byte	0x1
 10636 2584 49000000 		.4byte	0x49
 10637 2588 25       		.byte	0x25
 10638 2589 0401     		.2byte	0x104
 10639 258b AE250000 		.4byte	0x25ae
 10640 258f 20       		.uleb128 0x20
 10641 2590 9E390000 		.4byte	.LASF597
 10642 2594 00       		.byte	0
 10643 2595 20       		.uleb128 0x20
 10644 2596 00000000 		.4byte	.LASF598
 10645 259a 01       		.byte	0x1
 10646 259b 20       		.uleb128 0x20
 10647 259c 521D0000 		.4byte	.LASF599
 10648 25a0 02       		.byte	0x2
 10649 25a1 20       		.uleb128 0x20
 10650 25a2 CE250000 		.4byte	.LASF600
 10651 25a6 03       		.byte	0x3
 10652 25a7 20       		.uleb128 0x20
 10653 25a8 A20A0000 		.4byte	.LASF601
 10654 25ac 04       		.byte	0x4
 10655 25ad 00       		.byte	0
 10656 25ae 18       		.uleb128 0x18
 10657 25af 40340000 		.4byte	.LASF602
 10658 25b3 25       		.byte	0x25
 10659 25b4 0A01     		.2byte	0x10a
 10660 25b6 82250000 		.4byte	0x2582
 10661 25ba 23       		.uleb128 0x23
 10662 25bb 01       		.byte	0x1
 10663 25bc 49000000 		.4byte	0x49
 10664 25c0 25       		.byte	0x25
 10665 25c1 1801     		.2byte	0x118
 10666 25c3 F2250000 		.4byte	0x25f2
 10667 25c7 20       		.uleb128 0x20
 10668 25c8 E12E0000 		.4byte	.LASF603
 10669 25cc 00       		.byte	0
 10670 25cd 20       		.uleb128 0x20
 10671 25ce F6160000 		.4byte	.LASF604
 10672 25d2 01       		.byte	0x1
 10673 25d3 20       		.uleb128 0x20
 10674 25d4 A22A0000 		.4byte	.LASF605
 10675 25d8 02       		.byte	0x2
 10676 25d9 20       		.uleb128 0x20
 10677 25da DF210000 		.4byte	.LASF606
 10678 25de 03       		.byte	0x3
 10679 25df 20       		.uleb128 0x20
 10680 25e0 15200000 		.4byte	.LASF607
 10681 25e4 04       		.byte	0x4
ARM GAS  C:\Users\CHRIST~1\AppData\Local\Temp\ccCFoZV9.s 			page 190


 10682 25e5 20       		.uleb128 0x20
 10683 25e6 0C190000 		.4byte	.LASF608
 10684 25ea 05       		.byte	0x5
 10685 25eb 20       		.uleb128 0x20
 10686 25ec 7F150000 		.4byte	.LASF609
 10687 25f0 06       		.byte	0x6
 10688 25f1 00       		.byte	0
 10689 25f2 18       		.uleb128 0x18
 10690 25f3 A3190000 		.4byte	.LASF610
 10691 25f7 25       		.byte	0x25
 10692 25f8 2001     		.2byte	0x120
 10693 25fa BA250000 		.4byte	0x25ba
 10694 25fe 23       		.uleb128 0x23
 10695 25ff 01       		.byte	0x1
 10696 2600 49000000 		.4byte	0x49
 10697 2604 25       		.byte	0x25
 10698 2605 2501     		.2byte	0x125
 10699 2607 30260000 		.4byte	0x2630
 10700 260b 20       		.uleb128 0x20
 10701 260c B8250000 		.4byte	.LASF611
 10702 2610 00       		.byte	0
 10703 2611 20       		.uleb128 0x20
 10704 2612 78360000 		.4byte	.LASF612
 10705 2616 01       		.byte	0x1
 10706 2617 20       		.uleb128 0x20
 10707 2618 8F1E0000 		.4byte	.LASF613
 10708 261c 02       		.byte	0x2
 10709 261d 20       		.uleb128 0x20
 10710 261e 681F0000 		.4byte	.LASF614
 10711 2622 03       		.byte	0x3
 10712 2623 20       		.uleb128 0x20
 10713 2624 4F370000 		.4byte	.LASF615
 10714 2628 04       		.byte	0x4
 10715 2629 20       		.uleb128 0x20
 10716 262a 241E0000 		.4byte	.LASF616
 10717 262e 05       		.byte	0x5
 10718 262f 00       		.byte	0
 10719 2630 18       		.uleb128 0x18
 10720 2631 1C270000 		.4byte	.LASF617
 10721 2635 25       		.byte	0x25
 10722 2636 2C01     		.2byte	0x12c
 10723 2638 FE250000 		.4byte	0x25fe
 10724 263c 17       		.uleb128 0x17
 10725 263d 08       		.byte	0x8
 10726 263e 25       		.byte	0x25
 10727 263f 3101     		.2byte	0x131
 10728 2641 60260000 		.4byte	0x2660
 10729 2645 0A       		.uleb128 0xa
 10730 2646 C73A0000 		.4byte	.LASF618
 10731 264a 25       		.byte	0x25
 10732 264b 3501     		.2byte	0x135
 10733 264d 39010000 		.4byte	0x139
 10734 2651 00       		.byte	0
 10735 2652 0A       		.uleb128 0xa
 10736 2653 F1050000 		.4byte	.LASF619
 10737 2657 25       		.byte	0x25
 10738 2658 3901     		.2byte	0x139
ARM GAS  C:\Users\CHRIST~1\AppData\Local\Temp\ccCFoZV9.s 			page 191


 10739 265a A70F0000 		.4byte	0xfa7
 10740 265e 04       		.byte	0x4
 10741 265f 00       		.byte	0
 10742 2660 18       		.uleb128 0x18
 10743 2661 9B200000 		.4byte	.LASF620
 10744 2665 25       		.byte	0x25
 10745 2666 3A01     		.2byte	0x13a
 10746 2668 3C260000 		.4byte	0x263c
 10747 266c 06       		.uleb128 0x6
 10748 266d 60260000 		.4byte	0x2660
 10749 2671 18       		.uleb128 0x18
 10750 2672 FA390000 		.4byte	.LASF621
 10751 2676 25       		.byte	0x25
 10752 2677 4201     		.2byte	0x142
 10753 2679 7D260000 		.4byte	0x267d
 10754 267d 0B       		.uleb128 0xb
 10755 267e 04       		.byte	0x4
 10756 267f 83260000 		.4byte	0x2683
 10757 2683 0D       		.uleb128 0xd
 10758 2684 8E260000 		.4byte	0x268e
 10759 2688 0E       		.uleb128 0xe
 10760 2689 8E260000 		.4byte	0x268e
 10761 268d 00       		.byte	0
 10762 268e 0B       		.uleb128 0xb
 10763 268f 04       		.byte	0x4
 10764 2690 40240000 		.4byte	0x2440
 10765 2694 18       		.uleb128 0x18
 10766 2695 5A060000 		.4byte	.LASF622
 10767 2699 25       		.byte	0x25
 10768 269a 4B01     		.2byte	0x14b
 10769 269c A0260000 		.4byte	0x26a0
 10770 26a0 0B       		.uleb128 0xb
 10771 26a1 04       		.byte	0x4
 10772 26a2 A6260000 		.4byte	0x26a6
 10773 26a6 0D       		.uleb128 0xd
 10774 26a7 B6260000 		.4byte	0x26b6
 10775 26ab 0E       		.uleb128 0xe
 10776 26ac 8E260000 		.4byte	0x268e
 10777 26b0 0E       		.uleb128 0xe
 10778 26b1 77250000 		.4byte	0x2577
 10779 26b5 00       		.byte	0
 10780 26b6 18       		.uleb128 0x18
 10781 26b7 B80F0000 		.4byte	.LASF623
 10782 26bb 25       		.byte	0x25
 10783 26bc 5401     		.2byte	0x154
 10784 26be C2260000 		.4byte	0x26c2
 10785 26c2 0B       		.uleb128 0xb
 10786 26c3 04       		.byte	0x4
 10787 26c4 C8260000 		.4byte	0x26c8
 10788 26c8 0D       		.uleb128 0xd
 10789 26c9 D8260000 		.4byte	0x26d8
 10790 26cd 0E       		.uleb128 0xe
 10791 26ce 8E260000 		.4byte	0x268e
 10792 26d2 0E       		.uleb128 0xe
 10793 26d3 30260000 		.4byte	0x2630
 10794 26d7 00       		.byte	0
 10795 26d8 18       		.uleb128 0x18
ARM GAS  C:\Users\CHRIST~1\AppData\Local\Temp\ccCFoZV9.s 			page 192


 10796 26d9 49250000 		.4byte	.LASF624
 10797 26dd 25       		.byte	0x25
 10798 26de 6001     		.2byte	0x160
 10799 26e0 E4260000 		.4byte	0x26e4
 10800 26e4 0B       		.uleb128 0xb
 10801 26e5 04       		.byte	0x4
 10802 26e6 EA260000 		.4byte	0x26ea
 10803 26ea 26       		.uleb128 0x26
 10804 26eb 45160000 		.4byte	0x1645
 10805 26ef F9260000 		.4byte	0x26f9
 10806 26f3 0E       		.uleb128 0xe
 10807 26f4 8E260000 		.4byte	0x268e
 10808 26f8 00       		.byte	0
 10809 26f9 18       		.uleb128 0x18
 10810 26fa 98160000 		.4byte	.LASF625
 10811 26fe 25       		.byte	0x25
 10812 26ff 6501     		.2byte	0x165
 10813 2701 05270000 		.4byte	0x2705
 10814 2705 0B       		.uleb128 0xb
 10815 2706 04       		.byte	0x4
 10816 2707 0B270000 		.4byte	0x270b
 10817 270b 26       		.uleb128 0x26
 10818 270c 29270000 		.4byte	0x2729
 10819 2710 29270000 		.4byte	0x2729
 10820 2714 0E       		.uleb128 0xe
 10821 2715 8E260000 		.4byte	0x268e
 10822 2719 0E       		.uleb128 0xe
 10823 271a D9000000 		.4byte	0xd9
 10824 271e 0E       		.uleb128 0xe
 10825 271f D9000000 		.4byte	0xd9
 10826 2723 0E       		.uleb128 0xe
 10827 2724 FE000000 		.4byte	0xfe
 10828 2728 00       		.byte	0
 10829 2729 0B       		.uleb128 0xb
 10830 272a 04       		.byte	0x4
 10831 272b 6C260000 		.4byte	0x266c
 10832 272f 15       		.uleb128 0x15
 10833 2730 20       		.byte	0x20
 10834 2731 27       		.byte	0x27
 10835 2732 35       		.byte	0x35
 10836 2733 98270000 		.4byte	0x2798
 10837 2737 08       		.uleb128 0x8
 10838 2738 65040000 		.4byte	.LASF626
 10839 273c 27       		.byte	0x27
 10840 273d 36       		.byte	0x36
 10841 273e 29010000 		.4byte	0x129
 10842 2742 00       		.byte	0
 10843 2743 08       		.uleb128 0x8
 10844 2744 D7120000 		.4byte	.LASF627
 10845 2748 27       		.byte	0x27
 10846 2749 38       		.byte	0x38
 10847 274a 29010000 		.4byte	0x129
 10848 274e 04       		.byte	0x4
 10849 274f 08       		.uleb128 0x8
 10850 2750 86030000 		.4byte	.LASF628
 10851 2754 27       		.byte	0x27
 10852 2755 39       		.byte	0x39
ARM GAS  C:\Users\CHRIST~1\AppData\Local\Temp\ccCFoZV9.s 			page 193


 10853 2756 29010000 		.4byte	0x129
 10854 275a 08       		.byte	0x8
 10855 275b 08       		.uleb128 0x8
 10856 275c 902B0000 		.4byte	.LASF629
 10857 2760 27       		.byte	0x27
 10858 2761 3A       		.byte	0x3a
 10859 2762 29010000 		.4byte	0x129
 10860 2766 0C       		.byte	0xc
 10861 2767 08       		.uleb128 0x8
 10862 2768 881E0000 		.4byte	.LASF630
 10863 276c 27       		.byte	0x27
 10864 276d 3C       		.byte	0x3c
 10865 276e 29010000 		.4byte	0x129
 10866 2772 10       		.byte	0x10
 10867 2773 08       		.uleb128 0x8
 10868 2774 3D130000 		.4byte	.LASF631
 10869 2778 27       		.byte	0x27
 10870 2779 3E       		.byte	0x3e
 10871 277a 29010000 		.4byte	0x129
 10872 277e 14       		.byte	0x14
 10873 277f 08       		.uleb128 0x8
 10874 2780 62130000 		.4byte	.LASF632
 10875 2784 27       		.byte	0x27
 10876 2785 3F       		.byte	0x3f
 10877 2786 29010000 		.4byte	0x129
 10878 278a 18       		.byte	0x18
 10879 278b 08       		.uleb128 0x8
 10880 278c DB330000 		.4byte	.LASF633
 10881 2790 27       		.byte	0x27
 10882 2791 40       		.byte	0x40
 10883 2792 29010000 		.4byte	0x129
 10884 2796 1C       		.byte	0x1c
 10885 2797 00       		.byte	0
 10886 2798 03       		.uleb128 0x3
 10887 2799 D42A0000 		.4byte	.LASF634
 10888 279d 27       		.byte	0x27
 10889 279e 41       		.byte	0x41
 10890 279f 2F270000 		.4byte	0x272f
 10891 27a3 15       		.uleb128 0x15
 10892 27a4 20       		.byte	0x20
 10893 27a5 27       		.byte	0x27
 10894 27a6 46       		.byte	0x46
 10895 27a7 0C280000 		.4byte	0x280c
 10896 27ab 08       		.uleb128 0x8
 10897 27ac F1130000 		.4byte	.LASF635
 10898 27b0 27       		.byte	0x27
 10899 27b1 47       		.byte	0x47
 10900 27b2 29010000 		.4byte	0x129
 10901 27b6 00       		.byte	0
 10902 27b7 08       		.uleb128 0x8
 10903 27b8 D0120000 		.4byte	.LASF636
 10904 27bc 27       		.byte	0x27
 10905 27bd 49       		.byte	0x49
 10906 27be 29010000 		.4byte	0x129
 10907 27c2 04       		.byte	0x4
 10908 27c3 08       		.uleb128 0x8
 10909 27c4 1D320000 		.4byte	.LASF637
ARM GAS  C:\Users\CHRIST~1\AppData\Local\Temp\ccCFoZV9.s 			page 194


 10910 27c8 27       		.byte	0x27
 10911 27c9 4A       		.byte	0x4a
 10912 27ca 29010000 		.4byte	0x129
 10913 27ce 08       		.byte	0x8
 10914 27cf 08       		.uleb128 0x8
 10915 27d0 141A0000 		.4byte	.LASF638
 10916 27d4 27       		.byte	0x27
 10917 27d5 4C       		.byte	0x4c
 10918 27d6 29010000 		.4byte	0x129
 10919 27da 0C       		.byte	0xc
 10920 27db 08       		.uleb128 0x8
 10921 27dc BF220000 		.4byte	.LASF639
 10922 27e0 27       		.byte	0x27
 10923 27e1 4D       		.byte	0x4d
 10924 27e2 29010000 		.4byte	0x129
 10925 27e6 10       		.byte	0x10
 10926 27e7 08       		.uleb128 0x8
 10927 27e8 3D130000 		.4byte	.LASF631
 10928 27ec 27       		.byte	0x27
 10929 27ed 4F       		.byte	0x4f
 10930 27ee 29010000 		.4byte	0x129
 10931 27f2 14       		.byte	0x14
 10932 27f3 08       		.uleb128 0x8
 10933 27f4 34090000 		.4byte	.LASF640
 10934 27f8 27       		.byte	0x27
 10935 27f9 50       		.byte	0x50
 10936 27fa 29010000 		.4byte	0x129
 10937 27fe 18       		.byte	0x18
 10938 27ff 08       		.uleb128 0x8
 10939 2800 06320000 		.4byte	.LASF641
 10940 2804 27       		.byte	0x27
 10941 2805 52       		.byte	0x52
 10942 2806 29010000 		.4byte	0x129
 10943 280a 1C       		.byte	0x1c
 10944 280b 00       		.byte	0
 10945 280c 03       		.uleb128 0x3
 10946 280d F50B0000 		.4byte	.LASF642
 10947 2811 27       		.byte	0x27
 10948 2812 53       		.byte	0x53
 10949 2813 A3270000 		.4byte	0x27a3
 10950 2817 15       		.uleb128 0x15
 10951 2818 20       		.byte	0x20
 10952 2819 27       		.byte	0x27
 10953 281a 58       		.byte	0x58
 10954 281b 80280000 		.4byte	0x2880
 10955 281f 08       		.uleb128 0x8
 10956 2820 622B0000 		.4byte	.LASF643
 10957 2824 27       		.byte	0x27
 10958 2825 59       		.byte	0x59
 10959 2826 29010000 		.4byte	0x129
 10960 282a 00       		.byte	0
 10961 282b 08       		.uleb128 0x8
 10962 282c D0120000 		.4byte	.LASF636
 10963 2830 27       		.byte	0x27
 10964 2831 5B       		.byte	0x5b
 10965 2832 29010000 		.4byte	0x129
 10966 2836 04       		.byte	0x4
ARM GAS  C:\Users\CHRIST~1\AppData\Local\Temp\ccCFoZV9.s 			page 195


 10967 2837 08       		.uleb128 0x8
 10968 2838 C9240000 		.4byte	.LASF644
 10969 283c 27       		.byte	0x27
 10970 283d 5C       		.byte	0x5c
 10971 283e 29010000 		.4byte	0x129
 10972 2842 08       		.byte	0x8
 10973 2843 08       		.uleb128 0x8
 10974 2844 141A0000 		.4byte	.LASF638
 10975 2848 27       		.byte	0x27
 10976 2849 5E       		.byte	0x5e
 10977 284a 29010000 		.4byte	0x129
 10978 284e 0C       		.byte	0xc
 10979 284f 08       		.uleb128 0x8
 10980 2850 4B340000 		.4byte	.LASF645
 10981 2854 27       		.byte	0x27
 10982 2855 5F       		.byte	0x5f
 10983 2856 29010000 		.4byte	0x129
 10984 285a 10       		.byte	0x10
 10985 285b 08       		.uleb128 0x8
 10986 285c 3D130000 		.4byte	.LASF631
 10987 2860 27       		.byte	0x27
 10988 2861 61       		.byte	0x61
 10989 2862 29010000 		.4byte	0x129
 10990 2866 14       		.byte	0x14
 10991 2867 08       		.uleb128 0x8
 10992 2868 62130000 		.4byte	.LASF632
 10993 286c 27       		.byte	0x27
 10994 286d 62       		.byte	0x62
 10995 286e 29010000 		.4byte	0x129
 10996 2872 18       		.byte	0x18
 10997 2873 08       		.uleb128 0x8
 10998 2874 06320000 		.4byte	.LASF641
 10999 2878 27       		.byte	0x27
 11000 2879 63       		.byte	0x63
 11001 287a 29010000 		.4byte	0x129
 11002 287e 1C       		.byte	0x1c
 11003 287f 00       		.byte	0
 11004 2880 03       		.uleb128 0x3
 11005 2881 52230000 		.4byte	.LASF646
 11006 2885 27       		.byte	0x27
 11007 2886 64       		.byte	0x64
 11008 2887 17280000 		.4byte	0x2817
 11009 288b 27       		.uleb128 0x27
 11010 288c 00100100 		.4byte	0x11000
 11011 2890 27       		.byte	0x27
 11012 2891 69       		.byte	0x69
 11013 2892 682B0000 		.4byte	0x2b68
 11014 2896 08       		.uleb128 0x8
 11015 2897 4A060000 		.4byte	.LASF647
 11016 289b 27       		.byte	0x27
 11017 289c 6A       		.byte	0x6a
 11018 289d 29010000 		.4byte	0x129
 11019 28a1 00       		.byte	0
 11020 28a2 08       		.uleb128 0x8
 11021 28a3 02110000 		.4byte	.LASF648
 11022 28a7 27       		.byte	0x27
 11023 28a8 6B       		.byte	0x6b
ARM GAS  C:\Users\CHRIST~1\AppData\Local\Temp\ccCFoZV9.s 			page 196


 11024 28a9 29010000 		.4byte	0x129
 11025 28ad 04       		.byte	0x4
 11026 28ae 08       		.uleb128 0x8
 11027 28af A1090000 		.4byte	.LASF649
 11028 28b3 27       		.byte	0x27
 11029 28b4 6C       		.byte	0x6c
 11030 28b5 29010000 		.4byte	0x129
 11031 28b9 08       		.byte	0x8
 11032 28ba 08       		.uleb128 0x8
 11033 28bb 233A0000 		.4byte	.LASF650
 11034 28bf 27       		.byte	0x27
 11035 28c0 6D       		.byte	0x6d
 11036 28c1 29010000 		.4byte	0x129
 11037 28c5 0C       		.byte	0xc
 11038 28c6 08       		.uleb128 0x8
 11039 28c7 731D0000 		.4byte	.LASF651
 11040 28cb 27       		.byte	0x27
 11041 28cc 6E       		.byte	0x6e
 11042 28cd 29010000 		.4byte	0x129
 11043 28d1 10       		.byte	0x10
 11044 28d2 08       		.uleb128 0x8
 11045 28d3 66100000 		.4byte	.LASF652
 11046 28d7 27       		.byte	0x27
 11047 28d8 6F       		.byte	0x6f
 11048 28d9 29010000 		.4byte	0x129
 11049 28dd 14       		.byte	0x14
 11050 28de 08       		.uleb128 0x8
 11051 28df 6E280000 		.4byte	.LASF653
 11052 28e3 27       		.byte	0x27
 11053 28e4 70       		.byte	0x70
 11054 28e5 29010000 		.4byte	0x129
 11055 28e9 18       		.byte	0x18
 11056 28ea 08       		.uleb128 0x8
 11057 28eb 4D0A0000 		.4byte	.LASF654
 11058 28ef 27       		.byte	0x27
 11059 28f0 71       		.byte	0x71
 11060 28f1 29010000 		.4byte	0x129
 11061 28f5 1C       		.byte	0x1c
 11062 28f6 08       		.uleb128 0x8
 11063 28f7 450A0000 		.4byte	.LASF655
 11064 28fb 27       		.byte	0x27
 11065 28fc 73       		.byte	0x73
 11066 28fd 29010000 		.4byte	0x129
 11067 2901 20       		.byte	0x20
 11068 2902 08       		.uleb128 0x8
 11069 2903 A6270000 		.4byte	.LASF656
 11070 2907 27       		.byte	0x27
 11071 2908 75       		.byte	0x75
 11072 2909 29010000 		.4byte	0x129
 11073 290d 24       		.byte	0x24
 11074 290e 08       		.uleb128 0x8
 11075 290f 20010000 		.4byte	.LASF657
 11076 2913 27       		.byte	0x27
 11077 2914 76       		.byte	0x76
 11078 2915 29010000 		.4byte	0x129
 11079 2919 28       		.byte	0x28
 11080 291a 08       		.uleb128 0x8
ARM GAS  C:\Users\CHRIST~1\AppData\Local\Temp\ccCFoZV9.s 			page 197


 11081 291b 84280000 		.4byte	.LASF658
 11082 291f 27       		.byte	0x27
 11083 2920 78       		.byte	0x78
 11084 2921 29010000 		.4byte	0x129
 11085 2925 2C       		.byte	0x2c
 11086 2926 08       		.uleb128 0x8
 11087 2927 0A150000 		.4byte	.LASF659
 11088 292b 27       		.byte	0x27
 11089 292c 7A       		.byte	0x7a
 11090 292d 29010000 		.4byte	0x129
 11091 2931 30       		.byte	0x30
 11092 2932 08       		.uleb128 0x8
 11093 2933 19150000 		.4byte	.LASF660
 11094 2937 27       		.byte	0x27
 11095 2938 7B       		.byte	0x7b
 11096 2939 29010000 		.4byte	0x129
 11097 293d 34       		.byte	0x34
 11098 293e 08       		.uleb128 0x8
 11099 293f 3E020000 		.4byte	.LASF661
 11100 2943 27       		.byte	0x27
 11101 2944 7C       		.byte	0x7c
 11102 2945 29010000 		.4byte	0x129
 11103 2949 38       		.byte	0x38
 11104 294a 16       		.uleb128 0x16
 11105 294b 43494400 		.ascii	"CID\000"
 11106 294f 27       		.byte	0x27
 11107 2950 7D       		.byte	0x7d
 11108 2951 29010000 		.4byte	0x129
 11109 2955 3C       		.byte	0x3c
 11110 2956 08       		.uleb128 0x8
 11111 2957 EF170000 		.4byte	.LASF662
 11112 295b 27       		.byte	0x27
 11113 295c 7E       		.byte	0x7e
 11114 295d 782B0000 		.4byte	0x2b78
 11115 2961 40       		.byte	0x40
 11116 2962 22       		.uleb128 0x22
 11117 2963 04360000 		.4byte	.LASF663
 11118 2967 27       		.byte	0x27
 11119 2968 7F       		.byte	0x7f
 11120 2969 29010000 		.4byte	0x129
 11121 296d 0001     		.2byte	0x100
 11122 296f 22       		.uleb128 0x22
 11123 2970 D6020000 		.4byte	.LASF664
 11124 2974 27       		.byte	0x27
 11125 2975 81       		.byte	0x81
 11126 2976 BE0A0000 		.4byte	0xabe
 11127 297a 0401     		.2byte	0x104
 11128 297c 22       		.uleb128 0x22
 11129 297d 0F1F0000 		.4byte	.LASF665
 11130 2981 27       		.byte	0x27
 11131 2982 83       		.byte	0x83
 11132 2983 8D2B0000 		.4byte	0x2b8d
 11133 2987 4001     		.2byte	0x140
 11134 2989 22       		.uleb128 0x22
 11135 298a 19240000 		.4byte	.LASF666
 11136 298e 27       		.byte	0x27
 11137 298f 84       		.byte	0x84
ARM GAS  C:\Users\CHRIST~1\AppData\Local\Temp\ccCFoZV9.s 			page 198


 11138 2990 29010000 		.4byte	0x129
 11139 2994 0004     		.2byte	0x400
 11140 2996 22       		.uleb128 0x22
 11141 2997 99390000 		.4byte	.LASF667
 11142 299b 27       		.byte	0x27
 11143 299c 85       		.byte	0x85
 11144 299d 29010000 		.4byte	0x129
 11145 29a1 0404     		.2byte	0x404
 11146 29a3 22       		.uleb128 0x22
 11147 29a4 A1050000 		.4byte	.LASF668
 11148 29a8 27       		.byte	0x27
 11149 29a9 86       		.byte	0x86
 11150 29aa 29010000 		.4byte	0x129
 11151 29ae 0804     		.2byte	0x408
 11152 29b0 22       		.uleb128 0x22
 11153 29b1 62110000 		.4byte	.LASF669
 11154 29b5 27       		.byte	0x27
 11155 29b6 88       		.byte	0x88
 11156 29b7 29010000 		.4byte	0x129
 11157 29bb 0C04     		.2byte	0x40c
 11158 29bd 22       		.uleb128 0x22
 11159 29be 02040000 		.4byte	.LASF670
 11160 29c2 27       		.byte	0x27
 11161 29c3 89       		.byte	0x89
 11162 29c4 29010000 		.4byte	0x129
 11163 29c8 1004     		.2byte	0x410
 11164 29ca 22       		.uleb128 0x22
 11165 29cb 4F050000 		.4byte	.LASF671
 11166 29cf 27       		.byte	0x27
 11167 29d0 8B       		.byte	0x8b
 11168 29d1 29010000 		.4byte	0x129
 11169 29d5 1404     		.2byte	0x414
 11170 29d7 22       		.uleb128 0x22
 11171 29d8 1D110000 		.4byte	.LASF672
 11172 29dc 27       		.byte	0x27
 11173 29dd 8D       		.byte	0x8d
 11174 29de 29010000 		.4byte	0x129
 11175 29e2 1804     		.2byte	0x418
 11176 29e4 22       		.uleb128 0x22
 11177 29e5 BB2D0000 		.4byte	.LASF673
 11178 29e9 27       		.byte	0x27
 11179 29ea 8F       		.byte	0x8f
 11180 29eb A22B0000 		.4byte	0x2ba2
 11181 29ef 1C04     		.2byte	0x41c
 11182 29f1 22       		.uleb128 0x22
 11183 29f2 36030000 		.4byte	.LASF674
 11184 29f6 27       		.byte	0x27
 11185 29f7 90       		.byte	0x90
 11186 29f8 29010000 		.4byte	0x129
 11187 29fc 4004     		.2byte	0x440
 11188 29fe 22       		.uleb128 0x22
 11189 29ff 57300000 		.4byte	.LASF675
 11190 2a03 27       		.byte	0x27
 11191 2a04 92       		.byte	0x92
 11192 2a05 B72B0000 		.4byte	0x2bb7
 11193 2a09 4404     		.2byte	0x444
 11194 2a0b 28       		.uleb128 0x28
ARM GAS  C:\Users\CHRIST~1\AppData\Local\Temp\ccCFoZV9.s 			page 199


 11195 2a0c 686300   		.ascii	"hc\000"
 11196 2a0f 27       		.byte	0x27
 11197 2a10 93       		.byte	0x93
 11198 2a11 BC2B0000 		.4byte	0x2bbc
 11199 2a15 0005     		.2byte	0x500
 11200 2a17 22       		.uleb128 0x22
 11201 2a18 96010000 		.4byte	.LASF676
 11202 2a1c 27       		.byte	0x27
 11203 2a1d 94       		.byte	0x94
 11204 2a1e DC2B0000 		.4byte	0x2bdc
 11205 2a22 0007     		.2byte	0x700
 11206 2a24 22       		.uleb128 0x22
 11207 2a25 1C2C0000 		.4byte	.LASF677
 11208 2a29 27       		.byte	0x27
 11209 2a2a 95       		.byte	0x95
 11210 2a2b 29010000 		.4byte	0x129
 11211 2a2f 0008     		.2byte	0x800
 11212 2a31 22       		.uleb128 0x22
 11213 2a32 3C370000 		.4byte	.LASF678
 11214 2a36 27       		.byte	0x27
 11215 2a37 96       		.byte	0x96
 11216 2a38 29010000 		.4byte	0x129
 11217 2a3c 0408     		.2byte	0x804
 11218 2a3e 22       		.uleb128 0x22
 11219 2a3f CD1B0000 		.4byte	.LASF679
 11220 2a43 27       		.byte	0x27
 11221 2a44 97       		.byte	0x97
 11222 2a45 29010000 		.4byte	0x129
 11223 2a49 0808     		.2byte	0x808
 11224 2a4b 22       		.uleb128 0x22
 11225 2a4c 33060000 		.4byte	.LASF680
 11226 2a50 27       		.byte	0x27
 11227 2a51 98       		.byte	0x98
 11228 2a52 29010000 		.4byte	0x129
 11229 2a56 0C08     		.2byte	0x80c
 11230 2a58 22       		.uleb128 0x22
 11231 2a59 FA100000 		.4byte	.LASF681
 11232 2a5d 27       		.byte	0x27
 11233 2a5e 99       		.byte	0x99
 11234 2a5f 29010000 		.4byte	0x129
 11235 2a63 1008     		.2byte	0x810
 11236 2a65 22       		.uleb128 0x22
 11237 2a66 74320000 		.4byte	.LASF682
 11238 2a6a 27       		.byte	0x27
 11239 2a6b 9B       		.byte	0x9b
 11240 2a6c 29010000 		.4byte	0x129
 11241 2a70 1408     		.2byte	0x814
 11242 2a72 22       		.uleb128 0x22
 11243 2a73 8A330000 		.4byte	.LASF683
 11244 2a77 27       		.byte	0x27
 11245 2a78 9D       		.byte	0x9d
 11246 2a79 29010000 		.4byte	0x129
 11247 2a7d 1808     		.2byte	0x818
 11248 2a7f 22       		.uleb128 0x22
 11249 2a80 C92E0000 		.4byte	.LASF684
 11250 2a84 27       		.byte	0x27
 11251 2a85 9F       		.byte	0x9f
ARM GAS  C:\Users\CHRIST~1\AppData\Local\Temp\ccCFoZV9.s 			page 200


 11252 2a86 29010000 		.4byte	0x129
 11253 2a8a 1C08     		.2byte	0x81c
 11254 2a8c 22       		.uleb128 0x22
 11255 2a8d A7070000 		.4byte	.LASF685
 11256 2a91 27       		.byte	0x27
 11257 2a92 A1       		.byte	0xa1
 11258 2a93 29010000 		.4byte	0x129
 11259 2a97 2008     		.2byte	0x820
 11260 2a99 22       		.uleb128 0x22
 11261 2a9a 8B060000 		.4byte	.LASF686
 11262 2a9e 27       		.byte	0x27
 11263 2a9f A2       		.byte	0xa2
 11264 2aa0 29010000 		.4byte	0x129
 11265 2aa4 2408     		.2byte	0x824
 11266 2aa6 22       		.uleb128 0x22
 11267 2aa7 B4010000 		.4byte	.LASF687
 11268 2aab 27       		.byte	0x27
 11269 2aac A3       		.byte	0xa3
 11270 2aad 29010000 		.4byte	0x129
 11271 2ab1 2808     		.2byte	0x828
 11272 2ab3 22       		.uleb128 0x22
 11273 2ab4 EF080000 		.4byte	.LASF688
 11274 2ab8 27       		.byte	0x27
 11275 2ab9 A5       		.byte	0xa5
 11276 2aba 29010000 		.4byte	0x129
 11277 2abe 2C08     		.2byte	0x82c
 11278 2ac0 22       		.uleb128 0x22
 11279 2ac1 89080000 		.4byte	.LASF689
 11280 2ac5 27       		.byte	0x27
 11281 2ac6 A7       		.byte	0xa7
 11282 2ac7 29010000 		.4byte	0x129
 11283 2acb 3008     		.2byte	0x830
 11284 2acd 22       		.uleb128 0x22
 11285 2ace CD130000 		.4byte	.LASF690
 11286 2ad2 27       		.byte	0x27
 11287 2ad3 A8       		.byte	0xa8
 11288 2ad4 29010000 		.4byte	0x129
 11289 2ad8 3408     		.2byte	0x834
 11290 2ada 22       		.uleb128 0x22
 11291 2adb 9C080000 		.4byte	.LASF691
 11292 2adf 27       		.byte	0x27
 11293 2ae0 AA       		.byte	0xaa
 11294 2ae1 29010000 		.4byte	0x129
 11295 2ae5 3808     		.2byte	0x838
 11296 2ae7 22       		.uleb128 0x22
 11297 2ae8 DF080000 		.4byte	.LASF692
 11298 2aec 27       		.byte	0x27
 11299 2aed AB       		.byte	0xab
 11300 2aee 29010000 		.4byte	0x129
 11301 2af2 3C08     		.2byte	0x83c
 11302 2af4 22       		.uleb128 0x22
 11303 2af5 B1090000 		.4byte	.LASF693
 11304 2af9 27       		.byte	0x27
 11305 2afa AC       		.byte	0xac
 11306 2afb F12B0000 		.4byte	0x2bf1
 11307 2aff 4008     		.2byte	0x840
 11308 2b01 22       		.uleb128 0x22
ARM GAS  C:\Users\CHRIST~1\AppData\Local\Temp\ccCFoZV9.s 			page 201


 11309 2b02 E1180000 		.4byte	.LASF694
 11310 2b06 27       		.byte	0x27
 11311 2b07 AD       		.byte	0xad
 11312 2b08 F12B0000 		.4byte	0x2bf1
 11313 2b0c 8008     		.2byte	0x880
 11314 2b0e 22       		.uleb128 0x22
 11315 2b0f 011A0000 		.4byte	.LASF695
 11316 2b13 27       		.byte	0x27
 11317 2b14 AE       		.byte	0xae
 11318 2b15 F12B0000 		.4byte	0x2bf1
 11319 2b19 C008     		.2byte	0x8c0
 11320 2b1b 28       		.uleb128 0x28
 11321 2b1c 696500   		.ascii	"ie\000"
 11322 2b1f 27       		.byte	0x27
 11323 2b20 AF       		.byte	0xaf
 11324 2b21 F62B0000 		.4byte	0x2bf6
 11325 2b25 0009     		.2byte	0x900
 11326 2b27 28       		.uleb128 0x28
 11327 2b28 6F6500   		.ascii	"oe\000"
 11328 2b2b 27       		.byte	0x27
 11329 2b2c B0       		.byte	0xb0
 11330 2b2d 062C0000 		.4byte	0x2c06
 11331 2b31 000B     		.2byte	0xb00
 11332 2b33 22       		.uleb128 0x22
 11333 2b34 50100000 		.4byte	.LASF696
 11334 2b38 27       		.byte	0x27
 11335 2b39 B1       		.byte	0xb1
 11336 2b3a DC2B0000 		.4byte	0x2bdc
 11337 2b3e 000D     		.2byte	0xd00
 11338 2b40 22       		.uleb128 0x22
 11339 2b41 47370000 		.4byte	.LASF697
 11340 2b45 27       		.byte	0x27
 11341 2b46 B2       		.byte	0xb2
 11342 2b47 29010000 		.4byte	0x129
 11343 2b4b 000E     		.2byte	0xe00
 11344 2b4d 22       		.uleb128 0x22
 11345 2b4e FC150000 		.4byte	.LASF698
 11346 2b52 27       		.byte	0x27
 11347 2b53 B4       		.byte	0xb4
 11348 2b54 262C0000 		.4byte	0x2c26
 11349 2b58 040E     		.2byte	0xe04
 11350 2b5a 22       		.uleb128 0x22
 11351 2b5b E9360000 		.4byte	.LASF699
 11352 2b5f 27       		.byte	0x27
 11353 2b60 B5       		.byte	0xb5
 11354 2b61 422C0000 		.4byte	0x2c42
 11355 2b65 0010     		.2byte	0x1000
 11356 2b67 00       		.byte	0
 11357 2b68 11       		.uleb128 0x11
 11358 2b69 29010000 		.4byte	0x129
 11359 2b6d 782B0000 		.4byte	0x2b78
 11360 2b71 12       		.uleb128 0x12
 11361 2b72 F5040000 		.4byte	0x4f5
 11362 2b76 2F       		.byte	0x2f
 11363 2b77 00       		.byte	0
 11364 2b78 05       		.uleb128 0x5
 11365 2b79 682B0000 		.4byte	0x2b68
ARM GAS  C:\Users\CHRIST~1\AppData\Local\Temp\ccCFoZV9.s 			page 202


 11366 2b7d 11       		.uleb128 0x11
 11367 2b7e 29010000 		.4byte	0x129
 11368 2b82 8D2B0000 		.4byte	0x2b8d
 11369 2b86 12       		.uleb128 0x12
 11370 2b87 F5040000 		.4byte	0x4f5
 11371 2b8b AF       		.byte	0xaf
 11372 2b8c 00       		.byte	0
 11373 2b8d 05       		.uleb128 0x5
 11374 2b8e 7D2B0000 		.4byte	0x2b7d
 11375 2b92 11       		.uleb128 0x11
 11376 2b93 29010000 		.4byte	0x129
 11377 2b97 A22B0000 		.4byte	0x2ba2
 11378 2b9b 12       		.uleb128 0x12
 11379 2b9c F5040000 		.4byte	0x4f5
 11380 2ba0 08       		.byte	0x8
 11381 2ba1 00       		.byte	0
 11382 2ba2 05       		.uleb128 0x5
 11383 2ba3 922B0000 		.4byte	0x2b92
 11384 2ba7 11       		.uleb128 0x11
 11385 2ba8 29010000 		.4byte	0x129
 11386 2bac B72B0000 		.4byte	0x2bb7
 11387 2bb0 12       		.uleb128 0x12
 11388 2bb1 F5040000 		.4byte	0x4f5
 11389 2bb5 2E       		.byte	0x2e
 11390 2bb6 00       		.byte	0
 11391 2bb7 05       		.uleb128 0x5
 11392 2bb8 A72B0000 		.4byte	0x2ba7
 11393 2bbc 11       		.uleb128 0x11
 11394 2bbd 98270000 		.4byte	0x2798
 11395 2bc1 CC2B0000 		.4byte	0x2bcc
 11396 2bc5 12       		.uleb128 0x12
 11397 2bc6 F5040000 		.4byte	0x4f5
 11398 2bca 0F       		.byte	0xf
 11399 2bcb 00       		.byte	0
 11400 2bcc 11       		.uleb128 0x11
 11401 2bcd 29010000 		.4byte	0x129
 11402 2bd1 DC2B0000 		.4byte	0x2bdc
 11403 2bd5 12       		.uleb128 0x12
 11404 2bd6 F5040000 		.4byte	0x4f5
 11405 2bda 3F       		.byte	0x3f
 11406 2bdb 00       		.byte	0
 11407 2bdc 05       		.uleb128 0x5
 11408 2bdd CC2B0000 		.4byte	0x2bcc
 11409 2be1 11       		.uleb128 0x11
 11410 2be2 29010000 		.4byte	0x129
 11411 2be6 F12B0000 		.4byte	0x2bf1
 11412 2bea 12       		.uleb128 0x12
 11413 2beb F5040000 		.4byte	0x4f5
 11414 2bef 0F       		.byte	0xf
 11415 2bf0 00       		.byte	0
 11416 2bf1 05       		.uleb128 0x5
 11417 2bf2 E12B0000 		.4byte	0x2be1
 11418 2bf6 11       		.uleb128 0x11
 11419 2bf7 0C280000 		.4byte	0x280c
 11420 2bfb 062C0000 		.4byte	0x2c06
 11421 2bff 12       		.uleb128 0x12
 11422 2c00 F5040000 		.4byte	0x4f5
ARM GAS  C:\Users\CHRIST~1\AppData\Local\Temp\ccCFoZV9.s 			page 203


 11423 2c04 0F       		.byte	0xf
 11424 2c05 00       		.byte	0
 11425 2c06 11       		.uleb128 0x11
 11426 2c07 80280000 		.4byte	0x2880
 11427 2c0b 162C0000 		.4byte	0x2c16
 11428 2c0f 12       		.uleb128 0x12
 11429 2c10 F5040000 		.4byte	0x4f5
 11430 2c14 0F       		.byte	0xf
 11431 2c15 00       		.byte	0
 11432 2c16 11       		.uleb128 0x11
 11433 2c17 29010000 		.4byte	0x129
 11434 2c1b 262C0000 		.4byte	0x2c26
 11435 2c1f 12       		.uleb128 0x12
 11436 2c20 F5040000 		.4byte	0x4f5
 11437 2c24 7E       		.byte	0x7e
 11438 2c25 00       		.byte	0
 11439 2c26 05       		.uleb128 0x5
 11440 2c27 162C0000 		.4byte	0x2c16
 11441 2c2b 11       		.uleb128 0x11
 11442 2c2c 29010000 		.4byte	0x129
 11443 2c30 422C0000 		.4byte	0x2c42
 11444 2c34 12       		.uleb128 0x12
 11445 2c35 F5040000 		.4byte	0x4f5
 11446 2c39 0F       		.byte	0xf
 11447 2c3a 29       		.uleb128 0x29
 11448 2c3b F5040000 		.4byte	0x4f5
 11449 2c3f FF03     		.2byte	0x3ff
 11450 2c41 00       		.byte	0
 11451 2c42 05       		.uleb128 0x5
 11452 2c43 2B2C0000 		.4byte	0x2c2b
 11453 2c47 03       		.uleb128 0x3
 11454 2c48 A43A0000 		.4byte	.LASF700
 11455 2c4c 27       		.byte	0x27
 11456 2c4d B6       		.byte	0xb6
 11457 2c4e 8B280000 		.4byte	0x288b
 11458 2c52 15       		.uleb128 0x15
 11459 2c53 0C       		.byte	0xc
 11460 2c54 26       		.byte	0x26
 11461 2c55 C6       		.byte	0xc6
 11462 2c56 7F2C0000 		.4byte	0x2c7f
 11463 2c5a 08       		.uleb128 0x8
 11464 2c5b EF0C0000 		.4byte	.LASF701
 11465 2c5f 26       		.byte	0x26
 11466 2c60 C7       		.byte	0xc7
 11467 2c61 1E010000 		.4byte	0x11e
 11468 2c65 00       		.byte	0
 11469 2c66 08       		.uleb128 0x8
 11470 2c67 30100000 		.4byte	.LASF702
 11471 2c6b 26       		.byte	0x26
 11472 2c6c C8       		.byte	0xc8
 11473 2c6d 1E010000 		.4byte	0x11e
 11474 2c71 04       		.byte	0x4
 11475 2c72 08       		.uleb128 0x8
 11476 2c73 05160000 		.4byte	.LASF703
 11477 2c77 26       		.byte	0x26
 11478 2c78 C9       		.byte	0xc9
 11479 2c79 1E010000 		.4byte	0x11e
ARM GAS  C:\Users\CHRIST~1\AppData\Local\Temp\ccCFoZV9.s 			page 204


 11480 2c7d 08       		.byte	0x8
 11481 2c7e 00       		.byte	0
 11482 2c7f 03       		.uleb128 0x3
 11483 2c80 3D100000 		.4byte	.LASF704
 11484 2c84 26       		.byte	0x26
 11485 2c85 CA       		.byte	0xca
 11486 2c86 522C0000 		.4byte	0x2c52
 11487 2c8a 06       		.uleb128 0x6
 11488 2c8b 7F2C0000 		.4byte	0x2c7f
 11489 2c8f 15       		.uleb128 0x15
 11490 2c90 04       		.byte	0x4
 11491 2c91 26       		.byte	0x26
 11492 2c92 DD       		.byte	0xdd
 11493 2c93 A42C0000 		.4byte	0x2ca4
 11494 2c97 08       		.uleb128 0x8
 11495 2c98 41370000 		.4byte	.LASF705
 11496 2c9c 26       		.byte	0x26
 11497 2c9d E1       		.byte	0xe1
 11498 2c9e A70F0000 		.4byte	0xfa7
 11499 2ca2 00       		.byte	0
 11500 2ca3 00       		.byte	0
 11501 2ca4 15       		.uleb128 0x15
 11502 2ca5 04       		.byte	0x4
 11503 2ca6 26       		.byte	0x26
 11504 2ca7 E3       		.byte	0xe3
 11505 2ca8 B92C0000 		.4byte	0x2cb9
 11506 2cac 08       		.uleb128 0x8
 11507 2cad 670D0000 		.4byte	.LASF464
 11508 2cb1 26       		.byte	0x26
 11509 2cb2 E7       		.byte	0xe7
 11510 2cb3 B92C0000 		.4byte	0x2cb9
 11511 2cb7 00       		.byte	0
 11512 2cb8 00       		.byte	0
 11513 2cb9 0B       		.uleb128 0xb
 11514 2cba 04       		.byte	0x4
 11515 2cbb 9C0F0000 		.4byte	0xf9c
 11516 2cbf 1C       		.uleb128 0x1c
 11517 2cc0 04       		.byte	0x4
 11518 2cc1 26       		.byte	0x26
 11519 2cc2 DC       		.byte	0xdc
 11520 2cc3 DE2C0000 		.4byte	0x2cde
 11521 2cc7 2A       		.uleb128 0x2a
 11522 2cc8 B6300000 		.4byte	.LASF706
 11523 2ccc 26       		.byte	0x26
 11524 2ccd E2       		.byte	0xe2
 11525 2cce 8F2C0000 		.4byte	0x2c8f
 11526 2cd2 2A       		.uleb128 0x2a
 11527 2cd3 2C2F0000 		.4byte	.LASF707
 11528 2cd7 26       		.byte	0x26
 11529 2cd8 E8       		.byte	0xe8
 11530 2cd9 A42C0000 		.4byte	0x2ca4
 11531 2cdd 00       		.byte	0
 11532 2cde 15       		.uleb128 0x15
 11533 2cdf 14       		.byte	0x14
 11534 2ce0 26       		.byte	0x26
 11535 2ce1 CF       		.byte	0xcf
 11536 2ce2 232D0000 		.4byte	0x2d23
ARM GAS  C:\Users\CHRIST~1\AppData\Local\Temp\ccCFoZV9.s 			page 205


 11537 2ce6 08       		.uleb128 0x8
 11538 2ce7 140A0000 		.4byte	.LASF708
 11539 2ceb 26       		.byte	0x26
 11540 2cec D3       		.byte	0xd3
 11541 2ced 45160000 		.4byte	0x1645
 11542 2cf1 00       		.byte	0
 11543 2cf2 08       		.uleb128 0x8
 11544 2cf3 3A1C0000 		.4byte	.LASF709
 11545 2cf7 26       		.byte	0x26
 11546 2cf8 D7       		.byte	0xd7
 11547 2cf9 39010000 		.4byte	0x139
 11548 2cfd 04       		.byte	0x4
 11549 2cfe 08       		.uleb128 0x8
 11550 2cff 72360000 		.4byte	.LASF710
 11551 2d03 26       		.byte	0x26
 11552 2d04 DB       		.byte	0xdb
 11553 2d05 39010000 		.4byte	0x139
 11554 2d09 08       		.byte	0x8
 11555 2d0a 08       		.uleb128 0x8
 11556 2d0b 210C0000 		.4byte	.LASF525
 11557 2d0f 26       		.byte	0x26
 11558 2d10 E9       		.byte	0xe9
 11559 2d11 BF2C0000 		.4byte	0x2cbf
 11560 2d15 0C       		.byte	0xc
 11561 2d16 08       		.uleb128 0x8
 11562 2d17 48160000 		.4byte	.LASF711
 11563 2d1b 26       		.byte	0x26
 11564 2d1c ED       		.byte	0xed
 11565 2d1d 39010000 		.4byte	0x139
 11566 2d21 10       		.byte	0x10
 11567 2d22 00       		.byte	0
 11568 2d23 03       		.uleb128 0x3
 11569 2d24 F7170000 		.4byte	.LASF712
 11570 2d28 26       		.byte	0x26
 11571 2d29 EE       		.byte	0xee
 11572 2d2a DE2C0000 		.4byte	0x2cde
 11573 2d2e 17       		.uleb128 0x17
 11574 2d2f 04       		.byte	0x4
 11575 2d30 26       		.byte	0x26
 11576 2d31 0101     		.2byte	0x101
 11577 2d33 452D0000 		.4byte	0x2d45
 11578 2d37 0A       		.uleb128 0xa
 11579 2d38 60100000 		.4byte	.LASF565
 11580 2d3c 26       		.byte	0x26
 11581 2d3d 0501     		.2byte	0x105
 11582 2d3f 8B0F0000 		.4byte	0xf8b
 11583 2d43 00       		.byte	0
 11584 2d44 00       		.byte	0
 11585 2d45 17       		.uleb128 0x17
 11586 2d46 04       		.byte	0x4
 11587 2d47 26       		.byte	0x26
 11588 2d48 0701     		.2byte	0x107
 11589 2d4a 5C2D0000 		.4byte	0x2d5c
 11590 2d4e 0A       		.uleb128 0xa
 11591 2d4f 4F300000 		.4byte	.LASF465
 11592 2d53 26       		.byte	0x26
 11593 2d54 0B01     		.2byte	0x10b
ARM GAS  C:\Users\CHRIST~1\AppData\Local\Temp\ccCFoZV9.s 			page 206


 11594 2d56 5C2D0000 		.4byte	0x2d5c
 11595 2d5a 00       		.byte	0
 11596 2d5b 00       		.byte	0
 11597 2d5c 0B       		.uleb128 0xb
 11598 2d5d 04       		.byte	0x4
 11599 2d5e 910F0000 		.4byte	0xf91
 11600 2d62 2B       		.uleb128 0x2b
 11601 2d63 04       		.byte	0x4
 11602 2d64 26       		.byte	0x26
 11603 2d65 0001     		.2byte	0x100
 11604 2d67 842D0000 		.4byte	0x2d84
 11605 2d6b 1D       		.uleb128 0x1d
 11606 2d6c B6300000 		.4byte	.LASF706
 11607 2d70 26       		.byte	0x26
 11608 2d71 0601     		.2byte	0x106
 11609 2d73 2E2D0000 		.4byte	0x2d2e
 11610 2d77 1D       		.uleb128 0x1d
 11611 2d78 2C2F0000 		.4byte	.LASF707
 11612 2d7c 26       		.byte	0x26
 11613 2d7d 0C01     		.2byte	0x10c
 11614 2d7f 452D0000 		.4byte	0x2d45
 11615 2d83 00       		.byte	0
 11616 2d84 15       		.uleb128 0x15
 11617 2d85 14       		.byte	0x14
 11618 2d86 26       		.byte	0x26
 11619 2d87 F3       		.byte	0xf3
 11620 2d88 CB2D0000 		.4byte	0x2dcb
 11621 2d8c 08       		.uleb128 0x8
 11622 2d8d 51070000 		.4byte	.LASF713
 11623 2d91 26       		.byte	0x26
 11624 2d92 F7       		.byte	0xf7
 11625 2d93 45160000 		.4byte	0x1645
 11626 2d97 00       		.byte	0
 11627 2d98 08       		.uleb128 0x8
 11628 2d99 751E0000 		.4byte	.LASF714
 11629 2d9d 26       		.byte	0x26
 11630 2d9e FB       		.byte	0xfb
 11631 2d9f 39010000 		.4byte	0x139
 11632 2da3 04       		.byte	0x4
 11633 2da4 08       		.uleb128 0x8
 11634 2da5 070C0000 		.4byte	.LASF715
 11635 2da9 26       		.byte	0x26
 11636 2daa FF       		.byte	0xff
 11637 2dab 39010000 		.4byte	0x139
 11638 2daf 08       		.byte	0x8
 11639 2db0 0A       		.uleb128 0xa
 11640 2db1 210C0000 		.4byte	.LASF525
 11641 2db5 26       		.byte	0x26
 11642 2db6 0D01     		.2byte	0x10d
 11643 2db8 622D0000 		.4byte	0x2d62
 11644 2dbc 0C       		.byte	0xc
 11645 2dbd 0A       		.uleb128 0xa
 11646 2dbe 48160000 		.4byte	.LASF711
 11647 2dc2 26       		.byte	0x26
 11648 2dc3 1101     		.2byte	0x111
 11649 2dc5 39010000 		.4byte	0x139
 11650 2dc9 10       		.byte	0x10
ARM GAS  C:\Users\CHRIST~1\AppData\Local\Temp\ccCFoZV9.s 			page 207


 11651 2dca 00       		.byte	0
 11652 2dcb 18       		.uleb128 0x18
 11653 2dcc A72D0000 		.4byte	.LASF716
 11654 2dd0 26       		.byte	0x26
 11655 2dd1 1201     		.2byte	0x112
 11656 2dd3 842D0000 		.4byte	0x2d84
 11657 2dd7 17       		.uleb128 0x17
 11658 2dd8 24       		.byte	0x24
 11659 2dd9 26       		.byte	0x26
 11660 2dda 1801     		.2byte	0x118
 11661 2ddc 632E0000 		.4byte	0x2e63
 11662 2de0 0A       		.uleb128 0xa
 11663 2de1 37230000 		.4byte	.LASF717
 11664 2de5 26       		.byte	0x26
 11665 2de6 1C01     		.2byte	0x11c
 11666 2de8 1E010000 		.4byte	0x11e
 11667 2dec 00       		.byte	0
 11668 2ded 0A       		.uleb128 0xa
 11669 2dee 2A0D0000 		.4byte	.LASF718
 11670 2df2 26       		.byte	0x26
 11671 2df3 2701     		.2byte	0x127
 11672 2df5 94260000 		.4byte	0x2694
 11673 2df9 04       		.byte	0x4
 11674 2dfa 0A       		.uleb128 0xa
 11675 2dfb AD240000 		.4byte	.LASF719
 11676 2dff 26       		.byte	0x26
 11677 2e00 2D01     		.2byte	0x12d
 11678 2e02 94260000 		.4byte	0x2694
 11679 2e06 08       		.byte	0x8
 11680 2e07 0A       		.uleb128 0xa
 11681 2e08 16110000 		.4byte	.LASF720
 11682 2e0c 26       		.byte	0x26
 11683 2e0d 3301     		.2byte	0x133
 11684 2e0f 94260000 		.4byte	0x2694
 11685 2e13 0C       		.byte	0xc
 11686 2e14 0A       		.uleb128 0xa
 11687 2e15 353B0000 		.4byte	.LASF721
 11688 2e19 26       		.byte	0x26
 11689 2e1a 3901     		.2byte	0x139
 11690 2e1c FE000000 		.4byte	0xfe
 11691 2e20 10       		.byte	0x10
 11692 2e21 0A       		.uleb128 0xa
 11693 2e22 52170000 		.4byte	.LASF722
 11694 2e26 26       		.byte	0x26
 11695 2e27 3F01     		.2byte	0x13f
 11696 2e29 FE000000 		.4byte	0xfe
 11697 2e2d 12       		.byte	0x12
 11698 2e2e 0A       		.uleb128 0xa
 11699 2e2f A6380000 		.4byte	.LASF723
 11700 2e33 26       		.byte	0x26
 11701 2e34 4401     		.2byte	0x144
 11702 2e36 632E0000 		.4byte	0x2e63
 11703 2e3a 14       		.byte	0x14
 11704 2e3b 0A       		.uleb128 0xa
 11705 2e3c 63140000 		.4byte	.LASF724
 11706 2e40 26       		.byte	0x26
 11707 2e41 4901     		.2byte	0x149
ARM GAS  C:\Users\CHRIST~1\AppData\Local\Temp\ccCFoZV9.s 			page 208


 11708 2e43 692E0000 		.4byte	0x2e69
 11709 2e47 18       		.byte	0x18
 11710 2e48 0A       		.uleb128 0xa
 11711 2e49 E51A0000 		.4byte	.LASF725
 11712 2e4d 26       		.byte	0x26
 11713 2e4e 5001     		.2byte	0x150
 11714 2e50 FE000000 		.4byte	0xfe
 11715 2e54 1C       		.byte	0x1c
 11716 2e55 0A       		.uleb128 0xa
 11717 2e56 B9370000 		.4byte	.LASF726
 11718 2e5a 26       		.byte	0x26
 11719 2e5b 5601     		.2byte	0x156
 11720 2e5d 8B0F0000 		.4byte	0xf8b
 11721 2e61 20       		.byte	0x20
 11722 2e62 00       		.byte	0
 11723 2e63 0B       		.uleb128 0xb
 11724 2e64 04       		.byte	0x4
 11725 2e65 232D0000 		.4byte	0x2d23
 11726 2e69 0B       		.uleb128 0xb
 11727 2e6a 04       		.byte	0x4
 11728 2e6b CB2D0000 		.4byte	0x2dcb
 11729 2e6f 18       		.uleb128 0x18
 11730 2e70 3D300000 		.4byte	.LASF727
 11731 2e74 26       		.byte	0x26
 11732 2e75 5701     		.2byte	0x157
 11733 2e77 D72D0000 		.4byte	0x2dd7
 11734 2e7b 06       		.uleb128 0x6
 11735 2e7c 6F2E0000 		.4byte	0x2e6f
 11736 2e80 17       		.uleb128 0x17
 11737 2e81 10       		.byte	0x10
 11738 2e82 26       		.byte	0x26
 11739 2e83 5C01     		.2byte	0x15c
 11740 2e85 BE2E0000 		.4byte	0x2ebe
 11741 2e89 0A       		.uleb128 0xa
 11742 2e8a 3C060000 		.4byte	.LASF728
 11743 2e8e 26       		.byte	0x26
 11744 2e8f 6101     		.2byte	0x161
 11745 2e91 B6260000 		.4byte	0x26b6
 11746 2e95 00       		.byte	0
 11747 2e96 0A       		.uleb128 0xa
 11748 2e97 8A360000 		.4byte	.LASF729
 11749 2e9b 26       		.byte	0x26
 11750 2e9c 6601     		.2byte	0x166
 11751 2e9e F9260000 		.4byte	0x26f9
 11752 2ea2 04       		.byte	0x4
 11753 2ea3 0A       		.uleb128 0xa
 11754 2ea4 0F1C0000 		.4byte	.LASF730
 11755 2ea8 26       		.byte	0x26
 11756 2ea9 6C01     		.2byte	0x16c
 11757 2eab D8260000 		.4byte	0x26d8
 11758 2eaf 08       		.byte	0x8
 11759 2eb0 0A       		.uleb128 0xa
 11760 2eb1 AC020000 		.4byte	.LASF731
 11761 2eb5 26       		.byte	0x26
 11762 2eb6 7001     		.2byte	0x170
 11763 2eb8 71260000 		.4byte	0x2671
 11764 2ebc 0C       		.byte	0xc
ARM GAS  C:\Users\CHRIST~1\AppData\Local\Temp\ccCFoZV9.s 			page 209


 11765 2ebd 00       		.byte	0
 11766 2ebe 18       		.uleb128 0x18
 11767 2ebf 0A1A0000 		.4byte	.LASF732
 11768 2ec3 26       		.byte	0x26
 11769 2ec4 7201     		.2byte	0x172
 11770 2ec6 802E0000 		.4byte	0x2e80
 11771 2eca 06       		.uleb128 0x6
 11772 2ecb BE2E0000 		.4byte	0x2ebe
 11773 2ecf 0B       		.uleb128 0xb
 11774 2ed0 04       		.byte	0x4
 11775 2ed1 CA2E0000 		.4byte	0x2eca
 11776 2ed5 11       		.uleb128 0x11
 11777 2ed6 E52E0000 		.4byte	0x2ee5
 11778 2eda E52E0000 		.4byte	0x2ee5
 11779 2ede 12       		.uleb128 0x12
 11780 2edf F5040000 		.4byte	0x4f5
 11781 2ee3 03       		.byte	0x3
 11782 2ee4 00       		.byte	0
 11783 2ee5 0B       		.uleb128 0xb
 11784 2ee6 04       		.byte	0x4
 11785 2ee7 7B2E0000 		.4byte	0x2e7b
 11786 2eeb 11       		.uleb128 0x11
 11787 2eec BF030000 		.4byte	0x3bf
 11788 2ef0 FB2E0000 		.4byte	0x2efb
 11789 2ef4 12       		.uleb128 0x12
 11790 2ef5 F5040000 		.4byte	0x4f5
 11791 2ef9 02       		.byte	0x2
 11792 2efa 00       		.byte	0
 11793 2efb 0B       		.uleb128 0xb
 11794 2efc 04       		.byte	0x4
 11795 2efd 472C0000 		.4byte	0x2c47
 11796 2f01 0B       		.uleb128 0xb
 11797 2f02 04       		.byte	0x4
 11798 2f03 8A2C0000 		.4byte	0x2c8a
 11799 2f07 11       		.uleb128 0x11
 11800 2f08 CE0A0000 		.4byte	0xace
 11801 2f0c 172F0000 		.4byte	0x2f17
 11802 2f10 12       		.uleb128 0x12
 11803 2f11 F5040000 		.4byte	0x4f5
 11804 2f15 42       		.byte	0x42
 11805 2f16 00       		.byte	0
 11806 2f17 13       		.uleb128 0x13
 11807 2f18 29010000 		.4byte	.LASF733
 11808 2f1c 26       		.byte	0x26
 11809 2f1d 0602     		.2byte	0x206
 11810 2f1f 40240000 		.4byte	0x2440
 11811 2f23 03       		.uleb128 0x3
 11812 2f24 A9090000 		.4byte	.LASF734
 11813 2f28 28       		.byte	0x28
 11814 2f29 22       		.byte	0x22
 11815 2f2a 2E2F0000 		.4byte	0x2f2e
 11816 2f2e 0B       		.uleb128 0xb
 11817 2f2f 04       		.byte	0x4
 11818 2f30 342F0000 		.4byte	0x2f34
 11819 2f34 2C       		.uleb128 0x2c
 11820 2f35 08070000 		.4byte	.LASF840
 11821 2f39 03       		.uleb128 0x3
ARM GAS  C:\Users\CHRIST~1\AppData\Local\Temp\ccCFoZV9.s 			page 210


 11822 2f3a BB120000 		.4byte	.LASF735
 11823 2f3e 29       		.byte	0x29
 11824 2f3f 2C       		.byte	0x2c
 11825 2f40 7F000000 		.4byte	0x7f
 11826 2f44 03       		.uleb128 0x3
 11827 2f45 AB2C0000 		.4byte	.LASF736
 11828 2f49 29       		.byte	0x29
 11829 2f4a 72       		.byte	0x72
 11830 2f4b 7F000000 		.4byte	0x7f
 11831 2f4f 18       		.uleb128 0x18
 11832 2f50 AB150000 		.4byte	.LASF737
 11833 2f54 06       		.byte	0x6
 11834 2f55 6501     		.2byte	0x165
 11835 2f57 BD000000 		.4byte	0xbd
 11836 2f5b 1C       		.uleb128 0x1c
 11837 2f5c 04       		.byte	0x4
 11838 2f5d 29       		.byte	0x29
 11839 2f5e A6       		.byte	0xa6
 11840 2f5f 7A2F0000 		.4byte	0x2f7a
 11841 2f63 2A       		.uleb128 0x2a
 11842 2f64 88220000 		.4byte	.LASF738
 11843 2f68 29       		.byte	0x29
 11844 2f69 A8       		.byte	0xa8
 11845 2f6a 4F2F0000 		.4byte	0x2f4f
 11846 2f6e 2A       		.uleb128 0x2a
 11847 2f6f 12150000 		.4byte	.LASF739
 11848 2f73 29       		.byte	0x29
 11849 2f74 A9       		.byte	0xa9
 11850 2f75 7A2F0000 		.4byte	0x2f7a
 11851 2f79 00       		.byte	0
 11852 2f7a 11       		.uleb128 0x11
 11853 2f7b 49000000 		.4byte	0x49
 11854 2f7f 8A2F0000 		.4byte	0x2f8a
 11855 2f83 12       		.uleb128 0x12
 11856 2f84 F5040000 		.4byte	0x4f5
 11857 2f88 03       		.byte	0x3
 11858 2f89 00       		.byte	0
 11859 2f8a 15       		.uleb128 0x15
 11860 2f8b 08       		.byte	0x8
 11861 2f8c 29       		.byte	0x29
 11862 2f8d A3       		.byte	0xa3
 11863 2f8e AB2F0000 		.4byte	0x2fab
 11864 2f92 08       		.uleb128 0x8
 11865 2f93 10130000 		.4byte	.LASF740
 11866 2f97 29       		.byte	0x29
 11867 2f98 A5       		.byte	0xa5
 11868 2f99 B1000000 		.4byte	0xb1
 11869 2f9d 00       		.byte	0
 11870 2f9e 08       		.uleb128 0x8
 11871 2f9f 8E220000 		.4byte	.LASF741
 11872 2fa3 29       		.byte	0x29
 11873 2fa4 AA       		.byte	0xaa
 11874 2fa5 5B2F0000 		.4byte	0x2f5b
 11875 2fa9 04       		.byte	0x4
 11876 2faa 00       		.byte	0
 11877 2fab 03       		.uleb128 0x3
 11878 2fac D52D0000 		.4byte	.LASF742
ARM GAS  C:\Users\CHRIST~1\AppData\Local\Temp\ccCFoZV9.s 			page 211


 11879 2fb0 29       		.byte	0x29
 11880 2fb1 AB       		.byte	0xab
 11881 2fb2 8A2F0000 		.4byte	0x2f8a
 11882 2fb6 03       		.uleb128 0x3
 11883 2fb7 A8340000 		.4byte	.LASF743
 11884 2fbb 29       		.byte	0x29
 11885 2fbc AF       		.byte	0xaf
 11886 2fbd 232F0000 		.4byte	0x2f23
 11887 2fc1 0B       		.uleb128 0xb
 11888 2fc2 04       		.byte	0x4
 11889 2fc3 290D0000 		.4byte	0xd29
 11890 2fc7 03       		.uleb128 0x3
 11891 2fc8 C71D0000 		.4byte	.LASF744
 11892 2fcc 2A       		.byte	0x2a
 11893 2fcd 16       		.byte	0x16
 11894 2fce 91000000 		.4byte	0x91
 11895 2fd2 07       		.uleb128 0x7
 11896 2fd3 3F280000 		.4byte	.LASF745
 11897 2fd7 18       		.byte	0x18
 11898 2fd8 2A       		.byte	0x2a
 11899 2fd9 2F       		.byte	0x2f
 11900 2fda 25300000 		.4byte	0x3025
 11901 2fde 08       		.uleb128 0x8
 11902 2fdf CD180000 		.4byte	.LASF746
 11903 2fe3 2A       		.byte	0x2a
 11904 2fe4 31       		.byte	0x31
 11905 2fe5 25300000 		.4byte	0x3025
 11906 2fe9 00       		.byte	0
 11907 2fea 16       		.uleb128 0x16
 11908 2feb 5F6B00   		.ascii	"_k\000"
 11909 2fee 2A       		.byte	0x2a
 11910 2fef 32       		.byte	0x32
 11911 2ff0 B1000000 		.4byte	0xb1
 11912 2ff4 04       		.byte	0x4
 11913 2ff5 08       		.uleb128 0x8
 11914 2ff6 41250000 		.4byte	.LASF747
 11915 2ffa 2A       		.byte	0x2a
 11916 2ffb 32       		.byte	0x32
 11917 2ffc B1000000 		.4byte	0xb1
 11918 3000 08       		.byte	0x8
 11919 3001 08       		.uleb128 0x8
 11920 3002 71250000 		.4byte	.LASF748
 11921 3006 2A       		.byte	0x2a
 11922 3007 32       		.byte	0x32
 11923 3008 B1000000 		.4byte	0xb1
 11924 300c 0C       		.byte	0xc
 11925 300d 08       		.uleb128 0x8
 11926 300e B80D0000 		.4byte	.LASF749
 11927 3012 2A       		.byte	0x2a
 11928 3013 32       		.byte	0x32
 11929 3014 B1000000 		.4byte	0xb1
 11930 3018 10       		.byte	0x10
 11931 3019 16       		.uleb128 0x16
 11932 301a 5F7800   		.ascii	"_x\000"
 11933 301d 2A       		.byte	0x2a
 11934 301e 33       		.byte	0x33
 11935 301f 2B300000 		.4byte	0x302b
ARM GAS  C:\Users\CHRIST~1\AppData\Local\Temp\ccCFoZV9.s 			page 212


 11936 3023 14       		.byte	0x14
 11937 3024 00       		.byte	0
 11938 3025 0B       		.uleb128 0xb
 11939 3026 04       		.byte	0x4
 11940 3027 D22F0000 		.4byte	0x2fd2
 11941 302b 11       		.uleb128 0x11
 11942 302c C72F0000 		.4byte	0x2fc7
 11943 3030 3B300000 		.4byte	0x303b
 11944 3034 12       		.uleb128 0x12
 11945 3035 F5040000 		.4byte	0x4f5
 11946 3039 00       		.byte	0
 11947 303a 00       		.byte	0
 11948 303b 07       		.uleb128 0x7
 11949 303c F1290000 		.4byte	.LASF750
 11950 3040 24       		.byte	0x24
 11951 3041 2A       		.byte	0x2a
 11952 3042 37       		.byte	0x37
 11953 3043 B4300000 		.4byte	0x30b4
 11954 3047 08       		.uleb128 0x8
 11955 3048 F1100000 		.4byte	.LASF751
 11956 304c 2A       		.byte	0x2a
 11957 304d 39       		.byte	0x39
 11958 304e B1000000 		.4byte	0xb1
 11959 3052 00       		.byte	0
 11960 3053 08       		.uleb128 0x8
 11961 3054 A50F0000 		.4byte	.LASF752
 11962 3058 2A       		.byte	0x2a
 11963 3059 3A       		.byte	0x3a
 11964 305a B1000000 		.4byte	0xb1
 11965 305e 04       		.byte	0x4
 11966 305f 08       		.uleb128 0x8
 11967 3060 4D150000 		.4byte	.LASF753
 11968 3064 2A       		.byte	0x2a
 11969 3065 3B       		.byte	0x3b
 11970 3066 B1000000 		.4byte	0xb1
 11971 306a 08       		.byte	0x8
 11972 306b 08       		.uleb128 0x8
 11973 306c 30170000 		.4byte	.LASF754
 11974 3070 2A       		.byte	0x2a
 11975 3071 3C       		.byte	0x3c
 11976 3072 B1000000 		.4byte	0xb1
 11977 3076 0C       		.byte	0xc
 11978 3077 08       		.uleb128 0x8
 11979 3078 F6010000 		.4byte	.LASF755
 11980 307c 2A       		.byte	0x2a
 11981 307d 3D       		.byte	0x3d
 11982 307e B1000000 		.4byte	0xb1
 11983 3082 10       		.byte	0x10
 11984 3083 08       		.uleb128 0x8
 11985 3084 E20F0000 		.4byte	.LASF756
 11986 3088 2A       		.byte	0x2a
 11987 3089 3E       		.byte	0x3e
 11988 308a B1000000 		.4byte	0xb1
 11989 308e 14       		.byte	0x14
 11990 308f 08       		.uleb128 0x8
 11991 3090 C00C0000 		.4byte	.LASF757
 11992 3094 2A       		.byte	0x2a
ARM GAS  C:\Users\CHRIST~1\AppData\Local\Temp\ccCFoZV9.s 			page 213


 11993 3095 3F       		.byte	0x3f
 11994 3096 B1000000 		.4byte	0xb1
 11995 309a 18       		.byte	0x18
 11996 309b 08       		.uleb128 0x8
 11997 309c 52090000 		.4byte	.LASF758
 11998 30a0 2A       		.byte	0x2a
 11999 30a1 40       		.byte	0x40
 12000 30a2 B1000000 		.4byte	0xb1
 12001 30a6 1C       		.byte	0x1c
 12002 30a7 08       		.uleb128 0x8
 12003 30a8 D90C0000 		.4byte	.LASF759
 12004 30ac 2A       		.byte	0x2a
 12005 30ad 41       		.byte	0x41
 12006 30ae B1000000 		.4byte	0xb1
 12007 30b2 20       		.byte	0x20
 12008 30b3 00       		.byte	0
 12009 30b4 2D       		.uleb128 0x2d
 12010 30b5 341B0000 		.4byte	.LASF760
 12011 30b9 0801     		.2byte	0x108
 12012 30bb 2A       		.byte	0x2a
 12013 30bc 4A       		.byte	0x4a
 12014 30bd F4300000 		.4byte	0x30f4
 12015 30c1 08       		.uleb128 0x8
 12016 30c2 83170000 		.4byte	.LASF761
 12017 30c6 2A       		.byte	0x2a
 12018 30c7 4B       		.byte	0x4b
 12019 30c8 F4300000 		.4byte	0x30f4
 12020 30cc 00       		.byte	0
 12021 30cd 08       		.uleb128 0x8
 12022 30ce 6C040000 		.4byte	.LASF762
 12023 30d2 2A       		.byte	0x2a
 12024 30d3 4C       		.byte	0x4c
 12025 30d4 F4300000 		.4byte	0x30f4
 12026 30d8 80       		.byte	0x80
 12027 30d9 22       		.uleb128 0x22
 12028 30da FF010000 		.4byte	.LASF763
 12029 30de 2A       		.byte	0x2a
 12030 30df 4E       		.byte	0x4e
 12031 30e0 C72F0000 		.4byte	0x2fc7
 12032 30e4 0001     		.2byte	0x100
 12033 30e6 22       		.uleb128 0x22
 12034 30e7 F72E0000 		.4byte	.LASF764
 12035 30eb 2A       		.byte	0x2a
 12036 30ec 51       		.byte	0x51
 12037 30ed C72F0000 		.4byte	0x2fc7
 12038 30f1 0401     		.2byte	0x104
 12039 30f3 00       		.byte	0
 12040 30f4 11       		.uleb128 0x11
 12041 30f5 BF030000 		.4byte	0x3bf
 12042 30f9 04310000 		.4byte	0x3104
 12043 30fd 12       		.uleb128 0x12
 12044 30fe F5040000 		.4byte	0x4f5
 12045 3102 1F       		.byte	0x1f
 12046 3103 00       		.byte	0
 12047 3104 2D       		.uleb128 0x2d
 12048 3105 76010000 		.4byte	.LASF765
 12049 3109 9001     		.2byte	0x190
ARM GAS  C:\Users\CHRIST~1\AppData\Local\Temp\ccCFoZV9.s 			page 214


 12050 310b 2A       		.byte	0x2a
 12051 310c 5D       		.byte	0x5d
 12052 310d 42310000 		.4byte	0x3142
 12053 3111 08       		.uleb128 0x8
 12054 3112 CD180000 		.4byte	.LASF746
 12055 3116 2A       		.byte	0x2a
 12056 3117 5E       		.byte	0x5e
 12057 3118 42310000 		.4byte	0x3142
 12058 311c 00       		.byte	0
 12059 311d 08       		.uleb128 0x8
 12060 311e 39020000 		.4byte	.LASF766
 12061 3122 2A       		.byte	0x2a
 12062 3123 5F       		.byte	0x5f
 12063 3124 B1000000 		.4byte	0xb1
 12064 3128 04       		.byte	0x4
 12065 3129 08       		.uleb128 0x8
 12066 312a 322D0000 		.4byte	.LASF767
 12067 312e 2A       		.byte	0x2a
 12068 312f 61       		.byte	0x61
 12069 3130 48310000 		.4byte	0x3148
 12070 3134 08       		.byte	0x8
 12071 3135 08       		.uleb128 0x8
 12072 3136 341B0000 		.4byte	.LASF760
 12073 313a 2A       		.byte	0x2a
 12074 313b 62       		.byte	0x62
 12075 313c B4300000 		.4byte	0x30b4
 12076 3140 88       		.byte	0x88
 12077 3141 00       		.byte	0
 12078 3142 0B       		.uleb128 0xb
 12079 3143 04       		.byte	0x4
 12080 3144 04310000 		.4byte	0x3104
 12081 3148 11       		.uleb128 0x11
 12082 3149 58310000 		.4byte	0x3158
 12083 314d 58310000 		.4byte	0x3158
 12084 3151 12       		.uleb128 0x12
 12085 3152 F5040000 		.4byte	0x4f5
 12086 3156 1F       		.byte	0x1f
 12087 3157 00       		.byte	0
 12088 3158 0B       		.uleb128 0xb
 12089 3159 04       		.byte	0x4
 12090 315a 5E310000 		.4byte	0x315e
 12091 315e 2E       		.uleb128 0x2e
 12092 315f 07       		.uleb128 0x7
 12093 3160 D8210000 		.4byte	.LASF768
 12094 3164 08       		.byte	0x8
 12095 3165 2A       		.byte	0x2a
 12096 3166 75       		.byte	0x75
 12097 3167 84310000 		.4byte	0x3184
 12098 316b 08       		.uleb128 0x8
 12099 316c C71B0000 		.4byte	.LASF769
 12100 3170 2A       		.byte	0x2a
 12101 3171 76       		.byte	0x76
 12102 3172 84310000 		.4byte	0x3184
 12103 3176 00       		.byte	0
 12104 3177 08       		.uleb128 0x8
 12105 3178 C50E0000 		.4byte	.LASF770
 12106 317c 2A       		.byte	0x2a
ARM GAS  C:\Users\CHRIST~1\AppData\Local\Temp\ccCFoZV9.s 			page 215


 12107 317d 77       		.byte	0x77
 12108 317e B1000000 		.4byte	0xb1
 12109 3182 04       		.byte	0x4
 12110 3183 00       		.byte	0
 12111 3184 0B       		.uleb128 0xb
 12112 3185 04       		.byte	0x4
 12113 3186 49000000 		.4byte	0x49
 12114 318a 07       		.uleb128 0x7
 12115 318b 102D0000 		.4byte	.LASF771
 12116 318f 68       		.byte	0x68
 12117 3190 2A       		.byte	0x2a
 12118 3191 B5       		.byte	0xb5
 12119 3192 B4320000 		.4byte	0x32b4
 12120 3196 16       		.uleb128 0x16
 12121 3197 5F7000   		.ascii	"_p\000"
 12122 319a 2A       		.byte	0x2a
 12123 319b B6       		.byte	0xb6
 12124 319c 84310000 		.4byte	0x3184
 12125 31a0 00       		.byte	0
 12126 31a1 16       		.uleb128 0x16
 12127 31a2 5F7200   		.ascii	"_r\000"
 12128 31a5 2A       		.byte	0x2a
 12129 31a6 B7       		.byte	0xb7
 12130 31a7 B1000000 		.4byte	0xb1
 12131 31ab 04       		.byte	0x4
 12132 31ac 16       		.uleb128 0x16
 12133 31ad 5F7700   		.ascii	"_w\000"
 12134 31b0 2A       		.byte	0x2a
 12135 31b1 B8       		.byte	0xb8
 12136 31b2 B1000000 		.4byte	0xb1
 12137 31b6 08       		.byte	0x8
 12138 31b7 08       		.uleb128 0x8
 12139 31b8 C7020000 		.4byte	.LASF772
 12140 31bc 2A       		.byte	0x2a
 12141 31bd B9       		.byte	0xb9
 12142 31be 5B000000 		.4byte	0x5b
 12143 31c2 0C       		.byte	0xc
 12144 31c3 08       		.uleb128 0x8
 12145 31c4 B32C0000 		.4byte	.LASF773
 12146 31c8 2A       		.byte	0x2a
 12147 31c9 BA       		.byte	0xba
 12148 31ca 5B000000 		.4byte	0x5b
 12149 31ce 0E       		.byte	0xe
 12150 31cf 16       		.uleb128 0x16
 12151 31d0 5F626600 		.ascii	"_bf\000"
 12152 31d4 2A       		.byte	0x2a
 12153 31d5 BB       		.byte	0xbb
 12154 31d6 5F310000 		.4byte	0x315f
 12155 31da 10       		.byte	0x10
 12156 31db 08       		.uleb128 0x8
 12157 31dc E8050000 		.4byte	.LASF774
 12158 31e0 2A       		.byte	0x2a
 12159 31e1 BC       		.byte	0xbc
 12160 31e2 B1000000 		.4byte	0xb1
 12161 31e6 18       		.byte	0x18
 12162 31e7 08       		.uleb128 0x8
 12163 31e8 5C190000 		.4byte	.LASF775
ARM GAS  C:\Users\CHRIST~1\AppData\Local\Temp\ccCFoZV9.s 			page 216


 12164 31ec 2A       		.byte	0x2a
 12165 31ed C3       		.byte	0xc3
 12166 31ee BF030000 		.4byte	0x3bf
 12167 31f2 1C       		.byte	0x1c
 12168 31f3 08       		.uleb128 0x8
 12169 31f4 6A130000 		.4byte	.LASF776
 12170 31f8 2A       		.byte	0x2a
 12171 31f9 C5       		.byte	0xc5
 12172 31fa 0F340000 		.4byte	0x340f
 12173 31fe 20       		.byte	0x20
 12174 31ff 08       		.uleb128 0x8
 12175 3200 77100000 		.4byte	.LASF777
 12176 3204 2A       		.byte	0x2a
 12177 3205 C7       		.byte	0xc7
 12178 3206 33340000 		.4byte	0x3433
 12179 320a 24       		.byte	0x24
 12180 320b 08       		.uleb128 0x8
 12181 320c 621F0000 		.4byte	.LASF778
 12182 3210 2A       		.byte	0x2a
 12183 3211 CA       		.byte	0xca
 12184 3212 57340000 		.4byte	0x3457
 12185 3216 28       		.byte	0x28
 12186 3217 08       		.uleb128 0x8
 12187 3218 27270000 		.4byte	.LASF779
 12188 321c 2A       		.byte	0x2a
 12189 321d CB       		.byte	0xcb
 12190 321e 71340000 		.4byte	0x3471
 12191 3222 2C       		.byte	0x2c
 12192 3223 16       		.uleb128 0x16
 12193 3224 5F756200 		.ascii	"_ub\000"
 12194 3228 2A       		.byte	0x2a
 12195 3229 CE       		.byte	0xce
 12196 322a 5F310000 		.4byte	0x315f
 12197 322e 30       		.byte	0x30
 12198 322f 16       		.uleb128 0x16
 12199 3230 5F757000 		.ascii	"_up\000"
 12200 3234 2A       		.byte	0x2a
 12201 3235 CF       		.byte	0xcf
 12202 3236 84310000 		.4byte	0x3184
 12203 323a 38       		.byte	0x38
 12204 323b 16       		.uleb128 0x16
 12205 323c 5F757200 		.ascii	"_ur\000"
 12206 3240 2A       		.byte	0x2a
 12207 3241 D0       		.byte	0xd0
 12208 3242 B1000000 		.4byte	0xb1
 12209 3246 3C       		.byte	0x3c
 12210 3247 08       		.uleb128 0x8
 12211 3248 992B0000 		.4byte	.LASF780
 12212 324c 2A       		.byte	0x2a
 12213 324d D3       		.byte	0xd3
 12214 324e 86160000 		.4byte	0x1686
 12215 3252 40       		.byte	0x40
 12216 3253 08       		.uleb128 0x8
 12217 3254 B8030000 		.4byte	.LASF781
 12218 3258 2A       		.byte	0x2a
 12219 3259 D4       		.byte	0xd4
 12220 325a 77340000 		.4byte	0x3477
ARM GAS  C:\Users\CHRIST~1\AppData\Local\Temp\ccCFoZV9.s 			page 217


 12221 325e 43       		.byte	0x43
 12222 325f 16       		.uleb128 0x16
 12223 3260 5F6C6200 		.ascii	"_lb\000"
 12224 3264 2A       		.byte	0x2a
 12225 3265 D7       		.byte	0xd7
 12226 3266 5F310000 		.4byte	0x315f
 12227 326a 44       		.byte	0x44
 12228 326b 08       		.uleb128 0x8
 12229 326c 27100000 		.4byte	.LASF782
 12230 3270 2A       		.byte	0x2a
 12231 3271 DA       		.byte	0xda
 12232 3272 B1000000 		.4byte	0xb1
 12233 3276 4C       		.byte	0x4c
 12234 3277 08       		.uleb128 0x8
 12235 3278 70210000 		.4byte	.LASF783
 12236 327c 2A       		.byte	0x2a
 12237 327d DB       		.byte	0xdb
 12238 327e 392F0000 		.4byte	0x2f39
 12239 3282 50       		.byte	0x50
 12240 3283 08       		.uleb128 0x8
 12241 3284 E61D0000 		.4byte	.LASF784
 12242 3288 2A       		.byte	0x2a
 12243 3289 DE       		.byte	0xde
 12244 328a D2320000 		.4byte	0x32d2
 12245 328e 54       		.byte	0x54
 12246 328f 08       		.uleb128 0x8
 12247 3290 B2030000 		.4byte	.LASF785
 12248 3294 2A       		.byte	0x2a
 12249 3295 E2       		.byte	0xe2
 12250 3296 B62F0000 		.4byte	0x2fb6
 12251 329a 58       		.byte	0x58
 12252 329b 08       		.uleb128 0x8
 12253 329c 6D010000 		.4byte	.LASF786
 12254 32a0 2A       		.byte	0x2a
 12255 32a1 E4       		.byte	0xe4
 12256 32a2 AB2F0000 		.4byte	0x2fab
 12257 32a6 5C       		.byte	0x5c
 12258 32a7 08       		.uleb128 0x8
 12259 32a8 19360000 		.4byte	.LASF787
 12260 32ac 2A       		.byte	0x2a
 12261 32ad E5       		.byte	0xe5
 12262 32ae B1000000 		.4byte	0xb1
 12263 32b2 64       		.byte	0x64
 12264 32b3 00       		.byte	0
 12265 32b4 26       		.uleb128 0x26
 12266 32b5 B1000000 		.4byte	0xb1
 12267 32b9 D2320000 		.4byte	0x32d2
 12268 32bd 0E       		.uleb128 0xe
 12269 32be D2320000 		.4byte	0x32d2
 12270 32c2 0E       		.uleb128 0xe
 12271 32c3 BF030000 		.4byte	0x3bf
 12272 32c7 0E       		.uleb128 0xe
 12273 32c8 C12F0000 		.4byte	0x2fc1
 12274 32cc 0E       		.uleb128 0xe
 12275 32cd B1000000 		.4byte	0xb1
 12276 32d1 00       		.byte	0
 12277 32d2 0B       		.uleb128 0xb
ARM GAS  C:\Users\CHRIST~1\AppData\Local\Temp\ccCFoZV9.s 			page 218


 12278 32d3 04       		.byte	0x4
 12279 32d4 DD320000 		.4byte	0x32dd
 12280 32d8 06       		.uleb128 0x6
 12281 32d9 D2320000 		.4byte	0x32d2
 12282 32dd 10       		.uleb128 0x10
 12283 32de 40220000 		.4byte	.LASF788
 12284 32e2 2804     		.2byte	0x428
 12285 32e4 2A       		.byte	0x2a
 12286 32e5 3902     		.2byte	0x239
 12287 32e7 0F340000 		.4byte	0x340f
 12288 32eb 0A       		.uleb128 0xa
 12289 32ec CA160000 		.4byte	.LASF789
 12290 32f0 2A       		.byte	0x2a
 12291 32f1 3B02     		.2byte	0x23b
 12292 32f3 B1000000 		.4byte	0xb1
 12293 32f7 00       		.byte	0
 12294 32f8 0A       		.uleb128 0xa
 12295 32f9 3F110000 		.4byte	.LASF790
 12296 32fd 2A       		.byte	0x2a
 12297 32fe 4002     		.2byte	0x240
 12298 3300 CE340000 		.4byte	0x34ce
 12299 3304 04       		.byte	0x4
 12300 3305 0A       		.uleb128 0xa
 12301 3306 410D0000 		.4byte	.LASF791
 12302 330a 2A       		.byte	0x2a
 12303 330b 4002     		.2byte	0x240
 12304 330d CE340000 		.4byte	0x34ce
 12305 3311 08       		.byte	0x8
 12306 3312 0A       		.uleb128 0xa
 12307 3313 260C0000 		.4byte	.LASF792
 12308 3317 2A       		.byte	0x2a
 12309 3318 4002     		.2byte	0x240
 12310 331a CE340000 		.4byte	0x34ce
 12311 331e 0C       		.byte	0xc
 12312 331f 0A       		.uleb128 0xa
 12313 3320 34020000 		.4byte	.LASF793
 12314 3324 2A       		.byte	0x2a
 12315 3325 4202     		.2byte	0x242
 12316 3327 B1000000 		.4byte	0xb1
 12317 332b 10       		.byte	0x10
 12318 332c 0A       		.uleb128 0xa
 12319 332d 78140000 		.4byte	.LASF794
 12320 3331 2A       		.byte	0x2a
 12321 3332 4302     		.2byte	0x243
 12322 3334 B0360000 		.4byte	0x36b0
 12323 3338 14       		.byte	0x14
 12324 3339 0A       		.uleb128 0xa
 12325 333a 9A330000 		.4byte	.LASF795
 12326 333e 2A       		.byte	0x2a
 12327 333f 4602     		.2byte	0x246
 12328 3341 B1000000 		.4byte	0xb1
 12329 3345 30       		.byte	0x30
 12330 3346 0A       		.uleb128 0xa
 12331 3347 B1360000 		.4byte	.LASF796
 12332 334b 2A       		.byte	0x2a
 12333 334c 4702     		.2byte	0x247
 12334 334e C5360000 		.4byte	0x36c5
ARM GAS  C:\Users\CHRIST~1\AppData\Local\Temp\ccCFoZV9.s 			page 219


 12335 3352 34       		.byte	0x34
 12336 3353 0A       		.uleb128 0xa
 12337 3354 26340000 		.4byte	.LASF797
 12338 3358 2A       		.byte	0x2a
 12339 3359 4902     		.2byte	0x249
 12340 335b B1000000 		.4byte	0xb1
 12341 335f 38       		.byte	0x38
 12342 3360 0A       		.uleb128 0xa
 12343 3361 8B1B0000 		.4byte	.LASF798
 12344 3365 2A       		.byte	0x2a
 12345 3366 4B02     		.2byte	0x24b
 12346 3368 D6360000 		.4byte	0x36d6
 12347 336c 3C       		.byte	0x3c
 12348 336d 0A       		.uleb128 0xa
 12349 336e 3D0C0000 		.4byte	.LASF799
 12350 3372 2A       		.byte	0x2a
 12351 3373 4E02     		.2byte	0x24e
 12352 3375 25300000 		.4byte	0x3025
 12353 3379 40       		.byte	0x40
 12354 337a 0A       		.uleb128 0xa
 12355 337b 170C0000 		.4byte	.LASF800
 12356 337f 2A       		.byte	0x2a
 12357 3380 4F02     		.2byte	0x24f
 12358 3382 B1000000 		.4byte	0xb1
 12359 3386 44       		.byte	0x44
 12360 3387 0A       		.uleb128 0xa
 12361 3388 812F0000 		.4byte	.LASF801
 12362 338c 2A       		.byte	0x2a
 12363 338d 5002     		.2byte	0x250
 12364 338f 25300000 		.4byte	0x3025
 12365 3393 48       		.byte	0x48
 12366 3394 0A       		.uleb128 0xa
 12367 3395 BA200000 		.4byte	.LASF802
 12368 3399 2A       		.byte	0x2a
 12369 339a 5102     		.2byte	0x251
 12370 339c DC360000 		.4byte	0x36dc
 12371 33a0 4C       		.byte	0x4c
 12372 33a1 0A       		.uleb128 0xa
 12373 33a2 FC020000 		.4byte	.LASF803
 12374 33a6 2A       		.byte	0x2a
 12375 33a7 5402     		.2byte	0x254
 12376 33a9 B1000000 		.4byte	0xb1
 12377 33ad 50       		.byte	0x50
 12378 33ae 0A       		.uleb128 0xa
 12379 33af 5B140000 		.4byte	.LASF804
 12380 33b3 2A       		.byte	0x2a
 12381 33b4 5502     		.2byte	0x255
 12382 33b6 C12F0000 		.4byte	0x2fc1
 12383 33ba 54       		.byte	0x54
 12384 33bb 0A       		.uleb128 0xa
 12385 33bc 45060000 		.4byte	.LASF805
 12386 33c0 2A       		.byte	0x2a
 12387 33c1 7802     		.2byte	0x278
 12388 33c3 8E360000 		.4byte	0x368e
 12389 33c7 58       		.byte	0x58
 12390 33c8 1A       		.uleb128 0x1a
 12391 33c9 76010000 		.4byte	.LASF765
ARM GAS  C:\Users\CHRIST~1\AppData\Local\Temp\ccCFoZV9.s 			page 220


 12392 33cd 2A       		.byte	0x2a
 12393 33ce 7C02     		.2byte	0x27c
 12394 33d0 42310000 		.4byte	0x3142
 12395 33d4 4801     		.2byte	0x148
 12396 33d6 1A       		.uleb128 0x1a
 12397 33d7 E0280000 		.4byte	.LASF806
 12398 33db 2A       		.byte	0x2a
 12399 33dc 7D02     		.2byte	0x27d
 12400 33de 04310000 		.4byte	0x3104
 12401 33e2 4C01     		.2byte	0x14c
 12402 33e4 1A       		.uleb128 0x1a
 12403 33e5 00280000 		.4byte	.LASF807
 12404 33e9 2A       		.byte	0x2a
 12405 33ea 8102     		.2byte	0x281
 12406 33ec ED360000 		.4byte	0x36ed
 12407 33f0 DC02     		.2byte	0x2dc
 12408 33f2 1A       		.uleb128 0x1a
 12409 33f3 D52B0000 		.4byte	.LASF808
 12410 33f7 2A       		.byte	0x2a
 12411 33f8 8602     		.2byte	0x286
 12412 33fa 93340000 		.4byte	0x3493
 12413 33fe E002     		.2byte	0x2e0
 12414 3400 1A       		.uleb128 0x1a
 12415 3401 A2070000 		.4byte	.LASF809
 12416 3405 2A       		.byte	0x2a
 12417 3406 8702     		.2byte	0x287
 12418 3408 F9360000 		.4byte	0x36f9
 12419 340c EC02     		.2byte	0x2ec
 12420 340e 00       		.byte	0
 12421 340f 0B       		.uleb128 0xb
 12422 3410 04       		.byte	0x4
 12423 3411 B4320000 		.4byte	0x32b4
 12424 3415 26       		.uleb128 0x26
 12425 3416 B1000000 		.4byte	0xb1
 12426 341a 33340000 		.4byte	0x3433
 12427 341e 0E       		.uleb128 0xe
 12428 341f D2320000 		.4byte	0x32d2
 12429 3423 0E       		.uleb128 0xe
 12430 3424 BF030000 		.4byte	0x3bf
 12431 3428 0E       		.uleb128 0xe
 12432 3429 1E0D0000 		.4byte	0xd1e
 12433 342d 0E       		.uleb128 0xe
 12434 342e B1000000 		.4byte	0xb1
 12435 3432 00       		.byte	0
 12436 3433 0B       		.uleb128 0xb
 12437 3434 04       		.byte	0x4
 12438 3435 15340000 		.4byte	0x3415
 12439 3439 26       		.uleb128 0x26
 12440 343a 442F0000 		.4byte	0x2f44
 12441 343e 57340000 		.4byte	0x3457
 12442 3442 0E       		.uleb128 0xe
 12443 3443 D2320000 		.4byte	0x32d2
 12444 3447 0E       		.uleb128 0xe
 12445 3448 BF030000 		.4byte	0x3bf
 12446 344c 0E       		.uleb128 0xe
 12447 344d 442F0000 		.4byte	0x2f44
 12448 3451 0E       		.uleb128 0xe
ARM GAS  C:\Users\CHRIST~1\AppData\Local\Temp\ccCFoZV9.s 			page 221


 12449 3452 B1000000 		.4byte	0xb1
 12450 3456 00       		.byte	0
 12451 3457 0B       		.uleb128 0xb
 12452 3458 04       		.byte	0x4
 12453 3459 39340000 		.4byte	0x3439
 12454 345d 26       		.uleb128 0x26
 12455 345e B1000000 		.4byte	0xb1
 12456 3462 71340000 		.4byte	0x3471
 12457 3466 0E       		.uleb128 0xe
 12458 3467 D2320000 		.4byte	0x32d2
 12459 346b 0E       		.uleb128 0xe
 12460 346c BF030000 		.4byte	0x3bf
 12461 3470 00       		.byte	0
 12462 3471 0B       		.uleb128 0xb
 12463 3472 04       		.byte	0x4
 12464 3473 5D340000 		.4byte	0x345d
 12465 3477 11       		.uleb128 0x11
 12466 3478 49000000 		.4byte	0x49
 12467 347c 87340000 		.4byte	0x3487
 12468 3480 12       		.uleb128 0x12
 12469 3481 F5040000 		.4byte	0x4f5
 12470 3485 00       		.byte	0
 12471 3486 00       		.byte	0
 12472 3487 18       		.uleb128 0x18
 12473 3488 22380000 		.4byte	.LASF810
 12474 348c 2A       		.byte	0x2a
 12475 348d 1F01     		.2byte	0x11f
 12476 348f 8A310000 		.4byte	0x318a
 12477 3493 0C       		.uleb128 0xc
 12478 3494 4C270000 		.4byte	.LASF811
 12479 3498 0C       		.byte	0xc
 12480 3499 2A       		.byte	0x2a
 12481 349a 2301     		.2byte	0x123
 12482 349c C8340000 		.4byte	0x34c8
 12483 34a0 0A       		.uleb128 0xa
 12484 34a1 CD180000 		.4byte	.LASF746
 12485 34a5 2A       		.byte	0x2a
 12486 34a6 2501     		.2byte	0x125
 12487 34a8 C8340000 		.4byte	0x34c8
 12488 34ac 00       		.byte	0
 12489 34ad 0A       		.uleb128 0xa
 12490 34ae 5F160000 		.4byte	.LASF812
 12491 34b2 2A       		.byte	0x2a
 12492 34b3 2601     		.2byte	0x126
 12493 34b5 B1000000 		.4byte	0xb1
 12494 34b9 04       		.byte	0x4
 12495 34ba 0A       		.uleb128 0xa
 12496 34bb 3C240000 		.4byte	.LASF813
 12497 34bf 2A       		.byte	0x2a
 12498 34c0 2701     		.2byte	0x127
 12499 34c2 CE340000 		.4byte	0x34ce
 12500 34c6 08       		.byte	0x8
 12501 34c7 00       		.byte	0
 12502 34c8 0B       		.uleb128 0xb
 12503 34c9 04       		.byte	0x4
 12504 34ca 93340000 		.4byte	0x3493
 12505 34ce 0B       		.uleb128 0xb
ARM GAS  C:\Users\CHRIST~1\AppData\Local\Temp\ccCFoZV9.s 			page 222


 12506 34cf 04       		.byte	0x4
 12507 34d0 87340000 		.4byte	0x3487
 12508 34d4 0C       		.uleb128 0xc
 12509 34d5 9C3A0000 		.4byte	.LASF814
 12510 34d9 0E       		.byte	0xe
 12511 34da 2A       		.byte	0x2a
 12512 34db 3F01     		.2byte	0x13f
 12513 34dd 09350000 		.4byte	0x3509
 12514 34e1 0A       		.uleb128 0xa
 12515 34e2 2A1F0000 		.4byte	.LASF815
 12516 34e6 2A       		.byte	0x2a
 12517 34e7 4001     		.2byte	0x140
 12518 34e9 09350000 		.4byte	0x3509
 12519 34ed 00       		.byte	0
 12520 34ee 0A       		.uleb128 0xa
 12521 34ef D9390000 		.4byte	.LASF816
 12522 34f3 2A       		.byte	0x2a
 12523 34f4 4101     		.2byte	0x141
 12524 34f6 09350000 		.4byte	0x3509
 12525 34fa 06       		.byte	0x6
 12526 34fb 0A       		.uleb128 0xa
 12527 34fc 19220000 		.4byte	.LASF817
 12528 3500 2A       		.byte	0x2a
 12529 3501 4201     		.2byte	0x142
 12530 3503 6D000000 		.4byte	0x6d
 12531 3507 0C       		.byte	0xc
 12532 3508 00       		.byte	0
 12533 3509 11       		.uleb128 0x11
 12534 350a 6D000000 		.4byte	0x6d
 12535 350e 19350000 		.4byte	0x3519
 12536 3512 12       		.uleb128 0x12
 12537 3513 F5040000 		.4byte	0x4f5
 12538 3517 02       		.byte	0x2
 12539 3518 00       		.byte	0
 12540 3519 17       		.uleb128 0x17
 12541 351a D0       		.byte	0xd0
 12542 351b 2A       		.byte	0x2a
 12543 351c 5902     		.2byte	0x259
 12544 351e 1A360000 		.4byte	0x361a
 12545 3522 0A       		.uleb128 0xa
 12546 3523 230A0000 		.4byte	.LASF818
 12547 3527 2A       		.byte	0x2a
 12548 3528 5B02     		.2byte	0x25b
 12549 352a BD000000 		.4byte	0xbd
 12550 352e 00       		.byte	0
 12551 352f 0A       		.uleb128 0xa
 12552 3530 BC1E0000 		.4byte	.LASF819
 12553 3534 2A       		.byte	0x2a
 12554 3535 5C02     		.2byte	0x25c
 12555 3537 C12F0000 		.4byte	0x2fc1
 12556 353b 04       		.byte	0x4
 12557 353c 0A       		.uleb128 0xa
 12558 353d 6E220000 		.4byte	.LASF820
 12559 3541 2A       		.byte	0x2a
 12560 3542 5D02     		.2byte	0x25d
 12561 3544 1A360000 		.4byte	0x361a
 12562 3548 08       		.byte	0x8
ARM GAS  C:\Users\CHRIST~1\AppData\Local\Temp\ccCFoZV9.s 			page 223


 12563 3549 0A       		.uleb128 0xa
 12564 354a E5120000 		.4byte	.LASF821
 12565 354e 2A       		.byte	0x2a
 12566 354f 5E02     		.2byte	0x25e
 12567 3551 3B300000 		.4byte	0x303b
 12568 3555 24       		.byte	0x24
 12569 3556 0A       		.uleb128 0xa
 12570 3557 F7310000 		.4byte	.LASF822
 12571 355b 2A       		.byte	0x2a
 12572 355c 5F02     		.2byte	0x25f
 12573 355e B1000000 		.4byte	0xb1
 12574 3562 48       		.byte	0x48
 12575 3563 0A       		.uleb128 0xa
 12576 3564 6F240000 		.4byte	.LASF823
 12577 3568 2A       		.byte	0x2a
 12578 3569 6002     		.2byte	0x260
 12579 356b AA000000 		.4byte	0xaa
 12580 356f 50       		.byte	0x50
 12581 3570 0A       		.uleb128 0xa
 12582 3571 87390000 		.4byte	.LASF824
 12583 3575 2A       		.byte	0x2a
 12584 3576 6102     		.2byte	0x261
 12585 3578 D4340000 		.4byte	0x34d4
 12586 357c 58       		.byte	0x58
 12587 357d 0A       		.uleb128 0xa
 12588 357e C82B0000 		.4byte	.LASF825
 12589 3582 2A       		.byte	0x2a
 12590 3583 6202     		.2byte	0x262
 12591 3585 AB2F0000 		.4byte	0x2fab
 12592 3589 68       		.byte	0x68
 12593 358a 0A       		.uleb128 0xa
 12594 358b D0070000 		.4byte	.LASF826
 12595 358f 2A       		.byte	0x2a
 12596 3590 6302     		.2byte	0x263
 12597 3592 AB2F0000 		.4byte	0x2fab
 12598 3596 70       		.byte	0x70
 12599 3597 0A       		.uleb128 0xa
 12600 3598 E1040000 		.4byte	.LASF827
 12601 359c 2A       		.byte	0x2a
 12602 359d 6402     		.2byte	0x264
 12603 359f AB2F0000 		.4byte	0x2fab
 12604 35a3 78       		.byte	0x78
 12605 35a4 0A       		.uleb128 0xa
 12606 35a5 55220000 		.4byte	.LASF828
 12607 35a9 2A       		.byte	0x2a
 12608 35aa 6502     		.2byte	0x265
 12609 35ac 2A360000 		.4byte	0x362a
 12610 35b0 80       		.byte	0x80
 12611 35b1 0A       		.uleb128 0xa
 12612 35b2 20190000 		.4byte	.LASF829
 12613 35b6 2A       		.byte	0x2a
 12614 35b7 6602     		.2byte	0x266
 12615 35b9 3A360000 		.4byte	0x363a
 12616 35bd 88       		.byte	0x88
 12617 35be 0A       		.uleb128 0xa
 12618 35bf C0290000 		.4byte	.LASF830
 12619 35c3 2A       		.byte	0x2a
ARM GAS  C:\Users\CHRIST~1\AppData\Local\Temp\ccCFoZV9.s 			page 224


 12620 35c4 6702     		.2byte	0x267
 12621 35c6 B1000000 		.4byte	0xb1
 12622 35ca A0       		.byte	0xa0
 12623 35cb 0A       		.uleb128 0xa
 12624 35cc BB100000 		.4byte	.LASF831
 12625 35d0 2A       		.byte	0x2a
 12626 35d1 6802     		.2byte	0x268
 12627 35d3 AB2F0000 		.4byte	0x2fab
 12628 35d7 A4       		.byte	0xa4
 12629 35d8 0A       		.uleb128 0xa
 12630 35d9 44000000 		.4byte	.LASF832
 12631 35dd 2A       		.byte	0x2a
 12632 35de 6902     		.2byte	0x269
 12633 35e0 AB2F0000 		.4byte	0x2fab
 12634 35e4 AC       		.byte	0xac
 12635 35e5 0A       		.uleb128 0xa
 12636 35e6 A70D0000 		.4byte	.LASF833
 12637 35ea 2A       		.byte	0x2a
 12638 35eb 6A02     		.2byte	0x26a
 12639 35ed AB2F0000 		.4byte	0x2fab
 12640 35f1 B4       		.byte	0xb4
 12641 35f2 0A       		.uleb128 0xa
 12642 35f3 201C0000 		.4byte	.LASF834
 12643 35f7 2A       		.byte	0x2a
 12644 35f8 6B02     		.2byte	0x26b
 12645 35fa AB2F0000 		.4byte	0x2fab
 12646 35fe BC       		.byte	0xbc
 12647 35ff 0A       		.uleb128 0xa
 12648 3600 A3220000 		.4byte	.LASF835
 12649 3604 2A       		.byte	0x2a
 12650 3605 6C02     		.2byte	0x26c
 12651 3607 AB2F0000 		.4byte	0x2fab
 12652 360b C4       		.byte	0xc4
 12653 360c 0A       		.uleb128 0xa
 12654 360d E02D0000 		.4byte	.LASF836
 12655 3611 2A       		.byte	0x2a
 12656 3612 6D02     		.2byte	0x26d
 12657 3614 B1000000 		.4byte	0xb1
 12658 3618 CC       		.byte	0xcc
 12659 3619 00       		.byte	0
 12660 361a 11       		.uleb128 0x11
 12661 361b 290D0000 		.4byte	0xd29
 12662 361f 2A360000 		.4byte	0x362a
 12663 3623 12       		.uleb128 0x12
 12664 3624 F5040000 		.4byte	0x4f5
 12665 3628 19       		.byte	0x19
 12666 3629 00       		.byte	0
 12667 362a 11       		.uleb128 0x11
 12668 362b 290D0000 		.4byte	0xd29
 12669 362f 3A360000 		.4byte	0x363a
 12670 3633 12       		.uleb128 0x12
 12671 3634 F5040000 		.4byte	0x4f5
 12672 3638 07       		.byte	0x7
 12673 3639 00       		.byte	0
 12674 363a 11       		.uleb128 0x11
 12675 363b 290D0000 		.4byte	0xd29
 12676 363f 4A360000 		.4byte	0x364a
ARM GAS  C:\Users\CHRIST~1\AppData\Local\Temp\ccCFoZV9.s 			page 225


 12677 3643 12       		.uleb128 0x12
 12678 3644 F5040000 		.4byte	0x4f5
 12679 3648 17       		.byte	0x17
 12680 3649 00       		.byte	0
 12681 364a 17       		.uleb128 0x17
 12682 364b F0       		.byte	0xf0
 12683 364c 2A       		.byte	0x2a
 12684 364d 7202     		.2byte	0x272
 12685 364f 6E360000 		.4byte	0x366e
 12686 3653 0A       		.uleb128 0xa
 12687 3654 44360000 		.4byte	.LASF837
 12688 3658 2A       		.byte	0x2a
 12689 3659 7502     		.2byte	0x275
 12690 365b 6E360000 		.4byte	0x366e
 12691 365f 00       		.byte	0
 12692 3660 0A       		.uleb128 0xa
 12693 3661 54110000 		.4byte	.LASF838
 12694 3665 2A       		.byte	0x2a
 12695 3666 7602     		.2byte	0x276
 12696 3668 7E360000 		.4byte	0x367e
 12697 366c 78       		.byte	0x78
 12698 366d 00       		.byte	0
 12699 366e 11       		.uleb128 0x11
 12700 366f 84310000 		.4byte	0x3184
 12701 3673 7E360000 		.4byte	0x367e
 12702 3677 12       		.uleb128 0x12
 12703 3678 F5040000 		.4byte	0x4f5
 12704 367c 1D       		.byte	0x1d
 12705 367d 00       		.byte	0
 12706 367e 11       		.uleb128 0x11
 12707 367f BD000000 		.4byte	0xbd
 12708 3683 8E360000 		.4byte	0x368e
 12709 3687 12       		.uleb128 0x12
 12710 3688 F5040000 		.4byte	0x4f5
 12711 368c 1D       		.byte	0x1d
 12712 368d 00       		.byte	0
 12713 368e 2B       		.uleb128 0x2b
 12714 368f F0       		.byte	0xf0
 12715 3690 2A       		.byte	0x2a
 12716 3691 5702     		.2byte	0x257
 12717 3693 B0360000 		.4byte	0x36b0
 12718 3697 1D       		.uleb128 0x1d
 12719 3698 40220000 		.4byte	.LASF788
 12720 369c 2A       		.byte	0x2a
 12721 369d 6E02     		.2byte	0x26e
 12722 369f 19350000 		.4byte	0x3519
 12723 36a3 1D       		.uleb128 0x1d
 12724 36a4 5A2B0000 		.4byte	.LASF839
 12725 36a8 2A       		.byte	0x2a
 12726 36a9 7702     		.2byte	0x277
 12727 36ab 4A360000 		.4byte	0x364a
 12728 36af 00       		.byte	0
 12729 36b0 11       		.uleb128 0x11
 12730 36b1 290D0000 		.4byte	0xd29
 12731 36b5 C0360000 		.4byte	0x36c0
 12732 36b9 12       		.uleb128 0x12
 12733 36ba F5040000 		.4byte	0x4f5
ARM GAS  C:\Users\CHRIST~1\AppData\Local\Temp\ccCFoZV9.s 			page 226


 12734 36be 18       		.byte	0x18
 12735 36bf 00       		.byte	0
 12736 36c0 2C       		.uleb128 0x2c
 12737 36c1 DD2B0000 		.4byte	.LASF841
 12738 36c5 0B       		.uleb128 0xb
 12739 36c6 04       		.byte	0x4
 12740 36c7 C0360000 		.4byte	0x36c0
 12741 36cb 0D       		.uleb128 0xd
 12742 36cc D6360000 		.4byte	0x36d6
 12743 36d0 0E       		.uleb128 0xe
 12744 36d1 D2320000 		.4byte	0x32d2
 12745 36d5 00       		.byte	0
 12746 36d6 0B       		.uleb128 0xb
 12747 36d7 04       		.byte	0x4
 12748 36d8 CB360000 		.4byte	0x36cb
 12749 36dc 0B       		.uleb128 0xb
 12750 36dd 04       		.byte	0x4
 12751 36de 25300000 		.4byte	0x3025
 12752 36e2 0D       		.uleb128 0xd
 12753 36e3 ED360000 		.4byte	0x36ed
 12754 36e7 0E       		.uleb128 0xe
 12755 36e8 B1000000 		.4byte	0xb1
 12756 36ec 00       		.byte	0
 12757 36ed 0B       		.uleb128 0xb
 12758 36ee 04       		.byte	0x4
 12759 36ef F3360000 		.4byte	0x36f3
 12760 36f3 0B       		.uleb128 0xb
 12761 36f4 04       		.byte	0x4
 12762 36f5 E2360000 		.4byte	0x36e2
 12763 36f9 11       		.uleb128 0x11
 12764 36fa 87340000 		.4byte	0x3487
 12765 36fe 09370000 		.4byte	0x3709
 12766 3702 12       		.uleb128 0x12
 12767 3703 F5040000 		.4byte	0x4f5
 12768 3707 02       		.byte	0x2
 12769 3708 00       		.byte	0
 12770 3709 13       		.uleb128 0x13
 12771 370a 3F2B0000 		.4byte	.LASF842
 12772 370e 2A       		.byte	0x2a
 12773 370f FE02     		.2byte	0x2fe
 12774 3711 D2320000 		.4byte	0x32d2
 12775 3715 13       		.uleb128 0x13
 12776 3716 5B2D0000 		.4byte	.LASF843
 12777 371a 2A       		.byte	0x2a
 12778 371b FF02     		.2byte	0x2ff
 12779 371d D8320000 		.4byte	0x32d8
 12780 3721 02       		.uleb128 0x2
 12781 3722 08       		.byte	0x8
 12782 3723 04       		.byte	0x4
 12783 3724 2B2D0000 		.4byte	.LASF844
 12784 3728 2F       		.uleb128 0x2f
 12785 3729 FA220000 		.4byte	.LASF1085
 12786 372d 01       		.byte	0x1
 12787 372e 37000000 		.4byte	0x37
 12788 3732 2B       		.byte	0x2b
 12789 3733 8202     		.2byte	0x282
 12790 3735 52370000 		.4byte	0x3752
ARM GAS  C:\Users\CHRIST~1\AppData\Local\Temp\ccCFoZV9.s 			page 227


 12791 3739 30       		.uleb128 0x30
 12792 373a 41200000 		.4byte	.LASF845
 12793 373e 7F       		.sleb128 -1
 12794 373f 20       		.uleb128 0x20
 12795 3740 15030000 		.4byte	.LASF846
 12796 3744 00       		.byte	0
 12797 3745 20       		.uleb128 0x20
 12798 3746 AE1F0000 		.4byte	.LASF847
 12799 374a 01       		.byte	0x1
 12800 374b 20       		.uleb128 0x20
 12801 374c 31340000 		.4byte	.LASF848
 12802 3750 02       		.byte	0x2
 12803 3751 00       		.byte	0
 12804 3752 13       		.uleb128 0x13
 12805 3753 2F390000 		.4byte	.LASF849
 12806 3757 2B       		.byte	0x2b
 12807 3758 8D02     		.2byte	0x28d
 12808 375a 28370000 		.4byte	0x3728
 12809 375e 31       		.uleb128 0x31
 12810 375f 6F180000 		.4byte	0x186f
 12811 3763 01       		.byte	0x1
 12812 3764 28       		.byte	0x28
 12813 3765 05       		.uleb128 0x5
 12814 3766 03       		.byte	0x3
 12815 3767 00000000 		.4byte	ADC_Value
 12816 376b 31       		.uleb128 0x31
 12817 376c 8A180000 		.4byte	0x188a
 12818 3770 01       		.byte	0x1
 12819 3771 29       		.byte	0x29
 12820 3772 05       		.uleb128 0x5
 12821 3773 03       		.byte	0x3
 12822 3774 00000000 		.4byte	ADC_curr_norm_value
 12823 3778 32       		.uleb128 0x32
 12824 3779 65200000 		.4byte	.LASF850
 12825 377d 01       		.byte	0x1
 12826 377e 2C       		.byte	0x2c
 12827 377f 7C160000 		.4byte	0x167c
 12828 3783 05       		.uleb128 0x5
 12829 3784 03       		.byte	0x3
 12830 3785 00000000 		.4byte	m_conf
 12831 3789 32       		.uleb128 0x32
 12832 378a 89090000 		.4byte	.LASF851
 12833 378e 01       		.byte	0x1
 12834 378f 2D       		.byte	0x2d
 12835 3790 E0100000 		.4byte	0x10e0
 12836 3794 05       		.uleb128 0x5
 12837 3795 03       		.byte	0x3
 12838 3796 00000000 		.4byte	m_fault_now
 12839 379a 32       		.uleb128 0x32
 12840 379b FD0E0000 		.4byte	.LASF852
 12841 379f 01       		.byte	0x1
 12842 37a0 2E       		.byte	0x2e
 12843 37a1 B1000000 		.4byte	0xb1
 12844 37a5 05       		.uleb128 0x5
 12845 37a6 03       		.byte	0x3
 12846 37a7 00000000 		.4byte	m_ignore_iterations
 12847 37ab 32       		.uleb128 0x32
ARM GAS  C:\Users\CHRIST~1\AppData\Local\Temp\ccCFoZV9.s 			page 228


 12848 37ac A9200000 		.4byte	.LASF853
 12849 37b0 01       		.byte	0x1
 12850 37b1 2F       		.byte	0x2f
 12851 37b2 C4000000 		.4byte	0xc4
 12852 37b6 05       		.uleb128 0x5
 12853 37b7 03       		.byte	0x3
 12854 37b8 00000000 		.4byte	m_cycles_running
 12855 37bc 32       		.uleb128 0x32
 12856 37bd 483A0000 		.4byte	.LASF854
 12857 37c1 01       		.byte	0x1
 12858 37c2 30       		.byte	0x30
 12859 37c3 4C160000 		.4byte	0x164c
 12860 37c7 05       		.uleb128 0x5
 12861 37c8 03       		.byte	0x3
 12862 37c9 00000000 		.4byte	m_lock_enabled
 12863 37cd 32       		.uleb128 0x32
 12864 37ce 8D0A0000 		.4byte	.LASF855
 12865 37d2 01       		.byte	0x1
 12866 37d3 31       		.byte	0x31
 12867 37d4 4C160000 		.4byte	0x164c
 12868 37d8 05       		.uleb128 0x5
 12869 37d9 03       		.byte	0x3
 12870 37da 00000000 		.4byte	m_lock_override_once
 12871 37de 32       		.uleb128 0x32
 12872 37df 1F280000 		.4byte	.LASF856
 12873 37e3 01       		.byte	0x1
 12874 37e4 32       		.byte	0x32
 12875 37e5 15110000 		.4byte	0x1115
 12876 37e9 05       		.uleb128 0x5
 12877 37ea 03       		.byte	0x3
 12878 37eb 00000000 		.4byte	m_motor_current_sum
 12879 37ef 32       		.uleb128 0x32
 12880 37f0 7E100000 		.4byte	.LASF857
 12881 37f4 01       		.byte	0x1
 12882 37f5 33       		.byte	0x33
 12883 37f6 15110000 		.4byte	0x1115
 12884 37fa 05       		.uleb128 0x5
 12885 37fb 03       		.byte	0x3
 12886 37fc 00000000 		.4byte	m_input_current_sum
 12887 3800 32       		.uleb128 0x32
 12888 3801 C5280000 		.4byte	.LASF858
 12889 3805 01       		.byte	0x1
 12890 3806 34       		.byte	0x34
 12891 3807 15110000 		.4byte	0x1115
 12892 380b 05       		.uleb128 0x5
 12893 380c 03       		.byte	0x3
 12894 380d 00000000 		.4byte	m_motor_current_iterations
 12895 3811 32       		.uleb128 0x32
 12896 3812 6F1C0000 		.4byte	.LASF859
 12897 3816 01       		.byte	0x1
 12898 3817 35       		.byte	0x35
 12899 3818 15110000 		.4byte	0x1115
 12900 381c 05       		.uleb128 0x5
 12901 381d 03       		.byte	0x3
 12902 381e 00000000 		.4byte	m_input_current_iterations
 12903 3822 32       		.uleb128 0x32
 12904 3823 82230000 		.4byte	.LASF860
ARM GAS  C:\Users\CHRIST~1\AppData\Local\Temp\ccCFoZV9.s 			page 229


 12905 3827 01       		.byte	0x1
 12906 3828 36       		.byte	0x36
 12907 3829 15110000 		.4byte	0x1115
 12908 382d 05       		.uleb128 0x5
 12909 382e 03       		.byte	0x3
 12910 382f 00000000 		.4byte	m_motor_id_sum
 12911 3833 32       		.uleb128 0x32
 12912 3834 97270000 		.4byte	.LASF861
 12913 3838 01       		.byte	0x1
 12914 3839 37       		.byte	0x37
 12915 383a 15110000 		.4byte	0x1115
 12916 383e 05       		.uleb128 0x5
 12917 383f 03       		.byte	0x3
 12918 3840 00000000 		.4byte	m_motor_iq_sum
 12919 3844 32       		.uleb128 0x32
 12920 3845 71390000 		.4byte	.LASF862
 12921 3849 01       		.byte	0x1
 12922 384a 38       		.byte	0x38
 12923 384b 15110000 		.4byte	0x1115
 12924 384f 05       		.uleb128 0x5
 12925 3850 03       		.byte	0x3
 12926 3851 00000000 		.4byte	m_motor_id_iterations
 12927 3855 32       		.uleb128 0x32
 12928 3856 BA090000 		.4byte	.LASF863
 12929 385a 01       		.byte	0x1
 12930 385b 39       		.byte	0x39
 12931 385c 15110000 		.4byte	0x1115
 12932 3860 05       		.uleb128 0x5
 12933 3861 03       		.byte	0x3
 12934 3862 00000000 		.4byte	m_motor_iq_iterations
 12935 3866 32       		.uleb128 0x32
 12936 3867 C91E0000 		.4byte	.LASF864
 12937 386b 01       		.byte	0x1
 12938 386c 3A       		.byte	0x3a
 12939 386d 15110000 		.4byte	0x1115
 12940 3871 05       		.uleb128 0x5
 12941 3872 03       		.byte	0x3
 12942 3873 00000000 		.4byte	m_amp_seconds
 12943 3877 32       		.uleb128 0x32
 12944 3878 C3390000 		.4byte	.LASF865
 12945 387c 01       		.byte	0x1
 12946 387d 3B       		.byte	0x3b
 12947 387e 15110000 		.4byte	0x1115
 12948 3882 05       		.uleb128 0x5
 12949 3883 03       		.byte	0x3
 12950 3884 00000000 		.4byte	m_amp_seconds_charged
 12951 3888 32       		.uleb128 0x32
 12952 3889 2E0C0000 		.4byte	.LASF866
 12953 388d 01       		.byte	0x1
 12954 388e 3C       		.byte	0x3c
 12955 388f 15110000 		.4byte	0x1115
 12956 3893 05       		.uleb128 0x5
 12957 3894 03       		.byte	0x3
 12958 3895 00000000 		.4byte	m_watt_seconds
 12959 3899 32       		.uleb128 0x32
 12960 389a 740C0000 		.4byte	.LASF867
 12961 389e 01       		.byte	0x1
ARM GAS  C:\Users\CHRIST~1\AppData\Local\Temp\ccCFoZV9.s 			page 230


 12962 389f 3D       		.byte	0x3d
 12963 38a0 15110000 		.4byte	0x1115
 12964 38a4 05       		.uleb128 0x5
 12965 38a5 03       		.byte	0x3
 12966 38a6 00000000 		.4byte	m_watt_seconds_charged
 12967 38aa 32       		.uleb128 0x32
 12968 38ab 60000000 		.4byte	.LASF868
 12969 38af 01       		.byte	0x1
 12970 38b0 3E       		.byte	0x3e
 12971 38b1 15110000 		.4byte	0x1115
 12972 38b5 05       		.uleb128 0x5
 12973 38b6 03       		.byte	0x3
 12974 38b7 00000000 		.4byte	m_position_set
 12975 38bb 32       		.uleb128 0x32
 12976 38bc A2260000 		.4byte	.LASF869
 12977 38c0 01       		.byte	0x1
 12978 38c1 3F       		.byte	0x3f
 12979 38c2 15110000 		.4byte	0x1115
 12980 38c6 05       		.uleb128 0x5
 12981 38c7 03       		.byte	0x3
 12982 38c8 00000000 		.4byte	m_temp_fet
 12983 38cc 32       		.uleb128 0x32
 12984 38cd 231A0000 		.4byte	.LASF870
 12985 38d1 01       		.byte	0x1
 12986 38d2 40       		.byte	0x40
 12987 38d3 15110000 		.4byte	0x1115
 12988 38d7 05       		.uleb128 0x5
 12989 38d8 03       		.byte	0x3
 12990 38d9 00000000 		.4byte	m_temp_motor
 12991 38dd 11       		.uleb128 0x11
 12992 38de F9000000 		.4byte	0xf9
 12993 38e2 EE380000 		.4byte	0x38ee
 12994 38e6 29       		.uleb128 0x29
 12995 38e7 F5040000 		.4byte	0x4f5
 12996 38eb CF07     		.2byte	0x7cf
 12997 38ed 00       		.byte	0
 12998 38ee 05       		.uleb128 0x5
 12999 38ef DD380000 		.4byte	0x38dd
 13000 38f3 32       		.uleb128 0x32
 13001 38f4 A1310000 		.4byte	.LASF871
 13002 38f8 01       		.byte	0x1
 13003 38f9 44       		.byte	0x44
 13004 38fa EE380000 		.4byte	0x38ee
 13005 38fe 05       		.uleb128 0x5
 13006 38ff 03       		.byte	0x3
 13007 3900 00000000 		.4byte	m_curr0_samples
 13008 3904 32       		.uleb128 0x32
 13009 3905 C4310000 		.4byte	.LASF872
 13010 3909 01       		.byte	0x1
 13011 390a 45       		.byte	0x45
 13012 390b EE380000 		.4byte	0x38ee
 13013 390f 05       		.uleb128 0x5
 13014 3910 03       		.byte	0x3
 13015 3911 A00F0000 		.4byte	m_curr1_samples
 13016 3915 32       		.uleb128 0x32
 13017 3916 31110000 		.4byte	.LASF873
 13018 391a 01       		.byte	0x1
ARM GAS  C:\Users\CHRIST~1\AppData\Local\Temp\ccCFoZV9.s 			page 231


 13019 391b 46       		.byte	0x46
 13020 391c EE380000 		.4byte	0x38ee
 13021 3920 05       		.uleb128 0x5
 13022 3921 03       		.byte	0x3
 13023 3922 401F0000 		.4byte	m_ph1_samples
 13024 3926 32       		.uleb128 0x32
 13025 3927 46110000 		.4byte	.LASF874
 13026 392b 01       		.byte	0x1
 13027 392c 47       		.byte	0x47
 13028 392d EE380000 		.4byte	0x38ee
 13029 3931 05       		.uleb128 0x5
 13030 3932 03       		.byte	0x3
 13031 3933 E02E0000 		.4byte	m_ph2_samples
 13032 3937 32       		.uleb128 0x32
 13033 3938 C2120000 		.4byte	.LASF875
 13034 393c 01       		.byte	0x1
 13035 393d 48       		.byte	0x48
 13036 393e EE380000 		.4byte	0x38ee
 13037 3942 05       		.uleb128 0x5
 13038 3943 03       		.byte	0x3
 13039 3944 803E0000 		.4byte	m_ph3_samples
 13040 3948 32       		.uleb128 0x32
 13041 3949 013B0000 		.4byte	.LASF876
 13042 394d 01       		.byte	0x1
 13043 394e 49       		.byte	0x49
 13044 394f EE380000 		.4byte	0x38ee
 13045 3953 05       		.uleb128 0x5
 13046 3954 03       		.byte	0x3
 13047 3955 204E0000 		.4byte	m_vzero_samples
 13048 3959 11       		.uleb128 0x11
 13049 395a E4000000 		.4byte	0xe4
 13050 395e 6A390000 		.4byte	0x396a
 13051 3962 29       		.uleb128 0x29
 13052 3963 F5040000 		.4byte	0x4f5
 13053 3967 CF07     		.2byte	0x7cf
 13054 3969 00       		.byte	0
 13055 396a 05       		.uleb128 0x5
 13056 396b 59390000 		.4byte	0x3959
 13057 396f 32       		.uleb128 0x32
 13058 3970 69070000 		.4byte	.LASF877
 13059 3974 01       		.byte	0x1
 13060 3975 4A       		.byte	0x4a
 13061 3976 6A390000 		.4byte	0x396a
 13062 397a 05       		.uleb128 0x5
 13063 397b 03       		.byte	0x3
 13064 397c 007D0000 		.4byte	m_status_samples
 13065 3980 32       		.uleb128 0x32
 13066 3981 793A0000 		.4byte	.LASF878
 13067 3985 01       		.byte	0x1
 13068 3986 4B       		.byte	0x4b
 13069 3987 EE380000 		.4byte	0x38ee
 13070 398b 05       		.uleb128 0x5
 13071 398c 03       		.byte	0x3
 13072 398d C05D0000 		.4byte	m_curr_fir_samples
 13073 3991 32       		.uleb128 0x32
 13074 3992 9B370000 		.4byte	.LASF879
 13075 3996 01       		.byte	0x1
ARM GAS  C:\Users\CHRIST~1\AppData\Local\Temp\ccCFoZV9.s 			page 232


 13076 3997 4C       		.byte	0x4c
 13077 3998 EE380000 		.4byte	0x38ee
 13078 399c 05       		.uleb128 0x5
 13079 399d 03       		.byte	0x3
 13080 399e 606D0000 		.4byte	m_f_sw_samples
 13081 39a2 11       		.uleb128 0x11
 13082 39a3 D4000000 		.4byte	0xd4
 13083 39a7 B3390000 		.4byte	0x39b3
 13084 39ab 29       		.uleb128 0x29
 13085 39ac F5040000 		.4byte	0x4f5
 13086 39b0 CF07     		.2byte	0x7cf
 13087 39b2 00       		.byte	0
 13088 39b3 05       		.uleb128 0x5
 13089 39b4 A2390000 		.4byte	0x39a2
 13090 39b8 32       		.uleb128 0x32
 13091 39b9 5E280000 		.4byte	.LASF880
 13092 39bd 01       		.byte	0x1
 13093 39be 4D       		.byte	0x4d
 13094 39bf B3390000 		.4byte	0x39b3
 13095 39c3 05       		.uleb128 0x5
 13096 39c4 03       		.byte	0x3
 13097 39c5 D0840000 		.4byte	m_phase_samples
 13098 39c9 32       		.uleb128 0x32
 13099 39ca 90170000 		.4byte	.LASF881
 13100 39ce 01       		.byte	0x1
 13101 39cf 4E       		.byte	0x4e
 13102 39d0 B8000000 		.4byte	0xb8
 13103 39d4 05       		.uleb128 0x5
 13104 39d5 03       		.byte	0x3
 13105 39d6 00000000 		.4byte	m_sample_len
 13106 39da 32       		.uleb128 0x32
 13107 39db 600F0000 		.4byte	.LASF882
 13108 39df 01       		.byte	0x1
 13109 39e0 4F       		.byte	0x4f
 13110 39e1 B8000000 		.4byte	0xb8
 13111 39e5 05       		.uleb128 0x5
 13112 39e6 03       		.byte	0x3
 13113 39e7 00000000 		.4byte	m_sample_int
 13114 39eb 32       		.uleb128 0x32
 13115 39ec F9130000 		.4byte	.LASF883
 13116 39f0 01       		.byte	0x1
 13117 39f1 50       		.byte	0x50
 13118 39f2 97110000 		.4byte	0x1197
 13119 39f6 05       		.uleb128 0x5
 13120 39f7 03       		.byte	0x3
 13121 39f8 00000000 		.4byte	m_sample_mode
 13122 39fc 32       		.uleb128 0x32
 13123 39fd 2D220000 		.4byte	.LASF884
 13124 3a01 01       		.byte	0x1
 13125 3a02 51       		.byte	0x51
 13126 3a03 97110000 		.4byte	0x1197
 13127 3a07 05       		.uleb128 0x5
 13128 3a08 03       		.byte	0x3
 13129 3a09 00000000 		.4byte	m_sample_mode_last
 13130 3a0d 32       		.uleb128 0x32
 13131 3a0e 112E0000 		.4byte	.LASF885
 13132 3a12 01       		.byte	0x1
ARM GAS  C:\Users\CHRIST~1\AppData\Local\Temp\ccCFoZV9.s 			page 233


 13133 3a13 52       		.byte	0x52
 13134 3a14 B8000000 		.4byte	0xb8
 13135 3a18 05       		.uleb128 0x5
 13136 3a19 03       		.byte	0x3
 13137 3a1a 00000000 		.4byte	m_sample_now
 13138 3a1e 32       		.uleb128 0x32
 13139 3a1f 372D0000 		.4byte	.LASF886
 13140 3a23 01       		.byte	0x1
 13141 3a24 53       		.byte	0x53
 13142 3a25 B8000000 		.4byte	0xb8
 13143 3a29 05       		.uleb128 0x5
 13144 3a2a 03       		.byte	0x3
 13145 3a2b 00000000 		.4byte	m_sample_trigger
 13146 3a2f 32       		.uleb128 0x32
 13147 3a30 36190000 		.4byte	.LASF887
 13148 3a34 01       		.byte	0x1
 13149 3a35 54       		.byte	0x54
 13150 3a36 15110000 		.4byte	0x1115
 13151 3a3a 05       		.uleb128 0x5
 13152 3a3b 03       		.byte	0x3
 13153 3a3c 00000000 		.4byte	m_last_adc_duration_sample
 13154 3a40 32       		.uleb128 0x32
 13155 3a41 A41E0000 		.4byte	.LASF888
 13156 3a45 01       		.byte	0x1
 13157 3a46 5A       		.byte	0x5a
 13158 3a47 58310000 		.4byte	0x3158
 13159 3a4b 05       		.uleb128 0x5
 13160 3a4c 03       		.byte	0x3
 13161 3a4d 00000000 		.4byte	pwn_done_func
 13162 3a51 11       		.uleb128 0x11
 13163 3a52 CE0A0000 		.4byte	0xace
 13164 3a56 613A0000 		.4byte	0x3a61
 13165 3a5a 12       		.uleb128 0x12
 13166 3a5b F5040000 		.4byte	0x4f5
 13167 3a5f B2       		.byte	0xb2
 13168 3a60 00       		.byte	0
 13169 3a61 32       		.uleb128 0x32
 13170 3a62 D2050000 		.4byte	.LASF889
 13171 3a66 01       		.byte	0x1
 13172 3a67 5D       		.byte	0x5d
 13173 3a68 513A0000 		.4byte	0x3a51
 13174 3a6c 05       		.uleb128 0x5
 13175 3a6d 03       		.byte	0x3
 13176 3a6e 00000000 		.4byte	timer_thread_wa
 13177 3a72 32       		.uleb128 0x32
 13178 3a73 D2140000 		.4byte	.LASF890
 13179 3a77 01       		.byte	0x1
 13180 3a78 5F       		.byte	0x5f
 13181 3a79 513A0000 		.4byte	0x3a51
 13182 3a7d 05       		.uleb128 0x5
 13183 3a7e 03       		.byte	0x3
 13184 3a7f 00000000 		.4byte	sample_send_thread_wa
 13185 3a83 32       		.uleb128 0x32
 13186 3a84 603B0000 		.4byte	.LASF891
 13187 3a88 01       		.byte	0x1
 13188 3a89 61       		.byte	0x61
 13189 3a8a E2020000 		.4byte	0x2e2
ARM GAS  C:\Users\CHRIST~1\AppData\Local\Temp\ccCFoZV9.s 			page 234


 13190 3a8e 05       		.uleb128 0x5
 13191 3a8f 03       		.byte	0x3
 13192 3a90 00000000 		.4byte	sample_send_tp
 13193 3a94 33       		.uleb128 0x33
 13194 3a95 AE2F0000 		.4byte	.LASF895
 13195 3a99 01       		.byte	0x1
 13196 3a9a BB05     		.2byte	0x5bb
 13197 3a9c 00000000 		.4byte	.LFB311
 13198 3aa0 44020000 		.4byte	.LFE311-.LFB311
 13199 3aa4 01       		.uleb128 0x1
 13200 3aa5 9C       		.byte	0x9c
 13201 3aa6 4D3C0000 		.4byte	0x3c4d
 13202 3aaa 34       		.uleb128 0x34
 13203 3aab 61726700 		.ascii	"arg\000"
 13204 3aaf 01       		.byte	0x1
 13205 3ab0 BB05     		.2byte	0x5bb
 13206 3ab2 BF030000 		.4byte	0x3bf
 13207 3ab6 00000000 		.4byte	.LLST0
 13208 3aba 35       		.uleb128 0x35
 13209 3abb 20000000 		.4byte	.Ldebug_ranges0+0x20
 13210 3abf 323C0000 		.4byte	0x3c32
 13211 3ac3 36       		.uleb128 0x36
 13212 3ac4 6C656E00 		.ascii	"len\000"
 13213 3ac8 01       		.byte	0x1
 13214 3ac9 C505     		.2byte	0x5c5
 13215 3acb B1000000 		.4byte	0xb1
 13216 3acf 21000000 		.4byte	.LLST2
 13217 3ad3 37       		.uleb128 0x37
 13218 3ad4 80310000 		.4byte	.LASF151
 13219 3ad8 01       		.byte	0x1
 13220 3ad9 C605     		.2byte	0x5c6
 13221 3adb B1000000 		.4byte	0xb1
 13222 3adf 65000000 		.4byte	.LLST3
 13223 3ae3 35       		.uleb128 0x35
 13224 3ae4 38000000 		.4byte	.Ldebug_ranges0+0x38
 13225 3ae8 223C0000 		.4byte	0x3c22
 13226 3aec 36       		.uleb128 0x36
 13227 3aed 6900     		.ascii	"i\000"
 13228 3aef 01       		.byte	0x1
 13229 3af0 DA05     		.2byte	0x5da
 13230 3af2 B1000000 		.4byte	0xb1
 13231 3af6 90000000 		.4byte	.LLST4
 13232 3afa 38       		.uleb128 0x38
 13233 3afb 68000000 		.4byte	.Ldebug_ranges0+0x68
 13234 3aff 39       		.uleb128 0x39
 13235 3b00 B9290000 		.4byte	.LASF892
 13236 3b04 01       		.byte	0x1
 13237 3b05 DB05     		.2byte	0x5db
 13238 3b07 4D3C0000 		.4byte	0x3c4d
 13239 3b0b 03       		.uleb128 0x3
 13240 3b0c 91       		.byte	0x91
 13241 3b0d 987F     		.sleb128 -104
 13242 3b0f 39       		.uleb128 0x39
 13243 3b10 9E060000 		.4byte	.LASF893
 13244 3b14 01       		.byte	0x1
 13245 3b15 DC05     		.2byte	0x5dc
 13246 3b17 0E010000 		.4byte	0x10e
ARM GAS  C:\Users\CHRIST~1\AppData\Local\Temp\ccCFoZV9.s 			page 235


 13247 3b1b 03       		.uleb128 0x3
 13248 3b1c 91       		.byte	0x91
 13249 3b1d 947F     		.sleb128 -108
 13250 3b1f 37       		.uleb128 0x37
 13251 3b20 6B1A0000 		.4byte	.LASF894
 13252 3b24 01       		.byte	0x1
 13253 3b25 DD05     		.2byte	0x5dd
 13254 3b27 B1000000 		.4byte	0xb1
 13255 3b2b D3000000 		.4byte	.LLST5
 13256 3b2f 3A       		.uleb128 0x3a
 13257 3b30 A0000000 		.4byte	.LVL10
 13258 3b34 0B540000 		.4byte	0x540b
 13259 3b38 4B3B0000 		.4byte	0x3b4b
 13260 3b3c 3B       		.uleb128 0x3b
 13261 3b3d 01       		.uleb128 0x1
 13262 3b3e 50       		.byte	0x50
 13263 3b3f 03       		.uleb128 0x3
 13264 3b40 91       		.byte	0x91
 13265 3b41 987F     		.sleb128 -104
 13266 3b43 3B       		.uleb128 0x3b
 13267 3b44 01       		.uleb128 0x1
 13268 3b45 51       		.byte	0x51
 13269 3b46 03       		.uleb128 0x3
 13270 3b47 91       		.byte	0x91
 13271 3b48 947F     		.sleb128 -108
 13272 3b4a 00       		.byte	0
 13273 3b4b 3A       		.uleb128 0x3a
 13274 3b4c BC000000 		.4byte	.LVL11
 13275 3b50 0B540000 		.4byte	0x540b
 13276 3b54 673B0000 		.4byte	0x3b67
 13277 3b58 3B       		.uleb128 0x3b
 13278 3b59 01       		.uleb128 0x1
 13279 3b5a 50       		.byte	0x50
 13280 3b5b 03       		.uleb128 0x3
 13281 3b5c 91       		.byte	0x91
 13282 3b5d 987F     		.sleb128 -104
 13283 3b5f 3B       		.uleb128 0x3b
 13284 3b60 01       		.uleb128 0x1
 13285 3b61 51       		.byte	0x51
 13286 3b62 03       		.uleb128 0x3
 13287 3b63 91       		.byte	0x91
 13288 3b64 947F     		.sleb128 -108
 13289 3b66 00       		.byte	0
 13290 3b67 3A       		.uleb128 0x3a
 13291 3b68 E8000000 		.4byte	.LVL13
 13292 3b6c 0B540000 		.4byte	0x540b
 13293 3b70 833B0000 		.4byte	0x3b83
 13294 3b74 3B       		.uleb128 0x3b
 13295 3b75 01       		.uleb128 0x1
 13296 3b76 50       		.byte	0x50
 13297 3b77 03       		.uleb128 0x3
 13298 3b78 91       		.byte	0x91
 13299 3b79 987F     		.sleb128 -104
 13300 3b7b 3B       		.uleb128 0x3b
 13301 3b7c 01       		.uleb128 0x1
 13302 3b7d 51       		.byte	0x51
 13303 3b7e 03       		.uleb128 0x3
ARM GAS  C:\Users\CHRIST~1\AppData\Local\Temp\ccCFoZV9.s 			page 236


 13304 3b7f 91       		.byte	0x91
 13305 3b80 947F     		.sleb128 -108
 13306 3b82 00       		.byte	0
 13307 3b83 3A       		.uleb128 0x3a
 13308 3b84 0E010000 		.4byte	.LVL14
 13309 3b88 0B540000 		.4byte	0x540b
 13310 3b8c 9F3B0000 		.4byte	0x3b9f
 13311 3b90 3B       		.uleb128 0x3b
 13312 3b91 01       		.uleb128 0x1
 13313 3b92 50       		.byte	0x50
 13314 3b93 03       		.uleb128 0x3
 13315 3b94 91       		.byte	0x91
 13316 3b95 987F     		.sleb128 -104
 13317 3b97 3B       		.uleb128 0x3b
 13318 3b98 01       		.uleb128 0x1
 13319 3b99 51       		.byte	0x51
 13320 3b9a 03       		.uleb128 0x3
 13321 3b9b 91       		.byte	0x91
 13322 3b9c 947F     		.sleb128 -108
 13323 3b9e 00       		.byte	0
 13324 3b9f 3A       		.uleb128 0x3a
 13325 3ba0 34010000 		.4byte	.LVL15
 13326 3ba4 0B540000 		.4byte	0x540b
 13327 3ba8 BB3B0000 		.4byte	0x3bbb
 13328 3bac 3B       		.uleb128 0x3b
 13329 3bad 01       		.uleb128 0x1
 13330 3bae 50       		.byte	0x50
 13331 3baf 03       		.uleb128 0x3
 13332 3bb0 91       		.byte	0x91
 13333 3bb1 987F     		.sleb128 -104
 13334 3bb3 3B       		.uleb128 0x3b
 13335 3bb4 01       		.uleb128 0x1
 13336 3bb5 51       		.byte	0x51
 13337 3bb6 03       		.uleb128 0x3
 13338 3bb7 91       		.byte	0x91
 13339 3bb8 947F     		.sleb128 -108
 13340 3bba 00       		.byte	0
 13341 3bbb 3A       		.uleb128 0x3a
 13342 3bbc 5A010000 		.4byte	.LVL16
 13343 3bc0 0B540000 		.4byte	0x540b
 13344 3bc4 D73B0000 		.4byte	0x3bd7
 13345 3bc8 3B       		.uleb128 0x3b
 13346 3bc9 01       		.uleb128 0x1
 13347 3bca 50       		.byte	0x50
 13348 3bcb 03       		.uleb128 0x3
 13349 3bcc 91       		.byte	0x91
 13350 3bcd 987F     		.sleb128 -104
 13351 3bcf 3B       		.uleb128 0x3b
 13352 3bd0 01       		.uleb128 0x1
 13353 3bd1 51       		.byte	0x51
 13354 3bd2 03       		.uleb128 0x3
 13355 3bd3 91       		.byte	0x91
 13356 3bd4 947F     		.sleb128 -108
 13357 3bd6 00       		.byte	0
 13358 3bd7 3A       		.uleb128 0x3a
 13359 3bd8 78010000 		.4byte	.LVL17
 13360 3bdc 0B540000 		.4byte	0x540b
ARM GAS  C:\Users\CHRIST~1\AppData\Local\Temp\ccCFoZV9.s 			page 237


 13361 3be0 F33B0000 		.4byte	0x3bf3
 13362 3be4 3B       		.uleb128 0x3b
 13363 3be5 01       		.uleb128 0x1
 13364 3be6 50       		.byte	0x50
 13365 3be7 03       		.uleb128 0x3
 13366 3be8 91       		.byte	0x91
 13367 3be9 987F     		.sleb128 -104
 13368 3beb 3B       		.uleb128 0x3b
 13369 3bec 01       		.uleb128 0x1
 13370 3bed 51       		.byte	0x51
 13371 3bee 03       		.uleb128 0x3
 13372 3bef 91       		.byte	0x91
 13373 3bf0 947F     		.sleb128 -108
 13374 3bf2 00       		.byte	0
 13375 3bf3 3A       		.uleb128 0x3a
 13376 3bf4 9A010000 		.4byte	.LVL18
 13377 3bf8 0B540000 		.4byte	0x540b
 13378 3bfc 0F3C0000 		.4byte	0x3c0f
 13379 3c00 3B       		.uleb128 0x3b
 13380 3c01 01       		.uleb128 0x1
 13381 3c02 50       		.byte	0x50
 13382 3c03 03       		.uleb128 0x3
 13383 3c04 91       		.byte	0x91
 13384 3c05 987F     		.sleb128 -104
 13385 3c07 3B       		.uleb128 0x3b
 13386 3c08 01       		.uleb128 0x1
 13387 3c09 51       		.byte	0x51
 13388 3c0a 03       		.uleb128 0x3
 13389 3c0b 91       		.byte	0x91
 13390 3c0c 947F     		.sleb128 -108
 13391 3c0e 00       		.byte	0
 13392 3c0f 3C       		.uleb128 0x3c
 13393 3c10 C0010000 		.4byte	.LVL21
 13394 3c14 16540000 		.4byte	0x5416
 13395 3c18 3B       		.uleb128 0x3b
 13396 3c19 01       		.uleb128 0x1
 13397 3c1a 50       		.byte	0x50
 13398 3c1b 03       		.uleb128 0x3
 13399 3c1c 91       		.byte	0x91
 13400 3c1d 987F     		.sleb128 -104
 13401 3c1f 00       		.byte	0
 13402 3c20 00       		.byte	0
 13403 3c21 00       		.byte	0
 13404 3c22 3C       		.uleb128 0x3c
 13405 3c23 3A000000 		.4byte	.LVL3
 13406 3c27 21540000 		.4byte	0x5421
 13407 3c2b 3B       		.uleb128 0x3b
 13408 3c2c 01       		.uleb128 0x1
 13409 3c2d 50       		.byte	0x50
 13410 3c2e 01       		.uleb128 0x1
 13411 3c2f 31       		.byte	0x31
 13412 3c30 00       		.byte	0
 13413 3c31 00       		.byte	0
 13414 3c32 3D       		.uleb128 0x3d
 13415 3c33 104F0000 		.4byte	0x4f10
 13416 3c37 04000000 		.4byte	.LBB109
 13417 3c3b 00000000 		.4byte	.Ldebug_ranges0+0
ARM GAS  C:\Users\CHRIST~1\AppData\Local\Temp\ccCFoZV9.s 			page 238


 13418 3c3f 01       		.byte	0x1
 13419 3c40 BE05     		.2byte	0x5be
 13420 3c42 3E       		.uleb128 0x3e
 13421 3c43 1C4F0000 		.4byte	0x4f1c
 13422 3c47 28010000 		.4byte	.LLST1
 13423 3c4b 00       		.byte	0
 13424 3c4c 00       		.byte	0
 13425 3c4d 11       		.uleb128 0x11
 13426 3c4e D9000000 		.4byte	0xd9
 13427 3c52 5D3C0000 		.4byte	0x3c5d
 13428 3c56 12       		.uleb128 0x12
 13429 3c57 F5040000 		.4byte	0x4f5
 13430 3c5b 27       		.byte	0x27
 13431 3c5c 00       		.byte	0
 13432 3c5d 33       		.uleb128 0x33
 13433 3c5e 78040000 		.4byte	.LASF896
 13434 3c62 01       		.byte	0x1
 13435 3c63 A605     		.2byte	0x5a6
 13436 3c65 00000000 		.4byte	.LFB310
 13437 3c69 48000000 		.4byte	.LFE310-.LFB310
 13438 3c6d 01       		.uleb128 0x1
 13439 3c6e 9C       		.byte	0x9c
 13440 3c6f BD3C0000 		.4byte	0x3cbd
 13441 3c73 34       		.uleb128 0x34
 13442 3c74 61726700 		.ascii	"arg\000"
 13443 3c78 01       		.byte	0x1
 13444 3c79 A605     		.2byte	0x5a6
 13445 3c7b BF030000 		.4byte	0x3bf
 13446 3c7f 40010000 		.4byte	.LLST40
 13447 3c83 3F       		.uleb128 0x3f
 13448 3c84 104F0000 		.4byte	0x4f10
 13449 3c88 00000000 		.4byte	.LBB154
 13450 3c8c 38010000 		.4byte	.Ldebug_ranges0+0x138
 13451 3c90 01       		.byte	0x1
 13452 3c91 A905     		.2byte	0x5a9
 13453 3c93 A43C0000 		.4byte	0x3ca4
 13454 3c97 40       		.uleb128 0x40
 13455 3c98 1C4F0000 		.4byte	0x4f1c
 13456 3c9c 06       		.uleb128 0x6
 13457 3c9d 03       		.byte	0x3
 13458 3c9e 00000000 		.4byte	.LC2
 13459 3ca2 9F       		.byte	0x9f
 13460 3ca3 00       		.byte	0
 13461 3ca4 41       		.uleb128 0x41
 13462 3ca5 1A000000 		.4byte	.LVL224
 13463 3ca9 5B500000 		.4byte	0x505b
 13464 3cad 3C       		.uleb128 0x3c
 13465 3cae 20000000 		.4byte	.LVL225
 13466 3cb2 2C540000 		.4byte	0x542c
 13467 3cb6 3B       		.uleb128 0x3b
 13468 3cb7 01       		.uleb128 0x1
 13469 3cb8 50       		.byte	0x50
 13470 3cb9 01       		.uleb128 0x1
 13471 3cba 3A       		.byte	0x3a
 13472 3cbb 00       		.byte	0
 13473 3cbc 00       		.byte	0
 13474 3cbd 42       		.uleb128 0x42
ARM GAS  C:\Users\CHRIST~1\AppData\Local\Temp\ccCFoZV9.s 			page 239


 13475 3cbe E7200000 		.4byte	.LASF990
 13476 3cc2 01       		.byte	0x1
 13477 3cc3 1505     		.2byte	0x515
 13478 3cc5 01       		.byte	0x1
 13479 3cc6 E73D0000 		.4byte	0x3de7
 13480 3cca 43       		.uleb128 0x43
 13481 3ccb 48240000 		.4byte	.LASF931
 13482 3ccf 01       		.byte	0x1
 13483 3cd0 1505     		.2byte	0x515
 13484 3cd2 E73D0000 		.4byte	0x3de7
 13485 3cd6 44       		.uleb128 0x44
 13486 3cd7 9D1F0000 		.4byte	.LASF897
 13487 3cdb 01       		.byte	0x1
 13488 3cdc 1605     		.2byte	0x516
 13489 3cde 1A110000 		.4byte	0x111a
 13490 3ce2 44       		.uleb128 0x44
 13491 3ce3 7A1F0000 		.4byte	.LASF898
 13492 3ce7 01       		.byte	0x1
 13493 3ce8 1705     		.2byte	0x517
 13494 3cea 1A110000 		.4byte	0x111a
 13495 3cee 44       		.uleb128 0x44
 13496 3cef 11040000 		.4byte	.LASF899
 13497 3cf3 01       		.byte	0x1
 13498 3cf4 1D05     		.2byte	0x51d
 13499 3cf6 25000000 		.4byte	0x25
 13500 3cfa 44       		.uleb128 0x44
 13501 3cfb 16020000 		.4byte	.LASF900
 13502 3cff 01       		.byte	0x1
 13503 3d00 1E05     		.2byte	0x51e
 13504 3d02 25000000 		.4byte	0x25
 13505 3d06 44       		.uleb128 0x44
 13506 3d07 E92D0000 		.4byte	.LASF901
 13507 3d0b 01       		.byte	0x1
 13508 3d0c 3805     		.2byte	0x538
 13509 3d0e 25000000 		.4byte	0x25
 13510 3d12 44       		.uleb128 0x44
 13511 3d13 8D2A0000 		.4byte	.LASF902
 13512 3d17 01       		.byte	0x1
 13513 3d18 3905     		.2byte	0x539
 13514 3d1a 25000000 		.4byte	0x25
 13515 3d1e 44       		.uleb128 0x44
 13516 3d1f B4220000 		.4byte	.LASF903
 13517 3d23 01       		.byte	0x1
 13518 3d24 5305     		.2byte	0x553
 13519 3d26 25000000 		.4byte	0x25
 13520 3d2a 44       		.uleb128 0x44
 13521 3d2b AB160000 		.4byte	.LASF904
 13522 3d2f 01       		.byte	0x1
 13523 3d30 5405     		.2byte	0x554
 13524 3d32 1A110000 		.4byte	0x111a
 13525 3d36 44       		.uleb128 0x44
 13526 3d37 49080000 		.4byte	.LASF905
 13527 3d3b 01       		.byte	0x1
 13528 3d3c 5505     		.2byte	0x555
 13529 3d3e 1A110000 		.4byte	0x111a
 13530 3d42 44       		.uleb128 0x44
 13531 3d43 0C290000 		.4byte	.LASF906
ARM GAS  C:\Users\CHRIST~1\AppData\Local\Temp\ccCFoZV9.s 			page 240


 13532 3d47 01       		.byte	0x1
 13533 3d48 5F05     		.2byte	0x55f
 13534 3d4a 25000000 		.4byte	0x25
 13535 3d4e 44       		.uleb128 0x44
 13536 3d4f 32360000 		.4byte	.LASF907
 13537 3d53 01       		.byte	0x1
 13538 3d54 6005     		.2byte	0x560
 13539 3d56 1A110000 		.4byte	0x111a
 13540 3d5a 44       		.uleb128 0x44
 13541 3d5b 6B110000 		.4byte	.LASF908
 13542 3d5f 01       		.byte	0x1
 13543 3d60 6105     		.2byte	0x561
 13544 3d62 1A110000 		.4byte	0x111a
 13545 3d66 44       		.uleb128 0x44
 13546 3d67 71290000 		.4byte	.LASF909
 13547 3d6b 01       		.byte	0x1
 13548 3d6c 6A05     		.2byte	0x56a
 13549 3d6e 25000000 		.4byte	0x25
 13550 3d72 44       		.uleb128 0x44
 13551 3d73 83140000 		.4byte	.LASF910
 13552 3d77 01       		.byte	0x1
 13553 3d78 6B05     		.2byte	0x56b
 13554 3d7a 25000000 		.4byte	0x25
 13555 3d7e 44       		.uleb128 0x44
 13556 3d7f 7F2D0000 		.4byte	.LASF911
 13557 3d83 01       		.byte	0x1
 13558 3d84 7C05     		.2byte	0x57c
 13559 3d86 25000000 		.4byte	0x25
 13560 3d8a 44       		.uleb128 0x44
 13561 3d8b 06310000 		.4byte	.LASF912
 13562 3d8f 01       		.byte	0x1
 13563 3d90 8705     		.2byte	0x587
 13564 3d92 1A110000 		.4byte	0x111a
 13565 3d96 44       		.uleb128 0x44
 13566 3d97 A1230000 		.4byte	.LASF913
 13567 3d9b 01       		.byte	0x1
 13568 3d9c 8805     		.2byte	0x588
 13569 3d9e 1A110000 		.4byte	0x111a
 13570 3da2 44       		.uleb128 0x44
 13571 3da3 BD1B0000 		.4byte	.LASF914
 13572 3da7 01       		.byte	0x1
 13573 3da8 8A05     		.2byte	0x58a
 13574 3daa 1A110000 		.4byte	0x111a
 13575 3dae 44       		.uleb128 0x44
 13576 3daf 982A0000 		.4byte	.LASF915
 13577 3db3 01       		.byte	0x1
 13578 3db4 8B05     		.2byte	0x58b
 13579 3db6 1A110000 		.4byte	0x111a
 13580 3dba 44       		.uleb128 0x44
 13581 3dbb A6040000 		.4byte	.LASF916
 13582 3dbf 01       		.byte	0x1
 13583 3dc0 9105     		.2byte	0x591
 13584 3dc2 25000000 		.4byte	0x25
 13585 3dc6 45       		.uleb128 0x45
 13586 3dc7 D83D0000 		.4byte	0x3dd8
 13587 3dcb 44       		.uleb128 0x44
 13588 3dcc 4D090000 		.4byte	.LASF917
ARM GAS  C:\Users\CHRIST~1\AppData\Local\Temp\ccCFoZV9.s 			page 241


 13589 3dd0 01       		.byte	0x1
 13590 3dd1 2705     		.2byte	0x527
 13591 3dd3 25000000 		.4byte	0x25
 13592 3dd7 00       		.byte	0
 13593 3dd8 46       		.uleb128 0x46
 13594 3dd9 44       		.uleb128 0x44
 13595 3dda 4D090000 		.4byte	.LASF917
 13596 3dde 01       		.byte	0x1
 13597 3ddf 4205     		.2byte	0x542
 13598 3de1 25000000 		.4byte	0x25
 13599 3de5 00       		.byte	0
 13600 3de6 00       		.byte	0
 13601 3de7 0B       		.uleb128 0xb
 13602 3de8 04       		.byte	0x4
 13603 3de9 7C160000 		.4byte	0x167c
 13604 3ded 47       		.uleb128 0x47
 13605 3dee A6210000 		.4byte	.LASF918
 13606 3df2 01       		.byte	0x1
 13607 3df3 0005     		.2byte	0x500
 13608 3df5 00000000 		.4byte	.LFB308
 13609 3df9 14000000 		.4byte	.LFE308-.LFB308
 13610 3dfd 01       		.uleb128 0x1
 13611 3dfe 9C       		.byte	0x9c
 13612 3dff 0D3E0000 		.4byte	0x3e0d
 13613 3e03 48       		.uleb128 0x48
 13614 3e04 0E000000 		.4byte	.LVL436
 13615 3e08 37540000 		.4byte	0x5437
 13616 3e0c 00       		.byte	0
 13617 3e0d 49       		.uleb128 0x49
 13618 3e0e 87310000 		.4byte	.LASF919
 13619 3e12 01       		.byte	0x1
 13620 3e13 1704     		.2byte	0x417
 13621 3e15 00000000 		.4byte	.LFB307
 13622 3e19 3C070000 		.4byte	.LFE307-.LFB307
 13623 3e1d 01       		.uleb128 0x1
 13624 3e1e 9C       		.byte	0x9c
 13625 3e1f 68430000 		.4byte	0x4368
 13626 3e23 37       		.uleb128 0x37
 13627 3e24 D8380000 		.4byte	.LASF920
 13628 3e28 01       		.byte	0x1
 13629 3e29 1A04     		.2byte	0x41a
 13630 3e2b 1A110000 		.4byte	0x111a
 13631 3e2f 61010000 		.4byte	.LLST64
 13632 3e33 39       		.uleb128 0x39
 13633 3e34 E1030000 		.4byte	.LASF921
 13634 3e38 01       		.byte	0x1
 13635 3e39 1D04     		.2byte	0x41d
 13636 3e3b B1000000 		.4byte	0xb1
 13637 3e3f 05       		.uleb128 0x5
 13638 3e40 03       		.byte	0x3
 13639 3e41 00000000 		.4byte	wrong_voltage_iterations.11914
 13640 3e45 37       		.uleb128 0x37
 13641 3e46 39200000 		.4byte	.LASF399
 13642 3e4a 01       		.byte	0x1
 13643 3e4b 3404     		.2byte	0x434
 13644 3e4d 1A110000 		.4byte	0x111a
 13645 3e51 81010000 		.4byte	.LLST65
ARM GAS  C:\Users\CHRIST~1\AppData\Local\Temp\ccCFoZV9.s 			page 242


 13646 3e55 37       		.uleb128 0x37
 13647 3e56 AD0A0000 		.4byte	.LASF922
 13648 3e5a 01       		.byte	0x1
 13649 3e5b 3504     		.2byte	0x435
 13650 3e5d 1A110000 		.4byte	0x111a
 13651 3e61 C5010000 		.4byte	.LLST66
 13652 3e65 37       		.uleb128 0x37
 13653 3e66 5C2C0000 		.4byte	.LASF923
 13654 3e6a 01       		.byte	0x1
 13655 3e6b 4004     		.2byte	0x440
 13656 3e6d 25000000 		.4byte	0x25
 13657 3e71 FD010000 		.4byte	.LLST67
 13658 3e75 37       		.uleb128 0x37
 13659 3e76 9F010000 		.4byte	.LASF924
 13660 3e7a 01       		.byte	0x1
 13661 3e7b 4104     		.2byte	0x441
 13662 3e7d 25000000 		.4byte	0x25
 13663 3e81 59020000 		.4byte	.LLST68
 13664 3e85 37       		.uleb128 0x37
 13665 3e86 6E050000 		.4byte	.LASF925
 13666 3e8a 01       		.byte	0x1
 13667 3e8b 5904     		.2byte	0x459
 13668 3e8d 1A110000 		.4byte	0x111a
 13669 3e91 9D020000 		.4byte	.LLST69
 13670 3e95 37       		.uleb128 0x37
 13671 3e96 9F210000 		.4byte	.LASF926
 13672 3e9a 01       		.byte	0x1
 13673 3e9b 7004     		.2byte	0x470
 13674 3e9d 45160000 		.4byte	0x1645
 13675 3ea1 89030000 		.4byte	.LLST70
 13676 3ea5 35       		.uleb128 0x35
 13677 3ea6 D0010000 		.4byte	.Ldebug_ranges0+0x1d0
 13678 3eaa D33E0000 		.4byte	0x3ed3
 13679 3eae 39       		.uleb128 0x39
 13680 3eaf BE270000 		.4byte	.LASF927
 13681 3eb3 01       		.byte	0x1
 13682 3eb4 5C04     		.2byte	0x45c
 13683 3eb6 25000000 		.4byte	0x25
 13684 3eba 05       		.uleb128 0x5
 13685 3ebb 03       		.byte	0x3
 13686 3ebc 00000000 		.4byte	curr_diff_sum.11920
 13687 3ec0 39       		.uleb128 0x39
 13688 3ec1 F2350000 		.4byte	.LASF928
 13689 3ec5 01       		.byte	0x1
 13690 3ec6 5D04     		.2byte	0x45d
 13691 3ec8 25000000 		.4byte	0x25
 13692 3ecc 05       		.uleb128 0x5
 13693 3ecd 03       		.byte	0x3
 13694 3ece 00000000 		.4byte	curr_diff_samples.11921
 13695 3ed2 00       		.byte	0
 13696 3ed3 35       		.uleb128 0x35
 13697 3ed4 90020000 		.4byte	.Ldebug_ranges0+0x290
 13698 3ed8 B03F0000 		.4byte	0x3fb0
 13699 3edc 37       		.uleb128 0x37
 13700 3edd 95090000 		.4byte	.LASF929
 13701 3ee1 01       		.byte	0x1
 13702 3ee2 9104     		.2byte	0x491
ARM GAS  C:\Users\CHRIST~1\AppData\Local\Temp\ccCFoZV9.s 			page 243


 13703 3ee4 B1000000 		.4byte	0xb1
 13704 3ee8 37040000 		.4byte	.LLST78
 13705 3eec 4A       		.uleb128 0x4a
 13706 3eed 3D4F0000 		.4byte	0x4f3d
 13707 3ef1 90060000 		.4byte	.LBB213
 13708 3ef5 06000000 		.4byte	.LBE213-.LBB213
 13709 3ef9 01       		.byte	0x1
 13710 3efa 9E04     		.2byte	0x49e
 13711 3efc 3D3F0000 		.4byte	0x3f3d
 13712 3f00 4B       		.uleb128 0x4b
 13713 3f01 4F4F0000 		.4byte	0x4f4f
 13714 3f05 90060000 		.4byte	.LBB214
 13715 3f09 06000000 		.4byte	.LBE214-.LBB214
 13716 3f0d 2C       		.byte	0x2c
 13717 3f0e 8401     		.2byte	0x184
 13718 3f10 4B       		.uleb128 0x4b
 13719 3f11 614F0000 		.4byte	0x4f61
 13720 3f15 90060000 		.4byte	.LBB215
 13721 3f19 06000000 		.4byte	.LBE215-.LBB215
 13722 3f1d 0E       		.byte	0xe
 13723 3f1e DB01     		.2byte	0x1db
 13724 3f20 4B       		.uleb128 0x4b
 13725 3f21 6A4F0000 		.4byte	0x4f6a
 13726 3f25 90060000 		.4byte	.LBB216
 13727 3f29 06000000 		.4byte	.LBE216-.LBB216
 13728 3f2d 0E       		.byte	0xe
 13729 3f2e BF01     		.2byte	0x1bf
 13730 3f30 3E       		.uleb128 0x3e
 13731 3f31 774F0000 		.4byte	0x4f77
 13732 3f35 8A040000 		.4byte	.LLST79
 13733 3f39 00       		.byte	0
 13734 3f3a 00       		.byte	0
 13735 3f3b 00       		.byte	0
 13736 3f3c 00       		.byte	0
 13737 3f3d 4A       		.uleb128 0x4a
 13738 3f3e 344F0000 		.4byte	0x4f34
 13739 3f42 A0060000 		.4byte	.LBB218
 13740 3f46 08000000 		.4byte	.LBE218-.LBB218
 13741 3f4a 01       		.byte	0x1
 13742 3f4b A004     		.2byte	0x4a0
 13743 3f4d 8E3F0000 		.4byte	0x3f8e
 13744 3f51 4B       		.uleb128 0x4b
 13745 3f52 464F0000 		.4byte	0x4f46
 13746 3f56 A0060000 		.4byte	.LBB219
 13747 3f5a 08000000 		.4byte	.LBE219-.LBB219
 13748 3f5e 2C       		.byte	0x2c
 13749 3f5f 9A01     		.2byte	0x19a
 13750 3f61 4B       		.uleb128 0x4b
 13751 3f62 584F0000 		.4byte	0x4f58
 13752 3f66 A0060000 		.4byte	.LBB220
 13753 3f6a 08000000 		.4byte	.LBE220-.LBB220
 13754 3f6e 0E       		.byte	0xe
 13755 3f6f E601     		.2byte	0x1e6
 13756 3f71 4B       		.uleb128 0x4b
 13757 3f72 6A4F0000 		.4byte	0x4f6a
 13758 3f76 A0060000 		.4byte	.LBB221
 13759 3f7a 08000000 		.4byte	.LBE221-.LBB221
ARM GAS  C:\Users\CHRIST~1\AppData\Local\Temp\ccCFoZV9.s 			page 244


 13760 3f7e 0E       		.byte	0xe
 13761 3f7f CD01     		.2byte	0x1cd
 13762 3f81 3E       		.uleb128 0x3e
 13763 3f82 774F0000 		.4byte	0x4f77
 13764 3f86 9F040000 		.4byte	.LLST80
 13765 3f8a 00       		.byte	0
 13766 3f8b 00       		.byte	0
 13767 3f8c 00       		.byte	0
 13768 3f8d 00       		.byte	0
 13769 3f8e 41       		.uleb128 0x41
 13770 3f8f 60040000 		.4byte	.LVL382
 13771 3f93 E04B0000 		.4byte	0x4be0
 13772 3f97 41       		.uleb128 0x41
 13773 3f98 7A050000 		.4byte	.LVL411
 13774 3f9c E04B0000 		.4byte	0x4be0
 13775 3fa0 3C       		.uleb128 0x3c
 13776 3fa1 A0060000 		.4byte	.LVL425
 13777 3fa5 42540000 		.4byte	0x5442
 13778 3fa9 3B       		.uleb128 0x3b
 13779 3faa 01       		.uleb128 0x1
 13780 3fab 51       		.byte	0x51
 13781 3fac 01       		.uleb128 0x1
 13782 3fad 31       		.byte	0x31
 13783 3fae 00       		.byte	0
 13784 3faf 00       		.byte	0
 13785 3fb0 35       		.uleb128 0x35
 13786 3fb1 58020000 		.4byte	.Ldebug_ranges0+0x258
 13787 3fb5 7B400000 		.4byte	0x407b
 13788 3fb9 37       		.uleb128 0x37
 13789 3fba 95090000 		.4byte	.LASF929
 13790 3fbe 01       		.byte	0x1
 13791 3fbf AF04     		.2byte	0x4af
 13792 3fc1 B1000000 		.4byte	0xb1
 13793 3fc5 B3040000 		.4byte	.LLST75
 13794 3fc9 4A       		.uleb128 0x4a
 13795 3fca 3D4F0000 		.4byte	0x4f3d
 13796 3fce A8060000 		.4byte	.LBB202
 13797 3fd2 06000000 		.4byte	.LBE202-.LBB202
 13798 3fd6 01       		.byte	0x1
 13799 3fd7 BC04     		.2byte	0x4bc
 13800 3fd9 1A400000 		.4byte	0x401a
 13801 3fdd 4B       		.uleb128 0x4b
 13802 3fde 4F4F0000 		.4byte	0x4f4f
 13803 3fe2 A8060000 		.4byte	.LBB203
 13804 3fe6 06000000 		.4byte	.LBE203-.LBB203
 13805 3fea 2C       		.byte	0x2c
 13806 3feb 8401     		.2byte	0x184
 13807 3fed 4B       		.uleb128 0x4b
 13808 3fee 614F0000 		.4byte	0x4f61
 13809 3ff2 A8060000 		.4byte	.LBB204
 13810 3ff6 06000000 		.4byte	.LBE204-.LBB204
 13811 3ffa 0E       		.byte	0xe
 13812 3ffb DB01     		.2byte	0x1db
 13813 3ffd 4B       		.uleb128 0x4b
 13814 3ffe 6A4F0000 		.4byte	0x4f6a
 13815 4002 A8060000 		.4byte	.LBB205
 13816 4006 06000000 		.4byte	.LBE205-.LBB205
ARM GAS  C:\Users\CHRIST~1\AppData\Local\Temp\ccCFoZV9.s 			page 245


 13817 400a 0E       		.byte	0xe
 13818 400b BF01     		.2byte	0x1bf
 13819 400d 3E       		.uleb128 0x3e
 13820 400e 774F0000 		.4byte	0x4f77
 13821 4012 06050000 		.4byte	.LLST76
 13822 4016 00       		.byte	0
 13823 4017 00       		.byte	0
 13824 4018 00       		.byte	0
 13825 4019 00       		.byte	0
 13826 401a 4A       		.uleb128 0x4a
 13827 401b 344F0000 		.4byte	0x4f34
 13828 401f B8060000 		.4byte	.LBB207
 13829 4023 08000000 		.4byte	.LBE207-.LBB207
 13830 4027 01       		.byte	0x1
 13831 4028 BE04     		.2byte	0x4be
 13832 402a 6B400000 		.4byte	0x406b
 13833 402e 4B       		.uleb128 0x4b
 13834 402f 464F0000 		.4byte	0x4f46
 13835 4033 B8060000 		.4byte	.LBB208
 13836 4037 08000000 		.4byte	.LBE208-.LBB208
 13837 403b 2C       		.byte	0x2c
 13838 403c 9A01     		.2byte	0x19a
 13839 403e 4B       		.uleb128 0x4b
 13840 403f 584F0000 		.4byte	0x4f58
 13841 4043 B8060000 		.4byte	.LBB209
 13842 4047 08000000 		.4byte	.LBE209-.LBB209
 13843 404b 0E       		.byte	0xe
 13844 404c E601     		.2byte	0x1e6
 13845 404e 4B       		.uleb128 0x4b
 13846 404f 6A4F0000 		.4byte	0x4f6a
 13847 4053 B8060000 		.4byte	.LBB210
 13848 4057 08000000 		.4byte	.LBE210-.LBB210
 13849 405b 0E       		.byte	0xe
 13850 405c CD01     		.2byte	0x1cd
 13851 405e 3E       		.uleb128 0x3e
 13852 405f 774F0000 		.4byte	0x4f77
 13853 4063 1B050000 		.4byte	.LLST77
 13854 4067 00       		.byte	0
 13855 4068 00       		.byte	0
 13856 4069 00       		.byte	0
 13857 406a 00       		.byte	0
 13858 406b 3C       		.uleb128 0x3c
 13859 406c B8060000 		.4byte	.LVL429
 13860 4070 42540000 		.4byte	0x5442
 13861 4074 3B       		.uleb128 0x3b
 13862 4075 01       		.uleb128 0x1
 13863 4076 51       		.byte	0x51
 13864 4077 01       		.uleb128 0x1
 13865 4078 31       		.byte	0x31
 13866 4079 00       		.byte	0
 13867 407a 00       		.byte	0
 13868 407b 35       		.uleb128 0x35
 13869 407c E8010000 		.4byte	.Ldebug_ranges0+0x1e8
 13870 4080 FA400000 		.4byte	0x40fa
 13871 4084 4C       		.uleb128 0x4c
 13872 4085 6100     		.ascii	"a\000"
 13873 4087 01       		.byte	0x1
ARM GAS  C:\Users\CHRIST~1\AppData\Local\Temp\ccCFoZV9.s 			page 246


 13874 4088 CE04     		.2byte	0x4ce
 13875 408a B1000000 		.4byte	0xb1
 13876 408e 05       		.uleb128 0x5
 13877 408f 03       		.byte	0x3
 13878 4090 00000000 		.4byte	a.11933
 13879 4094 38       		.uleb128 0x38
 13880 4095 00020000 		.4byte	.Ldebug_ranges0+0x200
 13881 4099 37       		.uleb128 0x37
 13882 409a C0280000 		.4byte	.LASF930
 13883 409e 01       		.byte	0x1
 13884 409f D804     		.2byte	0x4d8
 13885 40a1 EE000000 		.4byte	0xee
 13886 40a5 2F050000 		.4byte	.LLST73
 13887 40a9 4D       		.uleb128 0x4d
 13888 40aa 85440000 		.4byte	0x4485
 13889 40ae 02030000 		.4byte	.LBB188
 13890 40b2 18020000 		.4byte	.Ldebug_ranges0+0x218
 13891 40b6 01       		.byte	0x1
 13892 40b7 FB04     		.2byte	0x4fb
 13893 40b9 41       		.uleb128 0x41
 13894 40ba 38020000 		.4byte	.LVL360
 13895 40be E04B0000 		.4byte	0x4be0
 13896 40c2 41       		.uleb128 0x41
 13897 40c3 AA020000 		.4byte	.LVL362
 13898 40c7 9A470000 		.4byte	0x479a
 13899 40cb 41       		.uleb128 0x41
 13900 40cc EE020000 		.4byte	.LVL363
 13901 40d0 4D540000 		.4byte	0x544d
 13902 40d4 41       		.uleb128 0x41
 13903 40d5 F4020000 		.4byte	.LVL364
 13904 40d9 58540000 		.4byte	0x5458
 13905 40dd 41       		.uleb128 0x41
 13906 40de 8C050000 		.4byte	.LVL413
 13907 40e2 4D540000 		.4byte	0x544d
 13908 40e6 41       		.uleb128 0x41
 13909 40e7 B0050000 		.4byte	.LVL414
 13910 40eb 4D540000 		.4byte	0x544d
 13911 40ef 41       		.uleb128 0x41
 13912 40f0 4C060000 		.4byte	.LVL416
 13913 40f4 63540000 		.4byte	0x5463
 13914 40f8 00       		.byte	0
 13915 40f9 00       		.byte	0
 13916 40fa 3F       		.uleb128 0x3f
 13917 40fb 68430000 		.4byte	0x4368
 13918 40ff 2E010000 		.4byte	.LBB176
 13919 4103 98010000 		.4byte	.Ldebug_ranges0+0x198
 13920 4107 01       		.byte	0x1
 13921 4108 4F04     		.2byte	0x44f
 13922 410a 18410000 		.4byte	0x4118
 13923 410e 3E       		.uleb128 0x3e
 13924 410f 75430000 		.4byte	0x4375
 13925 4113 65050000 		.4byte	.LLST71
 13926 4117 00       		.byte	0
 13927 4118 4A       		.uleb128 0x4a
 13928 4119 68430000 		.4byte	0x4368
 13929 411d 38010000 		.4byte	.LBB180
 13930 4121 06000000 		.4byte	.LBE180-.LBB180
ARM GAS  C:\Users\CHRIST~1\AppData\Local\Temp\ccCFoZV9.s 			page 247


 13931 4125 01       		.byte	0x1
 13932 4126 4B04     		.2byte	0x44b
 13933 4128 41410000 		.4byte	0x4141
 13934 412c 4E       		.uleb128 0x4e
 13935 412d 75430000 		.4byte	0x4375
 13936 4131 3C       		.uleb128 0x3c
 13937 4132 3E010000 		.4byte	.LVL351
 13938 4136 844F0000 		.4byte	0x4f84
 13939 413a 3B       		.uleb128 0x3b
 13940 413b 01       		.uleb128 0x1
 13941 413c 50       		.byte	0x50
 13942 413d 01       		.uleb128 0x1
 13943 413e 34       		.byte	0x34
 13944 413f 00       		.byte	0
 13945 4140 00       		.byte	0
 13946 4141 3F       		.uleb128 0x3f
 13947 4142 68430000 		.4byte	0x4368
 13948 4146 46010000 		.4byte	.LBB182
 13949 414a B8010000 		.4byte	.Ldebug_ranges0+0x1b8
 13950 414e 01       		.byte	0x1
 13951 414f 5504     		.2byte	0x455
 13952 4151 6E410000 		.4byte	0x416e
 13953 4155 3E       		.uleb128 0x3e
 13954 4156 75430000 		.4byte	0x4375
 13955 415a 91050000 		.4byte	.LLST72
 13956 415e 3C       		.uleb128 0x3c
 13957 415f EC040000 		.4byte	.LVL394
 13958 4163 844F0000 		.4byte	0x4f84
 13959 4167 3B       		.uleb128 0x3b
 13960 4168 01       		.uleb128 0x1
 13961 4169 50       		.byte	0x50
 13962 416a 01       		.uleb128 0x1
 13963 416b 33       		.byte	0x33
 13964 416c 00       		.byte	0
 13965 416d 00       		.byte	0
 13966 416e 3F       		.uleb128 0x3f
 13967 416f 68430000 		.4byte	0x4368
 13968 4173 D8030000 		.4byte	.LBB194
 13969 4177 30020000 		.4byte	.Ldebug_ranges0+0x230
 13970 417b 01       		.byte	0x1
 13971 417c 2304     		.2byte	0x423
 13972 417e 95410000 		.4byte	0x4195
 13973 4182 3E       		.uleb128 0x3e
 13974 4183 75430000 		.4byte	0x4375
 13975 4187 B1050000 		.4byte	.LLST74
 13976 418b 41       		.uleb128 0x41
 13977 418c F2030000 		.4byte	.LVL371
 13978 4190 844F0000 		.4byte	0x4f84
 13979 4194 00       		.byte	0
 13980 4195 3F       		.uleb128 0x3f
 13981 4196 3D4F0000 		.4byte	0x4f3d
 13982 419a B2040000 		.4byte	.LBB224
 13983 419e C0020000 		.4byte	.Ldebug_ranges0+0x2c0
 13984 41a2 01       		.byte	0x1
 13985 41a3 8704     		.2byte	0x487
 13986 41a5 E6410000 		.4byte	0x41e6
 13987 41a9 3D       		.uleb128 0x3d
ARM GAS  C:\Users\CHRIST~1\AppData\Local\Temp\ccCFoZV9.s 			page 248


 13988 41aa 4F4F0000 		.4byte	0x4f4f
 13989 41ae B2040000 		.4byte	.LBB225
 13990 41b2 C0020000 		.4byte	.Ldebug_ranges0+0x2c0
 13991 41b6 2C       		.byte	0x2c
 13992 41b7 8401     		.2byte	0x184
 13993 41b9 3D       		.uleb128 0x3d
 13994 41ba 614F0000 		.4byte	0x4f61
 13995 41be B2040000 		.4byte	.LBB226
 13996 41c2 C0020000 		.4byte	.Ldebug_ranges0+0x2c0
 13997 41c6 0E       		.byte	0xe
 13998 41c7 DB01     		.2byte	0x1db
 13999 41c9 3D       		.uleb128 0x3d
 14000 41ca 6A4F0000 		.4byte	0x4f6a
 14001 41ce B2040000 		.4byte	.LBB227
 14002 41d2 C0020000 		.4byte	.Ldebug_ranges0+0x2c0
 14003 41d6 0E       		.byte	0xe
 14004 41d7 BF01     		.2byte	0x1bf
 14005 41d9 3E       		.uleb128 0x3e
 14006 41da 774F0000 		.4byte	0x4f77
 14007 41de CF050000 		.4byte	.LLST81
 14008 41e2 00       		.byte	0
 14009 41e3 00       		.byte	0
 14010 41e4 00       		.byte	0
 14011 41e5 00       		.byte	0
 14012 41e6 4A       		.uleb128 0x4a
 14013 41e7 344F0000 		.4byte	0x4f34
 14014 41eb C6040000 		.4byte	.LBB234
 14015 41ef 04000000 		.4byte	.LBE234-.LBB234
 14016 41f3 01       		.byte	0x1
 14017 41f4 8904     		.2byte	0x489
 14018 41f6 37420000 		.4byte	0x4237
 14019 41fa 4B       		.uleb128 0x4b
 14020 41fb 464F0000 		.4byte	0x4f46
 14021 41ff C6040000 		.4byte	.LBB235
 14022 4203 04000000 		.4byte	.LBE235-.LBB235
 14023 4207 2C       		.byte	0x2c
 14024 4208 9A01     		.2byte	0x19a
 14025 420a 4B       		.uleb128 0x4b
 14026 420b 584F0000 		.4byte	0x4f58
 14027 420f C6040000 		.4byte	.LBB236
 14028 4213 04000000 		.4byte	.LBE236-.LBB236
 14029 4217 0E       		.byte	0xe
 14030 4218 E601     		.2byte	0x1e6
 14031 421a 4B       		.uleb128 0x4b
 14032 421b 6A4F0000 		.4byte	0x4f6a
 14033 421f C6040000 		.4byte	.LBB237
 14034 4223 04000000 		.4byte	.LBE237-.LBB237
 14035 4227 0E       		.byte	0xe
 14036 4228 CD01     		.2byte	0x1cd
 14037 422a 3E       		.uleb128 0x3e
 14038 422b 774F0000 		.4byte	0x4f77
 14039 422f E4050000 		.4byte	.LLST82
 14040 4233 00       		.byte	0
 14041 4234 00       		.byte	0
 14042 4235 00       		.byte	0
 14043 4236 00       		.byte	0
 14044 4237 3F       		.uleb128 0x3f
ARM GAS  C:\Users\CHRIST~1\AppData\Local\Temp\ccCFoZV9.s 			page 249


 14045 4238 3D4F0000 		.4byte	0x4f3d
 14046 423c 7A060000 		.4byte	.LBB248
 14047 4240 D8020000 		.4byte	.Ldebug_ranges0+0x2d8
 14048 4244 01       		.byte	0x1
 14049 4245 7704     		.2byte	0x477
 14050 4247 88420000 		.4byte	0x4288
 14051 424b 3D       		.uleb128 0x3d
 14052 424c 4F4F0000 		.4byte	0x4f4f
 14053 4250 7A060000 		.4byte	.LBB249
 14054 4254 D8020000 		.4byte	.Ldebug_ranges0+0x2d8
 14055 4258 2C       		.byte	0x2c
 14056 4259 8401     		.2byte	0x184
 14057 425b 3D       		.uleb128 0x3d
 14058 425c 614F0000 		.4byte	0x4f61
 14059 4260 7A060000 		.4byte	.LBB250
 14060 4264 D8020000 		.4byte	.Ldebug_ranges0+0x2d8
 14061 4268 0E       		.byte	0xe
 14062 4269 DB01     		.2byte	0x1db
 14063 426b 3D       		.uleb128 0x3d
 14064 426c 6A4F0000 		.4byte	0x4f6a
 14065 4270 7A060000 		.4byte	.LBB251
 14066 4274 D8020000 		.4byte	.Ldebug_ranges0+0x2d8
 14067 4278 0E       		.byte	0xe
 14068 4279 BF01     		.2byte	0x1bf
 14069 427b 3E       		.uleb128 0x3e
 14070 427c 774F0000 		.4byte	0x4f77
 14071 4280 F8050000 		.4byte	.LLST83
 14072 4284 00       		.byte	0
 14073 4285 00       		.byte	0
 14074 4286 00       		.byte	0
 14075 4287 00       		.byte	0
 14076 4288 4A       		.uleb128 0x4a
 14077 4289 344F0000 		.4byte	0x4f34
 14078 428d 8A060000 		.4byte	.LBB258
 14079 4291 06000000 		.4byte	.LBE258-.LBB258
 14080 4295 01       		.byte	0x1
 14081 4296 7904     		.2byte	0x479
 14082 4298 D9420000 		.4byte	0x42d9
 14083 429c 4B       		.uleb128 0x4b
 14084 429d 464F0000 		.4byte	0x4f46
 14085 42a1 8A060000 		.4byte	.LBB259
 14086 42a5 06000000 		.4byte	.LBE259-.LBB259
 14087 42a9 2C       		.byte	0x2c
 14088 42aa 9A01     		.2byte	0x19a
 14089 42ac 4B       		.uleb128 0x4b
 14090 42ad 584F0000 		.4byte	0x4f58
 14091 42b1 8A060000 		.4byte	.LBB260
 14092 42b5 06000000 		.4byte	.LBE260-.LBB260
 14093 42b9 0E       		.byte	0xe
 14094 42ba E601     		.2byte	0x1e6
 14095 42bc 4B       		.uleb128 0x4b
 14096 42bd 6A4F0000 		.4byte	0x4f6a
 14097 42c1 8A060000 		.4byte	.LBB261
 14098 42c5 06000000 		.4byte	.LBE261-.LBB261
 14099 42c9 0E       		.byte	0xe
 14100 42ca CD01     		.2byte	0x1cd
 14101 42cc 3E       		.uleb128 0x3e
ARM GAS  C:\Users\CHRIST~1\AppData\Local\Temp\ccCFoZV9.s 			page 250


 14102 42cd 774F0000 		.4byte	0x4f77
 14103 42d1 0D060000 		.4byte	.LLST84
 14104 42d5 00       		.byte	0
 14105 42d6 00       		.byte	0
 14106 42d7 00       		.byte	0
 14107 42d8 00       		.byte	0
 14108 42d9 41       		.uleb128 0x41
 14109 42da 12000000 		.4byte	.LVL335
 14110 42de 6E540000 		.4byte	0x546e
 14111 42e2 41       		.uleb128 0x41
 14112 42e3 5E000000 		.4byte	.LVL337
 14113 42e7 E04B0000 		.4byte	0x4be0
 14114 42eb 41       		.uleb128 0x41
 14115 42ec 76000000 		.4byte	.LVL339
 14116 42f0 5C470000 		.4byte	0x475c
 14117 42f4 41       		.uleb128 0x41
 14118 42f5 7E000000 		.4byte	.LVL341
 14119 42f9 66460000 		.4byte	0x4666
 14120 42fd 41       		.uleb128 0x41
 14121 42fe C2000000 		.4byte	.LVL343
 14122 4302 79540000 		.4byte	0x5479
 14123 4306 41       		.uleb128 0x41
 14124 4307 D4000000 		.4byte	.LVL344
 14125 430b 84540000 		.4byte	0x5484
 14126 430f 41       		.uleb128 0x41
 14127 4310 02010000 		.4byte	.LVL345
 14128 4314 9A470000 		.4byte	0x479a
 14129 4318 41       		.uleb128 0x41
 14130 4319 5C010000 		.4byte	.LVL354
 14131 431d F5480000 		.4byte	0x48f5
 14132 4321 41       		.uleb128 0x41
 14133 4322 F6030000 		.4byte	.LVL372
 14134 4326 E04B0000 		.4byte	0x4be0
 14135 432a 41       		.uleb128 0x41
 14136 432b 88040000 		.4byte	.LVL385
 14137 432f E04B0000 		.4byte	0x4be0
 14138 4333 3A       		.uleb128 0x3a
 14139 4334 C6040000 		.4byte	.LVL390
 14140 4338 42540000 		.4byte	0x5442
 14141 433c 46430000 		.4byte	0x4346
 14142 4340 3B       		.uleb128 0x3b
 14143 4341 01       		.uleb128 0x1
 14144 4342 51       		.byte	0x51
 14145 4343 01       		.uleb128 0x1
 14146 4344 31       		.byte	0x31
 14147 4345 00       		.byte	0
 14148 4346 41       		.uleb128 0x41
 14149 4347 08050000 		.4byte	.LVL399
 14150 434b 8F540000 		.4byte	0x548f
 14151 434f 41       		.uleb128 0x41
 14152 4350 10050000 		.4byte	.LVL401
 14153 4354 9A540000 		.4byte	0x549a
 14154 4358 3C       		.uleb128 0x3c
 14155 4359 8A060000 		.4byte	.LVL421
 14156 435d 42540000 		.4byte	0x5442
 14157 4361 3B       		.uleb128 0x3b
 14158 4362 01       		.uleb128 0x1
ARM GAS  C:\Users\CHRIST~1\AppData\Local\Temp\ccCFoZV9.s 			page 251


 14159 4363 51       		.byte	0x51
 14160 4364 01       		.uleb128 0x1
 14161 4365 31       		.byte	0x31
 14162 4366 00       		.byte	0
 14163 4367 00       		.byte	0
 14164 4368 4F       		.uleb128 0x4f
 14165 4369 73380000 		.4byte	.LASF970
 14166 436d 01       		.byte	0x1
 14167 436e DF03     		.2byte	0x3df
 14168 4370 01       		.byte	0x1
 14169 4371 B4430000 		.4byte	0x43b4
 14170 4375 43       		.uleb128 0x43
 14171 4376 AC280000 		.4byte	.LASF398
 14172 437a 01       		.byte	0x1
 14173 437b DF03     		.2byte	0x3df
 14174 437d E0100000 		.4byte	0x10e0
 14175 4381 46       		.uleb128 0x46
 14176 4382 44       		.uleb128 0x44
 14177 4383 EF070000 		.4byte	.LASF932
 14178 4387 01       		.byte	0x1
 14179 4388 E903     		.2byte	0x3e9
 14180 438a B8000000 		.4byte	0xb8
 14181 438e 44       		.uleb128 0x44
 14182 438f 7C080000 		.4byte	.LASF933
 14183 4393 01       		.byte	0x1
 14184 4394 EA03     		.2byte	0x3ea
 14185 4396 B8000000 		.4byte	0xb8
 14186 439a 44       		.uleb128 0x44
 14187 439b C12E0000 		.4byte	.LASF407
 14188 439f 01       		.byte	0x1
 14189 43a0 EB03     		.2byte	0x3eb
 14190 43a2 B8000000 		.4byte	0xb8
 14191 43a6 44       		.uleb128 0x44
 14192 43a7 A9120000 		.4byte	.LASF934
 14193 43ab 01       		.byte	0x1
 14194 43ac EE03     		.2byte	0x3ee
 14195 43ae 48180000 		.4byte	0x1848
 14196 43b2 00       		.byte	0
 14197 43b3 00       		.byte	0
 14198 43b4 50       		.uleb128 0x50
 14199 43b5 78210000 		.4byte	.LASF940
 14200 43b9 01       		.byte	0x1
 14201 43ba B903     		.2byte	0x3b9
 14202 43bc B1000000 		.4byte	0xb1
 14203 43c0 00000000 		.4byte	.LFB305
 14204 43c4 74000000 		.4byte	.LFE305-.LFB305
 14205 43c8 01       		.uleb128 0x1
 14206 43c9 9C       		.byte	0x9c
 14207 43ca 03440000 		.4byte	0x4403
 14208 43ce 37       		.uleb128 0x37
 14209 43cf 58350000 		.4byte	.LASF935
 14210 43d3 01       		.byte	0x1
 14211 43d4 C003     		.2byte	0x3c0
 14212 43d6 B1000000 		.4byte	0xb1
 14213 43da 21060000 		.4byte	.LLST50
 14214 43de 41       		.uleb128 0x41
 14215 43df 06000000 		.4byte	.LVL254
ARM GAS  C:\Users\CHRIST~1\AppData\Local\Temp\ccCFoZV9.s 			page 252


 14216 43e3 E04B0000 		.4byte	0x4be0
 14217 43e7 41       		.uleb128 0x41
 14218 43e8 28000000 		.4byte	.LVL257
 14219 43ec A5540000 		.4byte	0x54a5
 14220 43f0 41       		.uleb128 0x41
 14221 43f1 48000000 		.4byte	.LVL262
 14222 43f5 B0540000 		.4byte	0x54b0
 14223 43f9 41       		.uleb128 0x41
 14224 43fa 58000000 		.4byte	.LVL265
 14225 43fe BB540000 		.4byte	0x54bb
 14226 4402 00       		.byte	0
 14227 4403 51       		.uleb128 0x51
 14228 4404 D31F0000 		.4byte	.LASF936
 14229 4408 01       		.byte	0x1
 14230 4409 AB03     		.2byte	0x3ab
 14231 440b 25000000 		.4byte	0x25
 14232 440f 00000000 		.4byte	.LFB304
 14233 4413 0C000000 		.4byte	.LFE304-.LFB304
 14234 4417 01       		.uleb128 0x1
 14235 4418 9C       		.byte	0x9c
 14236 4419 51       		.uleb128 0x51
 14237 441a 78270000 		.4byte	.LASF937
 14238 441e 01       		.byte	0x1
 14239 441f A003     		.2byte	0x3a0
 14240 4421 25000000 		.4byte	0x25
 14241 4425 00000000 		.4byte	.LFB303
 14242 4429 0C000000 		.4byte	.LFE303-.LFB303
 14243 442d 01       		.uleb128 0x1
 14244 442e 9C       		.byte	0x9c
 14245 442f 47       		.uleb128 0x47
 14246 4430 7A240000 		.4byte	.LASF938
 14247 4434 01       		.byte	0x1
 14248 4435 8903     		.2byte	0x389
 14249 4437 00000000 		.4byte	.LFB302
 14250 443b 50000000 		.4byte	.LFE302-.LFB302
 14251 443f 01       		.uleb128 0x1
 14252 4440 9C       		.byte	0x9c
 14253 4441 85440000 		.4byte	0x4485
 14254 4445 52       		.uleb128 0x52
 14255 4446 210C0000 		.4byte	.LASF525
 14256 444a 01       		.byte	0x1
 14257 444b 8903     		.2byte	0x389
 14258 444d 8C110000 		.4byte	0x118c
 14259 4451 59060000 		.4byte	.LLST47
 14260 4455 34       		.uleb128 0x34
 14261 4456 6C656E00 		.ascii	"len\000"
 14262 445a 01       		.byte	0x1
 14263 445b 8903     		.2byte	0x389
 14264 445d FE000000 		.4byte	0xfe
 14265 4461 7A060000 		.4byte	.LLST48
 14266 4465 52       		.uleb128 0x52
 14267 4466 A2350000 		.4byte	.LASF939
 14268 446a 01       		.byte	0x1
 14269 446b 8903     		.2byte	0x389
 14270 446d D9000000 		.4byte	0xd9
 14271 4471 98060000 		.4byte	.LLST49
 14272 4475 53       		.uleb128 0x53
ARM GAS  C:\Users\CHRIST~1\AppData\Local\Temp\ccCFoZV9.s 			page 253


 14273 4476 38000000 		.4byte	.LVL253
 14274 447a C6540000 		.4byte	0x54c6
 14275 447e 3B       		.uleb128 0x3b
 14276 447f 01       		.uleb128 0x1
 14277 4480 51       		.byte	0x51
 14278 4481 01       		.uleb128 0x1
 14279 4482 31       		.byte	0x31
 14280 4483 00       		.byte	0
 14281 4484 00       		.byte	0
 14282 4485 54       		.uleb128 0x54
 14283 4486 911C0000 		.4byte	.LASF1086
 14284 448a 01       		.byte	0x1
 14285 448b 8503     		.2byte	0x385
 14286 448d 25000000 		.4byte	0x25
 14287 4491 01       		.byte	0x1
 14288 4492 50       		.uleb128 0x50
 14289 4493 411C0000 		.4byte	.LASF941
 14290 4497 01       		.byte	0x1
 14291 4498 7103     		.2byte	0x371
 14292 449a 25000000 		.4byte	0x25
 14293 449e 00000000 		.4byte	.LFB300
 14294 44a2 44000000 		.4byte	.LFE300-.LFB300
 14295 44a6 01       		.uleb128 0x1
 14296 44a7 9C       		.byte	0x9c
 14297 44a8 CF440000 		.4byte	0x44cf
 14298 44ac 36       		.uleb128 0x36
 14299 44ad 72657400 		.ascii	"ret\000"
 14300 44b1 01       		.byte	0x1
 14301 44b2 7203     		.2byte	0x372
 14302 44b4 25000000 		.4byte	0x25
 14303 44b8 B9060000 		.4byte	.LLST46
 14304 44bc 41       		.uleb128 0x41
 14305 44bd 32000000 		.4byte	.LVL246
 14306 44c1 D1540000 		.4byte	0x54d1
 14307 44c5 41       		.uleb128 0x41
 14308 44c6 38000000 		.4byte	.LVL248
 14309 44ca DC540000 		.4byte	0x54dc
 14310 44ce 00       		.byte	0
 14311 44cf 51       		.uleb128 0x51
 14312 44d0 862F0000 		.4byte	.LASF942
 14313 44d4 01       		.byte	0x1
 14314 44d5 6D03     		.2byte	0x36d
 14315 44d7 25000000 		.4byte	0x25
 14316 44db 00000000 		.4byte	.LFB299
 14317 44df 0C000000 		.4byte	.LFE299-.LFB299
 14318 44e3 01       		.uleb128 0x1
 14319 44e4 9C       		.byte	0x9c
 14320 44e5 50       		.uleb128 0x50
 14321 44e6 8D280000 		.4byte	.LASF943
 14322 44ea 01       		.byte	0x1
 14323 44eb 6603     		.2byte	0x366
 14324 44ed 25000000 		.4byte	0x25
 14325 44f1 00000000 		.4byte	.LFB298
 14326 44f5 40000000 		.4byte	.LFE298-.LFB298
 14327 44f9 01       		.uleb128 0x1
 14328 44fa 9C       		.byte	0x9c
 14329 44fb 10450000 		.4byte	0x4510
ARM GAS  C:\Users\CHRIST~1\AppData\Local\Temp\ccCFoZV9.s 			page 254


 14330 44ff 36       		.uleb128 0x36
 14331 4500 72657300 		.ascii	"res\000"
 14332 4504 01       		.byte	0x1
 14333 4505 6703     		.2byte	0x367
 14334 4507 25000000 		.4byte	0x25
 14335 450b 15070000 		.4byte	.LLST45
 14336 450f 00       		.byte	0
 14337 4510 50       		.uleb128 0x50
 14338 4511 051E0000 		.4byte	.LASF944
 14339 4515 01       		.byte	0x1
 14340 4516 5903     		.2byte	0x359
 14341 4518 25000000 		.4byte	0x25
 14342 451c 00000000 		.4byte	.LFB297
 14343 4520 40000000 		.4byte	.LFE297-.LFB297
 14344 4524 01       		.uleb128 0x1
 14345 4525 9C       		.byte	0x9c
 14346 4526 3B450000 		.4byte	0x453b
 14347 452a 36       		.uleb128 0x36
 14348 452b 72657300 		.ascii	"res\000"
 14349 452f 01       		.byte	0x1
 14350 4530 5A03     		.2byte	0x35a
 14351 4532 25000000 		.4byte	0x25
 14352 4536 29070000 		.4byte	.LLST44
 14353 453a 00       		.byte	0
 14354 453b 50       		.uleb128 0x50
 14355 453c 8A140000 		.4byte	.LASF945
 14356 4540 01       		.byte	0x1
 14357 4541 4C03     		.2byte	0x34c
 14358 4543 25000000 		.4byte	0x25
 14359 4547 00000000 		.4byte	.LFB296
 14360 454b 20000000 		.4byte	.LFE296-.LFB296
 14361 454f 01       		.uleb128 0x1
 14362 4550 9C       		.byte	0x9c
 14363 4551 66450000 		.4byte	0x4566
 14364 4555 36       		.uleb128 0x36
 14365 4556 72657300 		.ascii	"res\000"
 14366 455a 01       		.byte	0x1
 14367 455b 4D03     		.2byte	0x34d
 14368 455d 25000000 		.4byte	0x25
 14369 4561 3D070000 		.4byte	.LLST43
 14370 4565 00       		.byte	0
 14371 4566 50       		.uleb128 0x50
 14372 4567 FD0F0000 		.4byte	.LASF946
 14373 456b 01       		.byte	0x1
 14374 456c 4503     		.2byte	0x345
 14375 456e 25000000 		.4byte	0x25
 14376 4572 00000000 		.4byte	.LFB295
 14377 4576 20000000 		.4byte	.LFE295-.LFB295
 14378 457a 01       		.uleb128 0x1
 14379 457b 9C       		.byte	0x9c
 14380 457c 91450000 		.4byte	0x4591
 14381 4580 36       		.uleb128 0x36
 14382 4581 72657300 		.ascii	"res\000"
 14383 4585 01       		.byte	0x1
 14384 4586 4603     		.2byte	0x346
 14385 4588 25000000 		.4byte	0x25
 14386 458c 63070000 		.4byte	.LLST42
ARM GAS  C:\Users\CHRIST~1\AppData\Local\Temp\ccCFoZV9.s 			page 255


 14387 4590 00       		.byte	0
 14388 4591 50       		.uleb128 0x50
 14389 4592 271D0000 		.4byte	.LASF947
 14390 4596 01       		.byte	0x1
 14391 4597 3103     		.2byte	0x331
 14392 4599 25000000 		.4byte	0x25
 14393 459d 00000000 		.4byte	.LFB294
 14394 45a1 24000000 		.4byte	.LFE294-.LFB294
 14395 45a5 01       		.uleb128 0x1
 14396 45a6 9C       		.byte	0x9c
 14397 45a7 CF450000 		.4byte	0x45cf
 14398 45ab 55       		.uleb128 0x55
 14399 45ac 72657400 		.ascii	"ret\000"
 14400 45b0 01       		.byte	0x1
 14401 45b1 3203     		.2byte	0x332
 14402 45b3 25000000 		.4byte	0x25
 14403 45b7 04       		.byte	0x4
 14404 45b8 00000000 		.4byte	0
 14405 45bc 48       		.uleb128 0x48
 14406 45bd 12000000 		.4byte	.LVL232
 14407 45c1 E7540000 		.4byte	0x54e7
 14408 45c5 48       		.uleb128 0x48
 14409 45c6 1C000000 		.4byte	.LVL233
 14410 45ca F2540000 		.4byte	0x54f2
 14411 45ce 00       		.byte	0
 14412 45cf 50       		.uleb128 0x50
 14413 45d0 6A2B0000 		.4byte	.LASF948
 14414 45d4 01       		.byte	0x1
 14415 45d5 1D03     		.2byte	0x31d
 14416 45d7 B1000000 		.4byte	0xb1
 14417 45db 00000000 		.4byte	.LFB293
 14418 45df 20000000 		.4byte	.LFE293-.LFB293
 14419 45e3 01       		.uleb128 0x1
 14420 45e4 9C       		.byte	0x9c
 14421 45e5 19460000 		.4byte	0x4619
 14422 45e9 52       		.uleb128 0x52
 14423 45ea E31E0000 		.4byte	.LASF949
 14424 45ee 01       		.byte	0x1
 14425 45ef 1D03     		.2byte	0x31d
 14426 45f1 45160000 		.4byte	0x1645
 14427 45f5 89070000 		.4byte	.LLST41
 14428 45f9 56       		.uleb128 0x56
 14429 45fa 72657400 		.ascii	"ret\000"
 14430 45fe 01       		.byte	0x1
 14431 45ff 1E03     		.2byte	0x31e
 14432 4601 B1000000 		.4byte	0xb1
 14433 4605 00       		.byte	0
 14434 4606 48       		.uleb128 0x48
 14435 4607 12000000 		.4byte	.LVL227
 14436 460b FD540000 		.4byte	0x54fd
 14437 460f 48       		.uleb128 0x48
 14438 4610 1A000000 		.4byte	.LVL230
 14439 4614 08550000 		.4byte	0x5508
 14440 4618 00       		.byte	0
 14441 4619 50       		.uleb128 0x50
 14442 461a 88110000 		.4byte	.LASF950
 14443 461e 01       		.byte	0x1
ARM GAS  C:\Users\CHRIST~1\AppData\Local\Temp\ccCFoZV9.s 			page 256


 14444 461f 0903     		.2byte	0x309
 14445 4621 B1000000 		.4byte	0xb1
 14446 4625 00000000 		.4byte	.LFB292
 14447 4629 5C000000 		.4byte	.LFE292-.LFB292
 14448 462d 01       		.uleb128 0x1
 14449 462e 9C       		.byte	0x9c
 14450 462f 66460000 		.4byte	0x4666
 14451 4633 52       		.uleb128 0x52
 14452 4634 E31E0000 		.4byte	.LASF949
 14453 4638 01       		.byte	0x1
 14454 4639 0903     		.2byte	0x309
 14455 463b 45160000 		.4byte	0x1645
 14456 463f DC070000 		.4byte	.LLST13
 14457 4643 36       		.uleb128 0x36
 14458 4644 72657400 		.ascii	"ret\000"
 14459 4648 01       		.byte	0x1
 14460 4649 0A03     		.2byte	0x30a
 14461 464b B1000000 		.4byte	0xb1
 14462 464f 2F080000 		.4byte	.LLST14
 14463 4653 41       		.uleb128 0x41
 14464 4654 3A000000 		.4byte	.LVL106
 14465 4658 13550000 		.4byte	0x5513
 14466 465c 41       		.uleb128 0x41
 14467 465d 48000000 		.4byte	.LVL108
 14468 4661 1E550000 		.4byte	0x551e
 14469 4665 00       		.byte	0
 14470 4666 50       		.uleb128 0x50
 14471 4667 0B090000 		.4byte	.LASF951
 14472 466b 01       		.byte	0x1
 14473 466c F502     		.2byte	0x2f5
 14474 466e 25000000 		.4byte	0x25
 14475 4672 00000000 		.4byte	.LFB291
 14476 4676 24000000 		.4byte	.LFE291-.LFB291
 14477 467a 01       		.uleb128 0x1
 14478 467b 9C       		.byte	0x9c
 14479 467c A4460000 		.4byte	0x46a4
 14480 4680 55       		.uleb128 0x55
 14481 4681 72657400 		.ascii	"ret\000"
 14482 4685 01       		.byte	0x1
 14483 4686 F602     		.2byte	0x2f6
 14484 4688 25000000 		.4byte	0x25
 14485 468c 04       		.byte	0x4
 14486 468d 00000000 		.4byte	0
 14487 4691 48       		.uleb128 0x48
 14488 4692 12000000 		.4byte	.LVL101
 14489 4696 29550000 		.4byte	0x5529
 14490 469a 48       		.uleb128 0x48
 14491 469b 1C000000 		.4byte	.LVL102
 14492 469f 34550000 		.4byte	0x5534
 14493 46a3 00       		.byte	0
 14494 46a4 50       		.uleb128 0x50
 14495 46a5 2A0E0000 		.4byte	.LASF952
 14496 46a9 01       		.byte	0x1
 14497 46aa E102     		.2byte	0x2e1
 14498 46ac 25000000 		.4byte	0x25
 14499 46b0 00000000 		.4byte	.LFB290
 14500 46b4 24000000 		.4byte	.LFE290-.LFB290
ARM GAS  C:\Users\CHRIST~1\AppData\Local\Temp\ccCFoZV9.s 			page 257


 14501 46b8 01       		.uleb128 0x1
 14502 46b9 9C       		.byte	0x9c
 14503 46ba E2460000 		.4byte	0x46e2
 14504 46be 55       		.uleb128 0x55
 14505 46bf 72657400 		.ascii	"ret\000"
 14506 46c3 01       		.byte	0x1
 14507 46c4 E202     		.2byte	0x2e2
 14508 46c6 25000000 		.4byte	0x25
 14509 46ca 04       		.byte	0x4
 14510 46cb 00000000 		.4byte	0
 14511 46cf 48       		.uleb128 0x48
 14512 46d0 12000000 		.4byte	.LVL98
 14513 46d4 3F550000 		.4byte	0x553f
 14514 46d8 48       		.uleb128 0x48
 14515 46d9 1C000000 		.4byte	.LVL99
 14516 46dd 4A550000 		.4byte	0x554a
 14517 46e1 00       		.byte	0
 14518 46e2 50       		.uleb128 0x50
 14519 46e3 301F0000 		.4byte	.LASF953
 14520 46e7 01       		.byte	0x1
 14521 46e8 CD02     		.2byte	0x2cd
 14522 46ea 25000000 		.4byte	0x25
 14523 46ee 00000000 		.4byte	.LFB289
 14524 46f2 44000000 		.4byte	.LFE289-.LFB289
 14525 46f6 01       		.uleb128 0x1
 14526 46f7 9C       		.byte	0x9c
 14527 46f8 1F470000 		.4byte	0x471f
 14528 46fc 36       		.uleb128 0x36
 14529 46fd 72657400 		.ascii	"ret\000"
 14530 4701 01       		.byte	0x1
 14531 4702 CE02     		.2byte	0x2ce
 14532 4704 25000000 		.4byte	0x25
 14533 4708 71080000 		.4byte	.LLST12
 14534 470c 41       		.uleb128 0x41
 14535 470d 32000000 		.4byte	.LVL94
 14536 4711 55550000 		.4byte	0x5555
 14537 4715 41       		.uleb128 0x41
 14538 4716 38000000 		.4byte	.LVL96
 14539 471a 60550000 		.4byte	0x5560
 14540 471e 00       		.byte	0
 14541 471f 50       		.uleb128 0x50
 14542 4720 5D030000 		.4byte	.LASF954
 14543 4724 01       		.byte	0x1
 14544 4725 B902     		.2byte	0x2b9
 14545 4727 25000000 		.4byte	0x25
 14546 472b 00000000 		.4byte	.LFB288
 14547 472f 44000000 		.4byte	.LFE288-.LFB288
 14548 4733 01       		.uleb128 0x1
 14549 4734 9C       		.byte	0x9c
 14550 4735 5C470000 		.4byte	0x475c
 14551 4739 36       		.uleb128 0x36
 14552 473a 72657400 		.ascii	"ret\000"
 14553 473e 01       		.byte	0x1
 14554 473f BA02     		.2byte	0x2ba
 14555 4741 25000000 		.4byte	0x25
 14556 4745 CD080000 		.4byte	.LLST11
 14557 4749 41       		.uleb128 0x41
ARM GAS  C:\Users\CHRIST~1\AppData\Local\Temp\ccCFoZV9.s 			page 258


 14558 474a 32000000 		.4byte	.LVL87
 14559 474e 6B550000 		.4byte	0x556b
 14560 4752 41       		.uleb128 0x41
 14561 4753 38000000 		.4byte	.LVL89
 14562 4757 76550000 		.4byte	0x5576
 14563 475b 00       		.byte	0
 14564 475c 50       		.uleb128 0x50
 14565 475d D1240000 		.4byte	.LASF955
 14566 4761 01       		.byte	0x1
 14567 4762 A502     		.2byte	0x2a5
 14568 4764 25000000 		.4byte	0x25
 14569 4768 00000000 		.4byte	.LFB287
 14570 476c 24000000 		.4byte	.LFE287-.LFB287
 14571 4770 01       		.uleb128 0x1
 14572 4771 9C       		.byte	0x9c
 14573 4772 9A470000 		.4byte	0x479a
 14574 4776 55       		.uleb128 0x55
 14575 4777 72657400 		.ascii	"ret\000"
 14576 477b 01       		.byte	0x1
 14577 477c A602     		.2byte	0x2a6
 14578 477e 25000000 		.4byte	0x25
 14579 4782 04       		.byte	0x4
 14580 4783 00000000 		.4byte	0
 14581 4787 48       		.uleb128 0x48
 14582 4788 12000000 		.4byte	.LVL81
 14583 478c 81550000 		.4byte	0x5581
 14584 4790 48       		.uleb128 0x48
 14585 4791 1C000000 		.4byte	.LVL82
 14586 4795 8C550000 		.4byte	0x558c
 14587 4799 00       		.byte	0
 14588 479a 50       		.uleb128 0x50
 14589 479b 45130000 		.4byte	.LASF956
 14590 479f 01       		.byte	0x1
 14591 47a0 9102     		.2byte	0x291
 14592 47a2 25000000 		.4byte	0x25
 14593 47a6 00000000 		.4byte	.LFB286
 14594 47aa 24000000 		.4byte	.LFE286-.LFB286
 14595 47ae 01       		.uleb128 0x1
 14596 47af 9C       		.byte	0x9c
 14597 47b0 D8470000 		.4byte	0x47d8
 14598 47b4 55       		.uleb128 0x55
 14599 47b5 72657400 		.ascii	"ret\000"
 14600 47b9 01       		.byte	0x1
 14601 47ba 9202     		.2byte	0x292
 14602 47bc 25000000 		.4byte	0x25
 14603 47c0 04       		.byte	0x4
 14604 47c1 00000000 		.4byte	0
 14605 47c5 48       		.uleb128 0x48
 14606 47c6 12000000 		.4byte	.LVL78
 14607 47ca 97550000 		.4byte	0x5597
 14608 47ce 48       		.uleb128 0x48
 14609 47cf 1C000000 		.4byte	.LVL79
 14610 47d3 A2550000 		.4byte	0x55a2
 14611 47d7 00       		.byte	0
 14612 47d8 50       		.uleb128 0x50
 14613 47d9 B4380000 		.4byte	.LASF957
 14614 47dd 01       		.byte	0x1
ARM GAS  C:\Users\CHRIST~1\AppData\Local\Temp\ccCFoZV9.s 			page 259


 14615 47de 8702     		.2byte	0x287
 14616 47e0 25000000 		.4byte	0x25
 14617 47e4 00000000 		.4byte	.LFB285
 14618 47e8 20000000 		.4byte	.LFE285-.LFB285
 14619 47ec 01       		.uleb128 0x1
 14620 47ed 9C       		.byte	0x9c
 14621 47ee 10480000 		.4byte	0x4810
 14622 47f2 57       		.uleb128 0x57
 14623 47f3 E31E0000 		.4byte	.LASF949
 14624 47f7 01       		.byte	0x1
 14625 47f8 8702     		.2byte	0x287
 14626 47fa 45160000 		.4byte	0x1645
 14627 47fe 01       		.uleb128 0x1
 14628 47ff 50       		.byte	0x50
 14629 4800 4C       		.uleb128 0x4c
 14630 4801 76616C00 		.ascii	"val\000"
 14631 4805 01       		.byte	0x1
 14632 4806 8802     		.2byte	0x288
 14633 4808 25000000 		.4byte	0x25
 14634 480c 02       		.uleb128 0x2
 14635 480d 90       		.byte	0x90
 14636 480e 40       		.uleb128 0x40
 14637 480f 00       		.byte	0
 14638 4810 50       		.uleb128 0x50
 14639 4811 20260000 		.4byte	.LASF958
 14640 4815 01       		.byte	0x1
 14641 4816 7402     		.2byte	0x274
 14642 4818 25000000 		.4byte	0x25
 14643 481c 00000000 		.4byte	.LFB284
 14644 4820 20000000 		.4byte	.LFE284-.LFB284
 14645 4824 01       		.uleb128 0x1
 14646 4825 9C       		.byte	0x9c
 14647 4826 48480000 		.4byte	0x4848
 14648 482a 57       		.uleb128 0x57
 14649 482b E31E0000 		.4byte	.LASF949
 14650 482f 01       		.byte	0x1
 14651 4830 7402     		.2byte	0x274
 14652 4832 45160000 		.4byte	0x1645
 14653 4836 01       		.uleb128 0x1
 14654 4837 50       		.byte	0x50
 14655 4838 4C       		.uleb128 0x4c
 14656 4839 76616C00 		.ascii	"val\000"
 14657 483d 01       		.byte	0x1
 14658 483e 7502     		.2byte	0x275
 14659 4840 25000000 		.4byte	0x25
 14660 4844 02       		.uleb128 0x2
 14661 4845 90       		.byte	0x90
 14662 4846 40       		.uleb128 0x40
 14663 4847 00       		.byte	0
 14664 4848 50       		.uleb128 0x50
 14665 4849 E9280000 		.4byte	.LASF959
 14666 484d 01       		.byte	0x1
 14667 484e 6102     		.2byte	0x261
 14668 4850 25000000 		.4byte	0x25
 14669 4854 00000000 		.4byte	.LFB283
 14670 4858 20000000 		.4byte	.LFE283-.LFB283
 14671 485c 01       		.uleb128 0x1
ARM GAS  C:\Users\CHRIST~1\AppData\Local\Temp\ccCFoZV9.s 			page 260


 14672 485d 9C       		.byte	0x9c
 14673 485e 80480000 		.4byte	0x4880
 14674 4862 57       		.uleb128 0x57
 14675 4863 E31E0000 		.4byte	.LASF949
 14676 4867 01       		.byte	0x1
 14677 4868 6102     		.2byte	0x261
 14678 486a 45160000 		.4byte	0x1645
 14679 486e 01       		.uleb128 0x1
 14680 486f 50       		.byte	0x50
 14681 4870 4C       		.uleb128 0x4c
 14682 4871 76616C00 		.ascii	"val\000"
 14683 4875 01       		.byte	0x1
 14684 4876 6202     		.2byte	0x262
 14685 4878 25000000 		.4byte	0x25
 14686 487c 02       		.uleb128 0x2
 14687 487d 90       		.byte	0x90
 14688 487e 40       		.uleb128 0x40
 14689 487f 00       		.byte	0
 14690 4880 50       		.uleb128 0x50
 14691 4881 06350000 		.4byte	.LASF960
 14692 4885 01       		.byte	0x1
 14693 4886 4E02     		.2byte	0x24e
 14694 4888 25000000 		.4byte	0x25
 14695 488c 00000000 		.4byte	.LFB282
 14696 4890 20000000 		.4byte	.LFE282-.LFB282
 14697 4894 01       		.uleb128 0x1
 14698 4895 9C       		.byte	0x9c
 14699 4896 B8480000 		.4byte	0x48b8
 14700 489a 57       		.uleb128 0x57
 14701 489b E31E0000 		.4byte	.LASF949
 14702 489f 01       		.byte	0x1
 14703 48a0 4E02     		.2byte	0x24e
 14704 48a2 45160000 		.4byte	0x1645
 14705 48a6 01       		.uleb128 0x1
 14706 48a7 50       		.byte	0x50
 14707 48a8 4C       		.uleb128 0x4c
 14708 48a9 76616C00 		.ascii	"val\000"
 14709 48ad 01       		.byte	0x1
 14710 48ae 4F02     		.2byte	0x24f
 14711 48b0 25000000 		.4byte	0x25
 14712 48b4 02       		.uleb128 0x2
 14713 48b5 90       		.byte	0x90
 14714 48b6 40       		.uleb128 0x40
 14715 48b7 00       		.byte	0
 14716 48b8 50       		.uleb128 0x50
 14717 48b9 77250000 		.4byte	.LASF961
 14718 48bd 01       		.byte	0x1
 14719 48be 3102     		.2byte	0x231
 14720 48c0 25000000 		.4byte	0x25
 14721 48c4 00000000 		.4byte	.LFB281
 14722 48c8 44000000 		.4byte	.LFE281-.LFB281
 14723 48cc 01       		.uleb128 0x1
 14724 48cd 9C       		.byte	0x9c
 14725 48ce F5480000 		.4byte	0x48f5
 14726 48d2 36       		.uleb128 0x36
 14727 48d3 72657400 		.ascii	"ret\000"
 14728 48d7 01       		.byte	0x1
ARM GAS  C:\Users\CHRIST~1\AppData\Local\Temp\ccCFoZV9.s 			page 261


 14729 48d8 3202     		.2byte	0x232
 14730 48da 25000000 		.4byte	0x25
 14731 48de 29090000 		.4byte	.LLST10
 14732 48e2 41       		.uleb128 0x41
 14733 48e3 32000000 		.4byte	.LVL66
 14734 48e7 AD550000 		.4byte	0x55ad
 14735 48eb 41       		.uleb128 0x41
 14736 48ec 38000000 		.4byte	.LVL68
 14737 48f0 B8550000 		.4byte	0x55b8
 14738 48f4 00       		.byte	0
 14739 48f5 50       		.uleb128 0x50
 14740 48f6 951B0000 		.4byte	.LASF962
 14741 48fa 01       		.byte	0x1
 14742 48fb 1D02     		.2byte	0x21d
 14743 48fd 25000000 		.4byte	0x25
 14744 4901 00000000 		.4byte	.LFB280
 14745 4905 24000000 		.4byte	.LFE280-.LFB280
 14746 4909 01       		.uleb128 0x1
 14747 490a 9C       		.byte	0x9c
 14748 490b 33490000 		.4byte	0x4933
 14749 490f 55       		.uleb128 0x55
 14750 4910 72657400 		.ascii	"ret\000"
 14751 4914 01       		.byte	0x1
 14752 4915 1E02     		.2byte	0x21e
 14753 4917 25000000 		.4byte	0x25
 14754 491b 04       		.byte	0x4
 14755 491c 00000000 		.4byte	0
 14756 4920 48       		.uleb128 0x48
 14757 4921 12000000 		.4byte	.LVL60
 14758 4925 C3550000 		.4byte	0x55c3
 14759 4929 48       		.uleb128 0x48
 14760 492a 1C000000 		.4byte	.LVL61
 14761 492e CE550000 		.4byte	0x55ce
 14762 4932 00       		.byte	0
 14763 4933 50       		.uleb128 0x50
 14764 4934 13160000 		.4byte	.LASF963
 14765 4938 01       		.byte	0x1
 14766 4939 0902     		.2byte	0x209
 14767 493b 25000000 		.4byte	0x25
 14768 493f 00000000 		.4byte	.LFB279
 14769 4943 44000000 		.4byte	.LFE279-.LFB279
 14770 4947 01       		.uleb128 0x1
 14771 4948 9C       		.byte	0x9c
 14772 4949 70490000 		.4byte	0x4970
 14773 494d 36       		.uleb128 0x36
 14774 494e 72657400 		.ascii	"ret\000"
 14775 4952 01       		.byte	0x1
 14776 4953 0A02     		.2byte	0x20a
 14777 4955 25000000 		.4byte	0x25
 14778 4959 85090000 		.4byte	.LLST9
 14779 495d 41       		.uleb128 0x41
 14780 495e 32000000 		.4byte	.LVL56
 14781 4962 D9550000 		.4byte	0x55d9
 14782 4966 41       		.uleb128 0x41
 14783 4967 38000000 		.4byte	.LVL58
 14784 496b E4550000 		.4byte	0x55e4
 14785 496f 00       		.byte	0
ARM GAS  C:\Users\CHRIST~1\AppData\Local\Temp\ccCFoZV9.s 			page 262


 14786 4970 50       		.uleb128 0x50
 14787 4971 86290000 		.4byte	.LASF964
 14788 4975 01       		.byte	0x1
 14789 4976 F501     		.2byte	0x1f5
 14790 4978 25000000 		.4byte	0x25
 14791 497c 00000000 		.4byte	.LFB278
 14792 4980 44000000 		.4byte	.LFE278-.LFB278
 14793 4984 01       		.uleb128 0x1
 14794 4985 9C       		.byte	0x9c
 14795 4986 AD490000 		.4byte	0x49ad
 14796 498a 36       		.uleb128 0x36
 14797 498b 72657400 		.ascii	"ret\000"
 14798 498f 01       		.byte	0x1
 14799 4990 F601     		.2byte	0x1f6
 14800 4992 25000000 		.4byte	0x25
 14801 4996 E1090000 		.4byte	.LLST8
 14802 499a 41       		.uleb128 0x41
 14803 499b 32000000 		.4byte	.LVL49
 14804 499f EF550000 		.4byte	0x55ef
 14805 49a3 41       		.uleb128 0x41
 14806 49a4 38000000 		.4byte	.LVL51
 14807 49a8 FA550000 		.4byte	0x55fa
 14808 49ac 00       		.byte	0
 14809 49ad 47       		.uleb128 0x47
 14810 49ae 682C0000 		.4byte	.LASF965
 14811 49b2 01       		.byte	0x1
 14812 49b3 EE01     		.2byte	0x1ee
 14813 49b5 00000000 		.4byte	.LFB277
 14814 49b9 0C000000 		.4byte	.LFE277-.LFB277
 14815 49bd 01       		.uleb128 0x1
 14816 49be 9C       		.byte	0x9c
 14817 49bf DA490000 		.4byte	0x49da
 14818 49c3 53       		.uleb128 0x53
 14819 49c4 08000000 		.4byte	.LVL313
 14820 49c8 E64A0000 		.4byte	0x4ae6
 14821 49cc 3B       		.uleb128 0x3b
 14822 49cd 02       		.uleb128 0x2
 14823 49ce 90       		.byte	0x90
 14824 49cf 40       		.uleb128 0x40
 14825 49d0 07       		.uleb128 0x7
 14826 49d1 F4       		.byte	0xf4
 14827 49d2 25       		.uleb128 0x25
 14828 49d3 04       		.byte	0x4
 14829 49d4 00000000 		.4byte	0
 14830 49d8 00       		.byte	0
 14831 49d9 00       		.byte	0
 14832 49da 47       		.uleb128 0x47
 14833 49db C8110000 		.4byte	.LASF966
 14834 49df 01       		.byte	0x1
 14835 49e0 E701     		.2byte	0x1e7
 14836 49e2 00000000 		.4byte	.LFB276
 14837 49e6 0C000000 		.4byte	.LFE276-.LFB276
 14838 49ea 01       		.uleb128 0x1
 14839 49eb 9C       		.byte	0x9c
 14840 49ec 074A0000 		.4byte	0x4a07
 14841 49f0 53       		.uleb128 0x53
 14842 49f1 08000000 		.4byte	.LVL275
ARM GAS  C:\Users\CHRIST~1\AppData\Local\Temp\ccCFoZV9.s 			page 263


 14843 49f5 C64B0000 		.4byte	0x4bc6
 14844 49f9 3B       		.uleb128 0x3b
 14845 49fa 02       		.uleb128 0x2
 14846 49fb 90       		.byte	0x90
 14847 49fc 40       		.uleb128 0x40
 14848 49fd 07       		.uleb128 0x7
 14849 49fe F4       		.byte	0xf4
 14850 49ff 25       		.uleb128 0x25
 14851 4a00 04       		.byte	0x4
 14852 4a01 00000000 		.4byte	0
 14853 4a05 00       		.byte	0
 14854 4a06 00       		.byte	0
 14855 4a07 47       		.uleb128 0x47
 14856 4a08 1C330000 		.4byte	.LASF967
 14857 4a0c 01       		.byte	0x1
 14858 4a0d D201     		.2byte	0x1d2
 14859 4a0f 00000000 		.4byte	.LFB275
 14860 4a13 48000000 		.4byte	.LFE275-.LFB275
 14861 4a17 01       		.uleb128 0x1
 14862 4a18 9C       		.byte	0x9c
 14863 4a19 634A0000 		.4byte	0x4a63
 14864 4a1d 52       		.uleb128 0x52
 14865 4a1e 39200000 		.4byte	.LASF399
 14866 4a22 01       		.byte	0x1
 14867 4a23 D201     		.2byte	0x1d2
 14868 4a25 25000000 		.4byte	0x25
 14869 4a29 3D0A0000 		.4byte	.LLST62
 14870 4a2d 41       		.uleb128 0x41
 14871 4a2e 0E000000 		.4byte	.LVL326
 14872 4a32 B4430000 		.4byte	0x43b4
 14873 4a36 58       		.uleb128 0x58
 14874 4a37 2E000000 		.4byte	.LVL328
 14875 4a3b 05560000 		.4byte	0x5605
 14876 4a3f 4E4A0000 		.4byte	0x4a4e
 14877 4a43 3B       		.uleb128 0x3b
 14878 4a44 02       		.uleb128 0x2
 14879 4a45 90       		.byte	0x90
 14880 4a46 40       		.uleb128 0x40
 14881 4a47 05       		.uleb128 0x5
 14882 4a48 F3       		.byte	0xf3
 14883 4a49 03       		.uleb128 0x3
 14884 4a4a F5       		.byte	0xf5
 14885 4a4b 40       		.uleb128 0x40
 14886 4a4c 25       		.uleb128 0x25
 14887 4a4d 00       		.byte	0
 14888 4a4e 53       		.uleb128 0x53
 14889 4a4f 44000000 		.4byte	.LVL332
 14890 4a53 10560000 		.4byte	0x5610
 14891 4a57 3B       		.uleb128 0x3b
 14892 4a58 02       		.uleb128 0x2
 14893 4a59 90       		.byte	0x90
 14894 4a5a 40       		.uleb128 0x40
 14895 4a5b 05       		.uleb128 0x5
 14896 4a5c F3       		.byte	0xf3
 14897 4a5d 03       		.uleb128 0x3
 14898 4a5e F5       		.byte	0xf5
 14899 4a5f 40       		.uleb128 0x40
ARM GAS  C:\Users\CHRIST~1\AppData\Local\Temp\ccCFoZV9.s 			page 264


 14900 4a60 25       		.uleb128 0x25
 14901 4a61 00       		.byte	0
 14902 4a62 00       		.byte	0
 14903 4a63 47       		.uleb128 0x47
 14904 4a64 F9260000 		.4byte	.LASF968
 14905 4a68 01       		.byte	0x1
 14906 4a69 CE01     		.2byte	0x1ce
 14907 4a6b 00000000 		.4byte	.LFB274
 14908 4a6f 14000000 		.4byte	.LFE274-.LFB274
 14909 4a73 01       		.uleb128 0x1
 14910 4a74 9C       		.byte	0x9c
 14911 4a75 934A0000 		.4byte	0x4a93
 14912 4a79 34       		.uleb128 0x34
 14913 4a7a 76616C00 		.ascii	"val\000"
 14914 4a7e 01       		.byte	0x1
 14915 4a7f CE01     		.2byte	0x1ce
 14916 4a81 25000000 		.4byte	0x25
 14917 4a85 BD0A0000 		.4byte	.LLST61
 14918 4a89 48       		.uleb128 0x48
 14919 4a8a 0E000000 		.4byte	.LVL324
 14920 4a8e CC4A0000 		.4byte	0x4acc
 14921 4a92 00       		.byte	0
 14922 4a93 47       		.uleb128 0x47
 14923 4a94 171B0000 		.4byte	.LASF969
 14924 4a98 01       		.byte	0x1
 14925 4a99 C001     		.2byte	0x1c0
 14926 4a9b 00000000 		.4byte	.LFB273
 14927 4a9f 2C000000 		.4byte	.LFE273-.LFB273
 14928 4aa3 01       		.uleb128 0x1
 14929 4aa4 9C       		.byte	0x9c
 14930 4aa5 CC4A0000 		.4byte	0x4acc
 14931 4aa9 34       		.uleb128 0x34
 14932 4aaa 76616C00 		.ascii	"val\000"
 14933 4aae 01       		.byte	0x1
 14934 4aaf C001     		.2byte	0x1c0
 14935 4ab1 25000000 		.4byte	0x25
 14936 4ab5 E10A0000 		.4byte	.LLST58
 14937 4ab9 48       		.uleb128 0x48
 14938 4aba 18000000 		.4byte	.LVL310
 14939 4abe E64A0000 		.4byte	0x4ae6
 14940 4ac2 48       		.uleb128 0x48
 14941 4ac3 28000000 		.4byte	.LVL312
 14942 4ac7 E64A0000 		.4byte	0x4ae6
 14943 4acb 00       		.byte	0
 14944 4acc 4F       		.uleb128 0x4f
 14945 4acd 49320000 		.4byte	.LASF971
 14946 4ad1 01       		.byte	0x1
 14947 4ad2 A601     		.2byte	0x1a6
 14948 4ad4 01       		.byte	0x1
 14949 4ad5 E64A0000 		.4byte	0x4ae6
 14950 4ad9 43       		.uleb128 0x43
 14951 4ada 39200000 		.4byte	.LASF399
 14952 4ade 01       		.byte	0x1
 14953 4adf A601     		.2byte	0x1a6
 14954 4ae1 25000000 		.4byte	0x25
 14955 4ae5 00       		.byte	0
 14956 4ae6 4F       		.uleb128 0x4f
ARM GAS  C:\Users\CHRIST~1\AppData\Local\Temp\ccCFoZV9.s 			page 265


 14957 4ae7 5F350000 		.4byte	.LASF972
 14958 4aeb 01       		.byte	0x1
 14959 4aec 9201     		.2byte	0x192
 14960 4aee 01       		.byte	0x1
 14961 4aef 004B0000 		.4byte	0x4b00
 14962 4af3 43       		.uleb128 0x43
 14963 4af4 39200000 		.4byte	.LASF399
 14964 4af8 01       		.byte	0x1
 14965 4af9 9201     		.2byte	0x192
 14966 4afb 25000000 		.4byte	0x25
 14967 4aff 00       		.byte	0
 14968 4b00 47       		.uleb128 0x47
 14969 4b01 8E2D0000 		.4byte	.LASF973
 14970 4b05 01       		.byte	0x1
 14971 4b06 7C01     		.2byte	0x17c
 14972 4b08 00000000 		.4byte	.LFB270
 14973 4b0c 84000000 		.4byte	.LFE270-.LFB270
 14974 4b10 01       		.uleb128 0x1
 14975 4b11 9C       		.byte	0x9c
 14976 4b12 424B0000 		.4byte	0x4b42
 14977 4b16 34       		.uleb128 0x34
 14978 4b17 706F7300 		.ascii	"pos\000"
 14979 4b1b 01       		.byte	0x1
 14980 4b1c 7C01     		.2byte	0x17c
 14981 4b1e 25000000 		.4byte	0x25
 14982 4b22 210B0000 		.4byte	.LLST55
 14983 4b26 41       		.uleb128 0x41
 14984 4b27 0E000000 		.4byte	.LVL293
 14985 4b2b B4430000 		.4byte	0x43b4
 14986 4b2f 48       		.uleb128 0x48
 14987 4b30 4C000000 		.4byte	.LVL295
 14988 4b34 1B560000 		.4byte	0x561b
 14989 4b38 48       		.uleb128 0x48
 14990 4b39 7A000000 		.4byte	.LVL299
 14991 4b3d 26560000 		.4byte	0x5626
 14992 4b41 00       		.byte	0
 14993 4b42 47       		.uleb128 0x47
 14994 4b43 720A0000 		.4byte	.LASF974
 14995 4b47 01       		.byte	0x1
 14996 4b48 6801     		.2byte	0x168
 14997 4b4a 00000000 		.4byte	.LFB269
 14998 4b4e 70000000 		.4byte	.LFE269-.LFB269
 14999 4b52 01       		.uleb128 0x1
 15000 4b53 9C       		.byte	0x9c
 15001 4b54 844B0000 		.4byte	0x4b84
 15002 4b58 34       		.uleb128 0x34
 15003 4b59 72706D00 		.ascii	"rpm\000"
 15004 4b5d 01       		.byte	0x1
 15005 4b5e 6801     		.2byte	0x168
 15006 4b60 25000000 		.4byte	0x25
 15007 4b64 A70B0000 		.4byte	.LLST54
 15008 4b68 41       		.uleb128 0x41
 15009 4b69 0E000000 		.4byte	.LVL285
 15010 4b6d B4430000 		.4byte	0x43b4
 15011 4b71 48       		.uleb128 0x48
 15012 4b72 42000000 		.4byte	.LVL287
 15013 4b76 31560000 		.4byte	0x5631
ARM GAS  C:\Users\CHRIST~1\AppData\Local\Temp\ccCFoZV9.s 			page 266


 15014 4b7a 48       		.uleb128 0x48
 15015 4b7b 6C000000 		.4byte	.LVL291
 15016 4b7f 3C560000 		.4byte	0x563c
 15017 4b83 00       		.byte	0
 15018 4b84 47       		.uleb128 0x47
 15019 4b85 65340000 		.4byte	.LASF975
 15020 4b89 01       		.byte	0x1
 15021 4b8a 5401     		.2byte	0x154
 15022 4b8c 00000000 		.4byte	.LFB268
 15023 4b90 70000000 		.4byte	.LFE268-.LFB268
 15024 4b94 01       		.uleb128 0x1
 15025 4b95 9C       		.byte	0x9c
 15026 4b96 C64B0000 		.4byte	0x4bc6
 15027 4b9a 52       		.uleb128 0x52
 15028 4b9b AD1A0000 		.4byte	.LASF976
 15029 4b9f 01       		.byte	0x1
 15030 4ba0 5401     		.2byte	0x154
 15031 4ba2 25000000 		.4byte	0x25
 15032 4ba6 0F0C0000 		.4byte	.LLST53
 15033 4baa 41       		.uleb128 0x41
 15034 4bab 0E000000 		.4byte	.LVL277
 15035 4baf B4430000 		.4byte	0x43b4
 15036 4bb3 48       		.uleb128 0x48
 15037 4bb4 42000000 		.4byte	.LVL279
 15038 4bb8 47560000 		.4byte	0x5647
 15039 4bbc 48       		.uleb128 0x48
 15040 4bbd 6C000000 		.4byte	.LVL283
 15041 4bc1 52560000 		.4byte	0x5652
 15042 4bc5 00       		.byte	0
 15043 4bc6 4F       		.uleb128 0x4f
 15044 4bc7 19370000 		.4byte	.LASF977
 15045 4bcb 01       		.byte	0x1
 15046 4bcc 4001     		.2byte	0x140
 15047 4bce 01       		.byte	0x1
 15048 4bcf E04B0000 		.4byte	0x4be0
 15049 4bd3 43       		.uleb128 0x43
 15050 4bd4 AD1A0000 		.4byte	.LASF976
 15051 4bd8 01       		.byte	0x1
 15052 4bd9 4001     		.2byte	0x140
 15053 4bdb 25000000 		.4byte	0x25
 15054 4bdf 00       		.byte	0
 15055 4be0 50       		.uleb128 0x50
 15056 4be1 93320000 		.4byte	.LASF978
 15057 4be5 01       		.byte	0x1
 15058 4be6 2D01     		.2byte	0x12d
 15059 4be8 D20F0000 		.4byte	0xfd2
 15060 4bec 00000000 		.4byte	.LFB266
 15061 4bf0 20000000 		.4byte	.LFE266-.LFB266
 15062 4bf4 01       		.uleb128 0x1
 15063 4bf5 9C       		.byte	0x9c
 15064 4bf6 1A4C0000 		.4byte	0x4c1a
 15065 4bfa 56       		.uleb128 0x56
 15066 4bfb 72657400 		.ascii	"ret\000"
 15067 4bff 01       		.byte	0x1
 15068 4c00 2E01     		.2byte	0x12e
 15069 4c02 D20F0000 		.4byte	0xfd2
 15070 4c06 00       		.byte	0
ARM GAS  C:\Users\CHRIST~1\AppData\Local\Temp\ccCFoZV9.s 			page 267


 15071 4c07 48       		.uleb128 0x48
 15072 4c08 12000000 		.4byte	.LVL43
 15073 4c0c 5D560000 		.4byte	0x565d
 15074 4c10 48       		.uleb128 0x48
 15075 4c11 1A000000 		.4byte	.LVL44
 15076 4c15 68560000 		.4byte	0x5668
 15077 4c19 00       		.byte	0
 15078 4c1a 50       		.uleb128 0x50
 15079 4c1b C50F0000 		.4byte	.LASF979
 15080 4c1f 01       		.byte	0x1
 15081 4c20 2001     		.2byte	0x120
 15082 4c22 1E0D0000 		.4byte	0xd1e
 15083 4c26 00000000 		.4byte	.LFB265
 15084 4c2a 18000000 		.4byte	.LFE265-.LFB265
 15085 4c2e 01       		.uleb128 0x1
 15086 4c2f 9C       		.byte	0x9c
 15087 4c30 454C0000 		.4byte	0x4c45
 15088 4c34 52       		.uleb128 0x52
 15089 4c35 AC280000 		.4byte	.LASF398
 15090 4c39 01       		.byte	0x1
 15091 4c3a 2001     		.2byte	0x120
 15092 4c3c E0100000 		.4byte	0x10e0
 15093 4c40 770C0000 		.4byte	.LLST7
 15094 4c44 00       		.byte	0
 15095 4c45 51       		.uleb128 0x51
 15096 4c46 46180000 		.4byte	.LASF980
 15097 4c4a 01       		.byte	0x1
 15098 4c4b 1C01     		.2byte	0x11c
 15099 4c4d E0100000 		.4byte	0x10e0
 15100 4c51 00000000 		.4byte	.LFB264
 15101 4c55 0C000000 		.4byte	.LFE264-.LFB264
 15102 4c59 01       		.uleb128 0x1
 15103 4c5a 9C       		.byte	0x9c
 15104 4c5b 59       		.uleb128 0x59
 15105 4c5c E13A0000 		.4byte	.LASF981
 15106 4c60 01       		.byte	0x1
 15107 4c61 1801     		.2byte	0x118
 15108 4c63 00000000 		.4byte	.LFB263
 15109 4c67 0C000000 		.4byte	.LFE263-.LFB263
 15110 4c6b 01       		.uleb128 0x1
 15111 4c6c 9C       		.byte	0x9c
 15112 4c6d 59       		.uleb128 0x59
 15113 4c6e 1E2E0000 		.4byte	.LASF982
 15114 4c72 01       		.byte	0x1
 15115 4c73 1101     		.2byte	0x111
 15116 4c75 00000000 		.4byte	.LFB262
 15117 4c79 0C000000 		.4byte	.LFE262-.LFB262
 15118 4c7d 01       		.uleb128 0x1
 15119 4c7e 9C       		.byte	0x9c
 15120 4c7f 59       		.uleb128 0x59
 15121 4c80 BB180000 		.4byte	.LASF983
 15122 4c84 01       		.byte	0x1
 15123 4c85 0A01     		.2byte	0x10a
 15124 4c87 00000000 		.4byte	.LFB261
 15125 4c8b 0C000000 		.4byte	.LFE261-.LFB261
 15126 4c8f 01       		.uleb128 0x1
 15127 4c90 9C       		.byte	0x9c
ARM GAS  C:\Users\CHRIST~1\AppData\Local\Temp\ccCFoZV9.s 			page 268


 15128 4c91 47       		.uleb128 0x47
 15129 4c92 9D0E0000 		.4byte	.LASF984
 15130 4c96 01       		.byte	0x1
 15131 4c97 0301     		.2byte	0x103
 15132 4c99 00000000 		.4byte	.LFB260
 15133 4c9d 0C000000 		.4byte	.LFE260-.LFB260
 15134 4ca1 01       		.uleb128 0x1
 15135 4ca2 9C       		.byte	0x9c
 15136 4ca3 B64C0000 		.4byte	0x4cb6
 15137 4ca7 57       		.uleb128 0x57
 15138 4ca8 A9390000 		.4byte	.LASF985
 15139 4cac 01       		.byte	0x1
 15140 4cad 0301     		.2byte	0x103
 15141 4caf 58310000 		.4byte	0x3158
 15142 4cb3 01       		.uleb128 0x1
 15143 4cb4 50       		.byte	0x50
 15144 4cb5 00       		.byte	0
 15145 4cb6 5A       		.uleb128 0x5a
 15146 4cb7 7E010000 		.4byte	.LASF986
 15147 4cbb 01       		.byte	0x1
 15148 4cbc EA       		.byte	0xea
 15149 4cbd 45160000 		.4byte	0x1645
 15150 4cc1 00000000 		.4byte	.LFB259
 15151 4cc5 20000000 		.4byte	.LFE259-.LFB259
 15152 4cc9 01       		.uleb128 0x1
 15153 4cca 9C       		.byte	0x9c
 15154 4ccb EE4C0000 		.4byte	0x4cee
 15155 4ccf 5B       		.uleb128 0x5b
 15156 4cd0 72657400 		.ascii	"ret\000"
 15157 4cd4 01       		.byte	0x1
 15158 4cd5 EB       		.byte	0xeb
 15159 4cd6 45160000 		.4byte	0x1645
 15160 4cda 00       		.byte	0
 15161 4cdb 48       		.uleb128 0x48
 15162 4cdc 12000000 		.4byte	.LVL37
 15163 4ce0 73560000 		.4byte	0x5673
 15164 4ce4 48       		.uleb128 0x48
 15165 4ce5 1A000000 		.4byte	.LVL38
 15166 4ce9 7E560000 		.4byte	0x567e
 15167 4ced 00       		.byte	0
 15168 4cee 5C       		.uleb128 0x5c
 15169 4cef 301A0000 		.4byte	.LASF987
 15170 4cf3 01       		.byte	0x1
 15171 4cf4 AF       		.byte	0xaf
 15172 4cf5 00000000 		.4byte	.LFB258
 15173 4cf9 D0000000 		.4byte	.LFE258-.LFB258
 15174 4cfd 01       		.uleb128 0x1
 15175 4cfe 9C       		.byte	0x9c
 15176 4cff 074E0000 		.4byte	0x4e07
 15177 4d03 5D       		.uleb128 0x5d
 15178 4d04 B2280000 		.4byte	.LASF590
 15179 4d08 01       		.byte	0x1
 15180 4d09 AF       		.byte	0xaf
 15181 4d0a 074E0000 		.4byte	0x4e07
 15182 4d0e 980C0000 		.4byte	.LLST39
 15183 4d12 41       		.uleb128 0x41
 15184 4d13 16000000 		.4byte	.LVL205
ARM GAS  C:\Users\CHRIST~1\AppData\Local\Temp\ccCFoZV9.s 			page 269


 15185 4d17 89560000 		.4byte	0x5689
 15186 4d1b 3A       		.uleb128 0x3a
 15187 4d1c 44000000 		.4byte	.LVL206
 15188 4d20 94560000 		.4byte	0x5694
 15189 4d24 3C4D0000 		.4byte	0x4d3c
 15190 4d28 3B       		.uleb128 0x3b
 15191 4d29 01       		.uleb128 0x1
 15192 4d2a 50       		.byte	0x50
 15193 4d2b 02       		.uleb128 0x2
 15194 4d2c 75       		.byte	0x75
 15195 4d2d 00       		.sleb128 0
 15196 4d2e 3B       		.uleb128 0x3b
 15197 4d2f 01       		.uleb128 0x1
 15198 4d30 51       		.byte	0x51
 15199 4d31 02       		.uleb128 0x2
 15200 4d32 74       		.byte	0x74
 15201 4d33 00       		.sleb128 0
 15202 4d34 3B       		.uleb128 0x3b
 15203 4d35 01       		.uleb128 0x1
 15204 4d36 52       		.byte	0x52
 15205 4d37 03       		.uleb128 0x3
 15206 4d38 0A       		.byte	0xa
 15207 4d39 7001     		.2byte	0x170
 15208 4d3b 00       		.byte	0
 15209 4d3c 41       		.uleb128 0x41
 15210 4d3d 48000000 		.4byte	.LVL207
 15211 4d41 5B500000 		.4byte	0x505b
 15212 4d45 58       		.uleb128 0x58
 15213 4d46 5E000000 		.4byte	.LVL209
 15214 4d4a 9D560000 		.4byte	0x569d
 15215 4d4e 5C4D0000 		.4byte	0x4d5c
 15216 4d52 3B       		.uleb128 0x3b
 15217 4d53 01       		.uleb128 0x1
 15218 4d54 50       		.byte	0x50
 15219 4d55 05       		.uleb128 0x5
 15220 4d56 03       		.byte	0x3
 15221 4d57 00000000 		.4byte	.LANCHOR12
 15222 4d5b 00       		.byte	0
 15223 4d5c 58       		.uleb128 0x58
 15224 4d5d 6A000000 		.4byte	.LVL212
 15225 4d61 A8560000 		.4byte	0x56a8
 15226 4d65 734D0000 		.4byte	0x4d73
 15227 4d69 3B       		.uleb128 0x3b
 15228 4d6a 01       		.uleb128 0x1
 15229 4d6b 50       		.byte	0x50
 15230 4d6c 05       		.uleb128 0x5
 15231 4d6d 03       		.byte	0x3
 15232 4d6e 00000000 		.4byte	.LANCHOR12
 15233 4d72 00       		.byte	0
 15234 4d73 41       		.uleb128 0x41
 15235 4d74 74000000 		.4byte	.LVL213
 15236 4d78 B3560000 		.4byte	0x56b3
 15237 4d7c 3A       		.uleb128 0x3a
 15238 4d7d 80000000 		.4byte	.LVL214
 15239 4d81 94560000 		.4byte	0x5694
 15240 4d85 9D4D0000 		.4byte	0x4d9d
 15241 4d89 3B       		.uleb128 0x3b
ARM GAS  C:\Users\CHRIST~1\AppData\Local\Temp\ccCFoZV9.s 			page 270


 15242 4d8a 01       		.uleb128 0x1
 15243 4d8b 50       		.byte	0x50
 15244 4d8c 02       		.uleb128 0x2
 15245 4d8d 75       		.byte	0x75
 15246 4d8e 00       		.sleb128 0
 15247 4d8f 3B       		.uleb128 0x3b
 15248 4d90 01       		.uleb128 0x1
 15249 4d91 51       		.byte	0x51
 15250 4d92 02       		.uleb128 0x2
 15251 4d93 74       		.byte	0x74
 15252 4d94 00       		.sleb128 0
 15253 4d95 3B       		.uleb128 0x3b
 15254 4d96 01       		.uleb128 0x1
 15255 4d97 52       		.byte	0x52
 15256 4d98 03       		.uleb128 0x3
 15257 4d99 0A       		.byte	0xa
 15258 4d9a 7001     		.2byte	0x170
 15259 4d9c 00       		.byte	0
 15260 4d9d 3A       		.uleb128 0x3a
 15261 4d9e 86000000 		.4byte	.LVL215
 15262 4da2 BE560000 		.4byte	0x56be
 15263 4da6 B14D0000 		.4byte	0x4db1
 15264 4daa 3B       		.uleb128 0x3b
 15265 4dab 01       		.uleb128 0x1
 15266 4dac 50       		.byte	0x50
 15267 4dad 02       		.uleb128 0x2
 15268 4dae 75       		.byte	0x75
 15269 4daf 00       		.sleb128 0
 15270 4db0 00       		.byte	0
 15271 4db1 41       		.uleb128 0x41
 15272 4db2 8C000000 		.4byte	.LVL216
 15273 4db6 C9560000 		.4byte	0x56c9
 15274 4dba 41       		.uleb128 0x41
 15275 4dbb 9C000000 		.4byte	.LVL217
 15276 4dbf D4560000 		.4byte	0x56d4
 15277 4dc3 41       		.uleb128 0x41
 15278 4dc4 A6000000 		.4byte	.LVL218
 15279 4dc8 DF560000 		.4byte	0x56df
 15280 4dcc 41       		.uleb128 0x41
 15281 4dcd B6000000 		.4byte	.LVL219
 15282 4dd1 EA560000 		.4byte	0x56ea
 15283 4dd5 3A       		.uleb128 0x3a
 15284 4dd6 C2000000 		.4byte	.LVL220
 15285 4dda 94560000 		.4byte	0x5694
 15286 4dde F64D0000 		.4byte	0x4df6
 15287 4de2 3B       		.uleb128 0x3b
 15288 4de3 01       		.uleb128 0x1
 15289 4de4 50       		.byte	0x50
 15290 4de5 02       		.uleb128 0x2
 15291 4de6 75       		.byte	0x75
 15292 4de7 00       		.sleb128 0
 15293 4de8 3B       		.uleb128 0x3b
 15294 4de9 01       		.uleb128 0x1
 15295 4dea 51       		.byte	0x51
 15296 4deb 02       		.uleb128 0x2
 15297 4dec 74       		.byte	0x74
 15298 4ded 00       		.sleb128 0
ARM GAS  C:\Users\CHRIST~1\AppData\Local\Temp\ccCFoZV9.s 			page 271


 15299 4dee 3B       		.uleb128 0x3b
 15300 4def 01       		.uleb128 0x1
 15301 4df0 52       		.byte	0x52
 15302 4df1 03       		.uleb128 0x3
 15303 4df2 0A       		.byte	0xa
 15304 4df3 7001     		.2byte	0x170
 15305 4df5 00       		.byte	0
 15306 4df6 3C       		.uleb128 0x3c
 15307 4df7 C8000000 		.4byte	.LVL221
 15308 4dfb F5560000 		.4byte	0x56f5
 15309 4dff 3B       		.uleb128 0x3b
 15310 4e00 01       		.uleb128 0x1
 15311 4e01 50       		.byte	0x50
 15312 4e02 02       		.uleb128 0x2
 15313 4e03 75       		.byte	0x75
 15314 4e04 00       		.sleb128 0
 15315 4e05 00       		.byte	0
 15316 4e06 00       		.byte	0
 15317 4e07 0B       		.uleb128 0xb
 15318 4e08 04       		.byte	0x4
 15319 4e09 71160000 		.4byte	0x1671
 15320 4e0d 5E       		.uleb128 0x5e
 15321 4e0e DA320000 		.4byte	.LASF988
 15322 4e12 01       		.byte	0x1
 15323 4e13 AB       		.byte	0xab
 15324 4e14 224E0000 		.4byte	0x4e22
 15325 4e18 00000000 		.4byte	.LFB257
 15326 4e1c 08000000 		.4byte	.LFE257-.LFB257
 15327 4e20 01       		.uleb128 0x1
 15328 4e21 9C       		.byte	0x9c
 15329 4e22 0B       		.uleb128 0xb
 15330 4e23 04       		.byte	0x4
 15331 4e24 81160000 		.4byte	0x1681
 15332 4e28 5C       		.uleb128 0x5c
 15333 4e29 CF3A0000 		.4byte	.LASF989
 15334 4e2d 01       		.byte	0x1
 15335 4e2e 63       		.byte	0x63
 15336 4e2f 00000000 		.4byte	.LFB256
 15337 4e33 78010000 		.4byte	.LFE256-.LFB256
 15338 4e37 01       		.uleb128 0x1
 15339 4e38 9C       		.byte	0x9c
 15340 4e39 104F0000 		.4byte	0x4f10
 15341 4e3d 5D       		.uleb128 0x5d
 15342 4e3e B2280000 		.4byte	.LASF590
 15343 4e42 01       		.byte	0x1
 15344 4e43 63       		.byte	0x63
 15345 4e44 074E0000 		.4byte	0x4e07
 15346 4e48 E80C0000 		.4byte	.LLST6
 15347 4e4c 3A       		.uleb128 0x3a
 15348 4e4d 16000000 		.4byte	.LVL29
 15349 4e51 94560000 		.4byte	0x5694
 15350 4e55 6E4E0000 		.4byte	0x4e6e
 15351 4e59 3B       		.uleb128 0x3b
 15352 4e5a 01       		.uleb128 0x1
 15353 4e5b 50       		.byte	0x50
 15354 4e5c 02       		.uleb128 0x2
 15355 4e5d 75       		.byte	0x75
ARM GAS  C:\Users\CHRIST~1\AppData\Local\Temp\ccCFoZV9.s 			page 272


 15356 4e5e 00       		.sleb128 0
 15357 4e5f 3B       		.uleb128 0x3b
 15358 4e60 01       		.uleb128 0x1
 15359 4e61 51       		.byte	0x51
 15360 4e62 03       		.uleb128 0x3
 15361 4e63 F3       		.byte	0xf3
 15362 4e64 01       		.uleb128 0x1
 15363 4e65 50       		.byte	0x50
 15364 4e66 3B       		.uleb128 0x3b
 15365 4e67 01       		.uleb128 0x1
 15366 4e68 52       		.byte	0x52
 15367 4e69 03       		.uleb128 0x3
 15368 4e6a 0A       		.byte	0xa
 15369 4e6b 7001     		.2byte	0x170
 15370 4e6d 00       		.byte	0
 15371 4e6e 3A       		.uleb128 0x3a
 15372 4e6f 9C000000 		.4byte	.LVL30
 15373 4e73 00570000 		.4byte	0x5700
 15374 4e77 9B4E0000 		.4byte	0x4e9b
 15375 4e7b 3B       		.uleb128 0x3b
 15376 4e7c 01       		.uleb128 0x1
 15377 4e7d 50       		.byte	0x50
 15378 4e7e 05       		.uleb128 0x5
 15379 4e7f 03       		.byte	0x3
 15380 4e80 00000000 		.4byte	.LANCHOR37
 15381 4e84 3B       		.uleb128 0x3b
 15382 4e85 01       		.uleb128 0x1
 15383 4e86 51       		.byte	0x51
 15384 4e87 03       		.uleb128 0x3
 15385 4e88 0A       		.byte	0xa
 15386 4e89 9805     		.2byte	0x598
 15387 4e8b 3B       		.uleb128 0x3b
 15388 4e8c 01       		.uleb128 0x1
 15389 4e8d 52       		.byte	0x52
 15390 4e8e 02       		.uleb128 0x2
 15391 4e8f 08       		.byte	0x8
 15392 4e90 40       		.byte	0x40
 15393 4e91 3B       		.uleb128 0x3b
 15394 4e92 01       		.uleb128 0x1
 15395 4e93 53       		.byte	0x53
 15396 4e94 05       		.uleb128 0x5
 15397 4e95 03       		.byte	0x3
 15398 4e96 00000000 		.4byte	timer_thread
 15399 4e9a 00       		.byte	0
 15400 4e9b 3A       		.uleb128 0x3a
 15401 4e9c AC000000 		.4byte	.LVL31
 15402 4ea0 00570000 		.4byte	0x5700
 15403 4ea4 CF4E0000 		.4byte	0x4ecf
 15404 4ea8 3B       		.uleb128 0x3b
 15405 4ea9 01       		.uleb128 0x1
 15406 4eaa 50       		.byte	0x50
 15407 4eab 05       		.uleb128 0x5
 15408 4eac 03       		.byte	0x3
 15409 4ead 00000000 		.4byte	.LANCHOR38
 15410 4eb1 3B       		.uleb128 0x3b
 15411 4eb2 01       		.uleb128 0x1
 15412 4eb3 51       		.byte	0x51
ARM GAS  C:\Users\CHRIST~1\AppData\Local\Temp\ccCFoZV9.s 			page 273


 15413 4eb4 03       		.uleb128 0x3
 15414 4eb5 0A       		.byte	0xa
 15415 4eb6 9805     		.2byte	0x598
 15416 4eb8 3B       		.uleb128 0x3b
 15417 4eb9 01       		.uleb128 0x1
 15418 4eba 52       		.byte	0x52
 15419 4ebb 02       		.uleb128 0x2
 15420 4ebc 08       		.byte	0x8
 15421 4ebd 3F       		.byte	0x3f
 15422 4ebe 3B       		.uleb128 0x3b
 15423 4ebf 01       		.uleb128 0x1
 15424 4ec0 53       		.byte	0x53
 15425 4ec1 05       		.uleb128 0x5
 15426 4ec2 03       		.byte	0x3
 15427 4ec3 00000000 		.4byte	sample_send_thread
 15428 4ec7 3B       		.uleb128 0x3b
 15429 4ec8 02       		.uleb128 0x2
 15430 4ec9 7D       		.byte	0x7d
 15431 4eca 00       		.sleb128 0
 15432 4ecb 02       		.uleb128 0x2
 15433 4ecc 74       		.byte	0x74
 15434 4ecd 00       		.sleb128 0
 15435 4ece 00       		.byte	0
 15436 4ecf 58       		.uleb128 0x58
 15437 4ed0 D2000000 		.4byte	.LVL32
 15438 4ed4 F5560000 		.4byte	0x56f5
 15439 4ed8 E64E0000 		.4byte	0x4ee6
 15440 4edc 3B       		.uleb128 0x3b
 15441 4edd 01       		.uleb128 0x1
 15442 4ede 50       		.byte	0x50
 15443 4edf 05       		.uleb128 0x5
 15444 4ee0 03       		.byte	0x3
 15445 4ee1 00000000 		.4byte	.LANCHOR12
 15446 4ee5 00       		.byte	0
 15447 4ee6 41       		.uleb128 0x41
 15448 4ee7 D6000000 		.4byte	.LVL33
 15449 4eeb C9560000 		.4byte	0x56c9
 15450 4eef 58       		.uleb128 0x58
 15451 4ef0 EA000000 		.4byte	.LVL34
 15452 4ef4 BE560000 		.4byte	0x56be
 15453 4ef8 064F0000 		.4byte	0x4f06
 15454 4efc 3B       		.uleb128 0x3b
 15455 4efd 01       		.uleb128 0x1
 15456 4efe 50       		.byte	0x50
 15457 4eff 05       		.uleb128 0x5
 15458 4f00 03       		.byte	0x3
 15459 4f01 00000000 		.4byte	.LANCHOR12
 15460 4f05 00       		.byte	0
 15461 4f06 41       		.uleb128 0x41
 15462 4f07 F6000000 		.4byte	.LVL35
 15463 4f0b DF560000 		.4byte	0x56df
 15464 4f0f 00       		.byte	0
 15465 4f10 5F       		.uleb128 0x5f
 15466 4f11 82340000 		.4byte	.LASF991
 15467 4f15 02       		.byte	0x2
 15468 4f16 84       		.byte	0x84
 15469 4f17 03       		.byte	0x3
ARM GAS  C:\Users\CHRIST~1\AppData\Local\Temp\ccCFoZV9.s 			page 274


 15470 4f18 284F0000 		.4byte	0x4f28
 15471 4f1c 60       		.uleb128 0x60
 15472 4f1d 95340000 		.4byte	.LASF992
 15473 4f21 02       		.byte	0x2
 15474 4f22 84       		.byte	0x84
 15475 4f23 1E0D0000 		.4byte	0xd1e
 15476 4f27 00       		.byte	0
 15477 4f28 61       		.uleb128 0x61
 15478 4f29 50280000 		.4byte	.LASF1087
 15479 4f2d 2F       		.byte	0x2f
 15480 4f2e AE       		.byte	0xae
 15481 4f2f E2020000 		.4byte	0x2e2
 15482 4f33 03       		.byte	0x3
 15483 4f34 62       		.uleb128 0x62
 15484 4f35 65270000 		.4byte	.LASF993
 15485 4f39 2C       		.byte	0x2c
 15486 4f3a 9601     		.2byte	0x196
 15487 4f3c 03       		.byte	0x3
 15488 4f3d 62       		.uleb128 0x62
 15489 4f3e 21360000 		.4byte	.LASF994
 15490 4f42 2C       		.byte	0x2c
 15491 4f43 8201     		.2byte	0x182
 15492 4f45 03       		.byte	0x3
 15493 4f46 62       		.uleb128 0x62
 15494 4f47 B7000000 		.4byte	.LASF995
 15495 4f4b 0E       		.byte	0xe
 15496 4f4c E401     		.2byte	0x1e4
 15497 4f4e 03       		.byte	0x3
 15498 4f4f 62       		.uleb128 0x62
 15499 4f50 511E0000 		.4byte	.LASF996
 15500 4f54 0E       		.byte	0xe
 15501 4f55 D901     		.2byte	0x1d9
 15502 4f57 03       		.byte	0x3
 15503 4f58 62       		.uleb128 0x62
 15504 4f59 C8220000 		.4byte	.LASF997
 15505 4f5d 0E       		.byte	0xe
 15506 4f5e CA01     		.2byte	0x1ca
 15507 4f60 03       		.byte	0x3
 15508 4f61 62       		.uleb128 0x62
 15509 4f62 8C250000 		.4byte	.LASF998
 15510 4f66 0E       		.byte	0xe
 15511 4f67 BC01     		.2byte	0x1bc
 15512 4f69 03       		.byte	0x3
 15513 4f6a 42       		.uleb128 0x42
 15514 4f6b 60370000 		.4byte	.LASF999
 15515 4f6f 03       		.byte	0x3
 15516 4f70 2002     		.2byte	0x220
 15517 4f72 03       		.byte	0x3
 15518 4f73 844F0000 		.4byte	0x4f84
 15519 4f77 43       		.uleb128 0x43
 15520 4f78 C9100000 		.4byte	.LASF1000
 15521 4f7c 03       		.byte	0x3
 15522 4f7d 2002     		.2byte	0x220
 15523 4f7f 1E010000 		.4byte	0x11e
 15524 4f83 00       		.byte	0
 15525 4f84 63       		.uleb128 0x63
 15526 4f85 68430000 		.4byte	0x4368
ARM GAS  C:\Users\CHRIST~1\AppData\Local\Temp\ccCFoZV9.s 			page 275


 15527 4f89 00000000 		.4byte	.LFB315
 15528 4f8d 44010000 		.4byte	.LFE315-.LFB315
 15529 4f91 01       		.uleb128 0x1
 15530 4f92 9C       		.byte	0x9c
 15531 4f93 5B500000 		.4byte	0x505b
 15532 4f97 3E       		.uleb128 0x3e
 15533 4f98 75430000 		.4byte	0x4375
 15534 4f9c 140D0000 		.4byte	.LLST15
 15535 4fa0 64       		.uleb128 0x64
 15536 4fa1 3C000000 		.4byte	.LBB127
 15537 4fa5 08010000 		.4byte	.LBE127-.LBB127
 15538 4fa9 3F500000 		.4byte	0x503f
 15539 4fad 65       		.uleb128 0x65
 15540 4fae 82430000 		.4byte	0x4382
 15541 4fb2 03       		.uleb128 0x3
 15542 4fb3 91       		.byte	0x91
 15543 4fb4 A47F     		.sleb128 -92
 15544 4fb6 65       		.uleb128 0x65
 15545 4fb7 8E430000 		.4byte	0x438e
 15546 4fbb 03       		.uleb128 0x3
 15547 4fbc 91       		.byte	0x91
 15548 4fbd A87F     		.sleb128 -88
 15549 4fbf 65       		.uleb128 0x65
 15550 4fc0 9A430000 		.4byte	0x439a
 15551 4fc4 03       		.uleb128 0x3
 15552 4fc5 91       		.byte	0x91
 15553 4fc6 AC7F     		.sleb128 -84
 15554 4fc8 65       		.uleb128 0x65
 15555 4fc9 A6430000 		.4byte	0x43a6
 15556 4fcd 03       		.uleb128 0x3
 15557 4fce 91       		.byte	0x91
 15558 4fcf B07F     		.sleb128 -80
 15559 4fd1 41       		.uleb128 0x41
 15560 4fd2 40000000 		.4byte	.LVL113
 15561 4fd6 0B570000 		.4byte	0x570b
 15562 4fda 41       		.uleb128 0x41
 15563 4fdb 54000000 		.4byte	.LVL114
 15564 4fdf 16570000 		.4byte	0x5716
 15565 4fe3 41       		.uleb128 0x41
 15566 4fe4 5C000000 		.4byte	.LVL115
 15567 4fe8 9A470000 		.4byte	0x479a
 15568 4fec 41       		.uleb128 0x41
 15569 4fed 66000000 		.4byte	.LVL116
 15570 4ff1 5C470000 		.4byte	0x475c
 15571 4ff5 41       		.uleb128 0x41
 15572 4ff6 8E000000 		.4byte	.LVL117
 15573 4ffa 33490000 		.4byte	0x4933
 15574 4ffe 41       		.uleb128 0x41
 15575 4fff 96000000 		.4byte	.LVL118
 15576 5003 B8480000 		.4byte	0x48b8
 15577 5007 3A       		.uleb128 0x3a
 15578 5008 A0000000 		.4byte	.LVL119
 15579 500c 19460000 		.4byte	0x4619
 15580 5010 1B500000 		.4byte	0x501b
 15581 5014 3B       		.uleb128 0x3b
 15582 5015 01       		.uleb128 0x1
 15583 5016 50       		.byte	0x50
ARM GAS  C:\Users\CHRIST~1\AppData\Local\Temp\ccCFoZV9.s 			page 276


 15584 5017 02       		.uleb128 0x2
 15585 5018 76       		.byte	0x76
 15586 5019 00       		.sleb128 0
 15587 501a 00       		.byte	0
 15588 501b 41       		.uleb128 0x41
 15589 501c B8000000 		.4byte	.LVL120
 15590 5020 4D540000 		.4byte	0x544d
 15591 5024 41       		.uleb128 0x41
 15592 5025 DE000000 		.4byte	.LVL121
 15593 5029 21570000 		.4byte	0x5721
 15594 502d 3C       		.uleb128 0x3c
 15595 502e 08010000 		.4byte	.LVL122
 15596 5032 2D570000 		.4byte	0x572d
 15597 5036 3B       		.uleb128 0x3b
 15598 5037 01       		.uleb128 0x1
 15599 5038 50       		.byte	0x50
 15600 5039 03       		.uleb128 0x3
 15601 503a 91       		.byte	0x91
 15602 503b B07F     		.sleb128 -80
 15603 503d 00       		.byte	0
 15604 503e 00       		.byte	0
 15605 503f 41       		.uleb128 0x41
 15606 5040 0A000000 		.4byte	.LVL110
 15607 5044 B64C0000 		.4byte	0x4cb6
 15608 5048 41       		.uleb128 0x41
 15609 5049 2C000000 		.4byte	.LVL111
 15610 504d 38570000 		.4byte	0x5738
 15611 5051 41       		.uleb128 0x41
 15612 5052 36000000 		.4byte	.LVL112
 15613 5056 BB540000 		.4byte	0x54bb
 15614 505a 00       		.byte	0
 15615 505b 63       		.uleb128 0x63
 15616 505c BD3C0000 		.4byte	0x3cbd
 15617 5060 00000000 		.4byte	.LFB316
 15618 5064 B4040000 		.4byte	.LFE316-.LFB316
 15619 5068 01       		.uleb128 0x1
 15620 5069 9C       		.byte	0x9c
 15621 506a F5520000 		.4byte	0x52f5
 15622 506e 66       		.uleb128 0x66
 15623 506f D63C0000 		.4byte	0x3cd6
 15624 5073 350D0000 		.4byte	.LLST16
 15625 5077 66       		.uleb128 0x66
 15626 5078 E23C0000 		.4byte	0x3ce2
 15627 507c 550D0000 		.4byte	.LLST17
 15628 5080 66       		.uleb128 0x66
 15629 5081 EE3C0000 		.4byte	0x3cee
 15630 5085 A50D0000 		.4byte	.LLST18
 15631 5089 66       		.uleb128 0x66
 15632 508a FA3C0000 		.4byte	0x3cfa
 15633 508e 450E0000 		.4byte	.LLST19
 15634 5092 66       		.uleb128 0x66
 15635 5093 063D0000 		.4byte	0x3d06
 15636 5097 010F0000 		.4byte	.LLST20
 15637 509b 66       		.uleb128 0x66
 15638 509c 123D0000 		.4byte	0x3d12
 15639 50a0 950F0000 		.4byte	.LLST21
 15640 50a4 66       		.uleb128 0x66
ARM GAS  C:\Users\CHRIST~1\AppData\Local\Temp\ccCFoZV9.s 			page 277


 15641 50a5 1E3D0000 		.4byte	0x3d1e
 15642 50a9 21100000 		.4byte	.LLST22
 15643 50ad 66       		.uleb128 0x66
 15644 50ae 2A3D0000 		.4byte	0x3d2a
 15645 50b2 89100000 		.4byte	.LLST23
 15646 50b6 66       		.uleb128 0x66
 15647 50b7 363D0000 		.4byte	0x3d36
 15648 50bb B5100000 		.4byte	.LLST24
 15649 50bf 66       		.uleb128 0x66
 15650 50c0 423D0000 		.4byte	0x3d42
 15651 50c4 E1100000 		.4byte	.LLST25
 15652 50c8 66       		.uleb128 0x66
 15653 50c9 4E3D0000 		.4byte	0x3d4e
 15654 50cd 3D110000 		.4byte	.LLST26
 15655 50d1 66       		.uleb128 0x66
 15656 50d2 5A3D0000 		.4byte	0x3d5a
 15657 50d6 69110000 		.4byte	.LLST27
 15658 50da 66       		.uleb128 0x66
 15659 50db 663D0000 		.4byte	0x3d66
 15660 50df 95110000 		.4byte	.LLST28
 15661 50e3 66       		.uleb128 0x66
 15662 50e4 723D0000 		.4byte	0x3d72
 15663 50e8 E5110000 		.4byte	.LLST29
 15664 50ec 66       		.uleb128 0x66
 15665 50ed 7E3D0000 		.4byte	0x3d7e
 15666 50f1 1D120000 		.4byte	.LLST30
 15667 50f5 66       		.uleb128 0x66
 15668 50f6 8A3D0000 		.4byte	0x3d8a
 15669 50fa 79120000 		.4byte	.LLST31
 15670 50fe 66       		.uleb128 0x66
 15671 50ff 963D0000 		.4byte	0x3d96
 15672 5103 9F120000 		.4byte	.LLST32
 15673 5107 66       		.uleb128 0x66
 15674 5108 A23D0000 		.4byte	0x3da2
 15675 510c B3120000 		.4byte	.LLST33
 15676 5110 66       		.uleb128 0x66
 15677 5111 AE3D0000 		.4byte	0x3dae
 15678 5115 D3120000 		.4byte	.LLST34
 15679 5119 67       		.uleb128 0x67
 15680 511a BA3D0000 		.4byte	0x3dba
 15681 511e 40       		.uleb128 0x40
 15682 511f CA3C0000 		.4byte	0x3cca
 15683 5123 06       		.uleb128 0x6
 15684 5124 03       		.byte	0x3
 15685 5125 00000000 		.4byte	m_conf
 15686 5129 9F       		.byte	0x9f
 15687 512a 3F       		.uleb128 0x3f
 15688 512b 68430000 		.4byte	0x4368
 15689 512f 3E020000 		.4byte	.LBB128
 15690 5133 98000000 		.4byte	.Ldebug_ranges0+0x98
 15691 5137 01       		.byte	0x1
 15692 5138 2505     		.2byte	0x525
 15693 513a 57510000 		.4byte	0x5157
 15694 513e 3E       		.uleb128 0x3e
 15695 513f 75430000 		.4byte	0x4375
 15696 5143 E7120000 		.4byte	.LLST35
 15697 5147 3C       		.uleb128 0x3c
ARM GAS  C:\Users\CHRIST~1\AppData\Local\Temp\ccCFoZV9.s 			page 278


 15698 5148 56020000 		.4byte	.LVL163
 15699 514c 844F0000 		.4byte	0x4f84
 15700 5150 3B       		.uleb128 0x3b
 15701 5151 01       		.uleb128 0x1
 15702 5152 50       		.byte	0x50
 15703 5153 01       		.uleb128 0x1
 15704 5154 35       		.byte	0x35
 15705 5155 00       		.byte	0
 15706 5156 00       		.byte	0
 15707 5157 3F       		.uleb128 0x3f
 15708 5158 68430000 		.4byte	0x4368
 15709 515c 8E020000 		.4byte	.LBB136
 15710 5160 C8000000 		.4byte	.Ldebug_ranges0+0xc8
 15711 5164 01       		.byte	0x1
 15712 5165 4005     		.2byte	0x540
 15713 5167 84510000 		.4byte	0x5184
 15714 516b 3E       		.uleb128 0x3e
 15715 516c 75430000 		.4byte	0x4375
 15716 5170 07130000 		.4byte	.LLST36
 15717 5174 3C       		.uleb128 0x3c
 15718 5175 A6020000 		.4byte	.LVL169
 15719 5179 844F0000 		.4byte	0x4f84
 15720 517d 3B       		.uleb128 0x3b
 15721 517e 01       		.uleb128 0x1
 15722 517f 50       		.byte	0x50
 15723 5180 01       		.uleb128 0x1
 15724 5181 36       		.byte	0x36
 15725 5182 00       		.byte	0
 15726 5183 00       		.byte	0
 15727 5184 35       		.uleb128 0x35
 15728 5185 F8000000 		.4byte	.Ldebug_ranges0+0xf8
 15729 5189 AD510000 		.4byte	0x51ad
 15730 518d 66       		.uleb128 0x66
 15731 518e CB3D0000 		.4byte	0x3dcb
 15732 5192 27130000 		.4byte	.LLST37
 15733 5196 3C       		.uleb128 0x3c
 15734 5197 E0020000 		.4byte	.LVL174
 15735 519b 43570000 		.4byte	0x5743
 15736 519f 3B       		.uleb128 0x3b
 15737 51a0 02       		.uleb128 0x2
 15738 51a1 90       		.byte	0x90
 15739 51a2 44       		.uleb128 0x44
 15740 51a3 07       		.uleb128 0x7
 15741 51a4 F4       		.byte	0xf4
 15742 51a5 25       		.uleb128 0x25
 15743 51a6 04       		.byte	0x4
 15744 51a7 00000000 		.4byte	0
 15745 51ab 00       		.byte	0
 15746 51ac 00       		.byte	0
 15747 51ad 35       		.uleb128 0x35
 15748 51ae 18010000 		.4byte	.Ldebug_ranges0+0x118
 15749 51b2 D6510000 		.4byte	0x51d6
 15750 51b6 66       		.uleb128 0x66
 15751 51b7 D93D0000 		.4byte	0x3dd9
 15752 51bb 6B130000 		.4byte	.LLST38
 15753 51bf 3C       		.uleb128 0x3c
 15754 51c0 64030000 		.4byte	.LVL181
ARM GAS  C:\Users\CHRIST~1\AppData\Local\Temp\ccCFoZV9.s 			page 279


 15755 51c4 43570000 		.4byte	0x5743
 15756 51c8 3B       		.uleb128 0x3b
 15757 51c9 02       		.uleb128 0x2
 15758 51ca 90       		.byte	0x90
 15759 51cb 44       		.uleb128 0x44
 15760 51cc 07       		.uleb128 0x7
 15761 51cd F4       		.byte	0xf4
 15762 51ce 25       		.uleb128 0x25
 15763 51cf 04       		.byte	0x4
 15764 51d0 00000000 		.4byte	0
 15765 51d4 00       		.byte	0
 15766 51d5 00       		.byte	0
 15767 51d6 41       		.uleb128 0x41
 15768 51d7 42000000 		.4byte	.LVL125
 15769 51db B8480000 		.4byte	0x48b8
 15770 51df 41       		.uleb128 0x41
 15771 51e0 6A000000 		.4byte	.LVL128
 15772 51e4 21570000 		.4byte	0x5721
 15773 51e8 41       		.uleb128 0x41
 15774 51e9 B6000000 		.4byte	.LVL129
 15775 51ed 21570000 		.4byte	0x5721
 15776 51f1 3A       		.uleb128 0x3a
 15777 51f2 5E010000 		.4byte	.LVL139
 15778 51f6 4E570000 		.4byte	0x574e
 15779 51fa 0F520000 		.4byte	0x520f
 15780 51fe 3B       		.uleb128 0x3b
 15781 51ff 02       		.uleb128 0x2
 15782 5200 90       		.byte	0x90
 15783 5201 40       		.uleb128 0x40
 15784 5202 03       		.uleb128 0x3
 15785 5203 F5       		.byte	0xf5
 15786 5204 54       		.uleb128 0x54
 15787 5205 25       		.uleb128 0x25
 15788 5206 3B       		.uleb128 0x3b
 15789 5207 02       		.uleb128 0x2
 15790 5208 90       		.byte	0x90
 15791 5209 41       		.uleb128 0x41
 15792 520a 03       		.uleb128 0x3
 15793 520b F5       		.byte	0xf5
 15794 520c 55       		.uleb128 0x55
 15795 520d 25       		.uleb128 0x25
 15796 520e 00       		.byte	0
 15797 520f 3A       		.uleb128 0x3a
 15798 5210 6E010000 		.4byte	.LVL142
 15799 5214 4E570000 		.4byte	0x574e
 15800 5218 2D520000 		.4byte	0x522d
 15801 521c 3B       		.uleb128 0x3b
 15802 521d 02       		.uleb128 0x2
 15803 521e 90       		.byte	0x90
 15804 521f 40       		.uleb128 0x40
 15805 5220 03       		.uleb128 0x3
 15806 5221 F5       		.byte	0xf5
 15807 5222 51       		.uleb128 0x51
 15808 5223 25       		.uleb128 0x25
 15809 5224 3B       		.uleb128 0x3b
 15810 5225 02       		.uleb128 0x2
 15811 5226 90       		.byte	0x90
ARM GAS  C:\Users\CHRIST~1\AppData\Local\Temp\ccCFoZV9.s 			page 280


 15812 5227 41       		.uleb128 0x41
 15813 5228 03       		.uleb128 0x3
 15814 5229 F5       		.byte	0xf5
 15815 522a 53       		.uleb128 0x53
 15816 522b 25       		.uleb128 0x25
 15817 522c 00       		.byte	0
 15818 522d 3A       		.uleb128 0x3a
 15819 522e 7E010000 		.4byte	.LVL145
 15820 5232 4E570000 		.4byte	0x574e
 15821 5236 4B520000 		.4byte	0x524b
 15822 523a 3B       		.uleb128 0x3b
 15823 523b 02       		.uleb128 0x2
 15824 523c 90       		.byte	0x90
 15825 523d 40       		.uleb128 0x40
 15826 523e 03       		.uleb128 0x3
 15827 523f F5       		.byte	0xf5
 15828 5240 54       		.uleb128 0x54
 15829 5241 25       		.uleb128 0x25
 15830 5242 3B       		.uleb128 0x3b
 15831 5243 02       		.uleb128 0x2
 15832 5244 90       		.byte	0x90
 15833 5245 41       		.uleb128 0x41
 15834 5246 03       		.uleb128 0x3
 15835 5247 F5       		.byte	0xf5
 15836 5248 56       		.uleb128 0x56
 15837 5249 25       		.uleb128 0x25
 15838 524a 00       		.byte	0
 15839 524b 3A       		.uleb128 0x3a
 15840 524c 86010000 		.4byte	.LVL146
 15841 5250 4E570000 		.4byte	0x574e
 15842 5254 61520000 		.4byte	0x5261
 15843 5258 3B       		.uleb128 0x3b
 15844 5259 02       		.uleb128 0x2
 15845 525a 90       		.byte	0x90
 15846 525b 41       		.uleb128 0x41
 15847 525c 03       		.uleb128 0x3
 15848 525d F5       		.byte	0xf5
 15849 525e 52       		.uleb128 0x52
 15850 525f 25       		.uleb128 0x25
 15851 5260 00       		.byte	0
 15852 5261 41       		.uleb128 0x41
 15853 5262 F4010000 		.4byte	.LVL155
 15854 5266 4E570000 		.4byte	0x574e
 15855 526a 41       		.uleb128 0x41
 15856 526b 04020000 		.4byte	.LVL157
 15857 526f 4E570000 		.4byte	0x574e
 15858 5273 3A       		.uleb128 0x3a
 15859 5274 14020000 		.4byte	.LVL158
 15860 5278 4E570000 		.4byte	0x574e
 15861 527c 89520000 		.4byte	0x5289
 15862 5280 3B       		.uleb128 0x3b
 15863 5281 02       		.uleb128 0x2
 15864 5282 90       		.byte	0x90
 15865 5283 41       		.uleb128 0x41
 15866 5284 03       		.uleb128 0x3
 15867 5285 F5       		.byte	0xf5
 15868 5286 51       		.uleb128 0x51
ARM GAS  C:\Users\CHRIST~1\AppData\Local\Temp\ccCFoZV9.s 			page 281


 15869 5287 25       		.uleb128 0x25
 15870 5288 00       		.byte	0
 15871 5289 41       		.uleb128 0x41
 15872 528a 1C020000 		.4byte	.LVL159
 15873 528e 33490000 		.4byte	0x4933
 15874 5292 3A       		.uleb128 0x3a
 15875 5293 04040000 		.4byte	.LVL186
 15876 5297 43570000 		.4byte	0x5743
 15877 529b B4520000 		.4byte	0x52b4
 15878 529f 3B       		.uleb128 0x3b
 15879 52a0 02       		.uleb128 0x2
 15880 52a1 90       		.byte	0x90
 15881 52a2 40       		.uleb128 0x40
 15882 52a3 03       		.uleb128 0x3
 15883 52a4 F5       		.byte	0xf5
 15884 52a5 50       		.uleb128 0x50
 15885 52a6 25       		.uleb128 0x25
 15886 52a7 3B       		.uleb128 0x3b
 15887 52a8 02       		.uleb128 0x2
 15888 52a9 90       		.byte	0x90
 15889 52aa 44       		.uleb128 0x44
 15890 52ab 07       		.uleb128 0x7
 15891 52ac F4       		.byte	0xf4
 15892 52ad 25       		.uleb128 0x25
 15893 52ae 04       		.byte	0x4
 15894 52af 00000000 		.4byte	0
 15895 52b3 00       		.byte	0
 15896 52b4 3A       		.uleb128 0x3a
 15897 52b5 20040000 		.4byte	.LVL191
 15898 52b9 43570000 		.4byte	0x5743
 15899 52bd D6520000 		.4byte	0x52d6
 15900 52c1 3B       		.uleb128 0x3b
 15901 52c2 02       		.uleb128 0x2
 15902 52c3 90       		.byte	0x90
 15903 52c4 40       		.uleb128 0x40
 15904 52c5 03       		.uleb128 0x3
 15905 52c6 F5       		.byte	0xf5
 15906 52c7 52       		.uleb128 0x52
 15907 52c8 25       		.uleb128 0x25
 15908 52c9 3B       		.uleb128 0x3b
 15909 52ca 02       		.uleb128 0x2
 15910 52cb 90       		.byte	0x90
 15911 52cc 44       		.uleb128 0x44
 15912 52cd 07       		.uleb128 0x7
 15913 52ce F4       		.byte	0xf4
 15914 52cf 25       		.uleb128 0x25
 15915 52d0 04       		.byte	0x4
 15916 52d1 00000000 		.4byte	0
 15917 52d5 00       		.byte	0
 15918 52d6 3C       		.uleb128 0x3c
 15919 52d7 36040000 		.4byte	.LVL194
 15920 52db 43570000 		.4byte	0x5743
 15921 52df 3B       		.uleb128 0x3b
 15922 52e0 02       		.uleb128 0x2
 15923 52e1 90       		.byte	0x90
 15924 52e2 40       		.uleb128 0x40
 15925 52e3 03       		.uleb128 0x3
ARM GAS  C:\Users\CHRIST~1\AppData\Local\Temp\ccCFoZV9.s 			page 282


 15926 52e4 F5       		.byte	0xf5
 15927 52e5 52       		.uleb128 0x52
 15928 52e6 25       		.uleb128 0x25
 15929 52e7 3B       		.uleb128 0x3b
 15930 52e8 02       		.uleb128 0x2
 15931 52e9 90       		.byte	0x90
 15932 52ea 44       		.uleb128 0x44
 15933 52eb 07       		.uleb128 0x7
 15934 52ec F4       		.byte	0xf4
 15935 52ed 25       		.uleb128 0x25
 15936 52ee 04       		.byte	0x4
 15937 52ef 00000000 		.4byte	0
 15938 52f3 00       		.byte	0
 15939 52f4 00       		.byte	0
 15940 52f5 68       		.uleb128 0x68
 15941 52f6 85440000 		.4byte	0x4485
 15942 52fa 00000000 		.4byte	.LFB301
 15943 52fe 0C000000 		.4byte	.LFE301-.LFB301
 15944 5302 01       		.uleb128 0x1
 15945 5303 9C       		.byte	0x9c
 15946 5304 63       		.uleb128 0x63
 15947 5305 C64B0000 		.4byte	0x4bc6
 15948 5309 00000000 		.4byte	.LFB267
 15949 530d 70000000 		.4byte	.LFE267-.LFB267
 15950 5311 01       		.uleb128 0x1
 15951 5312 9C       		.byte	0x9c
 15952 5313 4F530000 		.4byte	0x534f
 15953 5317 3E       		.uleb128 0x3e
 15954 5318 D34B0000 		.4byte	0x4bd3
 15955 531c AF130000 		.4byte	.LLST51
 15956 5320 35       		.uleb128 0x35
 15957 5321 50010000 		.4byte	.Ldebug_ranges0+0x150
 15958 5325 3C530000 		.4byte	0x533c
 15959 5329 3E       		.uleb128 0x3e
 15960 532a D34B0000 		.4byte	0x4bd3
 15961 532e 17140000 		.4byte	.LLST52
 15962 5332 48       		.uleb128 0x48
 15963 5333 6C000000 		.4byte	.LVL274
 15964 5337 59570000 		.4byte	0x5759
 15965 533b 00       		.byte	0
 15966 533c 41       		.uleb128 0x41
 15967 533d 0E000000 		.4byte	.LVL268
 15968 5341 B4430000 		.4byte	0x43b4
 15969 5345 48       		.uleb128 0x48
 15970 5346 42000000 		.4byte	.LVL270
 15971 534a 64570000 		.4byte	0x5764
 15972 534e 00       		.byte	0
 15973 534f 63       		.uleb128 0x63
 15974 5350 E64A0000 		.4byte	0x4ae6
 15975 5354 00000000 		.4byte	.LFB271
 15976 5358 70000000 		.4byte	.LFE271-.LFB271
 15977 535c 01       		.uleb128 0x1
 15978 535d 9C       		.byte	0x9c
 15979 535e 9A530000 		.4byte	0x539a
 15980 5362 3E       		.uleb128 0x3e
 15981 5363 F34A0000 		.4byte	0x4af3
 15982 5367 3B140000 		.4byte	.LLST56
ARM GAS  C:\Users\CHRIST~1\AppData\Local\Temp\ccCFoZV9.s 			page 283


 15983 536b 35       		.uleb128 0x35
 15984 536c 68010000 		.4byte	.Ldebug_ranges0+0x168
 15985 5370 87530000 		.4byte	0x5387
 15986 5374 3E       		.uleb128 0x3e
 15987 5375 F34A0000 		.4byte	0x4af3
 15988 5379 A3140000 		.4byte	.LLST57
 15989 537d 48       		.uleb128 0x48
 15990 537e 6C000000 		.4byte	.LVL307
 15991 5382 6F570000 		.4byte	0x576f
 15992 5386 00       		.byte	0
 15993 5387 41       		.uleb128 0x41
 15994 5388 0E000000 		.4byte	.LVL301
 15995 538c B4430000 		.4byte	0x43b4
 15996 5390 48       		.uleb128 0x48
 15997 5391 42000000 		.4byte	.LVL303
 15998 5395 7A570000 		.4byte	0x577a
 15999 5399 00       		.byte	0
 16000 539a 63       		.uleb128 0x63
 16001 539b CC4A0000 		.4byte	0x4acc
 16002 539f 00000000 		.4byte	.LFB272
 16003 53a3 70000000 		.4byte	.LFE272-.LFB272
 16004 53a7 01       		.uleb128 0x1
 16005 53a8 9C       		.byte	0x9c
 16006 53a9 E5530000 		.4byte	0x53e5
 16007 53ad 3E       		.uleb128 0x3e
 16008 53ae D94A0000 		.4byte	0x4ad9
 16009 53b2 C7140000 		.4byte	.LLST59
 16010 53b6 35       		.uleb128 0x35
 16011 53b7 80010000 		.4byte	.Ldebug_ranges0+0x180
 16012 53bb D2530000 		.4byte	0x53d2
 16013 53bf 3E       		.uleb128 0x3e
 16014 53c0 D94A0000 		.4byte	0x4ad9
 16015 53c4 2F150000 		.4byte	.LLST60
 16016 53c8 48       		.uleb128 0x48
 16017 53c9 6C000000 		.4byte	.LVL321
 16018 53cd 10560000 		.4byte	0x5610
 16019 53d1 00       		.byte	0
 16020 53d2 41       		.uleb128 0x41
 16021 53d3 0E000000 		.4byte	.LVL315
 16022 53d7 B4430000 		.4byte	0x43b4
 16023 53db 48       		.uleb128 0x48
 16024 53dc 42000000 		.4byte	.LVL317
 16025 53e0 85570000 		.4byte	0x5785
 16026 53e4 00       		.byte	0
 16027 53e5 63       		.uleb128 0x63
 16028 53e6 68430000 		.4byte	0x4368
 16029 53ea 00000000 		.4byte	.LFB306
 16030 53ee 24000000 		.4byte	.LFE306-.LFB306
 16031 53f2 01       		.uleb128 0x1
 16032 53f3 9C       		.byte	0x9c
 16033 53f4 0B540000 		.4byte	0x540b
 16034 53f8 3E       		.uleb128 0x3e
 16035 53f9 75430000 		.4byte	0x4375
 16036 53fd 53150000 		.4byte	.LLST63
 16037 5401 48       		.uleb128 0x48
 16038 5402 0C000000 		.4byte	.LVL334
 16039 5406 844F0000 		.4byte	0x4f84
ARM GAS  C:\Users\CHRIST~1\AppData\Local\Temp\ccCFoZV9.s 			page 284


 16040 540a 00       		.byte	0
 16041 540b 69       		.uleb128 0x69
 16042 540c 05010000 		.4byte	.LASF1001
 16043 5410 05010000 		.4byte	.LASF1001
 16044 5414 2D       		.byte	0x2d
 16045 5415 1F       		.byte	0x1f
 16046 5416 69       		.uleb128 0x69
 16047 5417 77190000 		.4byte	.LASF1002
 16048 541b 77190000 		.4byte	.LASF1002
 16049 541f 2E       		.byte	0x2e
 16050 5420 1C       		.byte	0x1c
 16051 5421 69       		.uleb128 0x69
 16052 5422 8C390000 		.4byte	.LASF1003
 16053 5426 8C390000 		.4byte	.LASF1003
 16054 542a 12       		.byte	0x12
 16055 542b 8B       		.byte	0x8b
 16056 542c 69       		.uleb128 0x69
 16057 542d D7300000 		.4byte	.LASF1004
 16058 5431 D7300000 		.4byte	.LASF1004
 16059 5435 2F       		.byte	0x2f
 16060 5436 96       		.byte	0x96
 16061 5437 69       		.uleb128 0x69
 16062 5438 042F0000 		.4byte	.LASF1005
 16063 543c 042F0000 		.4byte	.LASF1005
 16064 5440 17       		.byte	0x17
 16065 5441 47       		.byte	0x47
 16066 5442 69       		.uleb128 0x69
 16067 5443 26060000 		.4byte	.LASF1006
 16068 5447 26060000 		.4byte	.LASF1006
 16069 544b 12       		.byte	0x12
 16070 544c 85       		.byte	0x85
 16071 544d 69       		.uleb128 0x69
 16072 544e B3020000 		.4byte	.LASF1007
 16073 5452 B3020000 		.4byte	.LASF1007
 16074 5456 17       		.byte	0x17
 16075 5457 27       		.byte	0x27
 16076 5458 69       		.uleb128 0x69
 16077 5459 D2270000 		.4byte	.LASF1008
 16078 545d D2270000 		.4byte	.LASF1008
 16079 5461 17       		.byte	0x17
 16080 5462 3C       		.byte	0x3c
 16081 5463 69       		.uleb128 0x69
 16082 5464 DD290000 		.4byte	.LASF1009
 16083 5468 DD290000 		.4byte	.LASF1009
 16084 546c 30       		.byte	0x30
 16085 546d 3F       		.byte	0x3f
 16086 546e 69       		.uleb128 0x69
 16087 546f 72160000 		.4byte	.LASF1010
 16088 5473 72160000 		.4byte	.LASF1010
 16089 5477 31       		.byte	0x31
 16090 5478 23       		.byte	0x23
 16091 5479 69       		.uleb128 0x69
 16092 547a 361E0000 		.4byte	.LASF1011
 16093 547e 361E0000 		.4byte	.LASF1011
 16094 5482 30       		.byte	0x30
 16095 5483 39       		.byte	0x39
 16096 5484 69       		.uleb128 0x69
ARM GAS  C:\Users\CHRIST~1\AppData\Local\Temp\ccCFoZV9.s 			page 285


 16097 5485 641E0000 		.4byte	.LASF1012
 16098 5489 641E0000 		.4byte	.LASF1012
 16099 548d 30       		.byte	0x30
 16100 548e 3A       		.byte	0x3a
 16101 548f 69       		.uleb128 0x69
 16102 5490 841A0000 		.4byte	.LASF1013
 16103 5494 841A0000 		.4byte	.LASF1013
 16104 5498 30       		.byte	0x30
 16105 5499 34       		.byte	0x34
 16106 549a 69       		.uleb128 0x69
 16107 549b 5A1B0000 		.4byte	.LASF1014
 16108 549f 5A1B0000 		.4byte	.LASF1014
 16109 54a3 30       		.byte	0x30
 16110 54a4 36       		.byte	0x36
 16111 54a5 69       		.uleb128 0x69
 16112 54a6 B9130000 		.4byte	.LASF1015
 16113 54aa B9130000 		.4byte	.LASF1015
 16114 54ae 30       		.byte	0x30
 16115 54af 1E       		.byte	0x1e
 16116 54b0 69       		.uleb128 0x69
 16117 54b1 F8060000 		.4byte	.LASF1016
 16118 54b5 F8060000 		.4byte	.LASF1016
 16119 54b9 17       		.byte	0x17
 16120 54ba 1C       		.byte	0x1c
 16121 54bb 69       		.uleb128 0x69
 16122 54bc 35050000 		.4byte	.LASF1017
 16123 54c0 35050000 		.4byte	.LASF1017
 16124 54c4 17       		.byte	0x17
 16125 54c5 31       		.byte	0x31
 16126 54c6 69       		.uleb128 0x69
 16127 54c7 33280000 		.4byte	.LASF1018
 16128 54cb 33280000 		.4byte	.LASF1018
 16129 54cf 12       		.byte	0x12
 16130 54d0 84       		.byte	0x84
 16131 54d1 69       		.uleb128 0x69
 16132 54d2 B1050000 		.4byte	.LASF1019
 16133 54d6 B1050000 		.4byte	.LASF1019
 16134 54da 30       		.byte	0x30
 16135 54db 2E       		.byte	0x2e
 16136 54dc 69       		.uleb128 0x69
 16137 54dd 592A0000 		.4byte	.LASF1020
 16138 54e1 592A0000 		.4byte	.LASF1020
 16139 54e5 32       		.byte	0x32
 16140 54e6 1E       		.byte	0x1e
 16141 54e7 69       		.uleb128 0x69
 16142 54e8 73200000 		.4byte	.LASF1021
 16143 54ec 73200000 		.4byte	.LASF1021
 16144 54f0 30       		.byte	0x30
 16145 54f1 4A       		.byte	0x4a
 16146 54f2 69       		.uleb128 0x69
 16147 54f3 113B0000 		.4byte	.LASF1022
 16148 54f7 113B0000 		.4byte	.LASF1022
 16149 54fb 17       		.byte	0x17
 16150 54fc 41       		.byte	0x41
 16151 54fd 69       		.uleb128 0x69
 16152 54fe 6D020000 		.4byte	.LASF1023
 16153 5502 6D020000 		.4byte	.LASF1023
ARM GAS  C:\Users\CHRIST~1\AppData\Local\Temp\ccCFoZV9.s 			page 286


 16154 5506 30       		.byte	0x30
 16155 5507 3E       		.byte	0x3e
 16156 5508 69       		.uleb128 0x69
 16157 5509 C72F0000 		.4byte	.LASF1024
 16158 550d C72F0000 		.4byte	.LASF1024
 16159 5511 17       		.byte	0x17
 16160 5512 30       		.byte	0x30
 16161 5513 69       		.uleb128 0x69
 16162 5514 17290000 		.4byte	.LASF1025
 16163 5518 17290000 		.4byte	.LASF1025
 16164 551c 30       		.byte	0x30
 16165 551d 3D       		.byte	0x3d
 16166 551e 69       		.uleb128 0x69
 16167 551f 61080000 		.4byte	.LASF1026
 16168 5523 61080000 		.4byte	.LASF1026
 16169 5527 17       		.byte	0x17
 16170 5528 2F       		.byte	0x2f
 16171 5529 69       		.uleb128 0x69
 16172 552a 35140000 		.4byte	.LASF1027
 16173 552e 35140000 		.4byte	.LASF1027
 16174 5532 30       		.byte	0x30
 16175 5533 3C       		.byte	0x3c
 16176 5534 69       		.uleb128 0x69
 16177 5535 C3370000 		.4byte	.LASF1028
 16178 5539 C3370000 		.4byte	.LASF1028
 16179 553d 17       		.byte	0x17
 16180 553e 37       		.byte	0x37
 16181 553f 69       		.uleb128 0x69
 16182 5540 851D0000 		.4byte	.LASF1029
 16183 5544 851D0000 		.4byte	.LASF1029
 16184 5548 30       		.byte	0x30
 16185 5549 3B       		.byte	0x3b
 16186 554a 69       		.uleb128 0x69
 16187 554b 8C030000 		.4byte	.LASF1030
 16188 554f 8C030000 		.4byte	.LASF1030
 16189 5553 17       		.byte	0x17
 16190 5554 36       		.byte	0x36
 16191 5555 69       		.uleb128 0x69
 16192 5556 68180000 		.4byte	.LASF1031
 16193 555a 68180000 		.4byte	.LASF1031
 16194 555e 30       		.byte	0x30
 16195 555f 38       		.byte	0x38
 16196 5560 69       		.uleb128 0x69
 16197 5561 B4080000 		.4byte	.LASF1032
 16198 5565 B4080000 		.4byte	.LASF1032
 16199 5569 17       		.byte	0x17
 16200 556a 35       		.byte	0x35
 16201 556b 69       		.uleb128 0x69
 16202 556c 040E0000 		.4byte	.LASF1033
 16203 5570 040E0000 		.4byte	.LASF1033
 16204 5574 30       		.byte	0x30
 16205 5575 37       		.byte	0x37
 16206 5576 69       		.uleb128 0x69
 16207 5577 DB250000 		.4byte	.LASF1034
 16208 557b DB250000 		.4byte	.LASF1034
 16209 557f 17       		.byte	0x17
 16210 5580 34       		.byte	0x34
ARM GAS  C:\Users\CHRIST~1\AppData\Local\Temp\ccCFoZV9.s 			page 287


 16211 5581 69       		.uleb128 0x69
 16212 5582 B2150000 		.4byte	.LASF1035
 16213 5586 B2150000 		.4byte	.LASF1035
 16214 558a 30       		.byte	0x30
 16215 558b 33       		.byte	0x33
 16216 558c 69       		.uleb128 0x69
 16217 558d 7E000000 		.4byte	.LASF1036
 16218 5591 7E000000 		.4byte	.LASF1036
 16219 5595 17       		.byte	0x17
 16220 5596 33       		.byte	0x33
 16221 5597 69       		.uleb128 0x69
 16222 5598 DD190000 		.4byte	.LASF1037
 16223 559c DD190000 		.4byte	.LASF1037
 16224 55a0 30       		.byte	0x30
 16225 55a1 32       		.byte	0x32
 16226 55a2 69       		.uleb128 0x69
 16227 55a3 BD1F0000 		.4byte	.LASF1038
 16228 55a7 BD1F0000 		.4byte	.LASF1038
 16229 55ab 17       		.byte	0x17
 16230 55ac 32       		.byte	0x32
 16231 55ad 69       		.uleb128 0x69
 16232 55ae F32B0000 		.4byte	.LASF1039
 16233 55b2 F32B0000 		.4byte	.LASF1039
 16234 55b6 30       		.byte	0x30
 16235 55b7 31       		.byte	0x31
 16236 55b8 69       		.uleb128 0x69
 16237 55b9 8D150000 		.4byte	.LASF1040
 16238 55bd 8D150000 		.4byte	.LASF1040
 16239 55c1 17       		.byte	0x17
 16240 55c2 2B       		.byte	0x2b
 16241 55c3 69       		.uleb128 0x69
 16242 55c4 1A180000 		.4byte	.LASF1041
 16243 55c8 1A180000 		.4byte	.LASF1041
 16244 55cc 30       		.byte	0x30
 16245 55cd 30       		.byte	0x30
 16246 55ce 69       		.uleb128 0x69
 16247 55cf EA180000 		.4byte	.LASF1042
 16248 55d3 EA180000 		.4byte	.LASF1042
 16249 55d7 17       		.byte	0x17
 16250 55d8 2A       		.byte	0x2a
 16251 55d9 69       		.uleb128 0x69
 16252 55da 732E0000 		.4byte	.LASF1043
 16253 55de 732E0000 		.4byte	.LASF1043
 16254 55e2 30       		.byte	0x30
 16255 55e3 2C       		.byte	0x2c
 16256 55e4 69       		.uleb128 0x69
 16257 55e5 5B0C0000 		.4byte	.LASF1044
 16258 55e9 5B0C0000 		.4byte	.LASF1044
 16259 55ed 17       		.byte	0x17
 16260 55ee 29       		.byte	0x29
 16261 55ef 69       		.uleb128 0x69
 16262 55f0 48040000 		.4byte	.LASF1045
 16263 55f4 48040000 		.4byte	.LASF1045
 16264 55f8 30       		.byte	0x30
 16265 55f9 2B       		.byte	0x2b
 16266 55fa 69       		.uleb128 0x69
 16267 55fb 20200000 		.4byte	.LASF1046
ARM GAS  C:\Users\CHRIST~1\AppData\Local\Temp\ccCFoZV9.s 			page 288


 16268 55ff 20200000 		.4byte	.LASF1046
 16269 5603 17       		.byte	0x17
 16270 5604 28       		.byte	0x28
 16271 5605 69       		.uleb128 0x69
 16272 5606 B0070000 		.4byte	.LASF1047
 16273 560a B0070000 		.4byte	.LASF1047
 16274 560e 30       		.byte	0x30
 16275 560f 29       		.byte	0x29
 16276 5610 69       		.uleb128 0x69
 16277 5611 97180000 		.4byte	.LASF1048
 16278 5615 97180000 		.4byte	.LASF1048
 16279 5619 17       		.byte	0x17
 16280 561a 24       		.byte	0x24
 16281 561b 69       		.uleb128 0x69
 16282 561c EE0D0000 		.4byte	.LASF1049
 16283 5620 EE0D0000 		.4byte	.LASF1049
 16284 5624 30       		.byte	0x30
 16285 5625 26       		.byte	0x26
 16286 5626 69       		.uleb128 0x69
 16287 5627 E4160000 		.4byte	.LASF1050
 16288 562b E4160000 		.4byte	.LASF1050
 16289 562f 17       		.byte	0x17
 16290 5630 22       		.byte	0x22
 16291 5631 69       		.uleb128 0x69
 16292 5632 35150000 		.4byte	.LASF1051
 16293 5636 35150000 		.4byte	.LASF1051
 16294 563a 30       		.byte	0x30
 16295 563b 25       		.byte	0x25
 16296 563c 69       		.uleb128 0x69
 16297 563d 99240000 		.4byte	.LASF1052
 16298 5641 99240000 		.4byte	.LASF1052
 16299 5645 17       		.byte	0x17
 16300 5646 21       		.byte	0x21
 16301 5647 69       		.uleb128 0x69
 16302 5648 33380000 		.4byte	.LASF1053
 16303 564c 33380000 		.4byte	.LASF1053
 16304 5650 30       		.byte	0x30
 16305 5651 24       		.byte	0x24
 16306 5652 69       		.uleb128 0x69
 16307 5653 90020000 		.4byte	.LASF1054
 16308 5657 90020000 		.4byte	.LASF1054
 16309 565b 17       		.byte	0x17
 16310 565c 20       		.byte	0x20
 16311 565d 69       		.uleb128 0x69
 16312 565e B71A0000 		.4byte	.LASF1055
 16313 5662 B71A0000 		.4byte	.LASF1055
 16314 5666 30       		.byte	0x30
 16315 5667 20       		.byte	0x20
 16316 5668 69       		.uleb128 0x69
 16317 5669 E50B0000 		.4byte	.LASF1056
 16318 566d E50B0000 		.4byte	.LASF1056
 16319 5671 17       		.byte	0x17
 16320 5672 2C       		.byte	0x2c
 16321 5673 69       		.uleb128 0x69
 16322 5674 D4260000 		.4byte	.LASF1057
 16323 5678 D4260000 		.4byte	.LASF1057
 16324 567c 30       		.byte	0x30
ARM GAS  C:\Users\CHRIST~1\AppData\Local\Temp\ccCFoZV9.s 			page 289


 16325 567d 21       		.byte	0x21
 16326 567e 69       		.uleb128 0x69
 16327 567f EE360000 		.4byte	.LASF1058
 16328 5683 EE360000 		.4byte	.LASF1058
 16329 5687 17       		.byte	0x17
 16330 5688 43       		.byte	0x43
 16331 5689 69       		.uleb128 0x69
 16332 568a 6F000000 		.4byte	.LASF1059
 16333 568e 6F000000 		.4byte	.LASF1059
 16334 5692 32       		.byte	0x32
 16335 5693 1A       		.byte	0x1a
 16336 5694 6A       		.uleb128 0x6a
 16337 5695 870E0000 		.4byte	.LASF1088
 16338 5699 870E0000 		.4byte	.LASF1088
 16339 569d 69       		.uleb128 0x69
 16340 569e 03080000 		.4byte	.LASF1060
 16341 56a2 03080000 		.4byte	.LASF1060
 16342 56a6 30       		.byte	0x30
 16343 56a7 1F       		.byte	0x1f
 16344 56a8 69       		.uleb128 0x69
 16345 56a9 421B0000 		.4byte	.LASF1061
 16346 56ad 421B0000 		.4byte	.LASF1061
 16347 56b1 17       		.byte	0x17
 16348 56b2 1D       		.byte	0x1d
 16349 56b3 69       		.uleb128 0x69
 16350 56b4 3C090000 		.4byte	.LASF1062
 16351 56b8 3C090000 		.4byte	.LASF1062
 16352 56bc 30       		.byte	0x30
 16353 56bd 1D       		.byte	0x1d
 16354 56be 69       		.uleb128 0x69
 16355 56bf 2B040000 		.4byte	.LASF1063
 16356 56c3 2B040000 		.4byte	.LASF1063
 16357 56c7 17       		.byte	0x17
 16358 56c8 1A       		.byte	0x1a
 16359 56c9 69       		.uleb128 0x69
 16360 56ca 232A0000 		.4byte	.LASF1064
 16361 56ce 232A0000 		.4byte	.LASF1064
 16362 56d2 32       		.byte	0x32
 16363 56d3 1C       		.byte	0x1c
 16364 56d4 69       		.uleb128 0x69
 16365 56d5 482D0000 		.4byte	.LASF1065
 16366 56d9 482D0000 		.4byte	.LASF1065
 16367 56dd 32       		.byte	0x32
 16368 56de 21       		.byte	0x21
 16369 56df 69       		.uleb128 0x69
 16370 56e0 F0330000 		.4byte	.LASF1066
 16371 56e4 F0330000 		.4byte	.LASF1066
 16372 56e8 32       		.byte	0x32
 16373 56e9 1B       		.byte	0x1b
 16374 56ea 69       		.uleb128 0x69
 16375 56eb BD160000 		.4byte	.LASF1067
 16376 56ef BD160000 		.4byte	.LASF1067
 16377 56f3 17       		.byte	0x17
 16378 56f4 1B       		.byte	0x1b
 16379 56f5 69       		.uleb128 0x69
 16380 56f6 3B030000 		.4byte	.LASF1068
 16381 56fa 3B030000 		.4byte	.LASF1068
ARM GAS  C:\Users\CHRIST~1\AppData\Local\Temp\ccCFoZV9.s 			page 290


 16382 56fe 30       		.byte	0x30
 16383 56ff 1C       		.byte	0x1c
 16384 5700 69       		.uleb128 0x69
 16385 5701 180D0000 		.4byte	.LASF1069
 16386 5705 180D0000 		.4byte	.LASF1069
 16387 5709 2F       		.byte	0x2f
 16388 570a 89       		.byte	0x89
 16389 570b 69       		.uleb128 0x69
 16390 570c CF230000 		.4byte	.LASF1070
 16391 5710 CF230000 		.4byte	.LASF1070
 16392 5714 33       		.byte	0x33
 16393 5715 31       		.byte	0x31
 16394 5716 69       		.uleb128 0x69
 16395 5717 04220000 		.4byte	.LASF1071
 16396 571b 04220000 		.4byte	.LASF1071
 16397 571f 33       		.byte	0x33
 16398 5720 32       		.byte	0x32
 16399 5721 6B       		.uleb128 0x6b
 16400 5722 D22E0000 		.4byte	.LASF1072
 16401 5726 D22E0000 		.4byte	.LASF1072
 16402 572a 2B       		.byte	0x2b
 16403 572b 6B01     		.2byte	0x16b
 16404 572d 69       		.uleb128 0x69
 16405 572e E8270000 		.4byte	.LASF1073
 16406 5732 E8270000 		.4byte	.LASF1073
 16407 5736 34       		.byte	0x34
 16408 5737 1B       		.byte	0x1b
 16409 5738 69       		.uleb128 0x69
 16410 5739 031D0000 		.4byte	.LASF1074
 16411 573d 031D0000 		.4byte	.LASF1074
 16412 5741 30       		.byte	0x30
 16413 5742 22       		.byte	0x22
 16414 5743 69       		.uleb128 0x69
 16415 5744 0F370000 		.4byte	.LASF1075
 16416 5748 0F370000 		.4byte	.LASF1075
 16417 574c 33       		.byte	0x33
 16418 574d 20       		.byte	0x20
 16419 574e 69       		.uleb128 0x69
 16420 574f D3180000 		.4byte	.LASF1076
 16421 5753 D3180000 		.4byte	.LASF1076
 16422 5757 33       		.byte	0x33
 16423 5758 2D       		.byte	0x2d
 16424 5759 69       		.uleb128 0x69
 16425 575a 393A0000 		.4byte	.LASF1077
 16426 575e 393A0000 		.4byte	.LASF1077
 16427 5762 17       		.byte	0x17
 16428 5763 1F       		.byte	0x1f
 16429 5764 69       		.uleb128 0x69
 16430 5765 3F230000 		.4byte	.LASF1078
 16431 5769 3F230000 		.4byte	.LASF1078
 16432 576d 30       		.byte	0x30
 16433 576e 23       		.byte	0x23
 16434 576f 69       		.uleb128 0x69
 16435 5770 110F0000 		.4byte	.LASF1079
 16436 5774 110F0000 		.4byte	.LASF1079
 16437 5778 17       		.byte	0x17
 16438 5779 23       		.byte	0x23
ARM GAS  C:\Users\CHRIST~1\AppData\Local\Temp\ccCFoZV9.s 			page 291


 16439 577a 69       		.uleb128 0x69
 16440 577b 4F200000 		.4byte	.LASF1080
 16441 577f 4F200000 		.4byte	.LASF1080
 16442 5783 30       		.byte	0x30
 16443 5784 27       		.byte	0x27
 16444 5785 69       		.uleb128 0x69
 16445 5786 6E370000 		.4byte	.LASF1081
 16446 578a 6E370000 		.4byte	.LASF1081
 16447 578e 30       		.byte	0x30
 16448 578f 28       		.byte	0x28
 16449 5790 00       		.byte	0
 16450              		.section	.debug_abbrev,"",%progbits
 16451              	.Ldebug_abbrev0:
 16452 0000 01       		.uleb128 0x1
 16453 0001 11       		.uleb128 0x11
 16454 0002 01       		.byte	0x1
 16455 0003 25       		.uleb128 0x25
 16456 0004 0E       		.uleb128 0xe
 16457 0005 13       		.uleb128 0x13
 16458 0006 0B       		.uleb128 0xb
 16459 0007 03       		.uleb128 0x3
 16460 0008 0E       		.uleb128 0xe
 16461 0009 1B       		.uleb128 0x1b
 16462 000a 0E       		.uleb128 0xe
 16463 000b 55       		.uleb128 0x55
 16464 000c 17       		.uleb128 0x17
 16465 000d 11       		.uleb128 0x11
 16466 000e 01       		.uleb128 0x1
 16467 000f 10       		.uleb128 0x10
 16468 0010 17       		.uleb128 0x17
 16469 0011 00       		.byte	0
 16470 0012 00       		.byte	0
 16471 0013 02       		.uleb128 0x2
 16472 0014 24       		.uleb128 0x24
 16473 0015 00       		.byte	0
 16474 0016 0B       		.uleb128 0xb
 16475 0017 0B       		.uleb128 0xb
 16476 0018 3E       		.uleb128 0x3e
 16477 0019 0B       		.uleb128 0xb
 16478 001a 03       		.uleb128 0x3
 16479 001b 0E       		.uleb128 0xe
 16480 001c 00       		.byte	0
 16481 001d 00       		.byte	0
 16482 001e 03       		.uleb128 0x3
 16483 001f 16       		.uleb128 0x16
 16484 0020 00       		.byte	0
 16485 0021 03       		.uleb128 0x3
 16486 0022 0E       		.uleb128 0xe
 16487 0023 3A       		.uleb128 0x3a
 16488 0024 0B       		.uleb128 0xb
 16489 0025 3B       		.uleb128 0x3b
 16490 0026 0B       		.uleb128 0xb
 16491 0027 49       		.uleb128 0x49
 16492 0028 13       		.uleb128 0x13
 16493 0029 00       		.byte	0
 16494 002a 00       		.byte	0
 16495 002b 04       		.uleb128 0x4
ARM GAS  C:\Users\CHRIST~1\AppData\Local\Temp\ccCFoZV9.s 			page 292


 16496 002c 24       		.uleb128 0x24
 16497 002d 00       		.byte	0
 16498 002e 0B       		.uleb128 0xb
 16499 002f 0B       		.uleb128 0xb
 16500 0030 3E       		.uleb128 0x3e
 16501 0031 0B       		.uleb128 0xb
 16502 0032 03       		.uleb128 0x3
 16503 0033 08       		.uleb128 0x8
 16504 0034 00       		.byte	0
 16505 0035 00       		.byte	0
 16506 0036 05       		.uleb128 0x5
 16507 0037 35       		.uleb128 0x35
 16508 0038 00       		.byte	0
 16509 0039 49       		.uleb128 0x49
 16510 003a 13       		.uleb128 0x13
 16511 003b 00       		.byte	0
 16512 003c 00       		.byte	0
 16513 003d 06       		.uleb128 0x6
 16514 003e 26       		.uleb128 0x26
 16515 003f 00       		.byte	0
 16516 0040 49       		.uleb128 0x49
 16517 0041 13       		.uleb128 0x13
 16518 0042 00       		.byte	0
 16519 0043 00       		.byte	0
 16520 0044 07       		.uleb128 0x7
 16521 0045 13       		.uleb128 0x13
 16522 0046 01       		.byte	0x1
 16523 0047 03       		.uleb128 0x3
 16524 0048 0E       		.uleb128 0xe
 16525 0049 0B       		.uleb128 0xb
 16526 004a 0B       		.uleb128 0xb
 16527 004b 3A       		.uleb128 0x3a
 16528 004c 0B       		.uleb128 0xb
 16529 004d 3B       		.uleb128 0x3b
 16530 004e 0B       		.uleb128 0xb
 16531 004f 01       		.uleb128 0x1
 16532 0050 13       		.uleb128 0x13
 16533 0051 00       		.byte	0
 16534 0052 00       		.byte	0
 16535 0053 08       		.uleb128 0x8
 16536 0054 0D       		.uleb128 0xd
 16537 0055 00       		.byte	0
 16538 0056 03       		.uleb128 0x3
 16539 0057 0E       		.uleb128 0xe
 16540 0058 3A       		.uleb128 0x3a
 16541 0059 0B       		.uleb128 0xb
 16542 005a 3B       		.uleb128 0x3b
 16543 005b 0B       		.uleb128 0xb
 16544 005c 49       		.uleb128 0x49
 16545 005d 13       		.uleb128 0x13
 16546 005e 38       		.uleb128 0x38
 16547 005f 0B       		.uleb128 0xb
 16548 0060 00       		.byte	0
 16549 0061 00       		.byte	0
 16550 0062 09       		.uleb128 0x9
 16551 0063 0D       		.uleb128 0xd
 16552 0064 00       		.byte	0
ARM GAS  C:\Users\CHRIST~1\AppData\Local\Temp\ccCFoZV9.s 			page 293


 16553 0065 03       		.uleb128 0x3
 16554 0066 08       		.uleb128 0x8
 16555 0067 3A       		.uleb128 0x3a
 16556 0068 0B       		.uleb128 0xb
 16557 0069 3B       		.uleb128 0x3b
 16558 006a 05       		.uleb128 0x5
 16559 006b 49       		.uleb128 0x49
 16560 006c 13       		.uleb128 0x13
 16561 006d 38       		.uleb128 0x38
 16562 006e 0B       		.uleb128 0xb
 16563 006f 00       		.byte	0
 16564 0070 00       		.byte	0
 16565 0071 0A       		.uleb128 0xa
 16566 0072 0D       		.uleb128 0xd
 16567 0073 00       		.byte	0
 16568 0074 03       		.uleb128 0x3
 16569 0075 0E       		.uleb128 0xe
 16570 0076 3A       		.uleb128 0x3a
 16571 0077 0B       		.uleb128 0xb
 16572 0078 3B       		.uleb128 0x3b
 16573 0079 05       		.uleb128 0x5
 16574 007a 49       		.uleb128 0x49
 16575 007b 13       		.uleb128 0x13
 16576 007c 38       		.uleb128 0x38
 16577 007d 0B       		.uleb128 0xb
 16578 007e 00       		.byte	0
 16579 007f 00       		.byte	0
 16580 0080 0B       		.uleb128 0xb
 16581 0081 0F       		.uleb128 0xf
 16582 0082 00       		.byte	0
 16583 0083 0B       		.uleb128 0xb
 16584 0084 0B       		.uleb128 0xb
 16585 0085 49       		.uleb128 0x49
 16586 0086 13       		.uleb128 0x13
 16587 0087 00       		.byte	0
 16588 0088 00       		.byte	0
 16589 0089 0C       		.uleb128 0xc
 16590 008a 13       		.uleb128 0x13
 16591 008b 01       		.byte	0x1
 16592 008c 03       		.uleb128 0x3
 16593 008d 0E       		.uleb128 0xe
 16594 008e 0B       		.uleb128 0xb
 16595 008f 0B       		.uleb128 0xb
 16596 0090 3A       		.uleb128 0x3a
 16597 0091 0B       		.uleb128 0xb
 16598 0092 3B       		.uleb128 0x3b
 16599 0093 05       		.uleb128 0x5
 16600 0094 01       		.uleb128 0x1
 16601 0095 13       		.uleb128 0x13
 16602 0096 00       		.byte	0
 16603 0097 00       		.byte	0
 16604 0098 0D       		.uleb128 0xd
 16605 0099 15       		.uleb128 0x15
 16606 009a 01       		.byte	0x1
 16607 009b 27       		.uleb128 0x27
 16608 009c 19       		.uleb128 0x19
 16609 009d 01       		.uleb128 0x1
ARM GAS  C:\Users\CHRIST~1\AppData\Local\Temp\ccCFoZV9.s 			page 294


 16610 009e 13       		.uleb128 0x13
 16611 009f 00       		.byte	0
 16612 00a0 00       		.byte	0
 16613 00a1 0E       		.uleb128 0xe
 16614 00a2 05       		.uleb128 0x5
 16615 00a3 00       		.byte	0
 16616 00a4 49       		.uleb128 0x49
 16617 00a5 13       		.uleb128 0x13
 16618 00a6 00       		.byte	0
 16619 00a7 00       		.byte	0
 16620 00a8 0F       		.uleb128 0xf
 16621 00a9 0F       		.uleb128 0xf
 16622 00aa 00       		.byte	0
 16623 00ab 0B       		.uleb128 0xb
 16624 00ac 0B       		.uleb128 0xb
 16625 00ad 00       		.byte	0
 16626 00ae 00       		.byte	0
 16627 00af 10       		.uleb128 0x10
 16628 00b0 13       		.uleb128 0x13
 16629 00b1 01       		.byte	0x1
 16630 00b2 03       		.uleb128 0x3
 16631 00b3 0E       		.uleb128 0xe
 16632 00b4 0B       		.uleb128 0xb
 16633 00b5 05       		.uleb128 0x5
 16634 00b6 3A       		.uleb128 0x3a
 16635 00b7 0B       		.uleb128 0xb
 16636 00b8 3B       		.uleb128 0x3b
 16637 00b9 05       		.uleb128 0x5
 16638 00ba 01       		.uleb128 0x1
 16639 00bb 13       		.uleb128 0x13
 16640 00bc 00       		.byte	0
 16641 00bd 00       		.byte	0
 16642 00be 11       		.uleb128 0x11
 16643 00bf 01       		.uleb128 0x1
 16644 00c0 01       		.byte	0x1
 16645 00c1 49       		.uleb128 0x49
 16646 00c2 13       		.uleb128 0x13
 16647 00c3 01       		.uleb128 0x1
 16648 00c4 13       		.uleb128 0x13
 16649 00c5 00       		.byte	0
 16650 00c6 00       		.byte	0
 16651 00c7 12       		.uleb128 0x12
 16652 00c8 21       		.uleb128 0x21
 16653 00c9 00       		.byte	0
 16654 00ca 49       		.uleb128 0x49
 16655 00cb 13       		.uleb128 0x13
 16656 00cc 2F       		.uleb128 0x2f
 16657 00cd 0B       		.uleb128 0xb
 16658 00ce 00       		.byte	0
 16659 00cf 00       		.byte	0
 16660 00d0 13       		.uleb128 0x13
 16661 00d1 34       		.uleb128 0x34
 16662 00d2 00       		.byte	0
 16663 00d3 03       		.uleb128 0x3
 16664 00d4 0E       		.uleb128 0xe
 16665 00d5 3A       		.uleb128 0x3a
 16666 00d6 0B       		.uleb128 0xb
ARM GAS  C:\Users\CHRIST~1\AppData\Local\Temp\ccCFoZV9.s 			page 295


 16667 00d7 3B       		.uleb128 0x3b
 16668 00d8 05       		.uleb128 0x5
 16669 00d9 49       		.uleb128 0x49
 16670 00da 13       		.uleb128 0x13
 16671 00db 3F       		.uleb128 0x3f
 16672 00dc 19       		.uleb128 0x19
 16673 00dd 3C       		.uleb128 0x3c
 16674 00de 19       		.uleb128 0x19
 16675 00df 00       		.byte	0
 16676 00e0 00       		.byte	0
 16677 00e1 14       		.uleb128 0x14
 16678 00e2 34       		.uleb128 0x34
 16679 00e3 00       		.byte	0
 16680 00e4 03       		.uleb128 0x3
 16681 00e5 0E       		.uleb128 0xe
 16682 00e6 3A       		.uleb128 0x3a
 16683 00e7 0B       		.uleb128 0xb
 16684 00e8 3B       		.uleb128 0x3b
 16685 00e9 0B       		.uleb128 0xb
 16686 00ea 49       		.uleb128 0x49
 16687 00eb 13       		.uleb128 0x13
 16688 00ec 3F       		.uleb128 0x3f
 16689 00ed 19       		.uleb128 0x19
 16690 00ee 3C       		.uleb128 0x3c
 16691 00ef 19       		.uleb128 0x19
 16692 00f0 00       		.byte	0
 16693 00f1 00       		.byte	0
 16694 00f2 15       		.uleb128 0x15
 16695 00f3 13       		.uleb128 0x13
 16696 00f4 01       		.byte	0x1
 16697 00f5 0B       		.uleb128 0xb
 16698 00f6 0B       		.uleb128 0xb
 16699 00f7 3A       		.uleb128 0x3a
 16700 00f8 0B       		.uleb128 0xb
 16701 00f9 3B       		.uleb128 0x3b
 16702 00fa 0B       		.uleb128 0xb
 16703 00fb 01       		.uleb128 0x1
 16704 00fc 13       		.uleb128 0x13
 16705 00fd 00       		.byte	0
 16706 00fe 00       		.byte	0
 16707 00ff 16       		.uleb128 0x16
 16708 0100 0D       		.uleb128 0xd
 16709 0101 00       		.byte	0
 16710 0102 03       		.uleb128 0x3
 16711 0103 08       		.uleb128 0x8
 16712 0104 3A       		.uleb128 0x3a
 16713 0105 0B       		.uleb128 0xb
 16714 0106 3B       		.uleb128 0x3b
 16715 0107 0B       		.uleb128 0xb
 16716 0108 49       		.uleb128 0x49
 16717 0109 13       		.uleb128 0x13
 16718 010a 38       		.uleb128 0x38
 16719 010b 0B       		.uleb128 0xb
 16720 010c 00       		.byte	0
 16721 010d 00       		.byte	0
 16722 010e 17       		.uleb128 0x17
 16723 010f 13       		.uleb128 0x13
ARM GAS  C:\Users\CHRIST~1\AppData\Local\Temp\ccCFoZV9.s 			page 296


 16724 0110 01       		.byte	0x1
 16725 0111 0B       		.uleb128 0xb
 16726 0112 0B       		.uleb128 0xb
 16727 0113 3A       		.uleb128 0x3a
 16728 0114 0B       		.uleb128 0xb
 16729 0115 3B       		.uleb128 0x3b
 16730 0116 05       		.uleb128 0x5
 16731 0117 01       		.uleb128 0x1
 16732 0118 13       		.uleb128 0x13
 16733 0119 00       		.byte	0
 16734 011a 00       		.byte	0
 16735 011b 18       		.uleb128 0x18
 16736 011c 16       		.uleb128 0x16
 16737 011d 00       		.byte	0
 16738 011e 03       		.uleb128 0x3
 16739 011f 0E       		.uleb128 0xe
 16740 0120 3A       		.uleb128 0x3a
 16741 0121 0B       		.uleb128 0xb
 16742 0122 3B       		.uleb128 0x3b
 16743 0123 05       		.uleb128 0x5
 16744 0124 49       		.uleb128 0x49
 16745 0125 13       		.uleb128 0x13
 16746 0126 00       		.byte	0
 16747 0127 00       		.byte	0
 16748 0128 19       		.uleb128 0x19
 16749 0129 13       		.uleb128 0x13
 16750 012a 01       		.byte	0x1
 16751 012b 0B       		.uleb128 0xb
 16752 012c 05       		.uleb128 0x5
 16753 012d 3A       		.uleb128 0x3a
 16754 012e 0B       		.uleb128 0xb
 16755 012f 3B       		.uleb128 0x3b
 16756 0130 05       		.uleb128 0x5
 16757 0131 01       		.uleb128 0x1
 16758 0132 13       		.uleb128 0x13
 16759 0133 00       		.byte	0
 16760 0134 00       		.byte	0
 16761 0135 1A       		.uleb128 0x1a
 16762 0136 0D       		.uleb128 0xd
 16763 0137 00       		.byte	0
 16764 0138 03       		.uleb128 0x3
 16765 0139 0E       		.uleb128 0xe
 16766 013a 3A       		.uleb128 0x3a
 16767 013b 0B       		.uleb128 0xb
 16768 013c 3B       		.uleb128 0x3b
 16769 013d 05       		.uleb128 0x5
 16770 013e 49       		.uleb128 0x49
 16771 013f 13       		.uleb128 0x13
 16772 0140 38       		.uleb128 0x38
 16773 0141 05       		.uleb128 0x5
 16774 0142 00       		.byte	0
 16775 0143 00       		.byte	0
 16776 0144 1B       		.uleb128 0x1b
 16777 0145 0D       		.uleb128 0xd
 16778 0146 00       		.byte	0
 16779 0147 03       		.uleb128 0x3
 16780 0148 08       		.uleb128 0x8
ARM GAS  C:\Users\CHRIST~1\AppData\Local\Temp\ccCFoZV9.s 			page 297


 16781 0149 3A       		.uleb128 0x3a
 16782 014a 0B       		.uleb128 0xb
 16783 014b 3B       		.uleb128 0x3b
 16784 014c 05       		.uleb128 0x5
 16785 014d 49       		.uleb128 0x49
 16786 014e 13       		.uleb128 0x13
 16787 014f 38       		.uleb128 0x38
 16788 0150 05       		.uleb128 0x5
 16789 0151 00       		.byte	0
 16790 0152 00       		.byte	0
 16791 0153 1C       		.uleb128 0x1c
 16792 0154 17       		.uleb128 0x17
 16793 0155 01       		.byte	0x1
 16794 0156 0B       		.uleb128 0xb
 16795 0157 0B       		.uleb128 0xb
 16796 0158 3A       		.uleb128 0x3a
 16797 0159 0B       		.uleb128 0xb
 16798 015a 3B       		.uleb128 0x3b
 16799 015b 0B       		.uleb128 0xb
 16800 015c 01       		.uleb128 0x1
 16801 015d 13       		.uleb128 0x13
 16802 015e 00       		.byte	0
 16803 015f 00       		.byte	0
 16804 0160 1D       		.uleb128 0x1d
 16805 0161 0D       		.uleb128 0xd
 16806 0162 00       		.byte	0
 16807 0163 03       		.uleb128 0x3
 16808 0164 0E       		.uleb128 0xe
 16809 0165 3A       		.uleb128 0x3a
 16810 0166 0B       		.uleb128 0xb
 16811 0167 3B       		.uleb128 0x3b
 16812 0168 05       		.uleb128 0x5
 16813 0169 49       		.uleb128 0x49
 16814 016a 13       		.uleb128 0x13
 16815 016b 00       		.byte	0
 16816 016c 00       		.byte	0
 16817 016d 1E       		.uleb128 0x1e
 16818 016e 34       		.uleb128 0x34
 16819 016f 00       		.byte	0
 16820 0170 03       		.uleb128 0x3
 16821 0171 08       		.uleb128 0x8
 16822 0172 3A       		.uleb128 0x3a
 16823 0173 0B       		.uleb128 0xb
 16824 0174 3B       		.uleb128 0x3b
 16825 0175 05       		.uleb128 0x5
 16826 0176 49       		.uleb128 0x49
 16827 0177 13       		.uleb128 0x13
 16828 0178 3F       		.uleb128 0x3f
 16829 0179 19       		.uleb128 0x19
 16830 017a 3C       		.uleb128 0x3c
 16831 017b 19       		.uleb128 0x19
 16832 017c 00       		.byte	0
 16833 017d 00       		.byte	0
 16834 017e 1F       		.uleb128 0x1f
 16835 017f 04       		.uleb128 0x4
 16836 0180 01       		.byte	0x1
 16837 0181 0B       		.uleb128 0xb
ARM GAS  C:\Users\CHRIST~1\AppData\Local\Temp\ccCFoZV9.s 			page 298


 16838 0182 0B       		.uleb128 0xb
 16839 0183 49       		.uleb128 0x49
 16840 0184 13       		.uleb128 0x13
 16841 0185 3A       		.uleb128 0x3a
 16842 0186 0B       		.uleb128 0xb
 16843 0187 3B       		.uleb128 0x3b
 16844 0188 0B       		.uleb128 0xb
 16845 0189 01       		.uleb128 0x1
 16846 018a 13       		.uleb128 0x13
 16847 018b 00       		.byte	0
 16848 018c 00       		.byte	0
 16849 018d 20       		.uleb128 0x20
 16850 018e 28       		.uleb128 0x28
 16851 018f 00       		.byte	0
 16852 0190 03       		.uleb128 0x3
 16853 0191 0E       		.uleb128 0xe
 16854 0192 1C       		.uleb128 0x1c
 16855 0193 0B       		.uleb128 0xb
 16856 0194 00       		.byte	0
 16857 0195 00       		.byte	0
 16858 0196 21       		.uleb128 0x21
 16859 0197 13       		.uleb128 0x13
 16860 0198 01       		.byte	0x1
 16861 0199 0B       		.uleb128 0xb
 16862 019a 05       		.uleb128 0x5
 16863 019b 3A       		.uleb128 0x3a
 16864 019c 0B       		.uleb128 0xb
 16865 019d 3B       		.uleb128 0x3b
 16866 019e 0B       		.uleb128 0xb
 16867 019f 01       		.uleb128 0x1
 16868 01a0 13       		.uleb128 0x13
 16869 01a1 00       		.byte	0
 16870 01a2 00       		.byte	0
 16871 01a3 22       		.uleb128 0x22
 16872 01a4 0D       		.uleb128 0xd
 16873 01a5 00       		.byte	0
 16874 01a6 03       		.uleb128 0x3
 16875 01a7 0E       		.uleb128 0xe
 16876 01a8 3A       		.uleb128 0x3a
 16877 01a9 0B       		.uleb128 0xb
 16878 01aa 3B       		.uleb128 0x3b
 16879 01ab 0B       		.uleb128 0xb
 16880 01ac 49       		.uleb128 0x49
 16881 01ad 13       		.uleb128 0x13
 16882 01ae 38       		.uleb128 0x38
 16883 01af 05       		.uleb128 0x5
 16884 01b0 00       		.byte	0
 16885 01b1 00       		.byte	0
 16886 01b2 23       		.uleb128 0x23
 16887 01b3 04       		.uleb128 0x4
 16888 01b4 01       		.byte	0x1
 16889 01b5 0B       		.uleb128 0xb
 16890 01b6 0B       		.uleb128 0xb
 16891 01b7 49       		.uleb128 0x49
 16892 01b8 13       		.uleb128 0x13
 16893 01b9 3A       		.uleb128 0x3a
 16894 01ba 0B       		.uleb128 0xb
ARM GAS  C:\Users\CHRIST~1\AppData\Local\Temp\ccCFoZV9.s 			page 299


 16895 01bb 3B       		.uleb128 0x3b
 16896 01bc 05       		.uleb128 0x5
 16897 01bd 01       		.uleb128 0x1
 16898 01be 13       		.uleb128 0x13
 16899 01bf 00       		.byte	0
 16900 01c0 00       		.byte	0
 16901 01c1 24       		.uleb128 0x24
 16902 01c2 21       		.uleb128 0x21
 16903 01c3 00       		.byte	0
 16904 01c4 00       		.byte	0
 16905 01c5 00       		.byte	0
 16906 01c6 25       		.uleb128 0x25
 16907 01c7 0D       		.uleb128 0xd
 16908 01c8 00       		.byte	0
 16909 01c9 03       		.uleb128 0x3
 16910 01ca 08       		.uleb128 0x8
 16911 01cb 3A       		.uleb128 0x3a
 16912 01cc 0B       		.uleb128 0xb
 16913 01cd 3B       		.uleb128 0x3b
 16914 01ce 0B       		.uleb128 0xb
 16915 01cf 49       		.uleb128 0x49
 16916 01d0 13       		.uleb128 0x13
 16917 01d1 00       		.byte	0
 16918 01d2 00       		.byte	0
 16919 01d3 26       		.uleb128 0x26
 16920 01d4 15       		.uleb128 0x15
 16921 01d5 01       		.byte	0x1
 16922 01d6 27       		.uleb128 0x27
 16923 01d7 19       		.uleb128 0x19
 16924 01d8 49       		.uleb128 0x49
 16925 01d9 13       		.uleb128 0x13
 16926 01da 01       		.uleb128 0x1
 16927 01db 13       		.uleb128 0x13
 16928 01dc 00       		.byte	0
 16929 01dd 00       		.byte	0
 16930 01de 27       		.uleb128 0x27
 16931 01df 13       		.uleb128 0x13
 16932 01e0 01       		.byte	0x1
 16933 01e1 0B       		.uleb128 0xb
 16934 01e2 06       		.uleb128 0x6
 16935 01e3 3A       		.uleb128 0x3a
 16936 01e4 0B       		.uleb128 0xb
 16937 01e5 3B       		.uleb128 0x3b
 16938 01e6 0B       		.uleb128 0xb
 16939 01e7 01       		.uleb128 0x1
 16940 01e8 13       		.uleb128 0x13
 16941 01e9 00       		.byte	0
 16942 01ea 00       		.byte	0
 16943 01eb 28       		.uleb128 0x28
 16944 01ec 0D       		.uleb128 0xd
 16945 01ed 00       		.byte	0
 16946 01ee 03       		.uleb128 0x3
 16947 01ef 08       		.uleb128 0x8
 16948 01f0 3A       		.uleb128 0x3a
 16949 01f1 0B       		.uleb128 0xb
 16950 01f2 3B       		.uleb128 0x3b
 16951 01f3 0B       		.uleb128 0xb
ARM GAS  C:\Users\CHRIST~1\AppData\Local\Temp\ccCFoZV9.s 			page 300


 16952 01f4 49       		.uleb128 0x49
 16953 01f5 13       		.uleb128 0x13
 16954 01f6 38       		.uleb128 0x38
 16955 01f7 05       		.uleb128 0x5
 16956 01f8 00       		.byte	0
 16957 01f9 00       		.byte	0
 16958 01fa 29       		.uleb128 0x29
 16959 01fb 21       		.uleb128 0x21
 16960 01fc 00       		.byte	0
 16961 01fd 49       		.uleb128 0x49
 16962 01fe 13       		.uleb128 0x13
 16963 01ff 2F       		.uleb128 0x2f
 16964 0200 05       		.uleb128 0x5
 16965 0201 00       		.byte	0
 16966 0202 00       		.byte	0
 16967 0203 2A       		.uleb128 0x2a
 16968 0204 0D       		.uleb128 0xd
 16969 0205 00       		.byte	0
 16970 0206 03       		.uleb128 0x3
 16971 0207 0E       		.uleb128 0xe
 16972 0208 3A       		.uleb128 0x3a
 16973 0209 0B       		.uleb128 0xb
 16974 020a 3B       		.uleb128 0x3b
 16975 020b 0B       		.uleb128 0xb
 16976 020c 49       		.uleb128 0x49
 16977 020d 13       		.uleb128 0x13
 16978 020e 00       		.byte	0
 16979 020f 00       		.byte	0
 16980 0210 2B       		.uleb128 0x2b
 16981 0211 17       		.uleb128 0x17
 16982 0212 01       		.byte	0x1
 16983 0213 0B       		.uleb128 0xb
 16984 0214 0B       		.uleb128 0xb
 16985 0215 3A       		.uleb128 0x3a
 16986 0216 0B       		.uleb128 0xb
 16987 0217 3B       		.uleb128 0x3b
 16988 0218 05       		.uleb128 0x5
 16989 0219 01       		.uleb128 0x1
 16990 021a 13       		.uleb128 0x13
 16991 021b 00       		.byte	0
 16992 021c 00       		.byte	0
 16993 021d 2C       		.uleb128 0x2c
 16994 021e 13       		.uleb128 0x13
 16995 021f 00       		.byte	0
 16996 0220 03       		.uleb128 0x3
 16997 0221 0E       		.uleb128 0xe
 16998 0222 3C       		.uleb128 0x3c
 16999 0223 19       		.uleb128 0x19
 17000 0224 00       		.byte	0
 17001 0225 00       		.byte	0
 17002 0226 2D       		.uleb128 0x2d
 17003 0227 13       		.uleb128 0x13
 17004 0228 01       		.byte	0x1
 17005 0229 03       		.uleb128 0x3
 17006 022a 0E       		.uleb128 0xe
 17007 022b 0B       		.uleb128 0xb
 17008 022c 05       		.uleb128 0x5
ARM GAS  C:\Users\CHRIST~1\AppData\Local\Temp\ccCFoZV9.s 			page 301


 17009 022d 3A       		.uleb128 0x3a
 17010 022e 0B       		.uleb128 0xb
 17011 022f 3B       		.uleb128 0x3b
 17012 0230 0B       		.uleb128 0xb
 17013 0231 01       		.uleb128 0x1
 17014 0232 13       		.uleb128 0x13
 17015 0233 00       		.byte	0
 17016 0234 00       		.byte	0
 17017 0235 2E       		.uleb128 0x2e
 17018 0236 15       		.uleb128 0x15
 17019 0237 00       		.byte	0
 17020 0238 27       		.uleb128 0x27
 17021 0239 19       		.uleb128 0x19
 17022 023a 00       		.byte	0
 17023 023b 00       		.byte	0
 17024 023c 2F       		.uleb128 0x2f
 17025 023d 04       		.uleb128 0x4
 17026 023e 01       		.byte	0x1
 17027 023f 03       		.uleb128 0x3
 17028 0240 0E       		.uleb128 0xe
 17029 0241 0B       		.uleb128 0xb
 17030 0242 0B       		.uleb128 0xb
 17031 0243 49       		.uleb128 0x49
 17032 0244 13       		.uleb128 0x13
 17033 0245 3A       		.uleb128 0x3a
 17034 0246 0B       		.uleb128 0xb
 17035 0247 3B       		.uleb128 0x3b
 17036 0248 05       		.uleb128 0x5
 17037 0249 01       		.uleb128 0x1
 17038 024a 13       		.uleb128 0x13
 17039 024b 00       		.byte	0
 17040 024c 00       		.byte	0
 17041 024d 30       		.uleb128 0x30
 17042 024e 28       		.uleb128 0x28
 17043 024f 00       		.byte	0
 17044 0250 03       		.uleb128 0x3
 17045 0251 0E       		.uleb128 0xe
 17046 0252 1C       		.uleb128 0x1c
 17047 0253 0D       		.uleb128 0xd
 17048 0254 00       		.byte	0
 17049 0255 00       		.byte	0
 17050 0256 31       		.uleb128 0x31
 17051 0257 34       		.uleb128 0x34
 17052 0258 00       		.byte	0
 17053 0259 47       		.uleb128 0x47
 17054 025a 13       		.uleb128 0x13
 17055 025b 3A       		.uleb128 0x3a
 17056 025c 0B       		.uleb128 0xb
 17057 025d 3B       		.uleb128 0x3b
 17058 025e 0B       		.uleb128 0xb
 17059 025f 02       		.uleb128 0x2
 17060 0260 18       		.uleb128 0x18
 17061 0261 00       		.byte	0
 17062 0262 00       		.byte	0
 17063 0263 32       		.uleb128 0x32
 17064 0264 34       		.uleb128 0x34
 17065 0265 00       		.byte	0
ARM GAS  C:\Users\CHRIST~1\AppData\Local\Temp\ccCFoZV9.s 			page 302


 17066 0266 03       		.uleb128 0x3
 17067 0267 0E       		.uleb128 0xe
 17068 0268 3A       		.uleb128 0x3a
 17069 0269 0B       		.uleb128 0xb
 17070 026a 3B       		.uleb128 0x3b
 17071 026b 0B       		.uleb128 0xb
 17072 026c 49       		.uleb128 0x49
 17073 026d 13       		.uleb128 0x13
 17074 026e 02       		.uleb128 0x2
 17075 026f 18       		.uleb128 0x18
 17076 0270 00       		.byte	0
 17077 0271 00       		.byte	0
 17078 0272 33       		.uleb128 0x33
 17079 0273 2E       		.uleb128 0x2e
 17080 0274 01       		.byte	0x1
 17081 0275 03       		.uleb128 0x3
 17082 0276 0E       		.uleb128 0xe
 17083 0277 3A       		.uleb128 0x3a
 17084 0278 0B       		.uleb128 0xb
 17085 0279 3B       		.uleb128 0x3b
 17086 027a 05       		.uleb128 0x5
 17087 027b 27       		.uleb128 0x27
 17088 027c 19       		.uleb128 0x19
 17089 027d 11       		.uleb128 0x11
 17090 027e 01       		.uleb128 0x1
 17091 027f 12       		.uleb128 0x12
 17092 0280 06       		.uleb128 0x6
 17093 0281 40       		.uleb128 0x40
 17094 0282 18       		.uleb128 0x18
 17095 0283 9742     		.uleb128 0x2117
 17096 0285 19       		.uleb128 0x19
 17097 0286 01       		.uleb128 0x1
 17098 0287 13       		.uleb128 0x13
 17099 0288 00       		.byte	0
 17100 0289 00       		.byte	0
 17101 028a 34       		.uleb128 0x34
 17102 028b 05       		.uleb128 0x5
 17103 028c 00       		.byte	0
 17104 028d 03       		.uleb128 0x3
 17105 028e 08       		.uleb128 0x8
 17106 028f 3A       		.uleb128 0x3a
 17107 0290 0B       		.uleb128 0xb
 17108 0291 3B       		.uleb128 0x3b
 17109 0292 05       		.uleb128 0x5
 17110 0293 49       		.uleb128 0x49
 17111 0294 13       		.uleb128 0x13
 17112 0295 02       		.uleb128 0x2
 17113 0296 17       		.uleb128 0x17
 17114 0297 00       		.byte	0
 17115 0298 00       		.byte	0
 17116 0299 35       		.uleb128 0x35
 17117 029a 0B       		.uleb128 0xb
 17118 029b 01       		.byte	0x1
 17119 029c 55       		.uleb128 0x55
 17120 029d 17       		.uleb128 0x17
 17121 029e 01       		.uleb128 0x1
 17122 029f 13       		.uleb128 0x13
ARM GAS  C:\Users\CHRIST~1\AppData\Local\Temp\ccCFoZV9.s 			page 303


 17123 02a0 00       		.byte	0
 17124 02a1 00       		.byte	0
 17125 02a2 36       		.uleb128 0x36
 17126 02a3 34       		.uleb128 0x34
 17127 02a4 00       		.byte	0
 17128 02a5 03       		.uleb128 0x3
 17129 02a6 08       		.uleb128 0x8
 17130 02a7 3A       		.uleb128 0x3a
 17131 02a8 0B       		.uleb128 0xb
 17132 02a9 3B       		.uleb128 0x3b
 17133 02aa 05       		.uleb128 0x5
 17134 02ab 49       		.uleb128 0x49
 17135 02ac 13       		.uleb128 0x13
 17136 02ad 02       		.uleb128 0x2
 17137 02ae 17       		.uleb128 0x17
 17138 02af 00       		.byte	0
 17139 02b0 00       		.byte	0
 17140 02b1 37       		.uleb128 0x37
 17141 02b2 34       		.uleb128 0x34
 17142 02b3 00       		.byte	0
 17143 02b4 03       		.uleb128 0x3
 17144 02b5 0E       		.uleb128 0xe
 17145 02b6 3A       		.uleb128 0x3a
 17146 02b7 0B       		.uleb128 0xb
 17147 02b8 3B       		.uleb128 0x3b
 17148 02b9 05       		.uleb128 0x5
 17149 02ba 49       		.uleb128 0x49
 17150 02bb 13       		.uleb128 0x13
 17151 02bc 02       		.uleb128 0x2
 17152 02bd 17       		.uleb128 0x17
 17153 02be 00       		.byte	0
 17154 02bf 00       		.byte	0
 17155 02c0 38       		.uleb128 0x38
 17156 02c1 0B       		.uleb128 0xb
 17157 02c2 01       		.byte	0x1
 17158 02c3 55       		.uleb128 0x55
 17159 02c4 17       		.uleb128 0x17
 17160 02c5 00       		.byte	0
 17161 02c6 00       		.byte	0
 17162 02c7 39       		.uleb128 0x39
 17163 02c8 34       		.uleb128 0x34
 17164 02c9 00       		.byte	0
 17165 02ca 03       		.uleb128 0x3
 17166 02cb 0E       		.uleb128 0xe
 17167 02cc 3A       		.uleb128 0x3a
 17168 02cd 0B       		.uleb128 0xb
 17169 02ce 3B       		.uleb128 0x3b
 17170 02cf 05       		.uleb128 0x5
 17171 02d0 49       		.uleb128 0x49
 17172 02d1 13       		.uleb128 0x13
 17173 02d2 02       		.uleb128 0x2
 17174 02d3 18       		.uleb128 0x18
 17175 02d4 00       		.byte	0
 17176 02d5 00       		.byte	0
 17177 02d6 3A       		.uleb128 0x3a
 17178 02d7 898201   		.uleb128 0x4109
 17179 02da 01       		.byte	0x1
ARM GAS  C:\Users\CHRIST~1\AppData\Local\Temp\ccCFoZV9.s 			page 304


 17180 02db 11       		.uleb128 0x11
 17181 02dc 01       		.uleb128 0x1
 17182 02dd 31       		.uleb128 0x31
 17183 02de 13       		.uleb128 0x13
 17184 02df 01       		.uleb128 0x1
 17185 02e0 13       		.uleb128 0x13
 17186 02e1 00       		.byte	0
 17187 02e2 00       		.byte	0
 17188 02e3 3B       		.uleb128 0x3b
 17189 02e4 8A8201   		.uleb128 0x410a
 17190 02e7 00       		.byte	0
 17191 02e8 02       		.uleb128 0x2
 17192 02e9 18       		.uleb128 0x18
 17193 02ea 9142     		.uleb128 0x2111
 17194 02ec 18       		.uleb128 0x18
 17195 02ed 00       		.byte	0
 17196 02ee 00       		.byte	0
 17197 02ef 3C       		.uleb128 0x3c
 17198 02f0 898201   		.uleb128 0x4109
 17199 02f3 01       		.byte	0x1
 17200 02f4 11       		.uleb128 0x11
 17201 02f5 01       		.uleb128 0x1
 17202 02f6 31       		.uleb128 0x31
 17203 02f7 13       		.uleb128 0x13
 17204 02f8 00       		.byte	0
 17205 02f9 00       		.byte	0
 17206 02fa 3D       		.uleb128 0x3d
 17207 02fb 1D       		.uleb128 0x1d
 17208 02fc 01       		.byte	0x1
 17209 02fd 31       		.uleb128 0x31
 17210 02fe 13       		.uleb128 0x13
 17211 02ff 52       		.uleb128 0x52
 17212 0300 01       		.uleb128 0x1
 17213 0301 55       		.uleb128 0x55
 17214 0302 17       		.uleb128 0x17
 17215 0303 58       		.uleb128 0x58
 17216 0304 0B       		.uleb128 0xb
 17217 0305 59       		.uleb128 0x59
 17218 0306 05       		.uleb128 0x5
 17219 0307 00       		.byte	0
 17220 0308 00       		.byte	0
 17221 0309 3E       		.uleb128 0x3e
 17222 030a 05       		.uleb128 0x5
 17223 030b 00       		.byte	0
 17224 030c 31       		.uleb128 0x31
 17225 030d 13       		.uleb128 0x13
 17226 030e 02       		.uleb128 0x2
 17227 030f 17       		.uleb128 0x17
 17228 0310 00       		.byte	0
 17229 0311 00       		.byte	0
 17230 0312 3F       		.uleb128 0x3f
 17231 0313 1D       		.uleb128 0x1d
 17232 0314 01       		.byte	0x1
 17233 0315 31       		.uleb128 0x31
 17234 0316 13       		.uleb128 0x13
 17235 0317 52       		.uleb128 0x52
 17236 0318 01       		.uleb128 0x1
ARM GAS  C:\Users\CHRIST~1\AppData\Local\Temp\ccCFoZV9.s 			page 305


 17237 0319 55       		.uleb128 0x55
 17238 031a 17       		.uleb128 0x17
 17239 031b 58       		.uleb128 0x58
 17240 031c 0B       		.uleb128 0xb
 17241 031d 59       		.uleb128 0x59
 17242 031e 05       		.uleb128 0x5
 17243 031f 01       		.uleb128 0x1
 17244 0320 13       		.uleb128 0x13
 17245 0321 00       		.byte	0
 17246 0322 00       		.byte	0
 17247 0323 40       		.uleb128 0x40
 17248 0324 05       		.uleb128 0x5
 17249 0325 00       		.byte	0
 17250 0326 31       		.uleb128 0x31
 17251 0327 13       		.uleb128 0x13
 17252 0328 02       		.uleb128 0x2
 17253 0329 18       		.uleb128 0x18
 17254 032a 00       		.byte	0
 17255 032b 00       		.byte	0
 17256 032c 41       		.uleb128 0x41
 17257 032d 898201   		.uleb128 0x4109
 17258 0330 00       		.byte	0
 17259 0331 11       		.uleb128 0x11
 17260 0332 01       		.uleb128 0x1
 17261 0333 31       		.uleb128 0x31
 17262 0334 13       		.uleb128 0x13
 17263 0335 00       		.byte	0
 17264 0336 00       		.byte	0
 17265 0337 42       		.uleb128 0x42
 17266 0338 2E       		.uleb128 0x2e
 17267 0339 01       		.byte	0x1
 17268 033a 03       		.uleb128 0x3
 17269 033b 0E       		.uleb128 0xe
 17270 033c 3A       		.uleb128 0x3a
 17271 033d 0B       		.uleb128 0xb
 17272 033e 3B       		.uleb128 0x3b
 17273 033f 05       		.uleb128 0x5
 17274 0340 27       		.uleb128 0x27
 17275 0341 19       		.uleb128 0x19
 17276 0342 20       		.uleb128 0x20
 17277 0343 0B       		.uleb128 0xb
 17278 0344 01       		.uleb128 0x1
 17279 0345 13       		.uleb128 0x13
 17280 0346 00       		.byte	0
 17281 0347 00       		.byte	0
 17282 0348 43       		.uleb128 0x43
 17283 0349 05       		.uleb128 0x5
 17284 034a 00       		.byte	0
 17285 034b 03       		.uleb128 0x3
 17286 034c 0E       		.uleb128 0xe
 17287 034d 3A       		.uleb128 0x3a
 17288 034e 0B       		.uleb128 0xb
 17289 034f 3B       		.uleb128 0x3b
 17290 0350 05       		.uleb128 0x5
 17291 0351 49       		.uleb128 0x49
 17292 0352 13       		.uleb128 0x13
 17293 0353 00       		.byte	0
ARM GAS  C:\Users\CHRIST~1\AppData\Local\Temp\ccCFoZV9.s 			page 306


 17294 0354 00       		.byte	0
 17295 0355 44       		.uleb128 0x44
 17296 0356 34       		.uleb128 0x34
 17297 0357 00       		.byte	0
 17298 0358 03       		.uleb128 0x3
 17299 0359 0E       		.uleb128 0xe
 17300 035a 3A       		.uleb128 0x3a
 17301 035b 0B       		.uleb128 0xb
 17302 035c 3B       		.uleb128 0x3b
 17303 035d 05       		.uleb128 0x5
 17304 035e 49       		.uleb128 0x49
 17305 035f 13       		.uleb128 0x13
 17306 0360 00       		.byte	0
 17307 0361 00       		.byte	0
 17308 0362 45       		.uleb128 0x45
 17309 0363 0B       		.uleb128 0xb
 17310 0364 01       		.byte	0x1
 17311 0365 01       		.uleb128 0x1
 17312 0366 13       		.uleb128 0x13
 17313 0367 00       		.byte	0
 17314 0368 00       		.byte	0
 17315 0369 46       		.uleb128 0x46
 17316 036a 0B       		.uleb128 0xb
 17317 036b 01       		.byte	0x1
 17318 036c 00       		.byte	0
 17319 036d 00       		.byte	0
 17320 036e 47       		.uleb128 0x47
 17321 036f 2E       		.uleb128 0x2e
 17322 0370 01       		.byte	0x1
 17323 0371 3F       		.uleb128 0x3f
 17324 0372 19       		.uleb128 0x19
 17325 0373 03       		.uleb128 0x3
 17326 0374 0E       		.uleb128 0xe
 17327 0375 3A       		.uleb128 0x3a
 17328 0376 0B       		.uleb128 0xb
 17329 0377 3B       		.uleb128 0x3b
 17330 0378 05       		.uleb128 0x5
 17331 0379 27       		.uleb128 0x27
 17332 037a 19       		.uleb128 0x19
 17333 037b 11       		.uleb128 0x11
 17334 037c 01       		.uleb128 0x1
 17335 037d 12       		.uleb128 0x12
 17336 037e 06       		.uleb128 0x6
 17337 037f 40       		.uleb128 0x40
 17338 0380 18       		.uleb128 0x18
 17339 0381 9742     		.uleb128 0x2117
 17340 0383 19       		.uleb128 0x19
 17341 0384 01       		.uleb128 0x1
 17342 0385 13       		.uleb128 0x13
 17343 0386 00       		.byte	0
 17344 0387 00       		.byte	0
 17345 0388 48       		.uleb128 0x48
 17346 0389 898201   		.uleb128 0x4109
 17347 038c 00       		.byte	0
 17348 038d 11       		.uleb128 0x11
 17349 038e 01       		.uleb128 0x1
 17350 038f 9542     		.uleb128 0x2115
ARM GAS  C:\Users\CHRIST~1\AppData\Local\Temp\ccCFoZV9.s 			page 307


 17351 0391 19       		.uleb128 0x19
 17352 0392 31       		.uleb128 0x31
 17353 0393 13       		.uleb128 0x13
 17354 0394 00       		.byte	0
 17355 0395 00       		.byte	0
 17356 0396 49       		.uleb128 0x49
 17357 0397 2E       		.uleb128 0x2e
 17358 0398 01       		.byte	0x1
 17359 0399 3F       		.uleb128 0x3f
 17360 039a 19       		.uleb128 0x19
 17361 039b 03       		.uleb128 0x3
 17362 039c 0E       		.uleb128 0xe
 17363 039d 3A       		.uleb128 0x3a
 17364 039e 0B       		.uleb128 0xb
 17365 039f 3B       		.uleb128 0x3b
 17366 03a0 05       		.uleb128 0x5
 17367 03a1 27       		.uleb128 0x27
 17368 03a2 19       		.uleb128 0x19
 17369 03a3 11       		.uleb128 0x11
 17370 03a4 01       		.uleb128 0x1
 17371 03a5 12       		.uleb128 0x12
 17372 03a6 06       		.uleb128 0x6
 17373 03a7 40       		.uleb128 0x40
 17374 03a8 18       		.uleb128 0x18
 17375 03a9 9642     		.uleb128 0x2116
 17376 03ab 19       		.uleb128 0x19
 17377 03ac 01       		.uleb128 0x1
 17378 03ad 13       		.uleb128 0x13
 17379 03ae 00       		.byte	0
 17380 03af 00       		.byte	0
 17381 03b0 4A       		.uleb128 0x4a
 17382 03b1 1D       		.uleb128 0x1d
 17383 03b2 01       		.byte	0x1
 17384 03b3 31       		.uleb128 0x31
 17385 03b4 13       		.uleb128 0x13
 17386 03b5 11       		.uleb128 0x11
 17387 03b6 01       		.uleb128 0x1
 17388 03b7 12       		.uleb128 0x12
 17389 03b8 06       		.uleb128 0x6
 17390 03b9 58       		.uleb128 0x58
 17391 03ba 0B       		.uleb128 0xb
 17392 03bb 59       		.uleb128 0x59
 17393 03bc 05       		.uleb128 0x5
 17394 03bd 01       		.uleb128 0x1
 17395 03be 13       		.uleb128 0x13
 17396 03bf 00       		.byte	0
 17397 03c0 00       		.byte	0
 17398 03c1 4B       		.uleb128 0x4b
 17399 03c2 1D       		.uleb128 0x1d
 17400 03c3 01       		.byte	0x1
 17401 03c4 31       		.uleb128 0x31
 17402 03c5 13       		.uleb128 0x13
 17403 03c6 11       		.uleb128 0x11
 17404 03c7 01       		.uleb128 0x1
 17405 03c8 12       		.uleb128 0x12
 17406 03c9 06       		.uleb128 0x6
 17407 03ca 58       		.uleb128 0x58
ARM GAS  C:\Users\CHRIST~1\AppData\Local\Temp\ccCFoZV9.s 			page 308


 17408 03cb 0B       		.uleb128 0xb
 17409 03cc 59       		.uleb128 0x59
 17410 03cd 05       		.uleb128 0x5
 17411 03ce 00       		.byte	0
 17412 03cf 00       		.byte	0
 17413 03d0 4C       		.uleb128 0x4c
 17414 03d1 34       		.uleb128 0x34
 17415 03d2 00       		.byte	0
 17416 03d3 03       		.uleb128 0x3
 17417 03d4 08       		.uleb128 0x8
 17418 03d5 3A       		.uleb128 0x3a
 17419 03d6 0B       		.uleb128 0xb
 17420 03d7 3B       		.uleb128 0x3b
 17421 03d8 05       		.uleb128 0x5
 17422 03d9 49       		.uleb128 0x49
 17423 03da 13       		.uleb128 0x13
 17424 03db 02       		.uleb128 0x2
 17425 03dc 18       		.uleb128 0x18
 17426 03dd 00       		.byte	0
 17427 03de 00       		.byte	0
 17428 03df 4D       		.uleb128 0x4d
 17429 03e0 1D       		.uleb128 0x1d
 17430 03e1 00       		.byte	0
 17431 03e2 31       		.uleb128 0x31
 17432 03e3 13       		.uleb128 0x13
 17433 03e4 52       		.uleb128 0x52
 17434 03e5 01       		.uleb128 0x1
 17435 03e6 55       		.uleb128 0x55
 17436 03e7 17       		.uleb128 0x17
 17437 03e8 58       		.uleb128 0x58
 17438 03e9 0B       		.uleb128 0xb
 17439 03ea 59       		.uleb128 0x59
 17440 03eb 05       		.uleb128 0x5
 17441 03ec 00       		.byte	0
 17442 03ed 00       		.byte	0
 17443 03ee 4E       		.uleb128 0x4e
 17444 03ef 05       		.uleb128 0x5
 17445 03f0 00       		.byte	0
 17446 03f1 31       		.uleb128 0x31
 17447 03f2 13       		.uleb128 0x13
 17448 03f3 00       		.byte	0
 17449 03f4 00       		.byte	0
 17450 03f5 4F       		.uleb128 0x4f
 17451 03f6 2E       		.uleb128 0x2e
 17452 03f7 01       		.byte	0x1
 17453 03f8 3F       		.uleb128 0x3f
 17454 03f9 19       		.uleb128 0x19
 17455 03fa 03       		.uleb128 0x3
 17456 03fb 0E       		.uleb128 0xe
 17457 03fc 3A       		.uleb128 0x3a
 17458 03fd 0B       		.uleb128 0xb
 17459 03fe 3B       		.uleb128 0x3b
 17460 03ff 05       		.uleb128 0x5
 17461 0400 27       		.uleb128 0x27
 17462 0401 19       		.uleb128 0x19
 17463 0402 20       		.uleb128 0x20
 17464 0403 0B       		.uleb128 0xb
ARM GAS  C:\Users\CHRIST~1\AppData\Local\Temp\ccCFoZV9.s 			page 309


 17465 0404 01       		.uleb128 0x1
 17466 0405 13       		.uleb128 0x13
 17467 0406 00       		.byte	0
 17468 0407 00       		.byte	0
 17469 0408 50       		.uleb128 0x50
 17470 0409 2E       		.uleb128 0x2e
 17471 040a 01       		.byte	0x1
 17472 040b 3F       		.uleb128 0x3f
 17473 040c 19       		.uleb128 0x19
 17474 040d 03       		.uleb128 0x3
 17475 040e 0E       		.uleb128 0xe
 17476 040f 3A       		.uleb128 0x3a
 17477 0410 0B       		.uleb128 0xb
 17478 0411 3B       		.uleb128 0x3b
 17479 0412 05       		.uleb128 0x5
 17480 0413 27       		.uleb128 0x27
 17481 0414 19       		.uleb128 0x19
 17482 0415 49       		.uleb128 0x49
 17483 0416 13       		.uleb128 0x13
 17484 0417 11       		.uleb128 0x11
 17485 0418 01       		.uleb128 0x1
 17486 0419 12       		.uleb128 0x12
 17487 041a 06       		.uleb128 0x6
 17488 041b 40       		.uleb128 0x40
 17489 041c 18       		.uleb128 0x18
 17490 041d 9742     		.uleb128 0x2117
 17491 041f 19       		.uleb128 0x19
 17492 0420 01       		.uleb128 0x1
 17493 0421 13       		.uleb128 0x13
 17494 0422 00       		.byte	0
 17495 0423 00       		.byte	0
 17496 0424 51       		.uleb128 0x51
 17497 0425 2E       		.uleb128 0x2e
 17498 0426 00       		.byte	0
 17499 0427 3F       		.uleb128 0x3f
 17500 0428 19       		.uleb128 0x19
 17501 0429 03       		.uleb128 0x3
 17502 042a 0E       		.uleb128 0xe
 17503 042b 3A       		.uleb128 0x3a
 17504 042c 0B       		.uleb128 0xb
 17505 042d 3B       		.uleb128 0x3b
 17506 042e 05       		.uleb128 0x5
 17507 042f 27       		.uleb128 0x27
 17508 0430 19       		.uleb128 0x19
 17509 0431 49       		.uleb128 0x49
 17510 0432 13       		.uleb128 0x13
 17511 0433 11       		.uleb128 0x11
 17512 0434 01       		.uleb128 0x1
 17513 0435 12       		.uleb128 0x12
 17514 0436 06       		.uleb128 0x6
 17515 0437 40       		.uleb128 0x40
 17516 0438 18       		.uleb128 0x18
 17517 0439 9742     		.uleb128 0x2117
 17518 043b 19       		.uleb128 0x19
 17519 043c 00       		.byte	0
 17520 043d 00       		.byte	0
 17521 043e 52       		.uleb128 0x52
ARM GAS  C:\Users\CHRIST~1\AppData\Local\Temp\ccCFoZV9.s 			page 310


 17522 043f 05       		.uleb128 0x5
 17523 0440 00       		.byte	0
 17524 0441 03       		.uleb128 0x3
 17525 0442 0E       		.uleb128 0xe
 17526 0443 3A       		.uleb128 0x3a
 17527 0444 0B       		.uleb128 0xb
 17528 0445 3B       		.uleb128 0x3b
 17529 0446 05       		.uleb128 0x5
 17530 0447 49       		.uleb128 0x49
 17531 0448 13       		.uleb128 0x13
 17532 0449 02       		.uleb128 0x2
 17533 044a 17       		.uleb128 0x17
 17534 044b 00       		.byte	0
 17535 044c 00       		.byte	0
 17536 044d 53       		.uleb128 0x53
 17537 044e 898201   		.uleb128 0x4109
 17538 0451 01       		.byte	0x1
 17539 0452 11       		.uleb128 0x11
 17540 0453 01       		.uleb128 0x1
 17541 0454 9542     		.uleb128 0x2115
 17542 0456 19       		.uleb128 0x19
 17543 0457 31       		.uleb128 0x31
 17544 0458 13       		.uleb128 0x13
 17545 0459 00       		.byte	0
 17546 045a 00       		.byte	0
 17547 045b 54       		.uleb128 0x54
 17548 045c 2E       		.uleb128 0x2e
 17549 045d 00       		.byte	0
 17550 045e 3F       		.uleb128 0x3f
 17551 045f 19       		.uleb128 0x19
 17552 0460 03       		.uleb128 0x3
 17553 0461 0E       		.uleb128 0xe
 17554 0462 3A       		.uleb128 0x3a
 17555 0463 0B       		.uleb128 0xb
 17556 0464 3B       		.uleb128 0x3b
 17557 0465 05       		.uleb128 0x5
 17558 0466 27       		.uleb128 0x27
 17559 0467 19       		.uleb128 0x19
 17560 0468 49       		.uleb128 0x49
 17561 0469 13       		.uleb128 0x13
 17562 046a 20       		.uleb128 0x20
 17563 046b 0B       		.uleb128 0xb
 17564 046c 00       		.byte	0
 17565 046d 00       		.byte	0
 17566 046e 55       		.uleb128 0x55
 17567 046f 34       		.uleb128 0x34
 17568 0470 00       		.byte	0
 17569 0471 03       		.uleb128 0x3
 17570 0472 08       		.uleb128 0x8
 17571 0473 3A       		.uleb128 0x3a
 17572 0474 0B       		.uleb128 0xb
 17573 0475 3B       		.uleb128 0x3b
 17574 0476 05       		.uleb128 0x5
 17575 0477 49       		.uleb128 0x49
 17576 0478 13       		.uleb128 0x13
 17577 0479 1C       		.uleb128 0x1c
 17578 047a 0A       		.uleb128 0xa
ARM GAS  C:\Users\CHRIST~1\AppData\Local\Temp\ccCFoZV9.s 			page 311


 17579 047b 00       		.byte	0
 17580 047c 00       		.byte	0
 17581 047d 56       		.uleb128 0x56
 17582 047e 34       		.uleb128 0x34
 17583 047f 00       		.byte	0
 17584 0480 03       		.uleb128 0x3
 17585 0481 08       		.uleb128 0x8
 17586 0482 3A       		.uleb128 0x3a
 17587 0483 0B       		.uleb128 0xb
 17588 0484 3B       		.uleb128 0x3b
 17589 0485 05       		.uleb128 0x5
 17590 0486 49       		.uleb128 0x49
 17591 0487 13       		.uleb128 0x13
 17592 0488 1C       		.uleb128 0x1c
 17593 0489 0B       		.uleb128 0xb
 17594 048a 00       		.byte	0
 17595 048b 00       		.byte	0
 17596 048c 57       		.uleb128 0x57
 17597 048d 05       		.uleb128 0x5
 17598 048e 00       		.byte	0
 17599 048f 03       		.uleb128 0x3
 17600 0490 0E       		.uleb128 0xe
 17601 0491 3A       		.uleb128 0x3a
 17602 0492 0B       		.uleb128 0xb
 17603 0493 3B       		.uleb128 0x3b
 17604 0494 05       		.uleb128 0x5
 17605 0495 49       		.uleb128 0x49
 17606 0496 13       		.uleb128 0x13
 17607 0497 02       		.uleb128 0x2
 17608 0498 18       		.uleb128 0x18
 17609 0499 00       		.byte	0
 17610 049a 00       		.byte	0
 17611 049b 58       		.uleb128 0x58
 17612 049c 898201   		.uleb128 0x4109
 17613 049f 01       		.byte	0x1
 17614 04a0 11       		.uleb128 0x11
 17615 04a1 01       		.uleb128 0x1
 17616 04a2 9542     		.uleb128 0x2115
 17617 04a4 19       		.uleb128 0x19
 17618 04a5 31       		.uleb128 0x31
 17619 04a6 13       		.uleb128 0x13
 17620 04a7 01       		.uleb128 0x1
 17621 04a8 13       		.uleb128 0x13
 17622 04a9 00       		.byte	0
 17623 04aa 00       		.byte	0
 17624 04ab 59       		.uleb128 0x59
 17625 04ac 2E       		.uleb128 0x2e
 17626 04ad 00       		.byte	0
 17627 04ae 3F       		.uleb128 0x3f
 17628 04af 19       		.uleb128 0x19
 17629 04b0 03       		.uleb128 0x3
 17630 04b1 0E       		.uleb128 0xe
 17631 04b2 3A       		.uleb128 0x3a
 17632 04b3 0B       		.uleb128 0xb
 17633 04b4 3B       		.uleb128 0x3b
 17634 04b5 05       		.uleb128 0x5
 17635 04b6 27       		.uleb128 0x27
ARM GAS  C:\Users\CHRIST~1\AppData\Local\Temp\ccCFoZV9.s 			page 312


 17636 04b7 19       		.uleb128 0x19
 17637 04b8 11       		.uleb128 0x11
 17638 04b9 01       		.uleb128 0x1
 17639 04ba 12       		.uleb128 0x12
 17640 04bb 06       		.uleb128 0x6
 17641 04bc 40       		.uleb128 0x40
 17642 04bd 18       		.uleb128 0x18
 17643 04be 9742     		.uleb128 0x2117
 17644 04c0 19       		.uleb128 0x19
 17645 04c1 00       		.byte	0
 17646 04c2 00       		.byte	0
 17647 04c3 5A       		.uleb128 0x5a
 17648 04c4 2E       		.uleb128 0x2e
 17649 04c5 01       		.byte	0x1
 17650 04c6 3F       		.uleb128 0x3f
 17651 04c7 19       		.uleb128 0x19
 17652 04c8 03       		.uleb128 0x3
 17653 04c9 0E       		.uleb128 0xe
 17654 04ca 3A       		.uleb128 0x3a
 17655 04cb 0B       		.uleb128 0xb
 17656 04cc 3B       		.uleb128 0x3b
 17657 04cd 0B       		.uleb128 0xb
 17658 04ce 27       		.uleb128 0x27
 17659 04cf 19       		.uleb128 0x19
 17660 04d0 49       		.uleb128 0x49
 17661 04d1 13       		.uleb128 0x13
 17662 04d2 11       		.uleb128 0x11
 17663 04d3 01       		.uleb128 0x1
 17664 04d4 12       		.uleb128 0x12
 17665 04d5 06       		.uleb128 0x6
 17666 04d6 40       		.uleb128 0x40
 17667 04d7 18       		.uleb128 0x18
 17668 04d8 9742     		.uleb128 0x2117
 17669 04da 19       		.uleb128 0x19
 17670 04db 01       		.uleb128 0x1
 17671 04dc 13       		.uleb128 0x13
 17672 04dd 00       		.byte	0
 17673 04de 00       		.byte	0
 17674 04df 5B       		.uleb128 0x5b
 17675 04e0 34       		.uleb128 0x34
 17676 04e1 00       		.byte	0
 17677 04e2 03       		.uleb128 0x3
 17678 04e3 08       		.uleb128 0x8
 17679 04e4 3A       		.uleb128 0x3a
 17680 04e5 0B       		.uleb128 0xb
 17681 04e6 3B       		.uleb128 0x3b
 17682 04e7 0B       		.uleb128 0xb
 17683 04e8 49       		.uleb128 0x49
 17684 04e9 13       		.uleb128 0x13
 17685 04ea 1C       		.uleb128 0x1c
 17686 04eb 0B       		.uleb128 0xb
 17687 04ec 00       		.byte	0
 17688 04ed 00       		.byte	0
 17689 04ee 5C       		.uleb128 0x5c
 17690 04ef 2E       		.uleb128 0x2e
 17691 04f0 01       		.byte	0x1
 17692 04f1 3F       		.uleb128 0x3f
ARM GAS  C:\Users\CHRIST~1\AppData\Local\Temp\ccCFoZV9.s 			page 313


 17693 04f2 19       		.uleb128 0x19
 17694 04f3 03       		.uleb128 0x3
 17695 04f4 0E       		.uleb128 0xe
 17696 04f5 3A       		.uleb128 0x3a
 17697 04f6 0B       		.uleb128 0xb
 17698 04f7 3B       		.uleb128 0x3b
 17699 04f8 0B       		.uleb128 0xb
 17700 04f9 27       		.uleb128 0x27
 17701 04fa 19       		.uleb128 0x19
 17702 04fb 11       		.uleb128 0x11
 17703 04fc 01       		.uleb128 0x1
 17704 04fd 12       		.uleb128 0x12
 17705 04fe 06       		.uleb128 0x6
 17706 04ff 40       		.uleb128 0x40
 17707 0500 18       		.uleb128 0x18
 17708 0501 9742     		.uleb128 0x2117
 17709 0503 19       		.uleb128 0x19
 17710 0504 01       		.uleb128 0x1
 17711 0505 13       		.uleb128 0x13
 17712 0506 00       		.byte	0
 17713 0507 00       		.byte	0
 17714 0508 5D       		.uleb128 0x5d
 17715 0509 05       		.uleb128 0x5
 17716 050a 00       		.byte	0
 17717 050b 03       		.uleb128 0x3
 17718 050c 0E       		.uleb128 0xe
 17719 050d 3A       		.uleb128 0x3a
 17720 050e 0B       		.uleb128 0xb
 17721 050f 3B       		.uleb128 0x3b
 17722 0510 0B       		.uleb128 0xb
 17723 0511 49       		.uleb128 0x49
 17724 0512 13       		.uleb128 0x13
 17725 0513 02       		.uleb128 0x2
 17726 0514 17       		.uleb128 0x17
 17727 0515 00       		.byte	0
 17728 0516 00       		.byte	0
 17729 0517 5E       		.uleb128 0x5e
 17730 0518 2E       		.uleb128 0x2e
 17731 0519 00       		.byte	0
 17732 051a 3F       		.uleb128 0x3f
 17733 051b 19       		.uleb128 0x19
 17734 051c 03       		.uleb128 0x3
 17735 051d 0E       		.uleb128 0xe
 17736 051e 3A       		.uleb128 0x3a
 17737 051f 0B       		.uleb128 0xb
 17738 0520 3B       		.uleb128 0x3b
 17739 0521 0B       		.uleb128 0xb
 17740 0522 27       		.uleb128 0x27
 17741 0523 19       		.uleb128 0x19
 17742 0524 49       		.uleb128 0x49
 17743 0525 13       		.uleb128 0x13
 17744 0526 11       		.uleb128 0x11
 17745 0527 01       		.uleb128 0x1
 17746 0528 12       		.uleb128 0x12
 17747 0529 06       		.uleb128 0x6
 17748 052a 40       		.uleb128 0x40
 17749 052b 18       		.uleb128 0x18
ARM GAS  C:\Users\CHRIST~1\AppData\Local\Temp\ccCFoZV9.s 			page 314


 17750 052c 9742     		.uleb128 0x2117
 17751 052e 19       		.uleb128 0x19
 17752 052f 00       		.byte	0
 17753 0530 00       		.byte	0
 17754 0531 5F       		.uleb128 0x5f
 17755 0532 2E       		.uleb128 0x2e
 17756 0533 01       		.byte	0x1
 17757 0534 03       		.uleb128 0x3
 17758 0535 0E       		.uleb128 0xe
 17759 0536 3A       		.uleb128 0x3a
 17760 0537 0B       		.uleb128 0xb
 17761 0538 3B       		.uleb128 0x3b
 17762 0539 0B       		.uleb128 0xb
 17763 053a 27       		.uleb128 0x27
 17764 053b 19       		.uleb128 0x19
 17765 053c 20       		.uleb128 0x20
 17766 053d 0B       		.uleb128 0xb
 17767 053e 01       		.uleb128 0x1
 17768 053f 13       		.uleb128 0x13
 17769 0540 00       		.byte	0
 17770 0541 00       		.byte	0
 17771 0542 60       		.uleb128 0x60
 17772 0543 05       		.uleb128 0x5
 17773 0544 00       		.byte	0
 17774 0545 03       		.uleb128 0x3
 17775 0546 0E       		.uleb128 0xe
 17776 0547 3A       		.uleb128 0x3a
 17777 0548 0B       		.uleb128 0xb
 17778 0549 3B       		.uleb128 0x3b
 17779 054a 0B       		.uleb128 0xb
 17780 054b 49       		.uleb128 0x49
 17781 054c 13       		.uleb128 0x13
 17782 054d 00       		.byte	0
 17783 054e 00       		.byte	0
 17784 054f 61       		.uleb128 0x61
 17785 0550 2E       		.uleb128 0x2e
 17786 0551 00       		.byte	0
 17787 0552 03       		.uleb128 0x3
 17788 0553 0E       		.uleb128 0xe
 17789 0554 3A       		.uleb128 0x3a
 17790 0555 0B       		.uleb128 0xb
 17791 0556 3B       		.uleb128 0x3b
 17792 0557 0B       		.uleb128 0xb
 17793 0558 27       		.uleb128 0x27
 17794 0559 19       		.uleb128 0x19
 17795 055a 49       		.uleb128 0x49
 17796 055b 13       		.uleb128 0x13
 17797 055c 20       		.uleb128 0x20
 17798 055d 0B       		.uleb128 0xb
 17799 055e 00       		.byte	0
 17800 055f 00       		.byte	0
 17801 0560 62       		.uleb128 0x62
 17802 0561 2E       		.uleb128 0x2e
 17803 0562 00       		.byte	0
 17804 0563 03       		.uleb128 0x3
 17805 0564 0E       		.uleb128 0xe
 17806 0565 3A       		.uleb128 0x3a
ARM GAS  C:\Users\CHRIST~1\AppData\Local\Temp\ccCFoZV9.s 			page 315


 17807 0566 0B       		.uleb128 0xb
 17808 0567 3B       		.uleb128 0x3b
 17809 0568 05       		.uleb128 0x5
 17810 0569 27       		.uleb128 0x27
 17811 056a 19       		.uleb128 0x19
 17812 056b 20       		.uleb128 0x20
 17813 056c 0B       		.uleb128 0xb
 17814 056d 00       		.byte	0
 17815 056e 00       		.byte	0
 17816 056f 63       		.uleb128 0x63
 17817 0570 2E       		.uleb128 0x2e
 17818 0571 01       		.byte	0x1
 17819 0572 31       		.uleb128 0x31
 17820 0573 13       		.uleb128 0x13
 17821 0574 11       		.uleb128 0x11
 17822 0575 01       		.uleb128 0x1
 17823 0576 12       		.uleb128 0x12
 17824 0577 06       		.uleb128 0x6
 17825 0578 40       		.uleb128 0x40
 17826 0579 18       		.uleb128 0x18
 17827 057a 9742     		.uleb128 0x2117
 17828 057c 19       		.uleb128 0x19
 17829 057d 01       		.uleb128 0x1
 17830 057e 13       		.uleb128 0x13
 17831 057f 00       		.byte	0
 17832 0580 00       		.byte	0
 17833 0581 64       		.uleb128 0x64
 17834 0582 0B       		.uleb128 0xb
 17835 0583 01       		.byte	0x1
 17836 0584 11       		.uleb128 0x11
 17837 0585 01       		.uleb128 0x1
 17838 0586 12       		.uleb128 0x12
 17839 0587 06       		.uleb128 0x6
 17840 0588 01       		.uleb128 0x1
 17841 0589 13       		.uleb128 0x13
 17842 058a 00       		.byte	0
 17843 058b 00       		.byte	0
 17844 058c 65       		.uleb128 0x65
 17845 058d 34       		.uleb128 0x34
 17846 058e 00       		.byte	0
 17847 058f 31       		.uleb128 0x31
 17848 0590 13       		.uleb128 0x13
 17849 0591 02       		.uleb128 0x2
 17850 0592 18       		.uleb128 0x18
 17851 0593 00       		.byte	0
 17852 0594 00       		.byte	0
 17853 0595 66       		.uleb128 0x66
 17854 0596 34       		.uleb128 0x34
 17855 0597 00       		.byte	0
 17856 0598 31       		.uleb128 0x31
 17857 0599 13       		.uleb128 0x13
 17858 059a 02       		.uleb128 0x2
 17859 059b 17       		.uleb128 0x17
 17860 059c 00       		.byte	0
 17861 059d 00       		.byte	0
 17862 059e 67       		.uleb128 0x67
 17863 059f 34       		.uleb128 0x34
ARM GAS  C:\Users\CHRIST~1\AppData\Local\Temp\ccCFoZV9.s 			page 316


 17864 05a0 00       		.byte	0
 17865 05a1 31       		.uleb128 0x31
 17866 05a2 13       		.uleb128 0x13
 17867 05a3 00       		.byte	0
 17868 05a4 00       		.byte	0
 17869 05a5 68       		.uleb128 0x68
 17870 05a6 2E       		.uleb128 0x2e
 17871 05a7 00       		.byte	0
 17872 05a8 31       		.uleb128 0x31
 17873 05a9 13       		.uleb128 0x13
 17874 05aa 11       		.uleb128 0x11
 17875 05ab 01       		.uleb128 0x1
 17876 05ac 12       		.uleb128 0x12
 17877 05ad 06       		.uleb128 0x6
 17878 05ae 40       		.uleb128 0x40
 17879 05af 18       		.uleb128 0x18
 17880 05b0 9742     		.uleb128 0x2117
 17881 05b2 19       		.uleb128 0x19
 17882 05b3 00       		.byte	0
 17883 05b4 00       		.byte	0
 17884 05b5 69       		.uleb128 0x69
 17885 05b6 2E       		.uleb128 0x2e
 17886 05b7 00       		.byte	0
 17887 05b8 3F       		.uleb128 0x3f
 17888 05b9 19       		.uleb128 0x19
 17889 05ba 3C       		.uleb128 0x3c
 17890 05bb 19       		.uleb128 0x19
 17891 05bc 6E       		.uleb128 0x6e
 17892 05bd 0E       		.uleb128 0xe
 17893 05be 03       		.uleb128 0x3
 17894 05bf 0E       		.uleb128 0xe
 17895 05c0 3A       		.uleb128 0x3a
 17896 05c1 0B       		.uleb128 0xb
 17897 05c2 3B       		.uleb128 0x3b
 17898 05c3 0B       		.uleb128 0xb
 17899 05c4 00       		.byte	0
 17900 05c5 00       		.byte	0
 17901 05c6 6A       		.uleb128 0x6a
 17902 05c7 2E       		.uleb128 0x2e
 17903 05c8 00       		.byte	0
 17904 05c9 3F       		.uleb128 0x3f
 17905 05ca 19       		.uleb128 0x19
 17906 05cb 3C       		.uleb128 0x3c
 17907 05cc 19       		.uleb128 0x19
 17908 05cd 6E       		.uleb128 0x6e
 17909 05ce 0E       		.uleb128 0xe
 17910 05cf 03       		.uleb128 0x3
 17911 05d0 0E       		.uleb128 0xe
 17912 05d1 00       		.byte	0
 17913 05d2 00       		.byte	0
 17914 05d3 6B       		.uleb128 0x6b
 17915 05d4 2E       		.uleb128 0x2e
 17916 05d5 00       		.byte	0
 17917 05d6 3F       		.uleb128 0x3f
 17918 05d7 19       		.uleb128 0x19
 17919 05d8 3C       		.uleb128 0x3c
 17920 05d9 19       		.uleb128 0x19
ARM GAS  C:\Users\CHRIST~1\AppData\Local\Temp\ccCFoZV9.s 			page 317


 17921 05da 6E       		.uleb128 0x6e
 17922 05db 0E       		.uleb128 0xe
 17923 05dc 03       		.uleb128 0x3
 17924 05dd 0E       		.uleb128 0xe
 17925 05de 3A       		.uleb128 0x3a
 17926 05df 0B       		.uleb128 0xb
 17927 05e0 3B       		.uleb128 0x3b
 17928 05e1 05       		.uleb128 0x5
 17929 05e2 00       		.byte	0
 17930 05e3 00       		.byte	0
 17931 05e4 00       		.byte	0
 17932              		.section	.debug_loc,"",%progbits
 17933              	.Ldebug_loc0:
 17934              	.LLST0:
 17935 0000 00000000 		.4byte	.LVL0
 17936 0004 34000000 		.4byte	.LVL2
 17937 0008 0100     		.2byte	0x1
 17938 000a 50       		.byte	0x50
 17939 000b 34000000 		.4byte	.LVL2
 17940 000f 44020000 		.4byte	.LFE311
 17941 0013 0400     		.2byte	0x4
 17942 0015 F3       		.byte	0xf3
 17943 0016 01       		.uleb128 0x1
 17944 0017 50       		.byte	0x50
 17945 0018 9F       		.byte	0x9f
 17946 0019 00000000 		.4byte	0
 17947 001d 00000000 		.4byte	0
 17948              	.LLST2:
 17949 0021 3A000000 		.4byte	.LVL3
 17950 0025 4E000000 		.4byte	.LVL4
 17951 0029 0200     		.2byte	0x2
 17952 002b 30       		.byte	0x30
 17953 002c 9F       		.byte	0x9f
 17954 002d 4E000000 		.4byte	.LVL4
 17955 0031 60000000 		.4byte	.LVL5
 17956 0035 0400     		.2byte	0x4
 17957 0037 0A       		.byte	0xa
 17958 0038 D007     		.2byte	0x7d0
 17959 003a 9F       		.byte	0x9f
 17960 003b 60000000 		.4byte	.LVL5
 17961 003f E0010000 		.4byte	.LVL25
 17962 0043 0100     		.2byte	0x1
 17963 0045 58       		.byte	0x58
 17964 0046 E0010000 		.4byte	.LVL25
 17965 004a E6010000 		.4byte	.LVL26
 17966 004e 0200     		.2byte	0x2
 17967 0050 30       		.byte	0x30
 17968 0051 9F       		.byte	0x9f
 17969 0052 E6010000 		.4byte	.LVL26
 17970 0056 44020000 		.4byte	.LFE311
 17971 005a 0100     		.2byte	0x1
 17972 005c 58       		.byte	0x58
 17973 005d 00000000 		.4byte	0
 17974 0061 00000000 		.4byte	0
 17975              	.LLST3:
 17976 0065 3A000000 		.4byte	.LVL3
 17977 0069 60000000 		.4byte	.LVL5
ARM GAS  C:\Users\CHRIST~1\AppData\Local\Temp\ccCFoZV9.s 			page 318


 17978 006d 0200     		.2byte	0x2
 17979 006f 30       		.byte	0x30
 17980 0070 9F       		.byte	0x9f
 17981 0071 60000000 		.4byte	.LVL5
 17982 0075 6E000000 		.4byte	.LVL8
 17983 0079 0100     		.2byte	0x1
 17984 007b 59       		.byte	0x59
 17985 007c E0010000 		.4byte	.LVL25
 17986 0080 44020000 		.4byte	.LFE311
 17987 0084 0200     		.2byte	0x2
 17988 0086 30       		.byte	0x30
 17989 0087 9F       		.byte	0x9f
 17990 0088 00000000 		.4byte	0
 17991 008c 00000000 		.4byte	0
 17992              	.LLST4:
 17993 0090 60000000 		.4byte	.LVL5
 17994 0094 68000000 		.4byte	.LVL6
 17995 0098 0200     		.2byte	0x2
 17996 009a 30       		.byte	0x30
 17997 009b 9F       		.byte	0x9f
 17998 009c 68000000 		.4byte	.LVL6
 17999 00a0 D8000000 		.4byte	.LVL12
 18000 00a4 0100     		.2byte	0x1
 18001 00a6 57       		.byte	0x57
 18002 00a7 D8000000 		.4byte	.LVL12
 18003 00ab C0010000 		.4byte	.LVL21
 18004 00af 0300     		.2byte	0x3
 18005 00b1 77       		.byte	0x77
 18006 00b2 7F       		.sleb128 -1
 18007 00b3 9F       		.byte	0x9f
 18008 00b4 C0010000 		.4byte	.LVL21
 18009 00b8 E0010000 		.4byte	.LVL25
 18010 00bc 0100     		.2byte	0x1
 18011 00be 57       		.byte	0x57
 18012 00bf E6010000 		.4byte	.LVL26
 18013 00c3 44020000 		.4byte	.LFE311
 18014 00c7 0200     		.2byte	0x2
 18015 00c9 30       		.byte	0x30
 18016 00ca 9F       		.byte	0x9f
 18017 00cb 00000000 		.4byte	0
 18018 00cf 00000000 		.4byte	0
 18019              	.LLST5:
 18020 00d3 6A000000 		.4byte	.LVL7
 18021 00d7 6E000000 		.4byte	.LVL8
 18022 00db 0100     		.2byte	0x1
 18023 00dd 59       		.byte	0x59
 18024 00de 6E000000 		.4byte	.LVL8
 18025 00e2 A0010000 		.4byte	.LVL19
 18026 00e6 0100     		.2byte	0x1
 18027 00e8 54       		.byte	0x54
 18028 00e9 A0010000 		.4byte	.LVL19
 18029 00ed B2010000 		.4byte	.LVL20
 18030 00f1 0900     		.2byte	0x9
 18031 00f3 74       		.byte	0x74
 18032 00f4 00       		.sleb128 0
 18033 00f5 03       		.byte	0x3
 18034 00f6 C8760000 		.4byte	.LANCHOR11
ARM GAS  C:\Users\CHRIST~1\AppData\Local\Temp\ccCFoZV9.s 			page 319


 18035 00fa 1C       		.byte	0x1c
 18036 00fb 9F       		.byte	0x9f
 18037 00fc CC010000 		.4byte	.LVL22
 18038 0100 D8010000 		.4byte	.LVL23
 18039 0104 0100     		.2byte	0x1
 18040 0106 54       		.byte	0x54
 18041 0107 D8010000 		.4byte	.LVL23
 18042 010b DC010000 		.4byte	.LVL24
 18043 010f 0400     		.2byte	0x4
 18044 0111 74       		.byte	0x74
 18045 0112 D00F     		.sleb128 2000
 18046 0114 9F       		.byte	0x9f
 18047 0115 DC010000 		.4byte	.LVL24
 18048 0119 E0010000 		.4byte	.LVL25
 18049 011d 0100     		.2byte	0x1
 18050 011f 54       		.byte	0x54
 18051 0120 00000000 		.4byte	0
 18052 0124 00000000 		.4byte	0
 18053              	.LLST1:
 18054 0128 00000000 		.4byte	.LVL0
 18055 012c 30000000 		.4byte	.LVL1
 18056 0130 0600     		.2byte	0x6
 18057 0132 03       		.byte	0x3
 18058 0133 00000000 		.4byte	.LC0
 18059 0137 9F       		.byte	0x9f
 18060 0138 00000000 		.4byte	0
 18061 013c 00000000 		.4byte	0
 18062              	.LLST40:
 18063 0140 00000000 		.4byte	.LVL222
 18064 0144 14000000 		.4byte	.LVL223
 18065 0148 0100     		.2byte	0x1
 18066 014a 50       		.byte	0x50
 18067 014b 14000000 		.4byte	.LVL223
 18068 014f 48000000 		.4byte	.LFE310
 18069 0153 0400     		.2byte	0x4
 18070 0155 F3       		.byte	0xf3
 18071 0156 01       		.uleb128 0x1
 18072 0157 50       		.byte	0x50
 18073 0158 9F       		.byte	0x9f
 18074 0159 00000000 		.4byte	0
 18075 015d 00000000 		.4byte	0
 18076              	.LLST64:
 18077 0161 32000000 		.4byte	.LVL336
 18078 0165 12030000 		.4byte	.LVL365
 18079 0169 0200     		.2byte	0x2
 18080 016b 90       		.byte	0x90
 18081 016c 50       		.uleb128 0x50
 18082 016d B8030000 		.4byte	.LVL366
 18083 0171 3C070000 		.4byte	.LFE307
 18084 0175 0200     		.2byte	0x2
 18085 0177 90       		.byte	0x90
 18086 0178 50       		.uleb128 0x50
 18087 0179 00000000 		.4byte	0
 18088 017d 00000000 		.4byte	0
 18089              	.LLST65:
 18090 0181 7A000000 		.4byte	.LVL340
 18091 0185 7D000000 		.4byte	.LVL341-1
ARM GAS  C:\Users\CHRIST~1\AppData\Local\Temp\ccCFoZV9.s 			page 320


 18092 0189 0200     		.2byte	0x2
 18093 018b 90       		.byte	0x90
 18094 018c 40       		.uleb128 0x40
 18095 018d 7D000000 		.4byte	.LVL341-1
 18096 0191 60010000 		.4byte	.LVL355
 18097 0195 0200     		.2byte	0x2
 18098 0197 90       		.byte	0x90
 18099 0198 51       		.uleb128 0x51
 18100 0199 B8030000 		.4byte	.LVL366
 18101 019d D4030000 		.4byte	.LVL369
 18102 01a1 0200     		.2byte	0x2
 18103 01a3 90       		.byte	0x90
 18104 01a4 51       		.uleb128 0x51
 18105 01a5 D4040000 		.4byte	.LVL392
 18106 01a9 EE040000 		.4byte	.LVL395
 18107 01ad 0200     		.2byte	0x2
 18108 01af 90       		.byte	0x90
 18109 01b0 51       		.uleb128 0x51
 18110 01b1 04050000 		.4byte	.LVL398
 18111 01b5 12050000 		.4byte	.LVL402
 18112 01b9 0200     		.2byte	0x2
 18113 01bb 90       		.byte	0x90
 18114 01bc 51       		.uleb128 0x51
 18115 01bd 00000000 		.4byte	0
 18116 01c1 00000000 		.4byte	0
 18117              	.LLST66:
 18118 01c5 A2000000 		.4byte	.LVL342
 18119 01c9 C1000000 		.4byte	.LVL343-1
 18120 01cd 0200     		.2byte	0x2
 18121 01cf 90       		.byte	0x90
 18122 01d0 40       		.uleb128 0x40
 18123 01d1 C1000000 		.4byte	.LVL343-1
 18124 01d5 D4030000 		.4byte	.LVL369
 18125 01d9 0200     		.2byte	0x2
 18126 01db 90       		.byte	0x90
 18127 01dc 53       		.uleb128 0x53
 18128 01dd 0E040000 		.4byte	.LVL373
 18129 01e1 EE040000 		.4byte	.LVL395
 18130 01e5 0200     		.2byte	0x2
 18131 01e7 90       		.byte	0x90
 18132 01e8 53       		.uleb128 0x53
 18133 01e9 F8040000 		.4byte	.LVL396
 18134 01ed 3C070000 		.4byte	.LFE307
 18135 01f1 0200     		.2byte	0x2
 18136 01f3 90       		.byte	0x90
 18137 01f4 53       		.uleb128 0x53
 18138 01f5 00000000 		.4byte	0
 18139 01f9 00000000 		.4byte	0
 18140              	.LLST67:
 18141 01fd 0A010000 		.4byte	.LVL346
 18142 0201 12010000 		.4byte	.LVL347
 18143 0205 0200     		.2byte	0x2
 18144 0207 90       		.byte	0x90
 18145 0208 40       		.uleb128 0x40
 18146 0209 12010000 		.4byte	.LVL347
 18147 020d 38010000 		.4byte	.LVL350
 18148 0211 0200     		.2byte	0x2
ARM GAS  C:\Users\CHRIST~1\AppData\Local\Temp\ccCFoZV9.s 			page 321


 18149 0213 90       		.byte	0x90
 18150 0214 52       		.uleb128 0x52
 18151 0215 B8030000 		.4byte	.LVL366
 18152 0219 BC030000 		.4byte	.LVL367
 18153 021d 0200     		.2byte	0x2
 18154 021f 90       		.byte	0x90
 18155 0220 52       		.uleb128 0x52
 18156 0221 04050000 		.4byte	.LVL398
 18157 0225 07050000 		.4byte	.LVL399-1
 18158 0229 0200     		.2byte	0x2
 18159 022b 90       		.byte	0x90
 18160 022c 40       		.uleb128 0x40
 18161 022d 07050000 		.4byte	.LVL399-1
 18162 0231 0C050000 		.4byte	.LVL400
 18163 0235 0200     		.2byte	0x2
 18164 0237 90       		.byte	0x90
 18165 0238 52       		.uleb128 0x52
 18166 0239 0C050000 		.4byte	.LVL400
 18167 023d 0F050000 		.4byte	.LVL401-1
 18168 0241 0200     		.2byte	0x2
 18169 0243 90       		.byte	0x90
 18170 0244 40       		.uleb128 0x40
 18171 0245 0F050000 		.4byte	.LVL401-1
 18172 0249 12050000 		.4byte	.LVL402
 18173 024d 0200     		.2byte	0x2
 18174 024f 90       		.byte	0x90
 18175 0250 52       		.uleb128 0x52
 18176 0251 00000000 		.4byte	0
 18177 0255 00000000 		.4byte	0
 18178              	.LLST68:
 18179 0259 0A010000 		.4byte	.LVL346
 18180 025d 12010000 		.4byte	.LVL347
 18181 0261 0200     		.2byte	0x2
 18182 0263 90       		.byte	0x90
 18183 0264 51       		.uleb128 0x51
 18184 0265 12010000 		.4byte	.LVL347
 18185 0269 24010000 		.4byte	.LVL348
 18186 026d 0200     		.2byte	0x2
 18187 026f 90       		.byte	0x90
 18188 0270 40       		.uleb128 0x40
 18189 0271 B8030000 		.4byte	.LVL366
 18190 0275 D4030000 		.4byte	.LVL369
 18191 0279 0200     		.2byte	0x2
 18192 027b 90       		.byte	0x90
 18193 027c 40       		.uleb128 0x40
 18194 027d 04050000 		.4byte	.LVL398
 18195 0281 10050000 		.4byte	.LVL401
 18196 0285 0200     		.2byte	0x2
 18197 0287 90       		.byte	0x90
 18198 0288 51       		.uleb128 0x51
 18199 0289 10050000 		.4byte	.LVL401
 18200 028d 12050000 		.4byte	.LVL402
 18201 0291 0200     		.2byte	0x2
 18202 0293 90       		.byte	0x90
 18203 0294 40       		.uleb128 0x40
 18204 0295 00000000 		.4byte	0
 18205 0299 00000000 		.4byte	0
ARM GAS  C:\Users\CHRIST~1\AppData\Local\Temp\ccCFoZV9.s 			page 322


 18206              	.LLST69:
 18207 029d 70010000 		.4byte	.LVL356
 18208 02a1 FC010000 		.4byte	.LVL358
 18209 02a5 0200     		.2byte	0x2
 18210 02a7 90       		.byte	0x90
 18211 02a8 40       		.uleb128 0x40
 18212 02a9 FC010000 		.4byte	.LVL358
 18213 02ad 12030000 		.4byte	.LVL365
 18214 02b1 0200     		.2byte	0x2
 18215 02b3 90       		.byte	0x90
 18216 02b4 52       		.uleb128 0x52
 18217 02b5 0E040000 		.4byte	.LVL373
 18218 02b9 5F040000 		.4byte	.LVL382-1
 18219 02bd 0200     		.2byte	0x2
 18220 02bf 90       		.byte	0x90
 18221 02c0 40       		.uleb128 0x40
 18222 02c1 5F040000 		.4byte	.LVL382-1
 18223 02c5 84040000 		.4byte	.LVL384
 18224 02c9 0200     		.2byte	0x2
 18225 02cb 90       		.byte	0x90
 18226 02cc 52       		.uleb128 0x52
 18227 02cd 84040000 		.4byte	.LVL384
 18228 02d1 87040000 		.4byte	.LVL385-1
 18229 02d5 0200     		.2byte	0x2
 18230 02d7 90       		.byte	0x90
 18231 02d8 40       		.uleb128 0x40
 18232 02d9 87040000 		.4byte	.LVL385-1
 18233 02dd D4040000 		.4byte	.LVL392
 18234 02e1 0200     		.2byte	0x2
 18235 02e3 90       		.byte	0x90
 18236 02e4 52       		.uleb128 0x52
 18237 02e5 F8040000 		.4byte	.LVL396
 18238 02e9 04050000 		.4byte	.LVL398
 18239 02ed 0200     		.2byte	0x2
 18240 02ef 90       		.byte	0x90
 18241 02f0 40       		.uleb128 0x40
 18242 02f1 12050000 		.4byte	.LVL402
 18243 02f5 40050000 		.4byte	.LVL406
 18244 02f9 0200     		.2byte	0x2
 18245 02fb 90       		.byte	0x90
 18246 02fc 40       		.uleb128 0x40
 18247 02fd 40050000 		.4byte	.LVL406
 18248 0301 5E050000 		.4byte	.LVL407
 18249 0305 0200     		.2byte	0x2
 18250 0307 90       		.byte	0x90
 18251 0308 52       		.uleb128 0x52
 18252 0309 5E050000 		.4byte	.LVL407
 18253 030d 6E050000 		.4byte	.LVL410
 18254 0311 0200     		.2byte	0x2
 18255 0313 90       		.byte	0x90
 18256 0314 40       		.uleb128 0x40
 18257 0315 6E050000 		.4byte	.LVL410
 18258 0319 72060000 		.4byte	.LVL418
 18259 031d 0200     		.2byte	0x2
 18260 031f 90       		.byte	0x90
 18261 0320 52       		.uleb128 0x52
 18262 0321 72060000 		.4byte	.LVL418
ARM GAS  C:\Users\CHRIST~1\AppData\Local\Temp\ccCFoZV9.s 			page 323


 18263 0325 89060000 		.4byte	.LVL421-1
 18264 0329 0200     		.2byte	0x2
 18265 032b 90       		.byte	0x90
 18266 032c 40       		.uleb128 0x40
 18267 032d 89060000 		.4byte	.LVL421-1
 18268 0331 90060000 		.4byte	.LVL423
 18269 0335 0200     		.2byte	0x2
 18270 0337 90       		.byte	0x90
 18271 0338 52       		.uleb128 0x52
 18272 0339 90060000 		.4byte	.LVL423
 18273 033d 9F060000 		.4byte	.LVL425-1
 18274 0341 0200     		.2byte	0x2
 18275 0343 90       		.byte	0x90
 18276 0344 40       		.uleb128 0x40
 18277 0345 9F060000 		.4byte	.LVL425-1
 18278 0349 A8060000 		.4byte	.LVL427
 18279 034d 0200     		.2byte	0x2
 18280 034f 90       		.byte	0x90
 18281 0350 52       		.uleb128 0x52
 18282 0351 A8060000 		.4byte	.LVL427
 18283 0355 B7060000 		.4byte	.LVL429-1
 18284 0359 0200     		.2byte	0x2
 18285 035b 90       		.byte	0x90
 18286 035c 40       		.uleb128 0x40
 18287 035d B7060000 		.4byte	.LVL429-1
 18288 0361 C0060000 		.4byte	.LVL431
 18289 0365 0200     		.2byte	0x2
 18290 0367 90       		.byte	0x90
 18291 0368 52       		.uleb128 0x52
 18292 0369 C0060000 		.4byte	.LVL431
 18293 036d CC060000 		.4byte	.LVL435
 18294 0371 0200     		.2byte	0x2
 18295 0373 90       		.byte	0x90
 18296 0374 40       		.uleb128 0x40
 18297 0375 CC060000 		.4byte	.LVL435
 18298 0379 3C070000 		.4byte	.LFE307
 18299 037d 0200     		.2byte	0x2
 18300 037f 90       		.byte	0x90
 18301 0380 52       		.uleb128 0x52
 18302 0381 00000000 		.4byte	0
 18303 0385 00000000 		.4byte	0
 18304              	.LLST70:
 18305 0389 D2010000 		.4byte	.LVL357
 18306 038d FC010000 		.4byte	.LVL358
 18307 0391 0200     		.2byte	0x2
 18308 0393 30       		.byte	0x30
 18309 0394 9F       		.byte	0x9f
 18310 0395 0E040000 		.4byte	.LVL373
 18311 0399 74040000 		.4byte	.LVL383
 18312 039d 0200     		.2byte	0x2
 18313 039f 31       		.byte	0x31
 18314 03a0 9F       		.byte	0x9f
 18315 03a1 74040000 		.4byte	.LVL383
 18316 03a5 84040000 		.4byte	.LVL384
 18317 03a9 0100     		.2byte	0x1
 18318 03ab 59       		.byte	0x59
 18319 03ac 84040000 		.4byte	.LVL384
ARM GAS  C:\Users\CHRIST~1\AppData\Local\Temp\ccCFoZV9.s 			page 324


 18320 03b0 96040000 		.4byte	.LVL386
 18321 03b4 0200     		.2byte	0x2
 18322 03b6 30       		.byte	0x30
 18323 03b7 9F       		.byte	0x9f
 18324 03b8 96040000 		.4byte	.LVL386
 18325 03bc A6040000 		.4byte	.LVL387
 18326 03c0 0200     		.2byte	0x2
 18327 03c2 31       		.byte	0x31
 18328 03c3 9F       		.byte	0x9f
 18329 03c4 CA040000 		.4byte	.LVL391
 18330 03c8 D4040000 		.4byte	.LVL392
 18331 03cc 0100     		.2byte	0x1
 18332 03ce 59       		.byte	0x59
 18333 03cf F8040000 		.4byte	.LVL396
 18334 03d3 04050000 		.4byte	.LVL398
 18335 03d7 0200     		.2byte	0x2
 18336 03d9 31       		.byte	0x31
 18337 03da 9F       		.byte	0x9f
 18338 03db 30050000 		.4byte	.LVL403
 18339 03df 38050000 		.4byte	.LVL405
 18340 03e3 0200     		.2byte	0x2
 18341 03e5 31       		.byte	0x31
 18342 03e6 9F       		.byte	0x9f
 18343 03e7 38050000 		.4byte	.LVL405
 18344 03eb 5E050000 		.4byte	.LVL407
 18345 03ef 0200     		.2byte	0x2
 18346 03f1 30       		.byte	0x30
 18347 03f2 9F       		.byte	0x9f
 18348 03f3 5E050000 		.4byte	.LVL407
 18349 03f7 66050000 		.4byte	.LVL409
 18350 03fb 0200     		.2byte	0x2
 18351 03fd 31       		.byte	0x31
 18352 03fe 9F       		.byte	0x9f
 18353 03ff 66050000 		.4byte	.LVL409
 18354 0403 82050000 		.4byte	.LVL412
 18355 0407 0200     		.2byte	0x2
 18356 0409 30       		.byte	0x30
 18357 040a 9F       		.byte	0x9f
 18358 040b 72060000 		.4byte	.LVL418
 18359 040f C0060000 		.4byte	.LVL431
 18360 0413 0200     		.2byte	0x2
 18361 0415 30       		.byte	0x30
 18362 0416 9F       		.byte	0x9f
 18363 0417 C0060000 		.4byte	.LVL431
 18364 041b CC060000 		.4byte	.LVL435
 18365 041f 0200     		.2byte	0x2
 18366 0421 31       		.byte	0x31
 18367 0422 9F       		.byte	0x9f
 18368 0423 CC060000 		.4byte	.LVL435
 18369 0427 3C070000 		.4byte	.LFE307
 18370 042b 0200     		.2byte	0x2
 18371 042d 30       		.byte	0x30
 18372 042e 9F       		.byte	0x9f
 18373 042f 00000000 		.4byte	0
 18374 0433 00000000 		.4byte	0
 18375              	.LLST78:
 18376 0437 38040000 		.4byte	.LVL378
ARM GAS  C:\Users\CHRIST~1\AppData\Local\Temp\ccCFoZV9.s 			page 325


 18377 043b 4C040000 		.4byte	.LVL379
 18378 043f 0300     		.2byte	0x3
 18379 0441 09       		.byte	0x9
 18380 0442 FF       		.byte	0xff
 18381 0443 9F       		.byte	0x9f
 18382 0444 4C040000 		.4byte	.LVL379
 18383 0448 4E040000 		.4byte	.LVL380
 18384 044c 0600     		.2byte	0x6
 18385 044e 73       		.byte	0x73
 18386 044f 00       		.sleb128 0
 18387 0450 72       		.byte	0x72
 18388 0451 00       		.sleb128 0
 18389 0452 1C       		.byte	0x1c
 18390 0453 9F       		.byte	0x9f
 18391 0454 4E040000 		.4byte	.LVL380
 18392 0458 5F040000 		.4byte	.LVL382-1
 18393 045c 0100     		.2byte	0x1
 18394 045e 53       		.byte	0x53
 18395 045f F8040000 		.4byte	.LVL396
 18396 0463 FE040000 		.4byte	.LVL397
 18397 0467 0300     		.2byte	0x3
 18398 0469 09       		.byte	0x9
 18399 046a FF       		.byte	0xff
 18400 046b 9F       		.byte	0x9f
 18401 046c 5E050000 		.4byte	.LVL407
 18402 0470 60050000 		.4byte	.LVL408
 18403 0474 0100     		.2byte	0x1
 18404 0476 53       		.byte	0x53
 18405 0477 C0060000 		.4byte	.LVL431
 18406 047b C6060000 		.4byte	.LVL433
 18407 047f 0100     		.2byte	0x1
 18408 0481 53       		.byte	0x53
 18409 0482 00000000 		.4byte	0
 18410 0486 00000000 		.4byte	0
 18411              	.LLST79:
 18412 048a 90060000 		.4byte	.LVL423
 18413 048e 96060000 		.4byte	.LVL424
 18414 0492 0300     		.2byte	0x3
 18415 0494 08       		.byte	0x8
 18416 0495 20       		.byte	0x20
 18417 0496 9F       		.byte	0x9f
 18418 0497 00000000 		.4byte	0
 18419 049b 00000000 		.4byte	0
 18420              	.LLST80:
 18421 049f A0060000 		.4byte	.LVL425
 18422 04a3 A6060000 		.4byte	.LVL426
 18423 04a7 0200     		.2byte	0x2
 18424 04a9 30       		.byte	0x30
 18425 04aa 9F       		.byte	0x9f
 18426 04ab 00000000 		.4byte	0
 18427 04af 00000000 		.4byte	0
 18428              	.LLST75:
 18429 04b3 0E040000 		.4byte	.LVL373
 18430 04b7 22040000 		.4byte	.LVL374
 18431 04bb 0300     		.2byte	0x3
 18432 04bd 09       		.byte	0x9
 18433 04be FF       		.byte	0xff
ARM GAS  C:\Users\CHRIST~1\AppData\Local\Temp\ccCFoZV9.s 			page 326


 18434 04bf 9F       		.byte	0x9f
 18435 04c0 22040000 		.4byte	.LVL374
 18436 04c4 24040000 		.4byte	.LVL375
 18437 04c8 0600     		.2byte	0x6
 18438 04ca 73       		.byte	0x73
 18439 04cb 00       		.sleb128 0
 18440 04cc 72       		.byte	0x72
 18441 04cd 00       		.sleb128 0
 18442 04ce 1C       		.byte	0x1c
 18443 04cf 9F       		.byte	0x9f
 18444 04d0 24040000 		.4byte	.LVL375
 18445 04d4 32040000 		.4byte	.LVL377
 18446 04d8 0100     		.2byte	0x1
 18447 04da 53       		.byte	0x53
 18448 04db FE040000 		.4byte	.LVL397
 18449 04df 04050000 		.4byte	.LVL398
 18450 04e3 0300     		.2byte	0x3
 18451 04e5 09       		.byte	0x9
 18452 04e6 FF       		.byte	0xff
 18453 04e7 9F       		.byte	0x9f
 18454 04e8 30050000 		.4byte	.LVL403
 18455 04ec 32050000 		.4byte	.LVL404
 18456 04f0 0100     		.2byte	0x1
 18457 04f2 53       		.byte	0x53
 18458 04f3 C6060000 		.4byte	.LVL433
 18459 04f7 CC060000 		.4byte	.LVL435
 18460 04fb 0100     		.2byte	0x1
 18461 04fd 53       		.byte	0x53
 18462 04fe 00000000 		.4byte	0
 18463 0502 00000000 		.4byte	0
 18464              	.LLST76:
 18465 0506 A8060000 		.4byte	.LVL427
 18466 050a AE060000 		.4byte	.LVL428
 18467 050e 0300     		.2byte	0x3
 18468 0510 08       		.byte	0x8
 18469 0511 20       		.byte	0x20
 18470 0512 9F       		.byte	0x9f
 18471 0513 00000000 		.4byte	0
 18472 0517 00000000 		.4byte	0
 18473              	.LLST77:
 18474 051b B8060000 		.4byte	.LVL429
 18475 051f BE060000 		.4byte	.LVL430
 18476 0523 0200     		.2byte	0x2
 18477 0525 30       		.byte	0x30
 18478 0526 9F       		.byte	0x9f
 18479 0527 00000000 		.4byte	0
 18480 052b 00000000 		.4byte	0
 18481              	.LLST73:
 18482 052f 30020000 		.4byte	.LVL359
 18483 0533 A6020000 		.4byte	.LVL361
 18484 0537 0100     		.2byte	0x1
 18485 0539 54       		.byte	0x54
 18486 053a A6020000 		.4byte	.LVL361
 18487 053e A9020000 		.4byte	.LVL362-1
 18488 0542 0300     		.2byte	0x3
 18489 0544 73       		.byte	0x73
 18490 0545 C014     		.sleb128 2624
ARM GAS  C:\Users\CHRIST~1\AppData\Local\Temp\ccCFoZV9.s 			page 327


 18491 0547 82050000 		.4byte	.LVL412
 18492 054b 28060000 		.4byte	.LVL415
 18493 054f 0100     		.2byte	0x1
 18494 0551 54       		.byte	0x54
 18495 0552 5C060000 		.4byte	.LVL417
 18496 0556 72060000 		.4byte	.LVL418
 18497 055a 0100     		.2byte	0x1
 18498 055c 54       		.byte	0x54
 18499 055d 00000000 		.4byte	0
 18500 0561 00000000 		.4byte	0
 18501              	.LLST71:
 18502 0565 2E010000 		.4byte	.LVL349
 18503 0569 3E010000 		.4byte	.LVL351
 18504 056d 0200     		.2byte	0x2
 18505 056f 34       		.byte	0x34
 18506 0570 9F       		.byte	0x9f
 18507 0571 C8030000 		.4byte	.LVL368
 18508 0575 D4030000 		.4byte	.LVL369
 18509 0579 0200     		.2byte	0x2
 18510 057b 34       		.byte	0x34
 18511 057c 9F       		.byte	0x9f
 18512 057d D4040000 		.4byte	.LVL392
 18513 0581 E6040000 		.4byte	.LVL393
 18514 0585 0200     		.2byte	0x2
 18515 0587 34       		.byte	0x34
 18516 0588 9F       		.byte	0x9f
 18517 0589 00000000 		.4byte	0
 18518 058d 00000000 		.4byte	0
 18519              	.LLST72:
 18520 0591 46010000 		.4byte	.LVL352
 18521 0595 58010000 		.4byte	.LVL353
 18522 0599 0200     		.2byte	0x2
 18523 059b 33       		.byte	0x33
 18524 059c 9F       		.byte	0x9f
 18525 059d E6040000 		.4byte	.LVL393
 18526 05a1 EE040000 		.4byte	.LVL395
 18527 05a5 0200     		.2byte	0x2
 18528 05a7 33       		.byte	0x33
 18529 05a8 9F       		.byte	0x9f
 18530 05a9 00000000 		.4byte	0
 18531 05ad 00000000 		.4byte	0
 18532              	.LLST74:
 18533 05b1 EA030000 		.4byte	.LVL370
 18534 05b5 F1030000 		.4byte	.LVL371-1
 18535 05b9 0100     		.2byte	0x1
 18536 05bb 50       		.byte	0x50
 18537 05bc EE040000 		.4byte	.LVL395
 18538 05c0 F8040000 		.4byte	.LVL396
 18539 05c4 0100     		.2byte	0x1
 18540 05c6 50       		.byte	0x50
 18541 05c7 00000000 		.4byte	0
 18542 05cb 00000000 		.4byte	0
 18543              	.LLST81:
 18544 05cf B8040000 		.4byte	.LVL388
 18545 05d3 BC040000 		.4byte	.LVL389
 18546 05d7 0300     		.2byte	0x3
 18547 05d9 08       		.byte	0x8
ARM GAS  C:\Users\CHRIST~1\AppData\Local\Temp\ccCFoZV9.s 			page 328


 18548 05da 20       		.byte	0x20
 18549 05db 9F       		.byte	0x9f
 18550 05dc 00000000 		.4byte	0
 18551 05e0 00000000 		.4byte	0
 18552              	.LLST82:
 18553 05e4 C6040000 		.4byte	.LVL390
 18554 05e8 CA040000 		.4byte	.LVL391
 18555 05ec 0200     		.2byte	0x2
 18556 05ee 30       		.byte	0x30
 18557 05ef 9F       		.byte	0x9f
 18558 05f0 00000000 		.4byte	0
 18559 05f4 00000000 		.4byte	0
 18560              	.LLST83:
 18561 05f8 7E060000 		.4byte	.LVL419
 18562 05fc 82060000 		.4byte	.LVL420
 18563 0600 0300     		.2byte	0x3
 18564 0602 08       		.byte	0x8
 18565 0603 20       		.byte	0x20
 18566 0604 9F       		.byte	0x9f
 18567 0605 00000000 		.4byte	0
 18568 0609 00000000 		.4byte	0
 18569              	.LLST84:
 18570 060d 8A060000 		.4byte	.LVL421
 18571 0611 8E060000 		.4byte	.LVL422
 18572 0615 0200     		.2byte	0x2
 18573 0617 30       		.byte	0x30
 18574 0618 9F       		.byte	0x9f
 18575 0619 00000000 		.4byte	0
 18576 061d 00000000 		.4byte	0
 18577              	.LLST50:
 18578 0621 0E000000 		.4byte	.LVL255
 18579 0625 2A000000 		.4byte	.LVL258
 18580 0629 0100     		.2byte	0x1
 18581 062b 54       		.byte	0x54
 18582 062c 2A000000 		.4byte	.LVL258
 18583 0630 2C000000 		.4byte	.LVL259
 18584 0634 0200     		.2byte	0x2
 18585 0636 31       		.byte	0x31
 18586 0637 9F       		.byte	0x9f
 18587 0638 30000000 		.4byte	.LVL260
 18588 063c 54000000 		.4byte	.LVL264
 18589 0640 0100     		.2byte	0x1
 18590 0642 54       		.byte	0x54
 18591 0643 60000000 		.4byte	.LVL266
 18592 0647 74000000 		.4byte	.LFE305
 18593 064b 0400     		.2byte	0x4
 18594 064d 0A       		.byte	0xa
 18595 064e F401     		.2byte	0x1f4
 18596 0650 9F       		.byte	0x9f
 18597 0651 00000000 		.4byte	0
 18598 0655 00000000 		.4byte	0
 18599              	.LLST47:
 18600 0659 00000000 		.4byte	.LVL249
 18601 065d 34000000 		.4byte	.LVL252
 18602 0661 0100     		.2byte	0x1
 18603 0663 50       		.byte	0x50
 18604 0664 34000000 		.4byte	.LVL252
ARM GAS  C:\Users\CHRIST~1\AppData\Local\Temp\ccCFoZV9.s 			page 329


 18605 0668 50000000 		.4byte	.LFE302
 18606 066c 0400     		.2byte	0x4
 18607 066e F3       		.byte	0xf3
 18608 066f 01       		.uleb128 0x1
 18609 0670 50       		.byte	0x50
 18610 0671 9F       		.byte	0x9f
 18611 0672 00000000 		.4byte	0
 18612 0676 00000000 		.4byte	0
 18613              	.LLST48:
 18614 067a 00000000 		.4byte	.LVL249
 18615 067e 0A000000 		.4byte	.LVL250
 18616 0682 0100     		.2byte	0x1
 18617 0684 51       		.byte	0x51
 18618 0685 0A000000 		.4byte	.LVL250
 18619 0689 32000000 		.4byte	.LVL251
 18620 068d 0100     		.2byte	0x1
 18621 068f 51       		.byte	0x51
 18622 0690 00000000 		.4byte	0
 18623 0694 00000000 		.4byte	0
 18624              	.LLST49:
 18625 0698 00000000 		.4byte	.LVL249
 18626 069c 37000000 		.4byte	.LVL253-1
 18627 06a0 0100     		.2byte	0x1
 18628 06a2 52       		.byte	0x52
 18629 06a3 37000000 		.4byte	.LVL253-1
 18630 06a7 50000000 		.4byte	.LFE302
 18631 06ab 0400     		.2byte	0x4
 18632 06ad F3       		.byte	0xf3
 18633 06ae 01       		.uleb128 0x1
 18634 06af 52       		.byte	0x52
 18635 06b0 9F       		.byte	0x9f
 18636 06b1 00000000 		.4byte	0
 18637 06b5 00000000 		.4byte	0
 18638              	.LLST46:
 18639 06b9 00000000 		.4byte	.LVL242
 18640 06bd 14000000 		.4byte	.LVL243
 18641 06c1 0600     		.2byte	0x6
 18642 06c3 9E       		.byte	0x9e
 18643 06c4 04       		.uleb128 0x4
 18644 06c5 00000000 		.4byte	0
 18645 06c9 14000000 		.4byte	.LVL243
 18646 06cd 2C000000 		.4byte	.LVL244
 18647 06d1 0200     		.2byte	0x2
 18648 06d3 90       		.byte	0x90
 18649 06d4 40       		.uleb128 0x40
 18650 06d5 2E000000 		.4byte	.LVL245
 18651 06d9 32000000 		.4byte	.LVL246
 18652 06dd 0600     		.2byte	0x6
 18653 06df 9E       		.byte	0x9e
 18654 06e0 04       		.uleb128 0x4
 18655 06e1 00000000 		.4byte	0
 18656 06e5 32000000 		.4byte	.LVL246
 18657 06e9 34000000 		.4byte	.LVL247
 18658 06ed 0200     		.2byte	0x2
 18659 06ef 90       		.byte	0x90
 18660 06f0 40       		.uleb128 0x40
 18661 06f1 34000000 		.4byte	.LVL247
ARM GAS  C:\Users\CHRIST~1\AppData\Local\Temp\ccCFoZV9.s 			page 330


 18662 06f5 38000000 		.4byte	.LVL248
 18663 06f9 0600     		.2byte	0x6
 18664 06fb 9E       		.byte	0x9e
 18665 06fc 04       		.uleb128 0x4
 18666 06fd 00000000 		.4byte	0
 18667 0701 38000000 		.4byte	.LVL248
 18668 0705 44000000 		.4byte	.LFE300
 18669 0709 0200     		.2byte	0x2
 18670 070b 90       		.byte	0x90
 18671 070c 40       		.uleb128 0x40
 18672 070d 00000000 		.4byte	0
 18673 0711 00000000 		.4byte	0
 18674              	.LLST45:
 18675 0715 12000000 		.4byte	.LVL240
 18676 0719 30000000 		.4byte	.LVL241
 18677 071d 0200     		.2byte	0x2
 18678 071f 90       		.byte	0x90
 18679 0720 40       		.uleb128 0x40
 18680 0721 00000000 		.4byte	0
 18681 0725 00000000 		.4byte	0
 18682              	.LLST44:
 18683 0729 12000000 		.4byte	.LVL238
 18684 072d 30000000 		.4byte	.LVL239
 18685 0731 0200     		.2byte	0x2
 18686 0733 90       		.byte	0x90
 18687 0734 40       		.uleb128 0x40
 18688 0735 00000000 		.4byte	0
 18689 0739 00000000 		.4byte	0
 18690              	.LLST43:
 18691 073d 0C000000 		.4byte	.LVL236
 18692 0741 14000000 		.4byte	.LVL237
 18693 0745 0800     		.2byte	0x8
 18694 0747 F5       		.byte	0xf5
 18695 0748 40       		.uleb128 0x40
 18696 0749 25       		.uleb128 0x25
 18697 074a F5       		.byte	0xf5
 18698 074b 4F       		.uleb128 0x4f
 18699 074c 25       		.uleb128 0x25
 18700 074d 1B       		.byte	0x1b
 18701 074e 9F       		.byte	0x9f
 18702 074f 14000000 		.4byte	.LVL237
 18703 0753 20000000 		.4byte	.LFE296
 18704 0757 0200     		.2byte	0x2
 18705 0759 90       		.byte	0x90
 18706 075a 40       		.uleb128 0x40
 18707 075b 00000000 		.4byte	0
 18708 075f 00000000 		.4byte	0
 18709              	.LLST42:
 18710 0763 0C000000 		.4byte	.LVL234
 18711 0767 14000000 		.4byte	.LVL235
 18712 076b 0800     		.2byte	0x8
 18713 076d F5       		.byte	0xf5
 18714 076e 40       		.uleb128 0x40
 18715 076f 25       		.uleb128 0x25
 18716 0770 F5       		.byte	0xf5
 18717 0771 4F       		.uleb128 0x4f
 18718 0772 25       		.uleb128 0x25
ARM GAS  C:\Users\CHRIST~1\AppData\Local\Temp\ccCFoZV9.s 			page 331


 18719 0773 1B       		.byte	0x1b
 18720 0774 9F       		.byte	0x9f
 18721 0775 14000000 		.4byte	.LVL235
 18722 0779 20000000 		.4byte	.LFE295
 18723 077d 0200     		.2byte	0x2
 18724 077f 90       		.byte	0x90
 18725 0780 40       		.uleb128 0x40
 18726 0781 00000000 		.4byte	0
 18727 0785 00000000 		.4byte	0
 18728              	.LLST41:
 18729 0789 00000000 		.4byte	.LVL226
 18730 078d 11000000 		.4byte	.LVL227-1
 18731 0791 0100     		.2byte	0x1
 18732 0793 50       		.byte	0x50
 18733 0794 11000000 		.4byte	.LVL227-1
 18734 0798 12000000 		.4byte	.LVL227
 18735 079c 0400     		.2byte	0x4
 18736 079e F3       		.byte	0xf3
 18737 079f 01       		.uleb128 0x1
 18738 07a0 50       		.byte	0x50
 18739 07a1 9F       		.byte	0x9f
 18740 07a2 12000000 		.4byte	.LVL227
 18741 07a6 14000000 		.4byte	.LVL228
 18742 07aa 0100     		.2byte	0x1
 18743 07ac 50       		.byte	0x50
 18744 07ad 14000000 		.4byte	.LVL228
 18745 07b1 16000000 		.4byte	.LVL229
 18746 07b5 0400     		.2byte	0x4
 18747 07b7 F3       		.byte	0xf3
 18748 07b8 01       		.uleb128 0x1
 18749 07b9 50       		.byte	0x50
 18750 07ba 9F       		.byte	0x9f
 18751 07bb 16000000 		.4byte	.LVL229
 18752 07bf 19000000 		.4byte	.LVL230-1
 18753 07c3 0100     		.2byte	0x1
 18754 07c5 50       		.byte	0x50
 18755 07c6 19000000 		.4byte	.LVL230-1
 18756 07ca 20000000 		.4byte	.LFE293
 18757 07ce 0400     		.2byte	0x4
 18758 07d0 F3       		.byte	0xf3
 18759 07d1 01       		.uleb128 0x1
 18760 07d2 50       		.byte	0x50
 18761 07d3 9F       		.byte	0x9f
 18762 07d4 00000000 		.4byte	0
 18763 07d8 00000000 		.4byte	0
 18764              	.LLST13:
 18765 07dc 00000000 		.4byte	.LVL103
 18766 07e0 14000000 		.4byte	.LVL104
 18767 07e4 0100     		.2byte	0x1
 18768 07e6 50       		.byte	0x50
 18769 07e7 14000000 		.4byte	.LVL104
 18770 07eb 36000000 		.4byte	.LVL105
 18771 07ef 0400     		.2byte	0x4
 18772 07f1 F3       		.byte	0xf3
 18773 07f2 01       		.uleb128 0x1
 18774 07f3 50       		.byte	0x50
 18775 07f4 9F       		.byte	0x9f
ARM GAS  C:\Users\CHRIST~1\AppData\Local\Temp\ccCFoZV9.s 			page 332


 18776 07f5 36000000 		.4byte	.LVL105
 18777 07f9 39000000 		.4byte	.LVL106-1
 18778 07fd 0100     		.2byte	0x1
 18779 07ff 50       		.byte	0x50
 18780 0800 39000000 		.4byte	.LVL106-1
 18781 0804 44000000 		.4byte	.LVL107
 18782 0808 0400     		.2byte	0x4
 18783 080a F3       		.byte	0xf3
 18784 080b 01       		.uleb128 0x1
 18785 080c 50       		.byte	0x50
 18786 080d 9F       		.byte	0x9f
 18787 080e 44000000 		.4byte	.LVL107
 18788 0812 47000000 		.4byte	.LVL108-1
 18789 0816 0100     		.2byte	0x1
 18790 0818 50       		.byte	0x50
 18791 0819 47000000 		.4byte	.LVL108-1
 18792 081d 5C000000 		.4byte	.LFE292
 18793 0821 0400     		.2byte	0x4
 18794 0823 F3       		.byte	0xf3
 18795 0824 01       		.uleb128 0x1
 18796 0825 50       		.byte	0x50
 18797 0826 9F       		.byte	0x9f
 18798 0827 00000000 		.4byte	0
 18799 082b 00000000 		.4byte	0
 18800              	.LLST14:
 18801 082f 00000000 		.4byte	.LVL103
 18802 0833 14000000 		.4byte	.LVL104
 18803 0837 0200     		.2byte	0x2
 18804 0839 30       		.byte	0x30
 18805 083a 9F       		.byte	0x9f
 18806 083b 36000000 		.4byte	.LVL105
 18807 083f 3A000000 		.4byte	.LVL106
 18808 0843 0200     		.2byte	0x2
 18809 0845 30       		.byte	0x30
 18810 0846 9F       		.byte	0x9f
 18811 0847 3A000000 		.4byte	.LVL106
 18812 084b 44000000 		.4byte	.LVL107
 18813 084f 0100     		.2byte	0x1
 18814 0851 50       		.byte	0x50
 18815 0852 44000000 		.4byte	.LVL107
 18816 0856 48000000 		.4byte	.LVL108
 18817 085a 0200     		.2byte	0x2
 18818 085c 30       		.byte	0x30
 18819 085d 9F       		.byte	0x9f
 18820 085e 48000000 		.4byte	.LVL108
 18821 0862 5C000000 		.4byte	.LFE292
 18822 0866 0100     		.2byte	0x1
 18823 0868 50       		.byte	0x50
 18824 0869 00000000 		.4byte	0
 18825 086d 00000000 		.4byte	0
 18826              	.LLST12:
 18827 0871 00000000 		.4byte	.LVL90
 18828 0875 14000000 		.4byte	.LVL91
 18829 0879 0600     		.2byte	0x6
 18830 087b 9E       		.byte	0x9e
 18831 087c 04       		.uleb128 0x4
 18832 087d 00000000 		.4byte	0
ARM GAS  C:\Users\CHRIST~1\AppData\Local\Temp\ccCFoZV9.s 			page 333


 18833 0881 14000000 		.4byte	.LVL91
 18834 0885 2C000000 		.4byte	.LVL92
 18835 0889 0200     		.2byte	0x2
 18836 088b 90       		.byte	0x90
 18837 088c 40       		.uleb128 0x40
 18838 088d 2E000000 		.4byte	.LVL93
 18839 0891 32000000 		.4byte	.LVL94
 18840 0895 0600     		.2byte	0x6
 18841 0897 9E       		.byte	0x9e
 18842 0898 04       		.uleb128 0x4
 18843 0899 00000000 		.4byte	0
 18844 089d 32000000 		.4byte	.LVL94
 18845 08a1 34000000 		.4byte	.LVL95
 18846 08a5 0200     		.2byte	0x2
 18847 08a7 90       		.byte	0x90
 18848 08a8 40       		.uleb128 0x40
 18849 08a9 34000000 		.4byte	.LVL95
 18850 08ad 38000000 		.4byte	.LVL96
 18851 08b1 0600     		.2byte	0x6
 18852 08b3 9E       		.byte	0x9e
 18853 08b4 04       		.uleb128 0x4
 18854 08b5 00000000 		.4byte	0
 18855 08b9 38000000 		.4byte	.LVL96
 18856 08bd 44000000 		.4byte	.LFE289
 18857 08c1 0200     		.2byte	0x2
 18858 08c3 90       		.byte	0x90
 18859 08c4 40       		.uleb128 0x40
 18860 08c5 00000000 		.4byte	0
 18861 08c9 00000000 		.4byte	0
 18862              	.LLST11:
 18863 08cd 00000000 		.4byte	.LVL83
 18864 08d1 14000000 		.4byte	.LVL84
 18865 08d5 0600     		.2byte	0x6
 18866 08d7 9E       		.byte	0x9e
 18867 08d8 04       		.uleb128 0x4
 18868 08d9 00000000 		.4byte	0
 18869 08dd 14000000 		.4byte	.LVL84
 18870 08e1 2C000000 		.4byte	.LVL85
 18871 08e5 0200     		.2byte	0x2
 18872 08e7 90       		.byte	0x90
 18873 08e8 40       		.uleb128 0x40
 18874 08e9 2E000000 		.4byte	.LVL86
 18875 08ed 32000000 		.4byte	.LVL87
 18876 08f1 0600     		.2byte	0x6
 18877 08f3 9E       		.byte	0x9e
 18878 08f4 04       		.uleb128 0x4
 18879 08f5 00000000 		.4byte	0
 18880 08f9 32000000 		.4byte	.LVL87
 18881 08fd 34000000 		.4byte	.LVL88
 18882 0901 0200     		.2byte	0x2
 18883 0903 90       		.byte	0x90
 18884 0904 40       		.uleb128 0x40
 18885 0905 34000000 		.4byte	.LVL88
 18886 0909 38000000 		.4byte	.LVL89
 18887 090d 0600     		.2byte	0x6
 18888 090f 9E       		.byte	0x9e
 18889 0910 04       		.uleb128 0x4
ARM GAS  C:\Users\CHRIST~1\AppData\Local\Temp\ccCFoZV9.s 			page 334


 18890 0911 00000000 		.4byte	0
 18891 0915 38000000 		.4byte	.LVL89
 18892 0919 44000000 		.4byte	.LFE288
 18893 091d 0200     		.2byte	0x2
 18894 091f 90       		.byte	0x90
 18895 0920 40       		.uleb128 0x40
 18896 0921 00000000 		.4byte	0
 18897 0925 00000000 		.4byte	0
 18898              	.LLST10:
 18899 0929 00000000 		.4byte	.LVL62
 18900 092d 14000000 		.4byte	.LVL63
 18901 0931 0600     		.2byte	0x6
 18902 0933 9E       		.byte	0x9e
 18903 0934 04       		.uleb128 0x4
 18904 0935 00000000 		.4byte	0
 18905 0939 14000000 		.4byte	.LVL63
 18906 093d 2C000000 		.4byte	.LVL64
 18907 0941 0200     		.2byte	0x2
 18908 0943 90       		.byte	0x90
 18909 0944 40       		.uleb128 0x40
 18910 0945 2E000000 		.4byte	.LVL65
 18911 0949 32000000 		.4byte	.LVL66
 18912 094d 0600     		.2byte	0x6
 18913 094f 9E       		.byte	0x9e
 18914 0950 04       		.uleb128 0x4
 18915 0951 00000000 		.4byte	0
 18916 0955 32000000 		.4byte	.LVL66
 18917 0959 34000000 		.4byte	.LVL67
 18918 095d 0200     		.2byte	0x2
 18919 095f 90       		.byte	0x90
 18920 0960 40       		.uleb128 0x40
 18921 0961 34000000 		.4byte	.LVL67
 18922 0965 38000000 		.4byte	.LVL68
 18923 0969 0600     		.2byte	0x6
 18924 096b 9E       		.byte	0x9e
 18925 096c 04       		.uleb128 0x4
 18926 096d 00000000 		.4byte	0
 18927 0971 38000000 		.4byte	.LVL68
 18928 0975 44000000 		.4byte	.LFE281
 18929 0979 0200     		.2byte	0x2
 18930 097b 90       		.byte	0x90
 18931 097c 40       		.uleb128 0x40
 18932 097d 00000000 		.4byte	0
 18933 0981 00000000 		.4byte	0
 18934              	.LLST9:
 18935 0985 00000000 		.4byte	.LVL52
 18936 0989 14000000 		.4byte	.LVL53
 18937 098d 0600     		.2byte	0x6
 18938 098f 9E       		.byte	0x9e
 18939 0990 04       		.uleb128 0x4
 18940 0991 00000000 		.4byte	0
 18941 0995 14000000 		.4byte	.LVL53
 18942 0999 2C000000 		.4byte	.LVL54
 18943 099d 0200     		.2byte	0x2
 18944 099f 90       		.byte	0x90
 18945 09a0 40       		.uleb128 0x40
 18946 09a1 2E000000 		.4byte	.LVL55
ARM GAS  C:\Users\CHRIST~1\AppData\Local\Temp\ccCFoZV9.s 			page 335


 18947 09a5 32000000 		.4byte	.LVL56
 18948 09a9 0600     		.2byte	0x6
 18949 09ab 9E       		.byte	0x9e
 18950 09ac 04       		.uleb128 0x4
 18951 09ad 00000000 		.4byte	0
 18952 09b1 32000000 		.4byte	.LVL56
 18953 09b5 34000000 		.4byte	.LVL57
 18954 09b9 0200     		.2byte	0x2
 18955 09bb 90       		.byte	0x90
 18956 09bc 40       		.uleb128 0x40
 18957 09bd 34000000 		.4byte	.LVL57
 18958 09c1 38000000 		.4byte	.LVL58
 18959 09c5 0600     		.2byte	0x6
 18960 09c7 9E       		.byte	0x9e
 18961 09c8 04       		.uleb128 0x4
 18962 09c9 00000000 		.4byte	0
 18963 09cd 38000000 		.4byte	.LVL58
 18964 09d1 44000000 		.4byte	.LFE279
 18965 09d5 0200     		.2byte	0x2
 18966 09d7 90       		.byte	0x90
 18967 09d8 40       		.uleb128 0x40
 18968 09d9 00000000 		.4byte	0
 18969 09dd 00000000 		.4byte	0
 18970              	.LLST8:
 18971 09e1 00000000 		.4byte	.LVL45
 18972 09e5 14000000 		.4byte	.LVL46
 18973 09e9 0600     		.2byte	0x6
 18974 09eb 9E       		.byte	0x9e
 18975 09ec 04       		.uleb128 0x4
 18976 09ed 00000000 		.4byte	0
 18977 09f1 14000000 		.4byte	.LVL46
 18978 09f5 2C000000 		.4byte	.LVL47
 18979 09f9 0200     		.2byte	0x2
 18980 09fb 90       		.byte	0x90
 18981 09fc 40       		.uleb128 0x40
 18982 09fd 2E000000 		.4byte	.LVL48
 18983 0a01 32000000 		.4byte	.LVL49
 18984 0a05 0600     		.2byte	0x6
 18985 0a07 9E       		.byte	0x9e
 18986 0a08 04       		.uleb128 0x4
 18987 0a09 00000000 		.4byte	0
 18988 0a0d 32000000 		.4byte	.LVL49
 18989 0a11 34000000 		.4byte	.LVL50
 18990 0a15 0200     		.2byte	0x2
 18991 0a17 90       		.byte	0x90
 18992 0a18 40       		.uleb128 0x40
 18993 0a19 34000000 		.4byte	.LVL50
 18994 0a1d 38000000 		.4byte	.LVL51
 18995 0a21 0600     		.2byte	0x6
 18996 0a23 9E       		.byte	0x9e
 18997 0a24 04       		.uleb128 0x4
 18998 0a25 00000000 		.4byte	0
 18999 0a29 38000000 		.4byte	.LVL51
 19000 0a2d 44000000 		.4byte	.LFE278
 19001 0a31 0200     		.2byte	0x2
 19002 0a33 90       		.byte	0x90
 19003 0a34 40       		.uleb128 0x40
ARM GAS  C:\Users\CHRIST~1\AppData\Local\Temp\ccCFoZV9.s 			page 336


 19004 0a35 00000000 		.4byte	0
 19005 0a39 00000000 		.4byte	0
 19006              	.LLST62:
 19007 0a3d 00000000 		.4byte	.LVL325
 19008 0a41 0D000000 		.4byte	.LVL326-1
 19009 0a45 0200     		.2byte	0x2
 19010 0a47 90       		.byte	0x90
 19011 0a48 40       		.uleb128 0x40
 19012 0a49 0D000000 		.4byte	.LVL326-1
 19013 0a4d 26000000 		.4byte	.LVL327
 19014 0a51 0200     		.2byte	0x2
 19015 0a53 90       		.byte	0x90
 19016 0a54 50       		.uleb128 0x50
 19017 0a55 26000000 		.4byte	.LVL327
 19018 0a59 2D000000 		.4byte	.LVL328-1
 19019 0a5d 0200     		.2byte	0x2
 19020 0a5f 90       		.byte	0x90
 19021 0a60 40       		.uleb128 0x40
 19022 0a61 2D000000 		.4byte	.LVL328-1
 19023 0a65 2E000000 		.4byte	.LVL328
 19024 0a69 0600     		.2byte	0x6
 19025 0a6b F3       		.byte	0xf3
 19026 0a6c 03       		.uleb128 0x3
 19027 0a6d F5       		.byte	0xf5
 19028 0a6e 40       		.uleb128 0x40
 19029 0a6f 25       		.uleb128 0x25
 19030 0a70 9F       		.byte	0x9f
 19031 0a71 2E000000 		.4byte	.LVL328
 19032 0a75 32000000 		.4byte	.LVL329
 19033 0a79 0200     		.2byte	0x2
 19034 0a7b 90       		.byte	0x90
 19035 0a7c 50       		.uleb128 0x50
 19036 0a7d 32000000 		.4byte	.LVL329
 19037 0a81 34000000 		.4byte	.LVL330
 19038 0a85 0600     		.2byte	0x6
 19039 0a87 F3       		.byte	0xf3
 19040 0a88 03       		.uleb128 0x3
 19041 0a89 F5       		.byte	0xf5
 19042 0a8a 40       		.uleb128 0x40
 19043 0a8b 25       		.uleb128 0x25
 19044 0a8c 9F       		.byte	0x9f
 19045 0a8d 34000000 		.4byte	.LVL330
 19046 0a91 3C000000 		.4byte	.LVL331
 19047 0a95 0200     		.2byte	0x2
 19048 0a97 90       		.byte	0x90
 19049 0a98 50       		.uleb128 0x50
 19050 0a99 3C000000 		.4byte	.LVL331
 19051 0a9d 43000000 		.4byte	.LVL332-1
 19052 0aa1 0200     		.2byte	0x2
 19053 0aa3 90       		.byte	0x90
 19054 0aa4 40       		.uleb128 0x40
 19055 0aa5 43000000 		.4byte	.LVL332-1
 19056 0aa9 48000000 		.4byte	.LFE275
 19057 0aad 0600     		.2byte	0x6
 19058 0aaf F3       		.byte	0xf3
 19059 0ab0 03       		.uleb128 0x3
 19060 0ab1 F5       		.byte	0xf5
ARM GAS  C:\Users\CHRIST~1\AppData\Local\Temp\ccCFoZV9.s 			page 337


 19061 0ab2 40       		.uleb128 0x40
 19062 0ab3 25       		.uleb128 0x25
 19063 0ab4 9F       		.byte	0x9f
 19064 0ab5 00000000 		.4byte	0
 19065 0ab9 00000000 		.4byte	0
 19066              	.LLST61:
 19067 0abd 00000000 		.4byte	.LVL322
 19068 0ac1 0A000000 		.4byte	.LVL323
 19069 0ac5 0200     		.2byte	0x2
 19070 0ac7 90       		.byte	0x90
 19071 0ac8 40       		.uleb128 0x40
 19072 0ac9 0A000000 		.4byte	.LVL323
 19073 0acd 14000000 		.4byte	.LFE274
 19074 0ad1 0600     		.2byte	0x6
 19075 0ad3 F3       		.byte	0xf3
 19076 0ad4 03       		.uleb128 0x3
 19077 0ad5 F5       		.byte	0xf5
 19078 0ad6 40       		.uleb128 0x40
 19079 0ad7 25       		.uleb128 0x25
 19080 0ad8 9F       		.byte	0x9f
 19081 0ad9 00000000 		.4byte	0
 19082 0add 00000000 		.4byte	0
 19083              	.LLST58:
 19084 0ae1 00000000 		.4byte	.LVL308
 19085 0ae5 14000000 		.4byte	.LVL309
 19086 0ae9 0200     		.2byte	0x2
 19087 0aeb 90       		.byte	0x90
 19088 0aec 40       		.uleb128 0x40
 19089 0aed 14000000 		.4byte	.LVL309
 19090 0af1 18000000 		.4byte	.LVL310
 19091 0af5 0600     		.2byte	0x6
 19092 0af7 F3       		.byte	0xf3
 19093 0af8 03       		.uleb128 0x3
 19094 0af9 F5       		.byte	0xf5
 19095 0afa 40       		.uleb128 0x40
 19096 0afb 25       		.uleb128 0x25
 19097 0afc 9F       		.byte	0x9f
 19098 0afd 18000000 		.4byte	.LVL310
 19099 0b01 24000000 		.4byte	.LVL311
 19100 0b05 0200     		.2byte	0x2
 19101 0b07 90       		.byte	0x90
 19102 0b08 40       		.uleb128 0x40
 19103 0b09 24000000 		.4byte	.LVL311
 19104 0b0d 2C000000 		.4byte	.LFE273
 19105 0b11 0600     		.2byte	0x6
 19106 0b13 F3       		.byte	0xf3
 19107 0b14 03       		.uleb128 0x3
 19108 0b15 F5       		.byte	0xf5
 19109 0b16 40       		.uleb128 0x40
 19110 0b17 25       		.uleb128 0x25
 19111 0b18 9F       		.byte	0x9f
 19112 0b19 00000000 		.4byte	0
 19113 0b1d 00000000 		.4byte	0
 19114              	.LLST55:
 19115 0b21 00000000 		.4byte	.LVL292
 19116 0b25 0D000000 		.4byte	.LVL293-1
 19117 0b29 0200     		.2byte	0x2
ARM GAS  C:\Users\CHRIST~1\AppData\Local\Temp\ccCFoZV9.s 			page 338


 19118 0b2b 90       		.byte	0x90
 19119 0b2c 40       		.uleb128 0x40
 19120 0b2d 0D000000 		.4byte	.LVL293-1
 19121 0b31 28000000 		.4byte	.LVL294
 19122 0b35 0200     		.2byte	0x2
 19123 0b37 90       		.byte	0x90
 19124 0b38 50       		.uleb128 0x50
 19125 0b39 28000000 		.4byte	.LVL294
 19126 0b3d 4B000000 		.4byte	.LVL295-1
 19127 0b41 0500     		.2byte	0x5
 19128 0b43 03       		.byte	0x3
 19129 0b44 00000000 		.4byte	m_position_set
 19130 0b48 4B000000 		.4byte	.LVL295-1
 19131 0b4c 4C000000 		.4byte	.LVL295
 19132 0b50 0600     		.2byte	0x6
 19133 0b52 F3       		.byte	0xf3
 19134 0b53 03       		.uleb128 0x3
 19135 0b54 F5       		.byte	0xf5
 19136 0b55 40       		.uleb128 0x40
 19137 0b56 25       		.uleb128 0x25
 19138 0b57 9F       		.byte	0x9f
 19139 0b58 4C000000 		.4byte	.LVL295
 19140 0b5c 50000000 		.4byte	.LVL296
 19141 0b60 0200     		.2byte	0x2
 19142 0b62 90       		.byte	0x90
 19143 0b63 50       		.uleb128 0x50
 19144 0b64 50000000 		.4byte	.LVL296
 19145 0b68 52000000 		.4byte	.LVL297
 19146 0b6c 0600     		.2byte	0x6
 19147 0b6e F3       		.byte	0xf3
 19148 0b6f 03       		.uleb128 0x3
 19149 0b70 F5       		.byte	0xf5
 19150 0b71 40       		.uleb128 0x40
 19151 0b72 25       		.uleb128 0x25
 19152 0b73 9F       		.byte	0x9f
 19153 0b74 52000000 		.4byte	.LVL297
 19154 0b78 56000000 		.4byte	.LVL298
 19155 0b7c 0200     		.2byte	0x2
 19156 0b7e 90       		.byte	0x90
 19157 0b7f 50       		.uleb128 0x50
 19158 0b80 56000000 		.4byte	.LVL298
 19159 0b84 79000000 		.4byte	.LVL299-1
 19160 0b88 0500     		.2byte	0x5
 19161 0b8a 03       		.byte	0x3
 19162 0b8b 00000000 		.4byte	m_position_set
 19163 0b8f 79000000 		.4byte	.LVL299-1
 19164 0b93 84000000 		.4byte	.LFE270
 19165 0b97 0600     		.2byte	0x6
 19166 0b99 F3       		.byte	0xf3
 19167 0b9a 03       		.uleb128 0x3
 19168 0b9b F5       		.byte	0xf5
 19169 0b9c 40       		.uleb128 0x40
 19170 0b9d 25       		.uleb128 0x25
 19171 0b9e 9F       		.byte	0x9f
 19172 0b9f 00000000 		.4byte	0
 19173 0ba3 00000000 		.4byte	0
 19174              	.LLST54:
ARM GAS  C:\Users\CHRIST~1\AppData\Local\Temp\ccCFoZV9.s 			page 339


 19175 0ba7 00000000 		.4byte	.LVL284
 19176 0bab 0D000000 		.4byte	.LVL285-1
 19177 0baf 0200     		.2byte	0x2
 19178 0bb1 90       		.byte	0x90
 19179 0bb2 40       		.uleb128 0x40
 19180 0bb3 0D000000 		.4byte	.LVL285-1
 19181 0bb7 3A000000 		.4byte	.LVL286
 19182 0bbb 0200     		.2byte	0x2
 19183 0bbd 90       		.byte	0x90
 19184 0bbe 50       		.uleb128 0x50
 19185 0bbf 3A000000 		.4byte	.LVL286
 19186 0bc3 42000000 		.4byte	.LVL287
 19187 0bc7 0600     		.2byte	0x6
 19188 0bc9 F3       		.byte	0xf3
 19189 0bca 03       		.uleb128 0x3
 19190 0bcb F5       		.byte	0xf5
 19191 0bcc 40       		.uleb128 0x40
 19192 0bcd 25       		.uleb128 0x25
 19193 0bce 9F       		.byte	0x9f
 19194 0bcf 42000000 		.4byte	.LVL287
 19195 0bd3 46000000 		.4byte	.LVL288
 19196 0bd7 0200     		.2byte	0x2
 19197 0bd9 90       		.byte	0x90
 19198 0bda 50       		.uleb128 0x50
 19199 0bdb 46000000 		.4byte	.LVL288
 19200 0bdf 48000000 		.4byte	.LVL289
 19201 0be3 0600     		.2byte	0x6
 19202 0be5 F3       		.byte	0xf3
 19203 0be6 03       		.uleb128 0x3
 19204 0be7 F5       		.byte	0xf5
 19205 0be8 40       		.uleb128 0x40
 19206 0be9 25       		.uleb128 0x25
 19207 0bea 9F       		.byte	0x9f
 19208 0beb 48000000 		.4byte	.LVL289
 19209 0bef 64000000 		.4byte	.LVL290
 19210 0bf3 0200     		.2byte	0x2
 19211 0bf5 90       		.byte	0x90
 19212 0bf6 50       		.uleb128 0x50
 19213 0bf7 64000000 		.4byte	.LVL290
 19214 0bfb 70000000 		.4byte	.LFE269
 19215 0bff 0600     		.2byte	0x6
 19216 0c01 F3       		.byte	0xf3
 19217 0c02 03       		.uleb128 0x3
 19218 0c03 F5       		.byte	0xf5
 19219 0c04 40       		.uleb128 0x40
 19220 0c05 25       		.uleb128 0x25
 19221 0c06 9F       		.byte	0x9f
 19222 0c07 00000000 		.4byte	0
 19223 0c0b 00000000 		.4byte	0
 19224              	.LLST53:
 19225 0c0f 00000000 		.4byte	.LVL276
 19226 0c13 0D000000 		.4byte	.LVL277-1
 19227 0c17 0200     		.2byte	0x2
 19228 0c19 90       		.byte	0x90
 19229 0c1a 40       		.uleb128 0x40
 19230 0c1b 0D000000 		.4byte	.LVL277-1
 19231 0c1f 3A000000 		.4byte	.LVL278
ARM GAS  C:\Users\CHRIST~1\AppData\Local\Temp\ccCFoZV9.s 			page 340


 19232 0c23 0200     		.2byte	0x2
 19233 0c25 90       		.byte	0x90
 19234 0c26 50       		.uleb128 0x50
 19235 0c27 3A000000 		.4byte	.LVL278
 19236 0c2b 42000000 		.4byte	.LVL279
 19237 0c2f 0600     		.2byte	0x6
 19238 0c31 F3       		.byte	0xf3
 19239 0c32 03       		.uleb128 0x3
 19240 0c33 F5       		.byte	0xf5
 19241 0c34 40       		.uleb128 0x40
 19242 0c35 25       		.uleb128 0x25
 19243 0c36 9F       		.byte	0x9f
 19244 0c37 42000000 		.4byte	.LVL279
 19245 0c3b 46000000 		.4byte	.LVL280
 19246 0c3f 0200     		.2byte	0x2
 19247 0c41 90       		.byte	0x90
 19248 0c42 50       		.uleb128 0x50
 19249 0c43 46000000 		.4byte	.LVL280
 19250 0c47 48000000 		.4byte	.LVL281
 19251 0c4b 0600     		.2byte	0x6
 19252 0c4d F3       		.byte	0xf3
 19253 0c4e 03       		.uleb128 0x3
 19254 0c4f F5       		.byte	0xf5
 19255 0c50 40       		.uleb128 0x40
 19256 0c51 25       		.uleb128 0x25
 19257 0c52 9F       		.byte	0x9f
 19258 0c53 48000000 		.4byte	.LVL281
 19259 0c57 64000000 		.4byte	.LVL282
 19260 0c5b 0200     		.2byte	0x2
 19261 0c5d 90       		.byte	0x90
 19262 0c5e 50       		.uleb128 0x50
 19263 0c5f 64000000 		.4byte	.LVL282
 19264 0c63 70000000 		.4byte	.LFE268
 19265 0c67 0600     		.2byte	0x6
 19266 0c69 F3       		.byte	0xf3
 19267 0c6a 03       		.uleb128 0x3
 19268 0c6b F5       		.byte	0xf5
 19269 0c6c 40       		.uleb128 0x40
 19270 0c6d 25       		.uleb128 0x25
 19271 0c6e 9F       		.byte	0x9f
 19272 0c6f 00000000 		.4byte	0
 19273 0c73 00000000 		.4byte	0
 19274              	.LLST7:
 19275 0c77 00000000 		.4byte	.LVL40
 19276 0c7b 0A000000 		.4byte	.LVL41
 19277 0c7f 0100     		.2byte	0x1
 19278 0c81 50       		.byte	0x50
 19279 0c82 0A000000 		.4byte	.LVL41
 19280 0c86 18000000 		.4byte	.LFE265
 19281 0c8a 0400     		.2byte	0x4
 19282 0c8c F3       		.byte	0xf3
 19283 0c8d 01       		.uleb128 0x1
 19284 0c8e 50       		.byte	0x50
 19285 0c8f 9F       		.byte	0x9f
 19286 0c90 00000000 		.4byte	0
 19287 0c94 00000000 		.4byte	0
 19288              	.LLST39:
ARM GAS  C:\Users\CHRIST~1\AppData\Local\Temp\ccCFoZV9.s 			page 341


 19289 0c98 00000000 		.4byte	.LVL204
 19290 0c9c 15000000 		.4byte	.LVL205-1
 19291 0ca0 0100     		.2byte	0x1
 19292 0ca2 50       		.byte	0x50
 19293 0ca3 15000000 		.4byte	.LVL205-1
 19294 0ca7 5A000000 		.4byte	.LVL208
 19295 0cab 0100     		.2byte	0x1
 19296 0cad 54       		.byte	0x54
 19297 0cae 5A000000 		.4byte	.LVL208
 19298 0cb2 5E000000 		.4byte	.LVL209
 19299 0cb6 0400     		.2byte	0x4
 19300 0cb8 F3       		.byte	0xf3
 19301 0cb9 01       		.uleb128 0x1
 19302 0cba 50       		.byte	0x50
 19303 0cbb 9F       		.byte	0x9f
 19304 0cbc 5E000000 		.4byte	.LVL209
 19305 0cc0 66000000 		.4byte	.LVL211
 19306 0cc4 0100     		.2byte	0x1
 19307 0cc6 54       		.byte	0x54
 19308 0cc7 66000000 		.4byte	.LVL211
 19309 0ccb 6A000000 		.4byte	.LVL212
 19310 0ccf 0400     		.2byte	0x4
 19311 0cd1 F3       		.byte	0xf3
 19312 0cd2 01       		.uleb128 0x1
 19313 0cd3 50       		.byte	0x50
 19314 0cd4 9F       		.byte	0x9f
 19315 0cd5 6A000000 		.4byte	.LVL212
 19316 0cd9 D0000000 		.4byte	.LFE258
 19317 0cdd 0100     		.2byte	0x1
 19318 0cdf 54       		.byte	0x54
 19319 0ce0 00000000 		.4byte	0
 19320 0ce4 00000000 		.4byte	0
 19321              	.LLST6:
 19322 0ce8 00000000 		.4byte	.LVL27
 19323 0cec 12000000 		.4byte	.LVL28
 19324 0cf0 0100     		.2byte	0x1
 19325 0cf2 50       		.byte	0x50
 19326 0cf3 12000000 		.4byte	.LVL28
 19327 0cf7 15000000 		.4byte	.LVL29-1
 19328 0cfb 0100     		.2byte	0x1
 19329 0cfd 51       		.byte	0x51
 19330 0cfe 15000000 		.4byte	.LVL29-1
 19331 0d02 78010000 		.4byte	.LFE256
 19332 0d06 0400     		.2byte	0x4
 19333 0d08 F3       		.byte	0xf3
 19334 0d09 01       		.uleb128 0x1
 19335 0d0a 50       		.byte	0x50
 19336 0d0b 9F       		.byte	0x9f
 19337 0d0c 00000000 		.4byte	0
 19338 0d10 00000000 		.4byte	0
 19339              	.LLST15:
 19340 0d14 00000000 		.4byte	.LVL109
 19341 0d18 09000000 		.4byte	.LVL110-1
 19342 0d1c 0100     		.2byte	0x1
 19343 0d1e 50       		.byte	0x50
 19344 0d1f 09000000 		.4byte	.LVL110-1
 19345 0d23 44010000 		.4byte	.LFE315
ARM GAS  C:\Users\CHRIST~1\AppData\Local\Temp\ccCFoZV9.s 			page 342


 19346 0d27 0400     		.2byte	0x4
 19347 0d29 F3       		.byte	0xf3
 19348 0d2a 01       		.uleb128 0x1
 19349 0d2b 50       		.byte	0x50
 19350 0d2c 9F       		.byte	0x9f
 19351 0d2d 00000000 		.4byte	0
 19352 0d31 00000000 		.4byte	0
 19353              	.LLST16:
 19354 0d35 3E000000 		.4byte	.LVL124
 19355 0d39 20020000 		.4byte	.LVL160
 19356 0d3d 0200     		.2byte	0x2
 19357 0d3f 90       		.byte	0x90
 19358 0d40 50       		.uleb128 0x50
 19359 0d41 2C020000 		.4byte	.LVL161
 19360 0d45 B4040000 		.4byte	.LFE316
 19361 0d49 0200     		.2byte	0x2
 19362 0d4b 90       		.byte	0x90
 19363 0d4c 50       		.uleb128 0x50
 19364 0d4d 00000000 		.4byte	0
 19365 0d51 00000000 		.4byte	0
 19366              	.LLST17:
 19367 0d55 5A000000 		.4byte	.LVL126
 19368 0d59 5E000000 		.4byte	.LVL127
 19369 0d5d 0200     		.2byte	0x2
 19370 0d5f 90       		.byte	0x90
 19371 0d60 40       		.uleb128 0x40
 19372 0d61 5E000000 		.4byte	.LVL127
 19373 0d65 52010000 		.4byte	.LVL138
 19374 0d69 0200     		.2byte	0x2
 19375 0d6b 90       		.byte	0x90
 19376 0d6c 52       		.uleb128 0x52
 19377 0d6d 2C020000 		.4byte	.LVL161
 19378 0d71 68020000 		.4byte	.LVL165
 19379 0d75 0200     		.2byte	0x2
 19380 0d77 90       		.byte	0x90
 19381 0d78 52       		.uleb128 0x52
 19382 0d79 6A020000 		.4byte	.LVL166
 19383 0d7d EC030000 		.4byte	.LVL184
 19384 0d81 0200     		.2byte	0x2
 19385 0d83 90       		.byte	0x90
 19386 0d84 52       		.uleb128 0x52
 19387 0d85 10040000 		.4byte	.LVL190
 19388 0d89 24040000 		.4byte	.LVL192
 19389 0d8d 0200     		.2byte	0x2
 19390 0d8f 90       		.byte	0x90
 19391 0d90 52       		.uleb128 0x52
 19392 0d91 26040000 		.4byte	.LVL193
 19393 0d95 B4040000 		.4byte	.LFE316
 19394 0d99 0200     		.2byte	0x2
 19395 0d9b 90       		.byte	0x90
 19396 0d9c 52       		.uleb128 0x52
 19397 0d9d 00000000 		.4byte	0
 19398 0da1 00000000 		.4byte	0
 19399              	.LLST18:
 19400 0da5 DA000000 		.4byte	.LVL130
 19401 0da9 F6000000 		.4byte	.LVL132
 19402 0dad 0600     		.2byte	0x6
ARM GAS  C:\Users\CHRIST~1\AppData\Local\Temp\ccCFoZV9.s 			page 343


 19403 0daf 9E       		.byte	0x9e
 19404 0db0 04       		.uleb128 0x4
 19405 0db1 00000000 		.4byte	0
 19406 0db5 F6000000 		.4byte	.LVL132
 19407 0db9 66010000 		.4byte	.LVL140
 19408 0dbd 0200     		.2byte	0x2
 19409 0dbf 90       		.byte	0x90
 19410 0dc0 54       		.uleb128 0x54
 19411 0dc1 2C020000 		.4byte	.LVL161
 19412 0dc5 58020000 		.4byte	.LVL164
 19413 0dc9 0600     		.2byte	0x6
 19414 0dcb 9E       		.byte	0x9e
 19415 0dcc 04       		.uleb128 0x4
 19416 0dcd 00000000 		.4byte	0
 19417 0dd1 58020000 		.4byte	.LVL164
 19418 0dd5 A8020000 		.4byte	.LVL170
 19419 0dd9 0200     		.2byte	0x2
 19420 0ddb 90       		.byte	0x90
 19421 0ddc 54       		.uleb128 0x54
 19422 0ddd A8020000 		.4byte	.LVL170
 19423 0de1 F8020000 		.4byte	.LVL175
 19424 0de5 0600     		.2byte	0x6
 19425 0de7 9E       		.byte	0x9e
 19426 0de8 04       		.uleb128 0x4
 19427 0de9 00000000 		.4byte	0
 19428 0ded F8020000 		.4byte	.LVL175
 19429 0df1 EC030000 		.4byte	.LVL184
 19430 0df5 0200     		.2byte	0x2
 19431 0df7 90       		.byte	0x90
 19432 0df8 54       		.uleb128 0x54
 19433 0df9 10040000 		.4byte	.LVL190
 19434 0dfd 3C040000 		.4byte	.LVL196
 19435 0e01 0200     		.2byte	0x2
 19436 0e03 90       		.byte	0x90
 19437 0e04 54       		.uleb128 0x54
 19438 0e05 3C040000 		.4byte	.LVL196
 19439 0e09 5A040000 		.4byte	.LVL197
 19440 0e0d 0600     		.2byte	0x6
 19441 0e0f 9E       		.byte	0x9e
 19442 0e10 04       		.uleb128 0x4
 19443 0e11 00000000 		.4byte	0
 19444 0e15 5A040000 		.4byte	.LVL197
 19445 0e19 7C040000 		.4byte	.LVL200
 19446 0e1d 0200     		.2byte	0x2
 19447 0e1f 90       		.byte	0x90
 19448 0e20 54       		.uleb128 0x54
 19449 0e21 7C040000 		.4byte	.LVL200
 19450 0e25 8E040000 		.4byte	.LVL201
 19451 0e29 0600     		.2byte	0x6
 19452 0e2b 9E       		.byte	0x9e
 19453 0e2c 04       		.uleb128 0x4
 19454 0e2d 00000000 		.4byte	0
 19455 0e31 8E040000 		.4byte	.LVL201
 19456 0e35 B4040000 		.4byte	.LFE316
 19457 0e39 0200     		.2byte	0x2
 19458 0e3b 90       		.byte	0x90
 19459 0e3c 54       		.uleb128 0x54
ARM GAS  C:\Users\CHRIST~1\AppData\Local\Temp\ccCFoZV9.s 			page 344


 19460 0e3d 00000000 		.4byte	0
 19461 0e41 00000000 		.4byte	0
 19462              	.LLST19:
 19463 0e45 DA000000 		.4byte	.LVL130
 19464 0e49 F2000000 		.4byte	.LVL131
 19465 0e4d 0600     		.2byte	0x6
 19466 0e4f 9E       		.byte	0x9e
 19467 0e50 04       		.uleb128 0x4
 19468 0e51 00000000 		.4byte	0
 19469 0e55 F2000000 		.4byte	.LVL131
 19470 0e59 76010000 		.4byte	.LVL143
 19471 0e5d 0200     		.2byte	0x2
 19472 0e5f 90       		.byte	0x90
 19473 0e60 51       		.uleb128 0x51
 19474 0e61 2C020000 		.4byte	.LVL161
 19475 0e65 58020000 		.4byte	.LVL164
 19476 0e69 0600     		.2byte	0x6
 19477 0e6b 9E       		.byte	0x9e
 19478 0e6c 04       		.uleb128 0x4
 19479 0e6d 00000000 		.4byte	0
 19480 0e71 58020000 		.4byte	.LVL164
 19481 0e75 A8020000 		.4byte	.LVL170
 19482 0e79 0200     		.2byte	0x2
 19483 0e7b 90       		.byte	0x90
 19484 0e7c 51       		.uleb128 0x51
 19485 0e7d A8020000 		.4byte	.LVL170
 19486 0e81 2A030000 		.4byte	.LVL176
 19487 0e85 0600     		.2byte	0x6
 19488 0e87 9E       		.byte	0x9e
 19489 0e88 04       		.uleb128 0x4
 19490 0e89 00000000 		.4byte	0
 19491 0e8d 2A030000 		.4byte	.LVL176
 19492 0e91 EC030000 		.4byte	.LVL184
 19493 0e95 0200     		.2byte	0x2
 19494 0e97 90       		.byte	0x90
 19495 0e98 51       		.uleb128 0x51
 19496 0e99 10040000 		.4byte	.LVL190
 19497 0e9d 3C040000 		.4byte	.LVL196
 19498 0ea1 0200     		.2byte	0x2
 19499 0ea3 90       		.byte	0x90
 19500 0ea4 51       		.uleb128 0x51
 19501 0ea5 3C040000 		.4byte	.LVL196
 19502 0ea9 5C040000 		.4byte	.LVL198
 19503 0ead 0600     		.2byte	0x6
 19504 0eaf 9E       		.byte	0x9e
 19505 0eb0 04       		.uleb128 0x4
 19506 0eb1 00000000 		.4byte	0
 19507 0eb5 5C040000 		.4byte	.LVL198
 19508 0eb9 7C040000 		.4byte	.LVL200
 19509 0ebd 0200     		.2byte	0x2
 19510 0ebf 90       		.byte	0x90
 19511 0ec0 51       		.uleb128 0x51
 19512 0ec1 7C040000 		.4byte	.LVL200
 19513 0ec5 8E040000 		.4byte	.LVL201
 19514 0ec9 0600     		.2byte	0x6
 19515 0ecb 9E       		.byte	0x9e
 19516 0ecc 04       		.uleb128 0x4
ARM GAS  C:\Users\CHRIST~1\AppData\Local\Temp\ccCFoZV9.s 			page 345


 19517 0ecd 00000000 		.4byte	0
 19518 0ed1 8E040000 		.4byte	.LVL201
 19519 0ed5 A0040000 		.4byte	.LVL202
 19520 0ed9 0200     		.2byte	0x2
 19521 0edb 90       		.byte	0x90
 19522 0edc 51       		.uleb128 0x51
 19523 0edd A0040000 		.4byte	.LVL202
 19524 0ee1 A6040000 		.4byte	.LVL203
 19525 0ee5 0600     		.2byte	0x6
 19526 0ee7 9E       		.byte	0x9e
 19527 0ee8 04       		.uleb128 0x4
 19528 0ee9 00000000 		.4byte	0
 19529 0eed A6040000 		.4byte	.LVL203
 19530 0ef1 B4040000 		.4byte	.LFE316
 19531 0ef5 0200     		.2byte	0x2
 19532 0ef7 90       		.byte	0x90
 19533 0ef8 51       		.uleb128 0x51
 19534 0ef9 00000000 		.4byte	0
 19535 0efd 00000000 		.4byte	0
 19536              	.LLST20:
 19537 0f01 F6000000 		.4byte	.LVL132
 19538 0f05 12010000 		.4byte	.LVL134
 19539 0f09 0600     		.2byte	0x6
 19540 0f0b 9E       		.byte	0x9e
 19541 0f0c 04       		.uleb128 0x4
 19542 0f0d 00000000 		.4byte	0
 19543 0f11 12010000 		.4byte	.LVL134
 19544 0f15 2C020000 		.4byte	.LVL161
 19545 0f19 0200     		.2byte	0x2
 19546 0f1b 90       		.byte	0x90
 19547 0f1c 55       		.uleb128 0x55
 19548 0f1d 58020000 		.4byte	.LVL164
 19549 0f21 7C020000 		.4byte	.LVL167
 19550 0f25 0200     		.2byte	0x2
 19551 0f27 90       		.byte	0x90
 19552 0f28 55       		.uleb128 0x55
 19553 0f29 7C020000 		.4byte	.LVL167
 19554 0f2d A8020000 		.4byte	.LVL170
 19555 0f31 0600     		.2byte	0x6
 19556 0f33 9E       		.byte	0x9e
 19557 0f34 04       		.uleb128 0x4
 19558 0f35 00000000 		.4byte	0
 19559 0f39 2C030000 		.4byte	.LVL177
 19560 0f3d 7A030000 		.4byte	.LVL182
 19561 0f41 0600     		.2byte	0x6
 19562 0f43 9E       		.byte	0x9e
 19563 0f44 04       		.uleb128 0x4
 19564 0f45 00000000 		.4byte	0
 19565 0f49 7A030000 		.4byte	.LVL182
 19566 0f4d 3C040000 		.4byte	.LVL196
 19567 0f51 0200     		.2byte	0x2
 19568 0f53 90       		.byte	0x90
 19569 0f54 55       		.uleb128 0x55
 19570 0f55 5C040000 		.4byte	.LVL198
 19571 0f59 7A040000 		.4byte	.LVL199
 19572 0f5d 0600     		.2byte	0x6
 19573 0f5f 9E       		.byte	0x9e
ARM GAS  C:\Users\CHRIST~1\AppData\Local\Temp\ccCFoZV9.s 			page 346


 19574 0f60 04       		.uleb128 0x4
 19575 0f61 00000000 		.4byte	0
 19576 0f65 7A040000 		.4byte	.LVL199
 19577 0f69 7C040000 		.4byte	.LVL200
 19578 0f6d 0200     		.2byte	0x2
 19579 0f6f 90       		.byte	0x90
 19580 0f70 55       		.uleb128 0x55
 19581 0f71 8E040000 		.4byte	.LVL201
 19582 0f75 A0040000 		.4byte	.LVL202
 19583 0f79 0600     		.2byte	0x6
 19584 0f7b 9E       		.byte	0x9e
 19585 0f7c 04       		.uleb128 0x4
 19586 0f7d 00000000 		.4byte	0
 19587 0f81 A6040000 		.4byte	.LVL203
 19588 0f85 B4040000 		.4byte	.LFE316
 19589 0f89 0200     		.2byte	0x2
 19590 0f8b 90       		.byte	0x90
 19591 0f8c 55       		.uleb128 0x55
 19592 0f8d 00000000 		.4byte	0
 19593 0f91 00000000 		.4byte	0
 19594              	.LLST21:
 19595 0f95 F6000000 		.4byte	.LVL132
 19596 0f99 0E010000 		.4byte	.LVL133
 19597 0f9d 0600     		.2byte	0x6
 19598 0f9f 9E       		.byte	0x9e
 19599 0fa0 04       		.uleb128 0x4
 19600 0fa1 00000000 		.4byte	0
 19601 0fa5 0E010000 		.4byte	.LVL133
 19602 0fa9 2C020000 		.4byte	.LVL161
 19603 0fad 0200     		.2byte	0x2
 19604 0faf 90       		.byte	0x90
 19605 0fb0 53       		.uleb128 0x53
 19606 0fb1 58020000 		.4byte	.LVL164
 19607 0fb5 7C020000 		.4byte	.LVL167
 19608 0fb9 0200     		.2byte	0x2
 19609 0fbb 90       		.byte	0x90
 19610 0fbc 53       		.uleb128 0x53
 19611 0fbd 7C020000 		.4byte	.LVL167
 19612 0fc1 A8020000 		.4byte	.LVL170
 19613 0fc5 0600     		.2byte	0x6
 19614 0fc7 9E       		.byte	0x9e
 19615 0fc8 04       		.uleb128 0x4
 19616 0fc9 00000000 		.4byte	0
 19617 0fcd 2C030000 		.4byte	.LVL177
 19618 0fd1 AC030000 		.4byte	.LVL183
 19619 0fd5 0600     		.2byte	0x6
 19620 0fd7 9E       		.byte	0x9e
 19621 0fd8 04       		.uleb128 0x4
 19622 0fd9 00000000 		.4byte	0
 19623 0fdd AC030000 		.4byte	.LVL183
 19624 0fe1 3C040000 		.4byte	.LVL196
 19625 0fe5 0200     		.2byte	0x2
 19626 0fe7 90       		.byte	0x90
 19627 0fe8 53       		.uleb128 0x53
 19628 0fe9 5C040000 		.4byte	.LVL198
 19629 0fed 7C040000 		.4byte	.LVL200
 19630 0ff1 0600     		.2byte	0x6
ARM GAS  C:\Users\CHRIST~1\AppData\Local\Temp\ccCFoZV9.s 			page 347


 19631 0ff3 9E       		.byte	0x9e
 19632 0ff4 04       		.uleb128 0x4
 19633 0ff5 00000000 		.4byte	0
 19634 0ff9 8E040000 		.4byte	.LVL201
 19635 0ffd A0040000 		.4byte	.LVL202
 19636 1001 0600     		.2byte	0x6
 19637 1003 9E       		.byte	0x9e
 19638 1004 04       		.uleb128 0x4
 19639 1005 00000000 		.4byte	0
 19640 1009 A6040000 		.4byte	.LVL203
 19641 100d B4040000 		.4byte	.LFE316
 19642 1011 0600     		.2byte	0x6
 19643 1013 9E       		.byte	0x9e
 19644 1014 04       		.uleb128 0x4
 19645 1015 00000000 		.4byte	0
 19646 1019 00000000 		.4byte	0
 19647 101d 00000000 		.4byte	0
 19648              	.LLST22:
 19649 1021 12010000 		.4byte	.LVL134
 19650 1025 32010000 		.4byte	.LVL136
 19651 1029 0600     		.2byte	0x6
 19652 102b 9E       		.byte	0x9e
 19653 102c 04       		.uleb128 0x4
 19654 102d 00000000 		.4byte	0
 19655 1031 32010000 		.4byte	.LVL136
 19656 1035 20020000 		.4byte	.LVL160
 19657 1039 0200     		.2byte	0x2
 19658 103b 90       		.byte	0x90
 19659 103c 56       		.uleb128 0x56
 19660 103d 58020000 		.4byte	.LVL164
 19661 1041 6A020000 		.4byte	.LVL166
 19662 1045 0200     		.2byte	0x2
 19663 1047 90       		.byte	0x90
 19664 1048 56       		.uleb128 0x56
 19665 1049 6A020000 		.4byte	.LVL166
 19666 104d 7C020000 		.4byte	.LVL167
 19667 1051 0600     		.2byte	0x6
 19668 1053 9E       		.byte	0x9e
 19669 1054 04       		.uleb128 0x4
 19670 1055 00000000 		.4byte	0
 19671 1059 EC030000 		.4byte	.LVL184
 19672 105d 26040000 		.4byte	.LVL193
 19673 1061 0200     		.2byte	0x2
 19674 1063 90       		.byte	0x90
 19675 1064 56       		.uleb128 0x56
 19676 1065 26040000 		.4byte	.LVL193
 19677 1069 3A040000 		.4byte	.LVL195
 19678 106d 0600     		.2byte	0x6
 19679 106f 9E       		.byte	0x9e
 19680 1070 04       		.uleb128 0x4
 19681 1071 00000000 		.4byte	0
 19682 1075 3A040000 		.4byte	.LVL195
 19683 1079 3C040000 		.4byte	.LVL196
 19684 107d 0200     		.2byte	0x2
 19685 107f 90       		.byte	0x90
 19686 1080 40       		.uleb128 0x40
 19687 1081 00000000 		.4byte	0
ARM GAS  C:\Users\CHRIST~1\AppData\Local\Temp\ccCFoZV9.s 			page 348


 19688 1085 00000000 		.4byte	0
 19689              	.LLST23:
 19690 1089 22010000 		.4byte	.LVL135
 19691 108d 32010000 		.4byte	.LVL136
 19692 1091 0200     		.2byte	0x2
 19693 1093 90       		.byte	0x90
 19694 1094 41       		.uleb128 0x41
 19695 1095 6A020000 		.4byte	.LVL166
 19696 1099 7C020000 		.4byte	.LVL167
 19697 109d 0200     		.2byte	0x2
 19698 109f 90       		.byte	0x90
 19699 10a0 41       		.uleb128 0x41
 19700 10a1 26040000 		.4byte	.LVL193
 19701 10a5 35040000 		.4byte	.LVL194-1
 19702 10a9 0200     		.2byte	0x2
 19703 10ab 90       		.byte	0x90
 19704 10ac 41       		.uleb128 0x41
 19705 10ad 00000000 		.4byte	0
 19706 10b1 00000000 		.4byte	0
 19707              	.LLST24:
 19708 10b5 22010000 		.4byte	.LVL135
 19709 10b9 32010000 		.4byte	.LVL136
 19710 10bd 0200     		.2byte	0x2
 19711 10bf 90       		.byte	0x90
 19712 10c0 42       		.uleb128 0x42
 19713 10c1 6A020000 		.4byte	.LVL166
 19714 10c5 7C020000 		.4byte	.LVL167
 19715 10c9 0200     		.2byte	0x2
 19716 10cb 90       		.byte	0x90
 19717 10cc 42       		.uleb128 0x42
 19718 10cd 26040000 		.4byte	.LVL193
 19719 10d1 35040000 		.4byte	.LVL194-1
 19720 10d5 0200     		.2byte	0x2
 19721 10d7 90       		.byte	0x90
 19722 10d8 42       		.uleb128 0x42
 19723 10d9 00000000 		.4byte	0
 19724 10dd 00000000 		.4byte	0
 19725              	.LLST25:
 19726 10e1 32010000 		.4byte	.LVL136
 19727 10e5 52010000 		.4byte	.LVL138
 19728 10e9 0600     		.2byte	0x6
 19729 10eb 9E       		.byte	0x9e
 19730 10ec 04       		.uleb128 0x4
 19731 10ed 00000000 		.4byte	0
 19732 10f1 52010000 		.4byte	.LVL138
 19733 10f5 20020000 		.4byte	.LVL160
 19734 10f9 0200     		.2byte	0x2
 19735 10fb 90       		.byte	0x90
 19736 10fc 52       		.uleb128 0x52
 19737 10fd 58020000 		.4byte	.LVL164
 19738 1101 6A020000 		.4byte	.LVL166
 19739 1105 0600     		.2byte	0x6
 19740 1107 9E       		.byte	0x9e
 19741 1108 04       		.uleb128 0x4
 19742 1109 00000000 		.4byte	0
 19743 110d EC030000 		.4byte	.LVL184
 19744 1111 10040000 		.4byte	.LVL190
ARM GAS  C:\Users\CHRIST~1\AppData\Local\Temp\ccCFoZV9.s 			page 349


 19745 1115 0200     		.2byte	0x2
 19746 1117 90       		.byte	0x90
 19747 1118 52       		.uleb128 0x52
 19748 1119 10040000 		.4byte	.LVL190
 19749 111d 24040000 		.4byte	.LVL192
 19750 1121 0600     		.2byte	0x6
 19751 1123 9E       		.byte	0x9e
 19752 1124 04       		.uleb128 0x4
 19753 1125 00000000 		.4byte	0
 19754 1129 24040000 		.4byte	.LVL192
 19755 112d 26040000 		.4byte	.LVL193
 19756 1131 0200     		.2byte	0x2
 19757 1133 90       		.byte	0x90
 19758 1134 40       		.uleb128 0x40
 19759 1135 00000000 		.4byte	0
 19760 1139 00000000 		.4byte	0
 19761              	.LLST26:
 19762 113d 42010000 		.4byte	.LVL137
 19763 1141 52010000 		.4byte	.LVL138
 19764 1145 0200     		.2byte	0x2
 19765 1147 90       		.byte	0x90
 19766 1148 41       		.uleb128 0x41
 19767 1149 58020000 		.4byte	.LVL164
 19768 114d 6A020000 		.4byte	.LVL166
 19769 1151 0200     		.2byte	0x2
 19770 1153 90       		.byte	0x90
 19771 1154 41       		.uleb128 0x41
 19772 1155 10040000 		.4byte	.LVL190
 19773 1159 1F040000 		.4byte	.LVL191-1
 19774 115d 0200     		.2byte	0x2
 19775 115f 90       		.byte	0x90
 19776 1160 41       		.uleb128 0x41
 19777 1161 00000000 		.4byte	0
 19778 1165 00000000 		.4byte	0
 19779              	.LLST27:
 19780 1169 42010000 		.4byte	.LVL137
 19781 116d 52010000 		.4byte	.LVL138
 19782 1171 0200     		.2byte	0x2
 19783 1173 90       		.byte	0x90
 19784 1174 42       		.uleb128 0x42
 19785 1175 58020000 		.4byte	.LVL164
 19786 1179 6A020000 		.4byte	.LVL166
 19787 117d 0200     		.2byte	0x2
 19788 117f 90       		.byte	0x90
 19789 1180 42       		.uleb128 0x42
 19790 1181 10040000 		.4byte	.LVL190
 19791 1185 1F040000 		.4byte	.LVL191-1
 19792 1189 0200     		.2byte	0x2
 19793 118b 90       		.byte	0x90
 19794 118c 42       		.uleb128 0x42
 19795 118d 00000000 		.4byte	0
 19796 1191 00000000 		.4byte	0
 19797              	.LLST28:
 19798 1195 66010000 		.4byte	.LVL140
 19799 1199 6A010000 		.4byte	.LVL141
 19800 119d 0200     		.2byte	0x2
 19801 119f 90       		.byte	0x90
ARM GAS  C:\Users\CHRIST~1\AppData\Local\Temp\ccCFoZV9.s 			page 350


 19802 11a0 40       		.uleb128 0x40
 19803 11a1 6A010000 		.4byte	.LVL141
 19804 11a5 7E010000 		.4byte	.LVL145
 19805 11a9 0200     		.2byte	0x2
 19806 11ab 90       		.byte	0x90
 19807 11ac 54       		.uleb128 0x54
 19808 11ad 7E010000 		.4byte	.LVL145
 19809 11b1 85010000 		.4byte	.LVL146-1
 19810 11b5 0200     		.2byte	0x2
 19811 11b7 90       		.byte	0x90
 19812 11b8 40       		.uleb128 0x40
 19813 11b9 86010000 		.4byte	.LVL146
 19814 11bd E0010000 		.4byte	.LVL151
 19815 11c1 0200     		.2byte	0x2
 19816 11c3 90       		.byte	0x90
 19817 11c4 40       		.uleb128 0x40
 19818 11c5 EC030000 		.4byte	.LVL184
 19819 11c9 00040000 		.4byte	.LVL185
 19820 11cd 0200     		.2byte	0x2
 19821 11cf 90       		.byte	0x90
 19822 11d0 40       		.uleb128 0x40
 19823 11d1 0A040000 		.4byte	.LVL188
 19824 11d5 10040000 		.4byte	.LVL190
 19825 11d9 0200     		.2byte	0x2
 19826 11db 90       		.byte	0x90
 19827 11dc 40       		.uleb128 0x40
 19828 11dd 00000000 		.4byte	0
 19829 11e1 00000000 		.4byte	0
 19830              	.LLST29:
 19831 11e5 76010000 		.4byte	.LVL143
 19832 11e9 7A010000 		.4byte	.LVL144
 19833 11ed 0200     		.2byte	0x2
 19834 11ef 90       		.byte	0x90
 19835 11f0 40       		.uleb128 0x40
 19836 11f1 7A010000 		.4byte	.LVL144
 19837 11f5 AE010000 		.4byte	.LVL148
 19838 11f9 0200     		.2byte	0x2
 19839 11fb 90       		.byte	0x90
 19840 11fc 51       		.uleb128 0x51
 19841 11fd B8010000 		.4byte	.LVL149
 19842 1201 EC010000 		.4byte	.LVL153
 19843 1205 0200     		.2byte	0x2
 19844 1207 90       		.byte	0x90
 19845 1208 51       		.uleb128 0x51
 19846 1209 EC030000 		.4byte	.LVL184
 19847 120d 10040000 		.4byte	.LVL190
 19848 1211 0200     		.2byte	0x2
 19849 1213 90       		.byte	0x90
 19850 1214 51       		.uleb128 0x51
 19851 1215 00000000 		.4byte	0
 19852 1219 00000000 		.4byte	0
 19853              	.LLST30:
 19854 121d BC010000 		.4byte	.LVL150
 19855 1221 E0010000 		.4byte	.LVL151
 19856 1225 0600     		.2byte	0x6
 19857 1227 9E       		.byte	0x9e
 19858 1228 04       		.uleb128 0x4
ARM GAS  C:\Users\CHRIST~1\AppData\Local\Temp\ccCFoZV9.s 			page 351


 19859 1229 00000000 		.4byte	0
 19860 122d E0010000 		.4byte	.LVL151
 19861 1231 F3010000 		.4byte	.LVL155-1
 19862 1235 0200     		.2byte	0x2
 19863 1237 90       		.byte	0x90
 19864 1238 41       		.uleb128 0x41
 19865 1239 EC030000 		.4byte	.LVL184
 19866 123d 08040000 		.4byte	.LVL187
 19867 1241 0600     		.2byte	0x6
 19868 1243 9E       		.byte	0x9e
 19869 1244 04       		.uleb128 0x4
 19870 1245 00000000 		.4byte	0
 19871 1249 08040000 		.4byte	.LVL187
 19872 124d 0A040000 		.4byte	.LVL188
 19873 1251 0200     		.2byte	0x2
 19874 1253 90       		.byte	0x90
 19875 1254 40       		.uleb128 0x40
 19876 1255 0A040000 		.4byte	.LVL188
 19877 1259 0E040000 		.4byte	.LVL189
 19878 125d 0600     		.2byte	0x6
 19879 125f 9E       		.byte	0x9e
 19880 1260 04       		.uleb128 0x4
 19881 1261 00000000 		.4byte	0
 19882 1265 0E040000 		.4byte	.LVL189
 19883 1269 10040000 		.4byte	.LVL190
 19884 126d 0200     		.2byte	0x2
 19885 126f 90       		.byte	0x90
 19886 1270 41       		.uleb128 0x41
 19887 1271 00000000 		.4byte	0
 19888 1275 00000000 		.4byte	0
 19889              	.LLST31:
 19890 1279 E4010000 		.4byte	.LVL152
 19891 127d F0010000 		.4byte	.LVL154
 19892 1281 0800     		.2byte	0x8
 19893 1283 F5       		.byte	0xf5
 19894 1284 40       		.uleb128 0x40
 19895 1285 25       		.uleb128 0x25
 19896 1286 F5       		.byte	0xf5
 19897 1287 50       		.uleb128 0x50
 19898 1288 25       		.uleb128 0x25
 19899 1289 1B       		.byte	0x1b
 19900 128a 9F       		.byte	0x9f
 19901 128b F0010000 		.4byte	.LVL154
 19902 128f F3010000 		.4byte	.LVL155-1
 19903 1293 0200     		.2byte	0x2
 19904 1295 90       		.byte	0x90
 19905 1296 40       		.uleb128 0x40
 19906 1297 00000000 		.4byte	0
 19907 129b 00000000 		.4byte	0
 19908              	.LLST32:
 19909 129f EC010000 		.4byte	.LVL153
 19910 12a3 2C020000 		.4byte	.LVL161
 19911 12a7 0200     		.2byte	0x2
 19912 12a9 90       		.byte	0x90
 19913 12aa 51       		.uleb128 0x51
 19914 12ab 00000000 		.4byte	0
 19915 12af 00000000 		.4byte	0
ARM GAS  C:\Users\CHRIST~1\AppData\Local\Temp\ccCFoZV9.s 			page 352


 19916              	.LLST33:
 19917 12b3 F4010000 		.4byte	.LVL155
 19918 12b7 00020000 		.4byte	.LVL156
 19919 12bb 0200     		.2byte	0x2
 19920 12bd 90       		.byte	0x90
 19921 12be 40       		.uleb128 0x40
 19922 12bf 00020000 		.4byte	.LVL156
 19923 12c3 03020000 		.4byte	.LVL157-1
 19924 12c7 0200     		.2byte	0x2
 19925 12c9 90       		.byte	0x90
 19926 12ca 41       		.uleb128 0x41
 19927 12cb 00000000 		.4byte	0
 19928 12cf 00000000 		.4byte	0
 19929              	.LLST34:
 19930 12d3 F4010000 		.4byte	.LVL155
 19931 12d7 2C020000 		.4byte	.LVL161
 19932 12db 0200     		.2byte	0x2
 19933 12dd 90       		.byte	0x90
 19934 12de 51       		.uleb128 0x51
 19935 12df 00000000 		.4byte	0
 19936 12e3 00000000 		.4byte	0
 19937              	.LLST35:
 19938 12e7 3E020000 		.4byte	.LVL162
 19939 12eb 58020000 		.4byte	.LVL164
 19940 12ef 0200     		.2byte	0x2
 19941 12f1 35       		.byte	0x35
 19942 12f2 9F       		.byte	0x9f
 19943 12f3 7C040000 		.4byte	.LVL200
 19944 12f7 8E040000 		.4byte	.LVL201
 19945 12fb 0200     		.2byte	0x2
 19946 12fd 35       		.byte	0x35
 19947 12fe 9F       		.byte	0x9f
 19948 12ff 00000000 		.4byte	0
 19949 1303 00000000 		.4byte	0
 19950              	.LLST36:
 19951 1307 8E020000 		.4byte	.LVL168
 19952 130b A8020000 		.4byte	.LVL170
 19953 130f 0200     		.2byte	0x2
 19954 1311 36       		.byte	0x36
 19955 1312 9F       		.byte	0x9f
 19956 1313 8E040000 		.4byte	.LVL201
 19957 1317 A0040000 		.4byte	.LVL202
 19958 131b 0200     		.2byte	0x2
 19959 131d 36       		.byte	0x36
 19960 131e 9F       		.byte	0x9f
 19961 131f 00000000 		.4byte	0
 19962 1323 00000000 		.4byte	0
 19963              	.LLST37:
 19964 1327 B8020000 		.4byte	.LVL171
 19965 132b CA020000 		.4byte	.LVL172
 19966 132f 0200     		.2byte	0x2
 19967 1331 90       		.byte	0x90
 19968 1332 43       		.uleb128 0x43
 19969 1333 DC020000 		.4byte	.LVL173
 19970 1337 DF020000 		.4byte	.LVL174-1
 19971 133b 0200     		.2byte	0x2
 19972 133d 90       		.byte	0x90
ARM GAS  C:\Users\CHRIST~1\AppData\Local\Temp\ccCFoZV9.s 			page 353


 19973 133e 43       		.uleb128 0x43
 19974 133f E0020000 		.4byte	.LVL174
 19975 1343 2C030000 		.4byte	.LVL177
 19976 1347 0200     		.2byte	0x2
 19977 1349 90       		.byte	0x90
 19978 134a 40       		.uleb128 0x40
 19979 134b 3C040000 		.4byte	.LVL196
 19980 134f 5C040000 		.4byte	.LVL198
 19981 1353 0200     		.2byte	0x2
 19982 1355 90       		.byte	0x90
 19983 1356 40       		.uleb128 0x40
 19984 1357 A0040000 		.4byte	.LVL202
 19985 135b A6040000 		.4byte	.LVL203
 19986 135f 0200     		.2byte	0x2
 19987 1361 90       		.byte	0x90
 19988 1362 40       		.uleb128 0x40
 19989 1363 00000000 		.4byte	0
 19990 1367 00000000 		.4byte	0
 19991              	.LLST38:
 19992 136b 3C030000 		.4byte	.LVL178
 19993 136f 4E030000 		.4byte	.LVL179
 19994 1373 0200     		.2byte	0x2
 19995 1375 90       		.byte	0x90
 19996 1376 43       		.uleb128 0x43
 19997 1377 60030000 		.4byte	.LVL180
 19998 137b 63030000 		.4byte	.LVL181-1
 19999 137f 0200     		.2byte	0x2
 20000 1381 90       		.byte	0x90
 20001 1382 43       		.uleb128 0x43
 20002 1383 64030000 		.4byte	.LVL181
 20003 1387 EC030000 		.4byte	.LVL184
 20004 138b 0200     		.2byte	0x2
 20005 138d 90       		.byte	0x90
 20006 138e 40       		.uleb128 0x40
 20007 138f 5C040000 		.4byte	.LVL198
 20008 1393 7C040000 		.4byte	.LVL200
 20009 1397 0200     		.2byte	0x2
 20010 1399 90       		.byte	0x90
 20011 139a 40       		.uleb128 0x40
 20012 139b A6040000 		.4byte	.LVL203
 20013 139f B4040000 		.4byte	.LFE316
 20014 13a3 0200     		.2byte	0x2
 20015 13a5 90       		.byte	0x90
 20016 13a6 40       		.uleb128 0x40
 20017 13a7 00000000 		.4byte	0
 20018 13ab 00000000 		.4byte	0
 20019              	.LLST51:
 20020 13af 00000000 		.4byte	.LVL267
 20021 13b3 0D000000 		.4byte	.LVL268-1
 20022 13b7 0200     		.2byte	0x2
 20023 13b9 90       		.byte	0x90
 20024 13ba 40       		.uleb128 0x40
 20025 13bb 0D000000 		.4byte	.LVL268-1
 20026 13bf 3A000000 		.4byte	.LVL269
 20027 13c3 0200     		.2byte	0x2
 20028 13c5 90       		.byte	0x90
 20029 13c6 50       		.uleb128 0x50
ARM GAS  C:\Users\CHRIST~1\AppData\Local\Temp\ccCFoZV9.s 			page 354


 20030 13c7 3A000000 		.4byte	.LVL269
 20031 13cb 42000000 		.4byte	.LVL270
 20032 13cf 0600     		.2byte	0x6
 20033 13d1 F3       		.byte	0xf3
 20034 13d2 03       		.uleb128 0x3
 20035 13d3 F5       		.byte	0xf5
 20036 13d4 40       		.uleb128 0x40
 20037 13d5 25       		.uleb128 0x25
 20038 13d6 9F       		.byte	0x9f
 20039 13d7 42000000 		.4byte	.LVL270
 20040 13db 46000000 		.4byte	.LVL271
 20041 13df 0200     		.2byte	0x2
 20042 13e1 90       		.byte	0x90
 20043 13e2 50       		.uleb128 0x50
 20044 13e3 46000000 		.4byte	.LVL271
 20045 13e7 48000000 		.4byte	.LVL272
 20046 13eb 0600     		.2byte	0x6
 20047 13ed F3       		.byte	0xf3
 20048 13ee 03       		.uleb128 0x3
 20049 13ef F5       		.byte	0xf5
 20050 13f0 40       		.uleb128 0x40
 20051 13f1 25       		.uleb128 0x25
 20052 13f2 9F       		.byte	0x9f
 20053 13f3 48000000 		.4byte	.LVL272
 20054 13f7 64000000 		.4byte	.LVL273
 20055 13fb 0200     		.2byte	0x2
 20056 13fd 90       		.byte	0x90
 20057 13fe 50       		.uleb128 0x50
 20058 13ff 64000000 		.4byte	.LVL273
 20059 1403 70000000 		.4byte	.LFE267
 20060 1407 0600     		.2byte	0x6
 20061 1409 F3       		.byte	0xf3
 20062 140a 03       		.uleb128 0x3
 20063 140b F5       		.byte	0xf5
 20064 140c 40       		.uleb128 0x40
 20065 140d 25       		.uleb128 0x25
 20066 140e 9F       		.byte	0x9f
 20067 140f 00000000 		.4byte	0
 20068 1413 00000000 		.4byte	0
 20069              	.LLST52:
 20070 1417 48000000 		.4byte	.LVL272
 20071 141b 64000000 		.4byte	.LVL273
 20072 141f 0200     		.2byte	0x2
 20073 1421 90       		.byte	0x90
 20074 1422 50       		.uleb128 0x50
 20075 1423 64000000 		.4byte	.LVL273
 20076 1427 70000000 		.4byte	.LFE267
 20077 142b 0600     		.2byte	0x6
 20078 142d F3       		.byte	0xf3
 20079 142e 03       		.uleb128 0x3
 20080 142f F5       		.byte	0xf5
 20081 1430 40       		.uleb128 0x40
 20082 1431 25       		.uleb128 0x25
 20083 1432 9F       		.byte	0x9f
 20084 1433 00000000 		.4byte	0
 20085 1437 00000000 		.4byte	0
 20086              	.LLST56:
ARM GAS  C:\Users\CHRIST~1\AppData\Local\Temp\ccCFoZV9.s 			page 355


 20087 143b 00000000 		.4byte	.LVL300
 20088 143f 0D000000 		.4byte	.LVL301-1
 20089 1443 0200     		.2byte	0x2
 20090 1445 90       		.byte	0x90
 20091 1446 40       		.uleb128 0x40
 20092 1447 0D000000 		.4byte	.LVL301-1
 20093 144b 3A000000 		.4byte	.LVL302
 20094 144f 0200     		.2byte	0x2
 20095 1451 90       		.byte	0x90
 20096 1452 50       		.uleb128 0x50
 20097 1453 3A000000 		.4byte	.LVL302
 20098 1457 42000000 		.4byte	.LVL303
 20099 145b 0600     		.2byte	0x6
 20100 145d F3       		.byte	0xf3
 20101 145e 03       		.uleb128 0x3
 20102 145f F5       		.byte	0xf5
 20103 1460 40       		.uleb128 0x40
 20104 1461 25       		.uleb128 0x25
 20105 1462 9F       		.byte	0x9f
 20106 1463 42000000 		.4byte	.LVL303
 20107 1467 46000000 		.4byte	.LVL304
 20108 146b 0200     		.2byte	0x2
 20109 146d 90       		.byte	0x90
 20110 146e 50       		.uleb128 0x50
 20111 146f 46000000 		.4byte	.LVL304
 20112 1473 48000000 		.4byte	.LVL305
 20113 1477 0600     		.2byte	0x6
 20114 1479 F3       		.byte	0xf3
 20115 147a 03       		.uleb128 0x3
 20116 147b F5       		.byte	0xf5
 20117 147c 40       		.uleb128 0x40
 20118 147d 25       		.uleb128 0x25
 20119 147e 9F       		.byte	0x9f
 20120 147f 48000000 		.4byte	.LVL305
 20121 1483 64000000 		.4byte	.LVL306
 20122 1487 0200     		.2byte	0x2
 20123 1489 90       		.byte	0x90
 20124 148a 50       		.uleb128 0x50
 20125 148b 64000000 		.4byte	.LVL306
 20126 148f 70000000 		.4byte	.LFE271
 20127 1493 0600     		.2byte	0x6
 20128 1495 F3       		.byte	0xf3
 20129 1496 03       		.uleb128 0x3
 20130 1497 F5       		.byte	0xf5
 20131 1498 40       		.uleb128 0x40
 20132 1499 25       		.uleb128 0x25
 20133 149a 9F       		.byte	0x9f
 20134 149b 00000000 		.4byte	0
 20135 149f 00000000 		.4byte	0
 20136              	.LLST57:
 20137 14a3 48000000 		.4byte	.LVL305
 20138 14a7 64000000 		.4byte	.LVL306
 20139 14ab 0200     		.2byte	0x2
 20140 14ad 90       		.byte	0x90
 20141 14ae 50       		.uleb128 0x50
 20142 14af 64000000 		.4byte	.LVL306
 20143 14b3 70000000 		.4byte	.LFE271
ARM GAS  C:\Users\CHRIST~1\AppData\Local\Temp\ccCFoZV9.s 			page 356


 20144 14b7 0600     		.2byte	0x6
 20145 14b9 F3       		.byte	0xf3
 20146 14ba 03       		.uleb128 0x3
 20147 14bb F5       		.byte	0xf5
 20148 14bc 40       		.uleb128 0x40
 20149 14bd 25       		.uleb128 0x25
 20150 14be 9F       		.byte	0x9f
 20151 14bf 00000000 		.4byte	0
 20152 14c3 00000000 		.4byte	0
 20153              	.LLST59:
 20154 14c7 00000000 		.4byte	.LVL314
 20155 14cb 0D000000 		.4byte	.LVL315-1
 20156 14cf 0200     		.2byte	0x2
 20157 14d1 90       		.byte	0x90
 20158 14d2 40       		.uleb128 0x40
 20159 14d3 0D000000 		.4byte	.LVL315-1
 20160 14d7 3A000000 		.4byte	.LVL316
 20161 14db 0200     		.2byte	0x2
 20162 14dd 90       		.byte	0x90
 20163 14de 50       		.uleb128 0x50
 20164 14df 3A000000 		.4byte	.LVL316
 20165 14e3 42000000 		.4byte	.LVL317
 20166 14e7 0600     		.2byte	0x6
 20167 14e9 F3       		.byte	0xf3
 20168 14ea 03       		.uleb128 0x3
 20169 14eb F5       		.byte	0xf5
 20170 14ec 40       		.uleb128 0x40
 20171 14ed 25       		.uleb128 0x25
 20172 14ee 9F       		.byte	0x9f
 20173 14ef 42000000 		.4byte	.LVL317
 20174 14f3 46000000 		.4byte	.LVL318
 20175 14f7 0200     		.2byte	0x2
 20176 14f9 90       		.byte	0x90
 20177 14fa 50       		.uleb128 0x50
 20178 14fb 46000000 		.4byte	.LVL318
 20179 14ff 48000000 		.4byte	.LVL319
 20180 1503 0600     		.2byte	0x6
 20181 1505 F3       		.byte	0xf3
 20182 1506 03       		.uleb128 0x3
 20183 1507 F5       		.byte	0xf5
 20184 1508 40       		.uleb128 0x40
 20185 1509 25       		.uleb128 0x25
 20186 150a 9F       		.byte	0x9f
 20187 150b 48000000 		.4byte	.LVL319
 20188 150f 64000000 		.4byte	.LVL320
 20189 1513 0200     		.2byte	0x2
 20190 1515 90       		.byte	0x90
 20191 1516 50       		.uleb128 0x50
 20192 1517 64000000 		.4byte	.LVL320
 20193 151b 70000000 		.4byte	.LFE272
 20194 151f 0600     		.2byte	0x6
 20195 1521 F3       		.byte	0xf3
 20196 1522 03       		.uleb128 0x3
 20197 1523 F5       		.byte	0xf5
 20198 1524 40       		.uleb128 0x40
 20199 1525 25       		.uleb128 0x25
 20200 1526 9F       		.byte	0x9f
ARM GAS  C:\Users\CHRIST~1\AppData\Local\Temp\ccCFoZV9.s 			page 357


 20201 1527 00000000 		.4byte	0
 20202 152b 00000000 		.4byte	0
 20203              	.LLST60:
 20204 152f 48000000 		.4byte	.LVL319
 20205 1533 64000000 		.4byte	.LVL320
 20206 1537 0200     		.2byte	0x2
 20207 1539 90       		.byte	0x90
 20208 153a 50       		.uleb128 0x50
 20209 153b 64000000 		.4byte	.LVL320
 20210 153f 70000000 		.4byte	.LFE272
 20211 1543 0600     		.2byte	0x6
 20212 1545 F3       		.byte	0xf3
 20213 1546 03       		.uleb128 0x3
 20214 1547 F5       		.byte	0xf5
 20215 1548 40       		.uleb128 0x40
 20216 1549 25       		.uleb128 0x25
 20217 154a 9F       		.byte	0x9f
 20218 154b 00000000 		.4byte	0
 20219 154f 00000000 		.4byte	0
 20220              	.LLST63:
 20221 1553 00000000 		.4byte	.LVL333
 20222 1557 0B000000 		.4byte	.LVL334-1
 20223 155b 0100     		.2byte	0x1
 20224 155d 50       		.byte	0x50
 20225 155e 0B000000 		.4byte	.LVL334-1
 20226 1562 0C000000 		.4byte	.LVL334
 20227 1566 0400     		.2byte	0x4
 20228 1568 F3       		.byte	0xf3
 20229 1569 01       		.uleb128 0x1
 20230 156a 50       		.byte	0x50
 20231 156b 9F       		.byte	0x9f
 20232 156c 0C000000 		.4byte	.LVL334
 20233 1570 24000000 		.4byte	.LFE306
 20234 1574 0100     		.2byte	0x1
 20235 1576 50       		.byte	0x50
 20236 1577 00000000 		.4byte	0
 20237 157b 00000000 		.4byte	0
 20238              		.section	.debug_aranges,"",%progbits
 20239 0000 DC010000 		.4byte	0x1dc
 20240 0004 0200     		.2byte	0x2
 20241 0006 00000000 		.4byte	.Ldebug_info0
 20242 000a 04       		.byte	0x4
 20243 000b 00       		.byte	0
 20244 000c 0000     		.2byte	0
 20245 000e 0000     		.2byte	0
 20246 0010 00000000 		.4byte	.LFB311
 20247 0014 44020000 		.4byte	.LFE311-.LFB311
 20248 0018 00000000 		.4byte	.LFB256
 20249 001c 78010000 		.4byte	.LFE256-.LFB256
 20250 0020 00000000 		.4byte	.LFB257
 20251 0024 08000000 		.4byte	.LFE257-.LFB257
 20252 0028 00000000 		.4byte	.LFB259
 20253 002c 20000000 		.4byte	.LFE259-.LFB259
 20254 0030 00000000 		.4byte	.LFB260
 20255 0034 0C000000 		.4byte	.LFE260-.LFB260
 20256 0038 00000000 		.4byte	.LFB261
 20257 003c 0C000000 		.4byte	.LFE261-.LFB261
ARM GAS  C:\Users\CHRIST~1\AppData\Local\Temp\ccCFoZV9.s 			page 358


 20258 0040 00000000 		.4byte	.LFB262
 20259 0044 0C000000 		.4byte	.LFE262-.LFB262
 20260 0048 00000000 		.4byte	.LFB263
 20261 004c 0C000000 		.4byte	.LFE263-.LFB263
 20262 0050 00000000 		.4byte	.LFB264
 20263 0054 0C000000 		.4byte	.LFE264-.LFB264
 20264 0058 00000000 		.4byte	.LFB265
 20265 005c 18000000 		.4byte	.LFE265-.LFB265
 20266 0060 00000000 		.4byte	.LFB266
 20267 0064 20000000 		.4byte	.LFE266-.LFB266
 20268 0068 00000000 		.4byte	.LFB278
 20269 006c 44000000 		.4byte	.LFE278-.LFB278
 20270 0070 00000000 		.4byte	.LFB279
 20271 0074 44000000 		.4byte	.LFE279-.LFB279
 20272 0078 00000000 		.4byte	.LFB280
 20273 007c 24000000 		.4byte	.LFE280-.LFB280
 20274 0080 00000000 		.4byte	.LFB281
 20275 0084 44000000 		.4byte	.LFE281-.LFB281
 20276 0088 00000000 		.4byte	.LFB282
 20277 008c 20000000 		.4byte	.LFE282-.LFB282
 20278 0090 00000000 		.4byte	.LFB283
 20279 0094 20000000 		.4byte	.LFE283-.LFB283
 20280 0098 00000000 		.4byte	.LFB284
 20281 009c 20000000 		.4byte	.LFE284-.LFB284
 20282 00a0 00000000 		.4byte	.LFB285
 20283 00a4 20000000 		.4byte	.LFE285-.LFB285
 20284 00a8 00000000 		.4byte	.LFB286
 20285 00ac 24000000 		.4byte	.LFE286-.LFB286
 20286 00b0 00000000 		.4byte	.LFB287
 20287 00b4 24000000 		.4byte	.LFE287-.LFB287
 20288 00b8 00000000 		.4byte	.LFB288
 20289 00bc 44000000 		.4byte	.LFE288-.LFB288
 20290 00c0 00000000 		.4byte	.LFB289
 20291 00c4 44000000 		.4byte	.LFE289-.LFB289
 20292 00c8 00000000 		.4byte	.LFB290
 20293 00cc 24000000 		.4byte	.LFE290-.LFB290
 20294 00d0 00000000 		.4byte	.LFB291
 20295 00d4 24000000 		.4byte	.LFE291-.LFB291
 20296 00d8 00000000 		.4byte	.LFB292
 20297 00dc 5C000000 		.4byte	.LFE292-.LFB292
 20298 00e0 00000000 		.4byte	.LFB315
 20299 00e4 44010000 		.4byte	.LFE315-.LFB315
 20300 00e8 00000000 		.4byte	.LFB316
 20301 00ec B4040000 		.4byte	.LFE316-.LFB316
 20302 00f0 00000000 		.4byte	.LFB258
 20303 00f4 D0000000 		.4byte	.LFE258-.LFB258
 20304 00f8 00000000 		.4byte	.LFB310
 20305 00fc 48000000 		.4byte	.LFE310-.LFB310
 20306 0100 00000000 		.4byte	.LFB293
 20307 0104 20000000 		.4byte	.LFE293-.LFB293
 20308 0108 00000000 		.4byte	.LFB294
 20309 010c 24000000 		.4byte	.LFE294-.LFB294
 20310 0110 00000000 		.4byte	.LFB295
 20311 0114 20000000 		.4byte	.LFE295-.LFB295
 20312 0118 00000000 		.4byte	.LFB296
 20313 011c 20000000 		.4byte	.LFE296-.LFB296
 20314 0120 00000000 		.4byte	.LFB297
ARM GAS  C:\Users\CHRIST~1\AppData\Local\Temp\ccCFoZV9.s 			page 359


 20315 0124 40000000 		.4byte	.LFE297-.LFB297
 20316 0128 00000000 		.4byte	.LFB298
 20317 012c 40000000 		.4byte	.LFE298-.LFB298
 20318 0130 00000000 		.4byte	.LFB299
 20319 0134 0C000000 		.4byte	.LFE299-.LFB299
 20320 0138 00000000 		.4byte	.LFB300
 20321 013c 44000000 		.4byte	.LFE300-.LFB300
 20322 0140 00000000 		.4byte	.LFB301
 20323 0144 0C000000 		.4byte	.LFE301-.LFB301
 20324 0148 00000000 		.4byte	.LFB302
 20325 014c 50000000 		.4byte	.LFE302-.LFB302
 20326 0150 00000000 		.4byte	.LFB303
 20327 0154 0C000000 		.4byte	.LFE303-.LFB303
 20328 0158 00000000 		.4byte	.LFB304
 20329 015c 0C000000 		.4byte	.LFE304-.LFB304
 20330 0160 00000000 		.4byte	.LFB305
 20331 0164 74000000 		.4byte	.LFE305-.LFB305
 20332 0168 00000000 		.4byte	.LFB267
 20333 016c 70000000 		.4byte	.LFE267-.LFB267
 20334 0170 00000000 		.4byte	.LFB276
 20335 0174 0C000000 		.4byte	.LFE276-.LFB276
 20336 0178 00000000 		.4byte	.LFB268
 20337 017c 70000000 		.4byte	.LFE268-.LFB268
 20338 0180 00000000 		.4byte	.LFB269
 20339 0184 70000000 		.4byte	.LFE269-.LFB269
 20340 0188 00000000 		.4byte	.LFB270
 20341 018c 84000000 		.4byte	.LFE270-.LFB270
 20342 0190 00000000 		.4byte	.LFB271
 20343 0194 70000000 		.4byte	.LFE271-.LFB271
 20344 0198 00000000 		.4byte	.LFB273
 20345 019c 2C000000 		.4byte	.LFE273-.LFB273
 20346 01a0 00000000 		.4byte	.LFB277
 20347 01a4 0C000000 		.4byte	.LFE277-.LFB277
 20348 01a8 00000000 		.4byte	.LFB272
 20349 01ac 70000000 		.4byte	.LFE272-.LFB272
 20350 01b0 00000000 		.4byte	.LFB274
 20351 01b4 14000000 		.4byte	.LFE274-.LFB274
 20352 01b8 00000000 		.4byte	.LFB275
 20353 01bc 48000000 		.4byte	.LFE275-.LFB275
 20354 01c0 00000000 		.4byte	.LFB306
 20355 01c4 24000000 		.4byte	.LFE306-.LFB306
 20356 01c8 00000000 		.4byte	.LFB307
 20357 01cc 3C070000 		.4byte	.LFE307-.LFB307
 20358 01d0 00000000 		.4byte	.LFB308
 20359 01d4 14000000 		.4byte	.LFE308-.LFB308
 20360 01d8 00000000 		.4byte	0
 20361 01dc 00000000 		.4byte	0
 20362              		.section	.debug_ranges,"",%progbits
 20363              	.Ldebug_ranges0:
 20364 0000 04000000 		.4byte	.LBB109
 20365 0004 06000000 		.4byte	.LBE109
 20366 0008 08000000 		.4byte	.LBB113
 20367 000c 16000000 		.4byte	.LBE113
 20368 0010 2E000000 		.4byte	.LBB125
 20369 0014 30000000 		.4byte	.LBE125
 20370 0018 00000000 		.4byte	0
 20371 001c 00000000 		.4byte	0
ARM GAS  C:\Users\CHRIST~1\AppData\Local\Temp\ccCFoZV9.s 			page 360


 20372 0020 1A000000 		.4byte	.LBB114
 20373 0024 2E000000 		.4byte	.LBE114
 20374 0028 34000000 		.4byte	.LBB126
 20375 002c 44020000 		.4byte	.LBE126
 20376 0030 00000000 		.4byte	0
 20377 0034 00000000 		.4byte	0
 20378 0038 1A000000 		.4byte	.LBB115
 20379 003c 2E000000 		.4byte	.LBE115
 20380 0040 60000000 		.4byte	.LBB121
 20381 0044 64000000 		.4byte	.LBE121
 20382 0048 68000000 		.4byte	.LBB122
 20383 004c E0010000 		.4byte	.LBE122
 20384 0050 E6010000 		.4byte	.LBB123
 20385 0054 EA010000 		.4byte	.LBE123
 20386 0058 F0010000 		.4byte	.LBB124
 20387 005c 44020000 		.4byte	.LBE124
 20388 0060 00000000 		.4byte	0
 20389 0064 00000000 		.4byte	0
 20390 0068 1A000000 		.4byte	.LBB116
 20391 006c 2E000000 		.4byte	.LBE116
 20392 0070 60000000 		.4byte	.LBB117
 20393 0074 64000000 		.4byte	.LBE117
 20394 0078 68000000 		.4byte	.LBB118
 20395 007c D6000000 		.4byte	.LBE118
 20396 0080 D8000000 		.4byte	.LBB119
 20397 0084 C0010000 		.4byte	.LBE119
 20398 0088 C6010000 		.4byte	.LBB120
 20399 008c E0010000 		.4byte	.LBE120
 20400 0090 00000000 		.4byte	0
 20401 0094 00000000 		.4byte	0
 20402 0098 3E020000 		.4byte	.LBB128
 20403 009c 48020000 		.4byte	.LBE128
 20404 00a0 4C020000 		.4byte	.LBB134
 20405 00a4 4E020000 		.4byte	.LBE134
 20406 00a8 52020000 		.4byte	.LBB135
 20407 00ac 58020000 		.4byte	.LBE135
 20408 00b0 7C040000 		.4byte	.LBB150
 20409 00b4 7E040000 		.4byte	.LBE150
 20410 00b8 82040000 		.4byte	.LBB151
 20411 00bc 88040000 		.4byte	.LBE151
 20412 00c0 00000000 		.4byte	0
 20413 00c4 00000000 		.4byte	0
 20414 00c8 8E020000 		.4byte	.LBB136
 20415 00cc 98020000 		.4byte	.LBE136
 20416 00d0 9C020000 		.4byte	.LBB142
 20417 00d4 9E020000 		.4byte	.LBE142
 20418 00d8 A2020000 		.4byte	.LBB143
 20419 00dc A8020000 		.4byte	.LBE143
 20420 00e0 8E040000 		.4byte	.LBB152
 20421 00e4 90040000 		.4byte	.LBE152
 20422 00e8 94040000 		.4byte	.LBB153
 20423 00ec 9A040000 		.4byte	.LBE153
 20424 00f0 00000000 		.4byte	0
 20425 00f4 00000000 		.4byte	0
 20426 00f8 A8020000 		.4byte	.LBB144
 20427 00fc F4020000 		.4byte	.LBE144
 20428 0100 F8020000 		.4byte	.LBB145
ARM GAS  C:\Users\CHRIST~1\AppData\Local\Temp\ccCFoZV9.s 			page 361


 20429 0104 2C030000 		.4byte	.LBE145
 20430 0108 3C040000 		.4byte	.LBB148
 20431 010c 5C040000 		.4byte	.LBE148
 20432 0110 00000000 		.4byte	0
 20433 0114 00000000 		.4byte	0
 20434 0118 2C030000 		.4byte	.LBB146
 20435 011c 76030000 		.4byte	.LBE146
 20436 0120 7A030000 		.4byte	.LBB147
 20437 0124 EC030000 		.4byte	.LBE147
 20438 0128 5C040000 		.4byte	.LBB149
 20439 012c 7C040000 		.4byte	.LBE149
 20440 0130 00000000 		.4byte	0
 20441 0134 00000000 		.4byte	0
 20442 0138 00000000 		.4byte	.LBB154
 20443 013c 08000000 		.4byte	.LBE154
 20444 0140 10000000 		.4byte	.LBB157
 20445 0144 14000000 		.4byte	.LBE157
 20446 0148 00000000 		.4byte	0
 20447 014c 00000000 		.4byte	0
 20448 0150 48000000 		.4byte	.LBB160
 20449 0154 60000000 		.4byte	.LBE160
 20450 0158 68000000 		.4byte	.LBB163
 20451 015c 70000000 		.4byte	.LBE163
 20452 0160 00000000 		.4byte	0
 20453 0164 00000000 		.4byte	0
 20454 0168 48000000 		.4byte	.LBB166
 20455 016c 60000000 		.4byte	.LBE166
 20456 0170 68000000 		.4byte	.LBB169
 20457 0174 70000000 		.4byte	.LBE169
 20458 0178 00000000 		.4byte	0
 20459 017c 00000000 		.4byte	0
 20460 0180 48000000 		.4byte	.LBB172
 20461 0184 60000000 		.4byte	.LBE172
 20462 0188 68000000 		.4byte	.LBB175
 20463 018c 70000000 		.4byte	.LBE175
 20464 0190 00000000 		.4byte	0
 20465 0194 00000000 		.4byte	0
 20466 0198 2E010000 		.4byte	.LBB176
 20467 019c 38010000 		.4byte	.LBE176
 20468 01a0 C8030000 		.4byte	.LBB193
 20469 01a4 D4030000 		.4byte	.LBE193
 20470 01a8 D4040000 		.4byte	.LBB239
 20471 01ac DC040000 		.4byte	.LBE239
 20472 01b0 00000000 		.4byte	0
 20473 01b4 00000000 		.4byte	0
 20474 01b8 46010000 		.4byte	.LBB182
 20475 01bc 58010000 		.4byte	.LBE182
 20476 01c0 E6040000 		.4byte	.LBB240
 20477 01c4 EE040000 		.4byte	.LBE240
 20478 01c8 00000000 		.4byte	0
 20479 01cc 00000000 		.4byte	0
 20480 01d0 72010000 		.4byte	.LBB185
 20481 01d4 D2010000 		.4byte	.LBE185
 20482 01d8 12050000 		.4byte	.LBB244
 20483 01dc 30050000 		.4byte	.LBE244
 20484 01e0 00000000 		.4byte	0
 20485 01e4 00000000 		.4byte	0
ARM GAS  C:\Users\CHRIST~1\AppData\Local\Temp\ccCFoZV9.s 			page 362


 20486 01e8 FC010000 		.4byte	.LBB186
 20487 01ec 0C030000 		.4byte	.LBE186
 20488 01f0 82050000 		.4byte	.LBB247
 20489 01f4 72060000 		.4byte	.LBE247
 20490 01f8 00000000 		.4byte	0
 20491 01fc 00000000 		.4byte	0
 20492 0200 0C020000 		.4byte	.LBB187
 20493 0204 0C030000 		.4byte	.LBE187
 20494 0208 82050000 		.4byte	.LBB192
 20495 020c 72060000 		.4byte	.LBE192
 20496 0210 00000000 		.4byte	0
 20497 0214 00000000 		.4byte	0
 20498 0218 02030000 		.4byte	.LBB188
 20499 021c 04030000 		.4byte	.LBE188
 20500 0220 08030000 		.4byte	.LBB191
 20501 0224 0A030000 		.4byte	.LBE191
 20502 0228 00000000 		.4byte	0
 20503 022c 00000000 		.4byte	0
 20504 0230 D8030000 		.4byte	.LBB194
 20505 0234 DA030000 		.4byte	.LBE194
 20506 0238 E2030000 		.4byte	.LBB199
 20507 023c E4030000 		.4byte	.LBE199
 20508 0240 EA030000 		.4byte	.LBB200
 20509 0244 F2030000 		.4byte	.LBE200
 20510 0248 EE040000 		.4byte	.LBB241
 20511 024c F8040000 		.4byte	.LBE241
 20512 0250 00000000 		.4byte	0
 20513 0254 00000000 		.4byte	0
 20514 0258 0E040000 		.4byte	.LBB201
 20515 025c 38040000 		.4byte	.LBE201
 20516 0260 66040000 		.4byte	.LBB223
 20517 0264 7A040000 		.4byte	.LBE223
 20518 0268 FE040000 		.4byte	.LBB243
 20519 026c 04050000 		.4byte	.LBE243
 20520 0270 30050000 		.4byte	.LBB245
 20521 0274 5E050000 		.4byte	.LBE245
 20522 0278 A8060000 		.4byte	.LBB264
 20523 027c C0060000 		.4byte	.LBE264
 20524 0280 C6060000 		.4byte	.LBB266
 20525 0284 CC060000 		.4byte	.LBE266
 20526 0288 00000000 		.4byte	0
 20527 028c 00000000 		.4byte	0
 20528 0290 38040000 		.4byte	.LBB212
 20529 0294 66040000 		.4byte	.LBE212
 20530 0298 F8040000 		.4byte	.LBB242
 20531 029c FE040000 		.4byte	.LBE242
 20532 02a0 5E050000 		.4byte	.LBB246
 20533 02a4 82050000 		.4byte	.LBE246
 20534 02a8 90060000 		.4byte	.LBB263
 20535 02ac A8060000 		.4byte	.LBE263
 20536 02b0 C0060000 		.4byte	.LBB265
 20537 02b4 C6060000 		.4byte	.LBE265
 20538 02b8 00000000 		.4byte	0
 20539 02bc 00000000 		.4byte	0
 20540 02c0 B2040000 		.4byte	.LBB224
 20541 02c4 B4040000 		.4byte	.LBE224
 20542 02c8 B8040000 		.4byte	.LBB233
ARM GAS  C:\Users\CHRIST~1\AppData\Local\Temp\ccCFoZV9.s 			page 363


 20543 02cc BC040000 		.4byte	.LBE233
 20544 02d0 00000000 		.4byte	0
 20545 02d4 00000000 		.4byte	0
 20546 02d8 7A060000 		.4byte	.LBB248
 20547 02dc 7C060000 		.4byte	.LBE248
 20548 02e0 7E060000 		.4byte	.LBB257
 20549 02e4 82060000 		.4byte	.LBE257
 20550 02e8 00000000 		.4byte	0
 20551 02ec 00000000 		.4byte	0
 20552 02f0 00000000 		.4byte	.LFB311
 20553 02f4 44020000 		.4byte	.LFE311
 20554 02f8 00000000 		.4byte	.LFB256
 20555 02fc 78010000 		.4byte	.LFE256
 20556 0300 00000000 		.4byte	.LFB257
 20557 0304 08000000 		.4byte	.LFE257
 20558 0308 00000000 		.4byte	.LFB259
 20559 030c 20000000 		.4byte	.LFE259
 20560 0310 00000000 		.4byte	.LFB260
 20561 0314 0C000000 		.4byte	.LFE260
 20562 0318 00000000 		.4byte	.LFB261
 20563 031c 0C000000 		.4byte	.LFE261
 20564 0320 00000000 		.4byte	.LFB262
 20565 0324 0C000000 		.4byte	.LFE262
 20566 0328 00000000 		.4byte	.LFB263
 20567 032c 0C000000 		.4byte	.LFE263
 20568 0330 00000000 		.4byte	.LFB264
 20569 0334 0C000000 		.4byte	.LFE264
 20570 0338 00000000 		.4byte	.LFB265
 20571 033c 18000000 		.4byte	.LFE265
 20572 0340 00000000 		.4byte	.LFB266
 20573 0344 20000000 		.4byte	.LFE266
 20574 0348 00000000 		.4byte	.LFB278
 20575 034c 44000000 		.4byte	.LFE278
 20576 0350 00000000 		.4byte	.LFB279
 20577 0354 44000000 		.4byte	.LFE279
 20578 0358 00000000 		.4byte	.LFB280
 20579 035c 24000000 		.4byte	.LFE280
 20580 0360 00000000 		.4byte	.LFB281
 20581 0364 44000000 		.4byte	.LFE281
 20582 0368 00000000 		.4byte	.LFB282
 20583 036c 20000000 		.4byte	.LFE282
 20584 0370 00000000 		.4byte	.LFB283
 20585 0374 20000000 		.4byte	.LFE283
 20586 0378 00000000 		.4byte	.LFB284
 20587 037c 20000000 		.4byte	.LFE284
 20588 0380 00000000 		.4byte	.LFB285
 20589 0384 20000000 		.4byte	.LFE285
 20590 0388 00000000 		.4byte	.LFB286
 20591 038c 24000000 		.4byte	.LFE286
 20592 0390 00000000 		.4byte	.LFB287
 20593 0394 24000000 		.4byte	.LFE287
 20594 0398 00000000 		.4byte	.LFB288
 20595 039c 44000000 		.4byte	.LFE288
 20596 03a0 00000000 		.4byte	.LFB289
 20597 03a4 44000000 		.4byte	.LFE289
 20598 03a8 00000000 		.4byte	.LFB290
 20599 03ac 24000000 		.4byte	.LFE290
ARM GAS  C:\Users\CHRIST~1\AppData\Local\Temp\ccCFoZV9.s 			page 364


 20600 03b0 00000000 		.4byte	.LFB291
 20601 03b4 24000000 		.4byte	.LFE291
 20602 03b8 00000000 		.4byte	.LFB292
 20603 03bc 5C000000 		.4byte	.LFE292
 20604 03c0 00000000 		.4byte	.LFB315
 20605 03c4 44010000 		.4byte	.LFE315
 20606 03c8 00000000 		.4byte	.LFB316
 20607 03cc B4040000 		.4byte	.LFE316
 20608 03d0 00000000 		.4byte	.LFB258
 20609 03d4 D0000000 		.4byte	.LFE258
 20610 03d8 00000000 		.4byte	.LFB310
 20611 03dc 48000000 		.4byte	.LFE310
 20612 03e0 00000000 		.4byte	.LFB293
 20613 03e4 20000000 		.4byte	.LFE293
 20614 03e8 00000000 		.4byte	.LFB294
 20615 03ec 24000000 		.4byte	.LFE294
 20616 03f0 00000000 		.4byte	.LFB295
 20617 03f4 20000000 		.4byte	.LFE295
 20618 03f8 00000000 		.4byte	.LFB296
 20619 03fc 20000000 		.4byte	.LFE296
 20620 0400 00000000 		.4byte	.LFB297
 20621 0404 40000000 		.4byte	.LFE297
 20622 0408 00000000 		.4byte	.LFB298
 20623 040c 40000000 		.4byte	.LFE298
 20624 0410 00000000 		.4byte	.LFB299
 20625 0414 0C000000 		.4byte	.LFE299
 20626 0418 00000000 		.4byte	.LFB300
 20627 041c 44000000 		.4byte	.LFE300
 20628 0420 00000000 		.4byte	.LFB301
 20629 0424 0C000000 		.4byte	.LFE301
 20630 0428 00000000 		.4byte	.LFB302
 20631 042c 50000000 		.4byte	.LFE302
 20632 0430 00000000 		.4byte	.LFB303
 20633 0434 0C000000 		.4byte	.LFE303
 20634 0438 00000000 		.4byte	.LFB304
 20635 043c 0C000000 		.4byte	.LFE304
 20636 0440 00000000 		.4byte	.LFB305
 20637 0444 74000000 		.4byte	.LFE305
 20638 0448 00000000 		.4byte	.LFB267
 20639 044c 70000000 		.4byte	.LFE267
 20640 0450 00000000 		.4byte	.LFB276
 20641 0454 0C000000 		.4byte	.LFE276
 20642 0458 00000000 		.4byte	.LFB268
 20643 045c 70000000 		.4byte	.LFE268
 20644 0460 00000000 		.4byte	.LFB269
 20645 0464 70000000 		.4byte	.LFE269
 20646 0468 00000000 		.4byte	.LFB270
 20647 046c 84000000 		.4byte	.LFE270
 20648 0470 00000000 		.4byte	.LFB271
 20649 0474 70000000 		.4byte	.LFE271
 20650 0478 00000000 		.4byte	.LFB273
 20651 047c 2C000000 		.4byte	.LFE273
 20652 0480 00000000 		.4byte	.LFB277
 20653 0484 0C000000 		.4byte	.LFE277
 20654 0488 00000000 		.4byte	.LFB272
 20655 048c 70000000 		.4byte	.LFE272
 20656 0490 00000000 		.4byte	.LFB274
ARM GAS  C:\Users\CHRIST~1\AppData\Local\Temp\ccCFoZV9.s 			page 365


 20657 0494 14000000 		.4byte	.LFE274
 20658 0498 00000000 		.4byte	.LFB275
 20659 049c 48000000 		.4byte	.LFE275
 20660 04a0 00000000 		.4byte	.LFB306
 20661 04a4 24000000 		.4byte	.LFE306
 20662 04a8 00000000 		.4byte	.LFB307
 20663 04ac 3C070000 		.4byte	.LFE307
 20664 04b0 00000000 		.4byte	.LFB308
 20665 04b4 14000000 		.4byte	.LFE308
 20666 04b8 00000000 		.4byte	0
 20667 04bc 00000000 		.4byte	0
 20668              		.section	.debug_line,"",%progbits
 20669              	.Ldebug_line0:
 20670 0000 C30F0000 		.section	.debug_str,"MS",%progbits,1
 20670      02005406 
 20670      00000201 
 20670      FB0E0D00 
 20670      01010101 
 20671              	.LASF598:
 20672 0000 5553425F 		.ascii	"USB_STOP\000"
 20672      53544F50 
 20672      00
 20673              	.LASF150:
 20674 0009 706F7274 		.ascii	"port_intctx\000"
 20674      5F696E74 
 20674      63747800 
 20675              	.LASF274:
 20676 0015 6C5F6D61 		.ascii	"l_max_erpm_fbrake\000"
 20676      785F6572 
 20676      706D5F66 
 20676      6272616B 
 20676      6500
 20677              	.LASF172:
 20678 0027 63685F70 		.ascii	"ch_ptrsize\000"
 20678      74727369 
 20678      7A6500
 20679              	.LASF270:
 20680 0032 6C5F6162 		.ascii	"l_abs_current_max\000"
 20680      735F6375 
 20680      7272656E 
 20680      745F6D61 
 20680      7800
 20681              	.LASF832:
 20682 0044 5F6D6272 		.ascii	"_mbrtowc_state\000"
 20682      746F7763 
 20682      5F737461 
 20682      746500
 20683              	.LASF457:
 20684 0053 43414E5F 		.ascii	"CAN_STARTING\000"
 20684      53544152 
 20684      54494E47 
 20684      00
 20685              	.LASF868:
 20686 0060 6D5F706F 		.ascii	"m_position_set\000"
 20686      73697469 
 20686      6F6E5F73 
 20686      657400
ARM GAS  C:\Users\CHRIST~1\AppData\Local\Temp\ccCFoZV9.s 			page 366


 20687              	.LASF1059:
 20688 006f 656E636F 		.ascii	"encoder_deinit\000"
 20688      6465725F 
 20688      6465696E 
 20688      697400
 20689              	.LASF1036:
 20690 007e 6D637077 		.ascii	"mcpwm_get_tot_current_filtered\000"
 20690      6D5F6765 
 20690      745F746F 
 20690      745F6375 
 20690      7272656E 
 20691              	.LASF31:
 20692 009d 6D73675F 		.ascii	"msg_t\000"
 20692      7400
 20693              	.LASF483:
 20694 00a3 4F504D4F 		.ascii	"OPMODE_SMBUS_DEVICE\000"
 20694      44455F53 
 20694      4D425553 
 20694      5F444556 
 20694      49434500 
 20695              	.LASF995:
 20696 00b7 706F7274 		.ascii	"port_unlock_from_isr\000"
 20696      5F756E6C 
 20696      6F636B5F 
 20696      66726F6D 
 20696      5F697372 
 20697              	.LASF551:
 20698 00cc 55415254 		.ascii	"UART_TX_IDLE\000"
 20698      5F54585F 
 20698      49444C45 
 20698      00
 20699              	.LASF388:
 20700 00d9 434F4D4D 		.ascii	"COMM_DETECT_HALL_FOC\000"
 20700      5F444554 
 20700      4543545F 
 20700      48414C4C 
 20700      5F464F43 
 20701              	.LASF315:
 20702 00ee 666F635F 		.ascii	"foc_observer_gain_slow\000"
 20702      6F627365 
 20702      72766572 
 20702      5F676169 
 20702      6E5F736C 
 20703              	.LASF1001:
 20704 0105 62756666 		.ascii	"buffer_append_float32_auto\000"
 20704      65725F61 
 20704      7070656E 
 20704      645F666C 
 20704      6F617433 
 20705              	.LASF657:
 20706 0120 44494550 		.ascii	"DIEPTXF0\000"
 20706      54584630 
 20706      00
 20707              	.LASF733:
 20708 0129 55534244 		.ascii	"USBD1\000"
 20708      3100
 20709              	.LASF456:
ARM GAS  C:\Users\CHRIST~1\AppData\Local\Temp\ccCFoZV9.s 			page 367


 20710 012f 43414E5F 		.ascii	"CAN_STOP\000"
 20710      53544F50 
 20710      00
 20711              	.LASF185:
 20712 0138 63665F6F 		.ascii	"cf_off_time\000"
 20712      66665F74 
 20712      696D6500 
 20713              	.LASF84:
 20714 0144 63685F73 		.ascii	"ch_system_t\000"
 20714      79737465 
 20714      6D5F7400 
 20715              	.LASF3:
 20716 0150 5F5F7569 		.ascii	"__uint8_t\000"
 20716      6E74385F 
 20716      7400
 20717              	.LASF157:
 20718 015a 77747365 		.ascii	"wtsemp\000"
 20718      6D7000
 20719              	.LASF358:
 20720 0161 5F426F6F 		.ascii	"_Bool\000"
 20720      6C00
 20721              	.LASF501:
 20722 0167 646D6172 		.ascii	"dmarx\000"
 20722      7800
 20723              	.LASF786:
 20724 016d 5F6D6273 		.ascii	"_mbstate\000"
 20724      74617465 
 20724      00
 20725              	.LASF765:
 20726 0176 5F617465 		.ascii	"_atexit\000"
 20726      78697400 
 20727              	.LASF986:
 20728 017e 6D635F69 		.ascii	"mc_interface_dccal_done\000"
 20728      6E746572 
 20728      66616365 
 20728      5F646363 
 20728      616C5F64 
 20729              	.LASF676:
 20730 0196 72657376 		.ascii	"resvd700\000"
 20730      64373030 
 20730      00
 20731              	.LASF924:
 20732 019f 6162735F 		.ascii	"abs_current_filtered\000"
 20732      63757272 
 20732      656E745F 
 20732      66696C74 
 20732      65726564 
 20733              	.LASF687:
 20734 01b4 44564255 		.ascii	"DVBUSDIS\000"
 20734      53444953 
 20734      00
 20735              	.LASF495:
 20736 01bd 6572726F 		.ascii	"errors\000"
 20736      727300
 20737              	.LASF541:
 20738 01c4 73706963 		.ascii	"spicallback_t\000"
 20738      616C6C62 
ARM GAS  C:\Users\CHRIST~1\AppData\Local\Temp\ccCFoZV9.s 			page 368


 20738      61636B5F 
 20738      7400
 20739              	.LASF80:
 20740 01d2 76745F73 		.ascii	"vt_systime\000"
 20740      79737469 
 20740      6D6500
 20741              	.LASF353:
 20742 01dd 6D5F6472 		.ascii	"m_drv8301_oc_adj\000"
 20742      76383330 
 20742      315F6F63 
 20742      5F61646A 
 20742      00
 20743              	.LASF596:
 20744 01ee 75736265 		.ascii	"usbep_t\000"
 20744      705F7400 
 20745              	.LASF755:
 20746 01f6 5F5F746D 		.ascii	"__tm_mon\000"
 20746      5F6D6F6E 
 20746      00
 20747              	.LASF763:
 20748 01ff 5F666E74 		.ascii	"_fntypes\000"
 20748      79706573 
 20748      00
 20749              	.LASF166:
 20750 0208 6D5F6E65 		.ascii	"m_next\000"
 20750      787400
 20751              	.LASF445:
 20752 020f 50434461 		.ascii	"PCData\000"
 20752      746100
 20753              	.LASF900:
 20754 0216 6C6F5F6D 		.ascii	"lo_min_mos\000"
 20754      696E5F6D 
 20754      6F7300
 20755              	.LASF280:
 20756 0221 6C5F736C 		.ascii	"l_slow_abs_current\000"
 20756      6F775F61 
 20756      62735F63 
 20756      75727265 
 20756      6E7400
 20757              	.LASF793:
 20758 0234 5F696E63 		.ascii	"_inc\000"
 20758      00
 20759              	.LASF766:
 20760 0239 5F696E64 		.ascii	"_ind\000"
 20760      00
 20761              	.LASF661:
 20762 023e 47434346 		.ascii	"GCCFG\000"
 20762      4700
 20763              	.LASF269:
 20764 0244 6C5F696E 		.ascii	"l_in_current_min\000"
 20764      5F637572 
 20764      72656E74 
 20764      5F6D696E 
 20764      00
 20765              	.LASF142:
 20766 0255 42445452 		.ascii	"BDTR\000"
 20766      00
ARM GAS  C:\Users\CHRIST~1\AppData\Local\Temp\ccCFoZV9.s 			page 369


 20767              	.LASF493:
 20768 025a 49324343 		.ascii	"I2CConfig\000"
 20768      6F6E6669 
 20768      6700
 20769              	.LASF20:
 20770 0264 75696E74 		.ascii	"uint16_t\000"
 20770      31365F74 
 20770      00
 20771              	.LASF1023:
 20772 026d 6D637077 		.ascii	"mcpwm_foc_get_tachometer_abs_value\000"
 20772      6D5F666F 
 20772      635F6765 
 20772      745F7461 
 20772      63686F6D 
 20773              	.LASF1054:
 20774 0290 6D637077 		.ascii	"mcpwm_set_duty_noramp\000"
 20774      6D5F7365 
 20774      745F6475 
 20774      74795F6E 
 20774      6F72616D 
 20775              	.LASF502:
 20776 02a6 646D6174 		.ascii	"dmatx\000"
 20776      7800
 20777              	.LASF731:
 20778 02ac 736F665F 		.ascii	"sof_cb\000"
 20778      636200
 20779              	.LASF1007:
 20780 02b3 6D637077 		.ascii	"mcpwm_get_comm_step\000"
 20780      6D5F6765 
 20780      745F636F 
 20780      6D6D5F73 
 20780      74657000 
 20781              	.LASF772:
 20782 02c7 5F666C61 		.ascii	"_flags\000"
 20782      677300
 20783              	.LASF438:
 20784 02ce 6F737065 		.ascii	"ospeedr\000"
 20784      65647200 
 20785              	.LASF664:
 20786 02d6 44494550 		.ascii	"DIEPTXF\000"
 20786      54584600 
 20787              	.LASF191:
 20788 02de 656C5F6E 		.ascii	"el_next\000"
 20788      65787400 
 20789              	.LASF342:
 20790 02e6 63635F73 		.ascii	"cc_startup_boost_duty\000"
 20790      74617274 
 20790      75705F62 
 20790      6F6F7374 
 20790      5F647574 
 20791              	.LASF803:
 20792 02fc 5F637674 		.ascii	"_cvtlen\000"
 20792      6C656E00 
 20793              	.LASF61:
 20794 0304 63685F74 		.ascii	"ch_threads_queue\000"
 20794      68726561 
 20794      64735F71 
ARM GAS  C:\Users\CHRIST~1\AppData\Local\Temp\ccCFoZV9.s 			page 370


 20794      75657565 
 20794      00
 20795              	.LASF846:
 20796 0315 5F5F6664 		.ascii	"__fdlibm_svid\000"
 20796      6C69626D 
 20796      5F737669 
 20796      6400
 20797              	.LASF271:
 20798 0323 6C5F6D69 		.ascii	"l_min_erpm\000"
 20798      6E5F6572 
 20798      706D00
 20799              	.LASF41:
 20800 032e 705F6E65 		.ascii	"p_newer\000"
 20800      77657200 
 20801              	.LASF674:
 20802 0336 48505254 		.ascii	"HPRT\000"
 20802      00
 20803              	.LASF1068:
 20804 033b 6D637077 		.ascii	"mcpwm_foc_init\000"
 20804      6D5F666F 
 20804      635F696E 
 20804      697400
 20805              	.LASF308:
 20806 034a 666F635F 		.ascii	"foc_encoder_offset\000"
 20806      656E636F 
 20806      6465725F 
 20806      6F666673 
 20806      657400
 20807              	.LASF954:
 20808 035d 6D635F69 		.ascii	"mc_interface_get_tot_current_directional\000"
 20808      6E746572 
 20808      66616365 
 20808      5F676574 
 20808      5F746F74 
 20809              	.LASF628:
 20810 0386 4843494E 		.ascii	"HCINT\000"
 20810      5400
 20811              	.LASF1030:
 20812 038c 6D637077 		.ascii	"mcpwm_get_tot_current_in\000"
 20812      6D5F6765 
 20812      745F746F 
 20812      745F6375 
 20812      7272656E 
 20813              	.LASF182:
 20814 03a5 63665F6F 		.ascii	"cf_off_flags\000"
 20814      66665F66 
 20814      6C616773 
 20814      00
 20815              	.LASF785:
 20816 03b2 5F6C6F63 		.ascii	"_lock\000"
 20816      6B00
 20817              	.LASF781:
 20818 03b8 5F6E6275 		.ascii	"_nbuf\000"
 20818      6600
 20819              	.LASF535:
 20820 03be 5350495F 		.ascii	"SPI_STOP\000"
 20820      53544F50 
ARM GAS  C:\Users\CHRIST~1\AppData\Local\Temp\ccCFoZV9.s 			page 371


 20820      00
 20821              	.LASF213:
 20822 03c7 4D435F53 		.ascii	"MC_STATE_DETECTING\000"
 20822      54415445 
 20822      5F444554 
 20822      45435449 
 20822      4E4700
 20823              	.LASF444:
 20824 03da 50424461 		.ascii	"PBData\000"
 20824      746100
 20825              	.LASF921:
 20826 03e1 77726F6E 		.ascii	"wrong_voltage_iterations\000"
 20826      675F766F 
 20826      6C746167 
 20826      655F6974 
 20826      65726174 
 20827              	.LASF170:
 20828 03fa 63685F73 		.ascii	"ch_size\000"
 20828      697A6500 
 20829              	.LASF670:
 20830 0402 48505458 		.ascii	"HPTXSTS\000"
 20830      53545300 
 20831              	.LASF437:
 20832 040a 6F747970 		.ascii	"otyper\000"
 20832      657200
 20833              	.LASF899:
 20834 0411 6C6F5F6D 		.ascii	"lo_max_mos\000"
 20834      61785F6D 
 20834      6F7300
 20835              	.LASF282:
 20836 041c 6C5F7465 		.ascii	"l_temp_fet_end\000"
 20836      6D705F66 
 20836      65745F65 
 20836      6E6400
 20837              	.LASF1063:
 20838 042b 6D637077 		.ascii	"mcpwm_init\000"
 20838      6D5F696E 
 20838      697400
 20839              	.LASF428:
 20840 0436 4F545950 		.ascii	"OTYPER\000"
 20840      455200
 20841              	.LASF539:
 20842 043d 73706973 		.ascii	"spistate_t\000"
 20842      74617465 
 20842      5F7400
 20843              	.LASF1045:
 20844 0448 6D637077 		.ascii	"mcpwm_foc_get_duty_cycle_set\000"
 20844      6D5F666F 
 20844      635F6765 
 20844      745F6475 
 20844      74795F63 
 20845              	.LASF626:
 20846 0465 48434348 		.ascii	"HCCHAR\000"
 20846      415200
 20847              	.LASF762:
 20848 046c 5F64736F 		.ascii	"_dso_handle\000"
 20848      5F68616E 
ARM GAS  C:\Users\CHRIST~1\AppData\Local\Temp\ccCFoZV9.s 			page 372


 20848      646C6500 
 20849              	.LASF896:
 20850 0478 74696D65 		.ascii	"timer_thread\000"
 20850      725F7468 
 20850      72656164 
 20850      00
 20851              	.LASF477:
 20852 0485 4932435F 		.ascii	"I2C_ACTIVE_RX\000"
 20852      41435449 
 20852      56455F52 
 20852      5800
 20853              	.LASF36:
 20854 0493 74687265 		.ascii	"thread_t\000"
 20854      61645F74 
 20854      00
 20855              	.LASF193:
 20856 049c 656C5F65 		.ascii	"el_events\000"
 20856      76656E74 
 20856      7300
 20857              	.LASF916:
 20858 04a6 64757479 		.ascii	"duty_abs\000"
 20858      5F616273 
 20858      00
 20859              	.LASF469:
 20860 04af 736C6565 		.ascii	"sleep_event\000"
 20860      705F6576 
 20860      656E7400 
 20861              	.LASF79:
 20862 04bb 63685F76 		.ascii	"ch_virtual_timers_list\000"
 20862      69727475 
 20862      616C5F74 
 20862      696D6572 
 20862      735F6C69 
 20863              	.LASF423:
 20864 04d2 76656374 		.ascii	"vector\000"
 20864      6F7200
 20865              	.LASF21:
 20866 04d9 696E7433 		.ascii	"int32_t\000"
 20866      325F7400 
 20867              	.LASF827:
 20868 04e1 5F776374 		.ascii	"_wctomb_state\000"
 20868      6F6D625F 
 20868      73746174 
 20868      6500
 20869              	.LASF491:
 20870 04ef 636C6F63 		.ascii	"clock_speed\000"
 20870      6B5F7370 
 20870      65656400 
 20871              	.LASF35:
 20872 04fb 73797374 		.ascii	"systime_t\000"
 20872      696D655F 
 20872      7400
 20873              	.LASF471:
 20874 0505 43414E44 		.ascii	"CANDriver\000"
 20874      72697665 
 20874      7200
 20875              	.LASF180:
ARM GAS  C:\Users\CHRIST~1\AppData\Local\Temp\ccCFoZV9.s 			page 373


 20876 050f 63665F6F 		.ascii	"cf_off_stklimit\000"
 20876      66665F73 
 20876      746B6C69 
 20876      6D697400 
 20877              	.LASF119:
 20878 051f 4D304152 		.ascii	"M0AR\000"
 20878      00
 20879              	.LASF248:
 20880 0524 44525638 		.ascii	"DRV8301_OC_LIMIT\000"
 20880      3330315F 
 20880      4F435F4C 
 20880      494D4954 
 20880      00
 20881              	.LASF1017:
 20882 0535 6D637077 		.ascii	"mcpwm_stop_pwm\000"
 20882      6D5F7374 
 20882      6F705F70 
 20882      776D00
 20883              	.LASF481:
 20884 0544 69326366 		.ascii	"i2cflags_t\000"
 20884      6C616773 
 20884      5F7400
 20885              	.LASF671:
 20886 054f 4841494E 		.ascii	"HAINT\000"
 20886      5400
 20887              	.LASF241:
 20888 0555 4641554C 		.ascii	"FAULT_CODE_OVER_TEMP_FET\000"
 20888      545F434F 
 20888      44455F4F 
 20888      5645525F 
 20888      54454D50 
 20889              	.LASF925:
 20890 056e 665F7361 		.ascii	"f_samp\000"
 20890      6D7000
 20891              	.LASF114:
 20892 0575 46413152 		.ascii	"FA1R\000"
 20892      00
 20893              	.LASF219:
 20894 057a 50574D5F 		.ascii	"PWM_MODE_BIPOLAR\000"
 20894      4D4F4445 
 20894      5F424950 
 20894      4F4C4152 
 20894      00
 20895              	.LASF220:
 20896 058b 6D635F70 		.ascii	"mc_pwm_mode\000"
 20896      776D5F6D 
 20896      6F646500 
 20897              	.LASF568:
 20898 0597 75617274 		.ascii	"uartecb_t\000"
 20898      6563625F 
 20898      7400
 20899              	.LASF668:
 20900 05a1 48464E55 		.ascii	"HFNUM\000"
 20900      4D00
 20901              	.LASF209:
 20902 05a7 716E6F74 		.ascii	"qnotify_t\000"
 20902      6966795F 
ARM GAS  C:\Users\CHRIST~1\AppData\Local\Temp\ccCFoZV9.s 			page 374


 20902      7400
 20903              	.LASF1019:
 20904 05b1 6D637077 		.ascii	"mcpwm_foc_get_pid_pos_now\000"
 20904      6D5F666F 
 20904      635F6765 
 20904      745F7069 
 20904      645F706F 
 20905              	.LASF421:
 20906 05cb 69736869 		.ascii	"ishift\000"
 20906      667400
 20907              	.LASF889:
 20908 05d2 74696D65 		.ascii	"timer_thread_wa\000"
 20908      725F7468 
 20908      72656164 
 20908      5F776100 
 20909              	.LASF204:
 20910 05e2 715F746F 		.ascii	"q_top\000"
 20910      7000
 20911              	.LASF774:
 20912 05e8 5F6C6266 		.ascii	"_lbfsize\000"
 20912      73697A65 
 20912      00
 20913              	.LASF619:
 20914 05f1 75645F73 		.ascii	"ud_string\000"
 20914      7472696E 
 20914      6700
 20915              	.LASF494:
 20916 05fb 49324344 		.ascii	"I2CDriver\000"
 20916      72697665 
 20916      7200
 20917              	.LASF476:
 20918 0605 4932435F 		.ascii	"I2C_ACTIVE_TX\000"
 20918      41435449 
 20918      56455F54 
 20918      5800
 20919              	.LASF424:
 20920 0613 73746D33 		.ascii	"stm32_dma_stream_t\000"
 20920      325F646D 
 20920      615F7374 
 20920      7265616D 
 20920      5F7400
 20921              	.LASF1006:
 20922 0626 63684576 		.ascii	"chEvtSignalI\000"
 20922      74536967 
 20922      6E616C49 
 20922      00
 20923              	.LASF680:
 20924 0633 72657376 		.ascii	"resvd80C\000"
 20924      64383043 
 20924      00
 20925              	.LASF728:
 20926 063c 6576656E 		.ascii	"event_cb\000"
 20926      745F6362 
 20926      00
 20927              	.LASF805:
 20928 0645 5F6E6577 		.ascii	"_new\000"
 20928      00
ARM GAS  C:\Users\CHRIST~1\AppData\Local\Temp\ccCFoZV9.s 			page 375


 20929              	.LASF647:
 20930 064a 474F5447 		.ascii	"GOTGCTL\000"
 20930      43544C00 
 20931              	.LASF584:
 20932 0652 6570306E 		.ascii	"ep0next\000"
 20932      65787400 
 20933              	.LASF622:
 20934 065a 75736265 		.ascii	"usbepcallback_t\000"
 20934      7063616C 
 20934      6C626163 
 20934      6B5F7400 
 20935              	.LASF480:
 20936 066a 69326361 		.ascii	"i2caddr_t\000"
 20936      6464725F 
 20936      7400
 20937              	.LASF87:
 20938 0674 76746C69 		.ascii	"vtlist\000"
 20938      737400
 20939              	.LASF506:
 20940 067b 4943555F 		.ascii	"ICU_READY\000"
 20940      52454144 
 20940      5900
 20941              	.LASF124:
 20942 0685 54524953 		.ascii	"TRISE\000"
 20942      4500
 20943              	.LASF686:
 20944 068b 72657376 		.ascii	"resvd824\000"
 20944      64383234 
 20944      00
 20945              	.LASF49:
 20946 0694 705F7761 		.ascii	"p_waiting\000"
 20946      6974696E 
 20946      6700
 20947              	.LASF893:
 20948 069e 696E6465 		.ascii	"index\000"
 20948      7800
 20949              	.LASF513:
 20950 06a4 70636372 		.ascii	"pccrp\000"
 20950      7000
 20951              	.LASF201:
 20952 06aa 715F7761 		.ascii	"q_waiting\000"
 20952      6974696E 
 20952      6700
 20953              	.LASF96:
 20954 06b4 43414E5F 		.ascii	"CAN_TxMailBox_TypeDef\000"
 20954      54784D61 
 20954      696C426F 
 20954      785F5479 
 20954      70654465 
 20955              	.LASF86:
 20956 06ca 726C6973 		.ascii	"rlist\000"
 20956      7400
 20957              	.LASF57:
 20958 06d0 74687265 		.ascii	"threads_list_t\000"
 20958      6164735F 
 20958      6C697374 
 20958      5F7400
ARM GAS  C:\Users\CHRIST~1\AppData\Local\Temp\ccCFoZV9.s 			page 376


 20959              	.LASF176:
 20960 06df 63665F6F 		.ascii	"cf_off_ctx\000"
 20960      66665F63 
 20960      747800
 20961              	.LASF210:
 20962 06ea 696E7075 		.ascii	"input_queue_t\000"
 20962      745F7175 
 20962      6575655F 
 20962      7400
 20963              	.LASF1016:
 20964 06f8 6D637077 		.ascii	"mcpwm_init_done\000"
 20964      6D5F696E 
 20964      69745F64 
 20964      6F6E6500 
 20965              	.LASF840:
 20966 0708 5F5F6C6F 		.ascii	"__lock\000"
 20966      636B00
 20967              	.LASF296:
 20968 070f 736C5F6D 		.ascii	"sl_min_erpm_cycle_int_limit\000"
 20968      696E5F65 
 20968      72706D5F 
 20968      6379636C 
 20968      655F696E 
 20969              	.LASF458:
 20970 072b 43414E5F 		.ascii	"CAN_READY\000"
 20970      52454144 
 20970      5900
 20971              	.LASF178:
 20972 0735 63665F6F 		.ascii	"cf_off_older\000"
 20972      66665F6F 
 20972      6C646572 
 20972      00
 20973              	.LASF305:
 20974 0742 666F635F 		.ascii	"foc_current_ki\000"
 20974      63757272 
 20974      656E745F 
 20974      6B6900
 20975              	.LASF713:
 20976 0751 72787175 		.ascii	"rxqueued\000"
 20976      65756564 
 20976      00
 20977              	.LASF304:
 20978 075a 666F635F 		.ascii	"foc_current_kp\000"
 20978      63757272 
 20978      656E745F 
 20978      6B7000
 20979              	.LASF877:
 20980 0769 6D5F7374 		.ascii	"m_status_samples\000"
 20980      61747573 
 20980      5F73616D 
 20980      706C6573 
 20980      00
 20981              	.LASF524:
 20982 077a 69637563 		.ascii	"icuchannel_t\000"
 20982      68616E6E 
 20982      656C5F74 
 20982      00
ARM GAS  C:\Users\CHRIST~1\AppData\Local\Temp\ccCFoZV9.s 			page 377


 20983              	.LASF460:
 20984 0787 63616E73 		.ascii	"canstate_t\000"
 20984      74617465 
 20984      5F7400
 20985              	.LASF116:
 20986 0792 7346696C 		.ascii	"sFilterRegister\000"
 20986      74657252 
 20986      65676973 
 20986      74657200 
 20987              	.LASF809:
 20988 07a2 5F5F7366 		.ascii	"__sf\000"
 20988      00
 20989              	.LASF685:
 20990 07a7 72657376 		.ascii	"resvd820\000"
 20990      64383230 
 20990      00
 20991              	.LASF1047:
 20992 07b0 6D637077 		.ascii	"mcpwm_foc_set_handbrake\000"
 20992      6D5F666F 
 20992      635F7365 
 20992      745F6861 
 20992      6E646272 
 20993              	.LASF490:
 20994 07c8 6F705F6D 		.ascii	"op_mode\000"
 20994      6F646500 
 20995              	.LASF826:
 20996 07d0 5F6D6274 		.ascii	"_mbtowc_state\000"
 20996      6F77635F 
 20996      73746174 
 20996      6500
 20997              	.LASF357:
 20998 07de 6D5F6E74 		.ascii	"m_ntc_motor_beta\000"
 20998      635F6D6F 
 20998      746F725F 
 20998      62657461 
 20998      00
 20999              	.LASF932:
 21000 07ef 76616C5F 		.ascii	"val_samp\000"
 21000      73616D70 
 21000      00
 21001              	.LASF473:
 21002 07f8 4932435F 		.ascii	"I2C_UNINIT\000"
 21002      554E494E 
 21002      495400
 21003              	.LASF1060:
 21004 0803 6D637077 		.ascii	"mcpwm_foc_set_configuration\000"
 21004      6D5F666F 
 21004      635F7365 
 21004      745F636F 
 21004      6E666967 
 21005              	.LASF1084:
 21006 081f 433A5C55 		.ascii	"C:\\Users\\christian\\eclipse-workspace\\bldc\000"
 21006      73657273 
 21006      5C636872 
 21006      69737469 
 21006      616E5C65 
 21007              	.LASF905:
ARM GAS  C:\Users\CHRIST~1\AppData\Local\Temp\ccCFoZV9.s 			page 378


 21008 0849 72706D5F 		.ascii	"rpm_pos_cut_end\000"
 21008      706F735F 
 21008      6375745F 
 21008      656E6400 
 21009              	.LASF30:
 21010 0859 74707269 		.ascii	"tprio_t\000"
 21010      6F5F7400 
 21011              	.LASF1026:
 21012 0861 6D637077 		.ascii	"mcpwm_get_tachometer_value\000"
 21012      6D5F6765 
 21012      745F7461 
 21012      63686F6D 
 21012      65746572 
 21013              	.LASF933:
 21014 087c 63757272 		.ascii	"current_samp\000"
 21014      656E745F 
 21014      73616D70 
 21014      00
 21015              	.LASF689:
 21016 0889 72657376 		.ascii	"resvd830\000"
 21016      64383330 
 21016      00
 21017              	.LASF475:
 21018 0892 4932435F 		.ascii	"I2C_READY\000"
 21018      52454144 
 21018      5900
 21019              	.LASF691:
 21020 089c 72657376 		.ascii	"resvd838\000"
 21020      64383338 
 21020      00
 21021              	.LASF489:
 21022 08a5 69326364 		.ascii	"i2cdutycycle_t\000"
 21022      75747963 
 21022      79636C65 
 21022      5F7400
 21023              	.LASF1032:
 21024 08b4 6D637077 		.ascii	"mcpwm_get_tot_current_directional_filtered\000"
 21024      6D5F6765 
 21024      745F746F 
 21024      745F6375 
 21024      7272656E 
 21025              	.LASF692:
 21026 08df 72657376 		.ascii	"resvd83C\000"
 21026      64383343 
 21026      00
 21027              	.LASF497:
 21028 08e8 74687265 		.ascii	"thread\000"
 21028      616400
 21029              	.LASF688:
 21030 08ef 44564255 		.ascii	"DVBUSPULSE\000"
 21030      5350554C 
 21030      534500
 21031              	.LASF587:
 21032 08fa 73657475 		.ascii	"setup\000"
 21032      7000
 21033              	.LASF534:
 21034 0900 5350495F 		.ascii	"SPI_UNINIT\000"
ARM GAS  C:\Users\CHRIST~1\AppData\Local\Temp\ccCFoZV9.s 			page 379


 21034      554E494E 
 21034      495400
 21035              	.LASF951:
 21036 090b 6D635F69 		.ascii	"mc_interface_get_tot_current_in_filtered\000"
 21036      6E746572 
 21036      66616365 
 21036      5F676574 
 21036      5F746F74 
 21037              	.LASF640:
 21038 0934 44545846 		.ascii	"DTXFSTS\000"
 21038      53545300 
 21039              	.LASF1062:
 21040 093c 6D637077 		.ascii	"mcpwm_foc_deinit\000"
 21040      6D5F666F 
 21040      635F6465 
 21040      696E6974 
 21040      00
 21041              	.LASF917:
 21042 094d 6D617863 		.ascii	"maxc\000"
 21042      00
 21043              	.LASF758:
 21044 0952 5F5F746D 		.ascii	"__tm_yday\000"
 21044      5F796461 
 21044      7900
 21045              	.LASF581:
 21046 095c 696E5F70 		.ascii	"in_params\000"
 21046      6172616D 
 21046      7300
 21047              	.LASF137:
 21048 0966 43434552 		.ascii	"CCER\000"
 21048      00
 21049              	.LASF131:
 21050 096b 49325350 		.ascii	"I2SPR\000"
 21050      5200
 21051              	.LASF229:
 21052 0971 464F435F 		.ascii	"FOC_SENSOR_MODE_ENCODER\000"
 21052      53454E53 
 21052      4F525F4D 
 21052      4F44455F 
 21052      454E434F 
 21053              	.LASF851:
 21054 0989 6D5F6661 		.ascii	"m_fault_now\000"
 21054      756C745F 
 21054      6E6F7700 
 21055              	.LASF929:
 21056 0995 73616D70 		.ascii	"sample_last\000"
 21056      6C655F6C 
 21056      61737400 
 21057              	.LASF649:
 21058 09a1 47414842 		.ascii	"GAHBCFG\000"
 21058      43464700 
 21059              	.LASF734:
 21060 09a9 5F4C4F43 		.ascii	"_LOCK_T\000"
 21060      4B5F5400 
 21061              	.LASF693:
 21062 09b1 72657376 		.ascii	"resvd840\000"
 21062      64383430 
ARM GAS  C:\Users\CHRIST~1\AppData\Local\Temp\ccCFoZV9.s 			page 380


 21062      00
 21063              	.LASF863:
 21064 09ba 6D5F6D6F 		.ascii	"m_motor_iq_iterations\000"
 21064      746F725F 
 21064      69715F69 
 21064      74657261 
 21064      74696F6E 
 21065              	.LASF127:
 21066 09d0 43524350 		.ascii	"CRCPR\000"
 21066      5200
 21067              	.LASF250:
 21068 09d6 44525638 		.ascii	"DRV8301_OC_REPORT_ONLY\000"
 21068      3330315F 
 21068      4F435F52 
 21068      45504F52 
 21068      545F4F4E 
 21069              	.LASF5:
 21070 09ed 5F5F696E 		.ascii	"__int16_t\000"
 21070      7431365F 
 21070      7400
 21071              	.LASF7:
 21072 09f7 5F5F7569 		.ascii	"__uint16_t\000"
 21072      6E743136 
 21072      5F7400
 21073              	.LASF379:
 21074 0a02 434F4D4D 		.ascii	"COMM_SAMPLE_PRINT\000"
 21074      5F53414D 
 21074      504C455F 
 21074      5052494E 
 21074      5400
 21075              	.LASF708:
 21076 0a14 74787175 		.ascii	"txqueued\000"
 21076      65756564 
 21076      00
 21077              	.LASF51:
 21078 0a1d 705F6D73 		.ascii	"p_msg\000"
 21078      6700
 21079              	.LASF818:
 21080 0a23 5F756E75 		.ascii	"_unused_rand\000"
 21080      7365645F 
 21080      72616E64 
 21080      00
 21081              	.LASF346:
 21082 0a30 6D5F6661 		.ascii	"m_fault_stop_time_ms\000"
 21082      756C745F 
 21082      73746F70 
 21082      5F74696D 
 21082      655F6D73 
 21083              	.LASF655:
 21084 0a45 47525853 		.ascii	"GRXSTSP\000"
 21084      54535000 
 21085              	.LASF654:
 21086 0a4d 47525853 		.ascii	"GRXSTSR\000"
 21086      54535200 
 21087              	.LASF120:
 21088 0a55 4D314152 		.ascii	"M1AR\000"
 21088      00
ARM GAS  C:\Users\CHRIST~1\AppData\Local\Temp\ccCFoZV9.s 			page 381


 21089              	.LASF594:
 21090 0a5a 77616974 		.ascii	"wait\000"
 21090      00
 21091              	.LASF121:
 21092 0a5f 444D415F 		.ascii	"DMA_Stream_TypeDef\000"
 21092      53747265 
 21092      616D5F54 
 21092      79706544 
 21092      656600
 21093              	.LASF974:
 21094 0a72 6D635F69 		.ascii	"mc_interface_set_pid_speed\000"
 21094      6E746572 
 21094      66616365 
 21094      5F736574 
 21094      5F706964 
 21095              	.LASF855:
 21096 0a8d 6D5F6C6F 		.ascii	"m_lock_override_once\000"
 21096      636B5F6F 
 21096      76657272 
 21096      6964655F 
 21096      6F6E6365 
 21097              	.LASF601:
 21098 0aa2 5553425F 		.ascii	"USB_ACTIVE\000"
 21098      41435449 
 21098      564500
 21099              	.LASF922:
 21100 0aad 63757272 		.ascii	"current_in\000"
 21100      656E745F 
 21100      696E00
 21101              	.LASF1082:
 21102 0ab8 474E5520 		.ascii	"GNU C99 6.3.1 20170620 (release) [ARM/embedded-6-br"
 21102      43393920 
 21102      362E332E 
 21102      31203230 
 21102      31373036 
 21103 0aeb 616E6368 		.ascii	"anch revision 249437] -mcpu=cortex-m4 -mfloat-abi=h"
 21103      20726576 
 21103      6973696F 
 21103      6E203234 
 21103      39343337 
 21104 0b1e 61726420 		.ascii	"ard -mfpu=fpv4-sp-d16 -mno-thumb-interwork -mthumb "
 21104      2D6D6670 
 21104      753D6670 
 21104      76342D73 
 21104      702D6431 
 21105 0b51 2D676764 		.ascii	"-ggdb -O2 -std=gnu99 -fomit-frame-pointer -falign-f"
 21105      62202D4F 
 21105      32202D73 
 21105      74643D67 
 21105      6E753939 
 21106 0b84 756E6374 		.ascii	"unctions=16 -ffunction-sections -fdata-sections -fn"
 21106      696F6E73 
 21106      3D313620 
 21106      2D666675 
 21106      6E637469 
 21107 0bb7 6F2D636F 		.ascii	"o-common -fsingle-precision-constant\000"
 21107      6D6D6F6E 
ARM GAS  C:\Users\CHRIST~1\AppData\Local\Temp\ccCFoZV9.s 			page 382


 21107      202D6673 
 21107      696E676C 
 21107      652D7072 
 21108              	.LASF335:
 21109 0bdc 735F7069 		.ascii	"s_pid_kd\000"
 21109      645F6B64 
 21109      00
 21110              	.LASF1056:
 21111 0be5 6D637077 		.ascii	"mcpwm_get_state\000"
 21111      6D5F6765 
 21111      745F7374 
 21111      61746500 
 21112              	.LASF642:
 21113 0bf5 73746D33 		.ascii	"stm32_otg_in_ep_t\000"
 21113      325F6F74 
 21113      675F696E 
 21113      5F65705F 
 21113      7400
 21114              	.LASF715:
 21115 0c07 7278636E 		.ascii	"rxcnt\000"
 21115      7400
 21116              	.LASF499:
 21117 0c0d 7278646D 		.ascii	"rxdmamode\000"
 21117      616D6F64 
 21117      6500
 21118              	.LASF800:
 21119 0c17 5F726573 		.ascii	"_result_k\000"
 21119      756C745F 
 21119      6B00
 21120              	.LASF525:
 21121 0c21 6D6F6465 		.ascii	"mode\000"
 21121      00
 21122              	.LASF792:
 21123 0c26 5F737464 		.ascii	"_stderr\000"
 21123      65727200 
 21124              	.LASF866:
 21125 0c2e 6D5F7761 		.ascii	"m_watt_seconds\000"
 21125      74745F73 
 21125      65636F6E 
 21125      647300
 21126              	.LASF799:
 21127 0c3d 5F726573 		.ascii	"_result\000"
 21127      756C7400 
 21128              	.LASF518:
 21129 0c45 4943555F 		.ascii	"ICU_INPUT_ACTIVE_HIGH\000"
 21129      494E5055 
 21129      545F4143 
 21129      54495645 
 21129      5F484947 
 21130              	.LASF1044:
 21131 0c5b 6D637077 		.ascii	"mcpwm_get_duty_cycle_now\000"
 21131      6D5F6765 
 21131      745F6475 
 21131      74795F63 
 21131      79636C65 
 21132              	.LASF867:
 21133 0c74 6D5F7761 		.ascii	"m_watt_seconds_charged\000"
ARM GAS  C:\Users\CHRIST~1\AppData\Local\Temp\ccCFoZV9.s 			page 383


 21133      74745F73 
 21133      65636F6E 
 21133      64735F63 
 21133      68617267 
 21134              	.LASF181:
 21135 0c8b 63665F6F 		.ascii	"cf_off_state\000"
 21135      66665F73 
 21135      74617465 
 21135      00
 21136              	.LASF544:
 21137 0c98 73737061 		.ascii	"sspad\000"
 21137      6400
 21138              	.LASF500:
 21139 0c9e 7478646D 		.ascii	"txdmamode\000"
 21139      616D6F64 
 21139      6500
 21140              	.LASF311:
 21141 0ca8 666F635F 		.ascii	"foc_motor_l\000"
 21141      6D6F746F 
 21141      725F6C00 
 21142              	.LASF312:
 21143 0cb4 666F635F 		.ascii	"foc_motor_r\000"
 21143      6D6F746F 
 21143      725F7200 
 21144              	.LASF757:
 21145 0cc0 5F5F746D 		.ascii	"__tm_wday\000"
 21145      5F776461 
 21145      7900
 21146              	.LASF239:
 21147 0cca 4641554C 		.ascii	"FAULT_CODE_DRV\000"
 21147      545F434F 
 21147      44455F44 
 21147      525600
 21148              	.LASF759:
 21149 0cd9 5F5F746D 		.ascii	"__tm_isdst\000"
 21149      5F697364 
 21149      737400
 21150              	.LASF148:
 21151 0ce4 73746B61 		.ascii	"stkalign_t\000"
 21151      6C69676E 
 21151      5F7400
 21152              	.LASF701:
 21153 0cef 72785F66 		.ascii	"rx_fifo_size\000"
 21153      69666F5F 
 21153      73697A65 
 21153      00
 21154              	.LASF470:
 21155 0cfc 77616B65 		.ascii	"wakeup_event\000"
 21155      75705F65 
 21155      76656E74 
 21155      00
 21156              	.LASF74:
 21157 0d09 76745F70 		.ascii	"vt_prev\000"
 21157      72657600 
 21158              	.LASF542:
 21159 0d11 656E645F 		.ascii	"end_cb\000"
 21159      636200
ARM GAS  C:\Users\CHRIST~1\AppData\Local\Temp\ccCFoZV9.s 			page 384


 21160              	.LASF1069:
 21161 0d18 63685468 		.ascii	"chThdCreateStatic\000"
 21161      64437265 
 21161      61746553 
 21161      74617469 
 21161      6300
 21162              	.LASF718:
 21163 0d2a 73657475 		.ascii	"setup_cb\000"
 21163      705F6362 
 21163      00
 21164              	.LASF4:
 21165 0d33 756E7369 		.ascii	"unsigned char\000"
 21165      676E6564 
 21165      20636861 
 21165      7200
 21166              	.LASF791:
 21167 0d41 5F737464 		.ascii	"_stdout\000"
 21167      6F757400 
 21168              	.LASF190:
 21169 0d49 6576656E 		.ascii	"event_listener\000"
 21169      745F6C69 
 21169      7374656E 
 21169      657200
 21170              	.LASF336:
 21171 0d58 735F7069 		.ascii	"s_pid_min_erpm\000"
 21171      645F6D69 
 21171      6E5F6572 
 21171      706D00
 21172              	.LASF464:
 21173 0d67 74787175 		.ascii	"txqueue\000"
 21173      65756500 
 21174              	.LASF162:
 21175 0d6f 735F636E 		.ascii	"s_cnt\000"
 21175      7400
 21176              	.LASF62:
 21177 0d75 72656164 		.ascii	"ready_list_t\000"
 21177      795F6C69 
 21177      73745F74 
 21177      00
 21178              	.LASF58:
 21179 0d82 63685F74 		.ascii	"ch_thread\000"
 21179      68726561 
 21179      6400
 21180              	.LASF484:
 21181 0d8c 4F504D4F 		.ascii	"OPMODE_SMBUS_HOST\000"
 21181      44455F53 
 21181      4D425553 
 21181      5F484F53 
 21181      5400
 21182              	.LASF583:
 21183 0d9e 65703073 		.ascii	"ep0state\000"
 21183      74617465 
 21183      00
 21184              	.LASF833:
 21185 0da7 5F6D6273 		.ascii	"_mbsrtowcs_state\000"
 21185      72746F77 
 21185      63735F73 
ARM GAS  C:\Users\CHRIST~1\AppData\Local\Temp\ccCFoZV9.s 			page 385


 21185      74617465 
 21185      00
 21186              	.LASF749:
 21187 0db8 5F776473 		.ascii	"_wds\000"
 21187      00
 21188              	.LASF0:
 21189 0dbd 666C6F61 		.ascii	"float\000"
 21189      7400
 21190              	.LASF287:
 21191 0dc3 6C5F7761 		.ascii	"l_watt_max\000"
 21191      74745F6D 
 21191      617800
 21192              	.LASF459:
 21193 0dce 43414E5F 		.ascii	"CAN_SLEEP\000"
 21193      534C4545 
 21193      5000
 21194              	.LASF306:
 21195 0dd8 666F635F 		.ascii	"foc_f_sw\000"
 21195      665F7377 
 21195      00
 21196              	.LASF273:
 21197 0de1 6C5F6572 		.ascii	"l_erpm_start\000"
 21197      706D5F73 
 21197      74617274 
 21197      00
 21198              	.LASF1049:
 21199 0dee 6D637077 		.ascii	"mcpwm_foc_set_pid_pos\000"
 21199      6D5F666F 
 21199      635F7365 
 21199      745F7069 
 21199      645F706F 
 21200              	.LASF1033:
 21201 0e04 6D637077 		.ascii	"mcpwm_foc_get_tot_current_directional\000"
 21201      6D5F666F 
 21201      635F6765 
 21201      745F746F 
 21201      745F6375 
 21202              	.LASF952:
 21203 0e2a 6D635F69 		.ascii	"mc_interface_get_tot_current_in\000"
 21203      6E746572 
 21203      66616365 
 21203      5F676574 
 21203      5F746F74 
 21204              	.LASF455:
 21205 0e4a 43414E5F 		.ascii	"CAN_UNINIT\000"
 21205      554E494E 
 21205      495400
 21206              	.LASF81:
 21207 0e55 73797374 		.ascii	"system_debug_t\000"
 21207      656D5F64 
 21207      65627567 
 21207      5F7400
 21208              	.LASF281:
 21209 0e64 6C5F7465 		.ascii	"l_temp_fet_start\000"
 21209      6D705F66 
 21209      65745F73 
 21209      74617274 
ARM GAS  C:\Users\CHRIST~1\AppData\Local\Temp\ccCFoZV9.s 			page 386


 21209      00
 21210              	.LASF134:
 21211 0e75 44494552 		.ascii	"DIER\000"
 21211      00
 21212              	.LASF40:
 21213 0e7a 705F6374 		.ascii	"p_ctx\000"
 21213      7800
 21214              	.LASF77:
 21215 0e80 76745F70 		.ascii	"vt_par\000"
 21215      617200
 21216              	.LASF1088:
 21217 0e87 6D656D63 		.ascii	"memcpy\000"
 21217      707900
 21218              	.LASF556:
 21219 0e8e 55415254 		.ascii	"UART_RX_ACTIVE\000"
 21219      5F52585F 
 21219      41435449 
 21219      564500
 21220              	.LASF984:
 21221 0e9d 6D635F69 		.ascii	"mc_interface_set_pwm_callback\000"
 21221      6E746572 
 21221      66616365 
 21221      5F736574 
 21221      5F70776D 
 21222              	.LASF69:
 21223 0ebb 725F6375 		.ascii	"r_current\000"
 21223      7272656E 
 21223      7400
 21224              	.LASF770:
 21225 0ec5 5F73697A 		.ascii	"_size\000"
 21225      6500
 21226              	.LASF385:
 21227 0ecb 434F4D4D 		.ascii	"COMM_DETECT_MOTOR_R_L\000"
 21227      5F444554 
 21227      4543545F 
 21227      4D4F544F 
 21227      525F525F 
 21228              	.LASF390:
 21229 0ee1 434F4D4D 		.ascii	"COMM_ALIVE\000"
 21229      5F414C49 
 21229      564500
 21230              	.LASF129:
 21231 0eec 54584352 		.ascii	"TXCRCR\000"
 21231      435200
 21232              	.LASF263:
 21233 0ef3 636F6D6D 		.ascii	"comm_mode\000"
 21233      5F6D6F64 
 21233      6500
 21234              	.LASF852:
 21235 0efd 6D5F6967 		.ascii	"m_ignore_iterations\000"
 21235      6E6F7265 
 21235      5F697465 
 21235      72617469 
 21235      6F6E7300 
 21236              	.LASF1079:
 21237 0f11 6D637077 		.ascii	"mcpwm_set_current\000"
 21237      6D5F7365 
ARM GAS  C:\Users\CHRIST~1\AppData\Local\Temp\ccCFoZV9.s 			page 387


 21237      745F6375 
 21237      7272656E 
 21237      7400
 21238              	.LASF552:
 21239 0f23 55415254 		.ascii	"UART_TX_ACTIVE\000"
 21239      5F54585F 
 21239      41435449 
 21239      564500
 21240              	.LASF240:
 21241 0f32 4641554C 		.ascii	"FAULT_CODE_ABS_OVER_CURRENT\000"
 21241      545F434F 
 21241      44455F41 
 21241      42535F4F 
 21241      5645525F 
 21242              	.LASF314:
 21243 0f4e 666F635F 		.ascii	"foc_observer_gain\000"
 21243      6F627365 
 21243      72766572 
 21243      5F676169 
 21243      6E00
 21244              	.LASF882:
 21245 0f60 6D5F7361 		.ascii	"m_sample_int\000"
 21245      6D706C65 
 21245      5F696E74 
 21245      00
 21246              	.LASF488:
 21247 0f6d 46415354 		.ascii	"FAST_DUTY_CYCLE_16_9\000"
 21247      5F445554 
 21247      595F4359 
 21247      434C455F 
 21247      31365F39 
 21248              	.LASF529:
 21249 0f82 6F766572 		.ascii	"overflow_cb\000"
 21249      666C6F77 
 21249      5F636200 
 21250              	.LASF23:
 21251 0f8e 75696E74 		.ascii	"uint64_t\000"
 21251      36345F74 
 21251      00
 21252              	.LASF187:
 21253 0f97 63685F64 		.ascii	"ch_debug\000"
 21253      65627567 
 21253      00
 21254              	.LASF108:
 21255 0fa0 464D3152 		.ascii	"FM1R\000"
 21255      00
 21256              	.LASF752:
 21257 0fa5 5F5F746D 		.ascii	"__tm_min\000"
 21257      5F6D696E 
 21257      00
 21258              	.LASF452:
 21259 0fae 50414C43 		.ascii	"PALConfig\000"
 21259      6F6E6669 
 21259      6700
 21260              	.LASF623:
 21261 0fb8 75736265 		.ascii	"usbeventcb_t\000"
 21261      76656E74 
ARM GAS  C:\Users\CHRIST~1\AppData\Local\Temp\ccCFoZV9.s 			page 388


 21261      63625F74 
 21261      00
 21262              	.LASF979:
 21263 0fc5 6D635F69 		.ascii	"mc_interface_fault_to_string\000"
 21263      6E746572 
 21263      66616365 
 21263      5F666175 
 21263      6C745F74 
 21264              	.LASF756:
 21265 0fe2 5F5F746D 		.ascii	"__tm_year\000"
 21265      5F796561 
 21265      7200
 21266              	.LASF189:
 21267 0fec 6576656E 		.ascii	"event_listener_t\000"
 21267      745F6C69 
 21267      7374656E 
 21267      65725F74 
 21267      00
 21268              	.LASF946:
 21269 0ffd 6D635F69 		.ascii	"mc_interface_read_reset_avg_motor_current\000"
 21269      6E746572 
 21269      66616365 
 21269      5F726561 
 21269      645F7265 
 21270              	.LASF782:
 21271 1027 5F626C6B 		.ascii	"_blksize\000"
 21271      73697A65 
 21271      00
 21272              	.LASF702:
 21273 1030 6F74675F 		.ascii	"otg_ram_size\000"
 21273      72616D5F 
 21273      73697A65 
 21273      00
 21274              	.LASF704:
 21275 103d 73746D33 		.ascii	"stm32_otg_params_t\000"
 21275      325F6F74 
 21275      675F7061 
 21275      72616D73 
 21275      5F7400
 21276              	.LASF696:
 21277 1050 72657376 		.ascii	"resvdD00\000"
 21277      64443030 
 21277      00
 21278              	.LASF128:
 21279 1059 52584352 		.ascii	"RXCRCR\000"
 21279      435200
 21280              	.LASF565:
 21281 1060 72786275 		.ascii	"rxbuf\000"
 21281      6600
 21282              	.LASF652:
 21283 1066 47494E54 		.ascii	"GINTSTS\000"
 21283      53545300 
 21284              	.LASF163:
 21285 106e 63685F6D 		.ascii	"ch_mutex\000"
 21285      75746578 
 21285      00
 21286              	.LASF777:
ARM GAS  C:\Users\CHRIST~1\AppData\Local\Temp\ccCFoZV9.s 			page 389


 21287 1077 5F777269 		.ascii	"_write\000"
 21287      746500
 21288              	.LASF857:
 21289 107e 6D5F696E 		.ascii	"m_input_current_sum\000"
 21289      7075745F 
 21289      63757272 
 21289      656E745F 
 21289      73756D00 
 21290              	.LASF467:
 21291 1092 7478656D 		.ascii	"txempty_event\000"
 21291      7074795F 
 21291      6576656E 
 21291      7400
 21292              	.LASF337:
 21293 10a0 735F7069 		.ascii	"s_pid_allow_braking\000"
 21293      645F616C 
 21293      6C6F775F 
 21293      6272616B 
 21293      696E6700 
 21294              	.LASF449:
 21295 10b4 50474461 		.ascii	"PGData\000"
 21295      746100
 21296              	.LASF831:
 21297 10bb 5F6D6272 		.ascii	"_mbrlen_state\000"
 21297      6C656E5F 
 21297      73746174 
 21297      6500
 21298              	.LASF1000:
 21299 10c9 76616C75 		.ascii	"value\000"
 21299      6500
 21300              	.LASF225:
 21301 10cf 53454E53 		.ascii	"SENSOR_MODE_SENSORED\000"
 21301      4F525F4D 
 21301      4F44455F 
 21301      53454E53 
 21301      4F524544 
 21302              	.LASF177:
 21303 10e4 63665F6F 		.ascii	"cf_off_newer\000"
 21303      66665F6E 
 21303      65776572 
 21303      00
 21304              	.LASF751:
 21305 10f1 5F5F746D 		.ascii	"__tm_sec\000"
 21305      5F736563 
 21305      00
 21306              	.LASF681:
 21307 10fa 44494550 		.ascii	"DIEPMSK\000"
 21307      4D534B00 
 21308              	.LASF648:
 21309 1102 474F5447 		.ascii	"GOTGINT\000"
 21309      494E5400 
 21310              	.LASF547:
 21311 110a 55415254 		.ascii	"UART_UNINIT\000"
 21311      5F554E49 
 21311      4E495400 
 21312              	.LASF720:
 21313 1116 6F75745F 		.ascii	"out_cb\000"
ARM GAS  C:\Users\CHRIST~1\AppData\Local\Temp\ccCFoZV9.s 			page 390


 21313      636200
 21314              	.LASF672:
 21315 111d 4841494E 		.ascii	"HAINTMSK\000"
 21315      544D534B 
 21315      00
 21316              	.LASF582:
 21317 1126 6F75745F 		.ascii	"out_params\000"
 21317      70617261 
 21317      6D7300
 21318              	.LASF873:
 21319 1131 6D5F7068 		.ascii	"m_ph1_samples\000"
 21319      315F7361 
 21319      6D706C65 
 21319      7300
 21320              	.LASF790:
 21321 113f 5F737464 		.ascii	"_stdin\000"
 21321      696E00
 21322              	.LASF874:
 21323 1146 6D5F7068 		.ascii	"m_ph2_samples\000"
 21323      325F7361 
 21323      6D706C65 
 21323      7300
 21324              	.LASF838:
 21325 1154 5F6E6D61 		.ascii	"_nmalloc\000"
 21325      6C6C6F63 
 21325      00
 21326              	.LASF531:
 21327 115d 64696572 		.ascii	"dier\000"
 21327      00
 21328              	.LASF669:
 21329 1162 72657376 		.ascii	"resvd40C\000"
 21329      64343043 
 21329      00
 21330              	.LASF908:
 21331 116b 72706D5F 		.ascii	"rpm_neg_cut_end\000"
 21331      6E65675F 
 21331      6375745F 
 21331      656E6400 
 21332              	.LASF405:
 21333 117b 74696D5F 		.ascii	"tim_val_samp\000"
 21333      76616C5F 
 21333      73616D70 
 21333      00
 21334              	.LASF950:
 21335 1188 6D635F69 		.ascii	"mc_interface_get_tachometer_value\000"
 21335      6E746572 
 21335      66616365 
 21335      5F676574 
 21335      5F746163 
 21336              	.LASF71:
 21337 11aa 76697274 		.ascii	"virtual_timer_t\000"
 21337      75616C5F 
 21337      74696D65 
 21337      725F7400 
 21338              	.LASF66:
 21339 11ba 725F6374 		.ascii	"r_ctx\000"
 21339      7800
ARM GAS  C:\Users\CHRIST~1\AppData\Local\Temp\ccCFoZV9.s 			page 391


 21340              	.LASF73:
 21341 11c0 76745F6E 		.ascii	"vt_next\000"
 21341      65787400 
 21342              	.LASF966:
 21343 11c8 6D635F69 		.ascii	"mc_interface_brake_now\000"
 21343      6E746572 
 21343      66616365 
 21343      5F627261 
 21343      6B655F6E 
 21344              	.LASF363:
 21345 11df 434F4D4D 		.ascii	"COMM_WRITE_NEW_APP_DATA\000"
 21345      5F575249 
 21345      54455F4E 
 21345      45575F41 
 21345      50505F44 
 21346              	.LASF362:
 21347 11f7 434F4D4D 		.ascii	"COMM_ERASE_NEW_APP\000"
 21347      5F455241 
 21347      53455F4E 
 21347      45575F41 
 21347      505000
 21348              	.LASF25:
 21349 120a 7274636E 		.ascii	"rtcnt_t\000"
 21349      745F7400 
 21350              	.LASF496:
 21351 1212 6D757465 		.ascii	"mutex\000"
 21351      7800
 21352              	.LASF226:
 21353 1218 53454E53 		.ascii	"SENSOR_MODE_HYBRID\000"
 21353      4F525F4D 
 21353      4F44455F 
 21353      48594252 
 21353      494400
 21354              	.LASF352:
 21355 122b 6D5F6472 		.ascii	"m_drv8301_oc_mode\000"
 21355      76383330 
 21355      315F6F63 
 21355      5F6D6F64 
 21355      6500
 21356              	.LASF289:
 21357 123d 6C6F5F63 		.ascii	"lo_current_max\000"
 21357      75727265 
 21357      6E745F6D 
 21357      617800
 21358              	.LASF309:
 21359 124c 666F635F 		.ascii	"foc_encoder_inverted\000"
 21359      656E636F 
 21359      6465725F 
 21359      696E7665 
 21359      72746564 
 21360              	.LASF343:
 21361 1261 63635F6D 		.ascii	"cc_min_current\000"
 21361      696E5F63 
 21361      75727265 
 21361      6E7400
 21362              	.LASF593:
 21363 1270 74787065 		.ascii	"txpending\000"
ARM GAS  C:\Users\CHRIST~1\AppData\Local\Temp\ccCFoZV9.s 			page 392


 21363      6E64696E 
 21363      6700
 21364              	.LASF245:
 21365 127a 53454E53 		.ascii	"SENSOR_PORT_MODE_ABI\000"
 21365      4F525F50 
 21365      4F52545F 
 21365      4D4F4445 
 21365      5F414249 
 21366              	.LASF1083:
 21367 128f 6D635F69 		.ascii	"mc_interface.c\000"
 21367      6E746572 
 21367      66616365 
 21367      2E6300
 21368              	.LASF426:
 21369 129e 636C6561 		.ascii	"clear\000"
 21369      7200
 21370              	.LASF516:
 21371 12a4 43435852 		.ascii	"CCXR\000"
 21371      00
 21372              	.LASF934:
 21373 12a9 66646174 		.ascii	"fdata\000"
 21373      6100
 21374              	.LASF117:
 21375 12af 43414E5F 		.ascii	"CAN_TypeDef\000"
 21375      54797065 
 21375      44656600 
 21376              	.LASF735:
 21377 12bb 5F6F6666 		.ascii	"_off_t\000"
 21377      5F7400
 21378              	.LASF875:
 21379 12c2 6D5F7068 		.ascii	"m_ph3_samples\000"
 21379      335F7361 
 21379      6D706C65 
 21379      7300
 21380              	.LASF636:
 21381 12d0 72657376 		.ascii	"resvd4\000"
 21381      643400
 21382              	.LASF627:
 21383 12d7 72657376 		.ascii	"resvd8\000"
 21383      643800
 21384              	.LASF24:
 21385 12de 73697A65 		.ascii	"size_t\000"
 21385      5F7400
 21386              	.LASF821:
 21387 12e5 5F6C6F63 		.ascii	"_localtime_buf\000"
 21387      616C7469 
 21387      6D655F62 
 21387      756600
 21388              	.LASF246:
 21389 12f4 53454E53 		.ascii	"SENSOR_PORT_MODE_AS5047_SPI\000"
 21389      4F525F50 
 21389      4F52545F 
 21389      4D4F4445 
 21389      5F415335 
 21390              	.LASF740:
 21391 1310 5F5F636F 		.ascii	"__count\000"
 21391      756E7400 
ARM GAS  C:\Users\CHRIST~1\AppData\Local\Temp\ccCFoZV9.s 			page 393


 21392              	.LASF257:
 21393 1318 44454255 		.ascii	"DEBUG_SAMPLING_TRIGGER_FAULT\000"
 21393      475F5341 
 21393      4D504C49 
 21393      4E475F54 
 21393      52494747 
 21394              	.LASF18:
 21395 1335 75696E74 		.ascii	"uint8_t\000"
 21395      385F7400 
 21396              	.LASF631:
 21397 133d 72657376 		.ascii	"resvd14\000"
 21397      64313400 
 21398              	.LASF956:
 21399 1345 6D635F69 		.ascii	"mc_interface_get_tot_current\000"
 21399      6E746572 
 21399      66616365 
 21399      5F676574 
 21399      5F746F74 
 21400              	.LASF632:
 21401 1362 72657376 		.ascii	"resvd18\000"
 21401      64313800 
 21402              	.LASF776:
 21403 136a 5F726561 		.ascii	"_read\000"
 21403      6400
 21404              	.LASF68:
 21405 1370 725F6F6C 		.ascii	"r_older\000"
 21405      64657200 
 21406              	.LASF486:
 21407 1378 5354445F 		.ascii	"STD_DUTY_CYCLE\000"
 21407      44555459 
 21407      5F435943 
 21407      4C4500
 21408              	.LASF38:
 21409 1387 705F7072 		.ascii	"p_prev\000"
 21409      657600
 21410              	.LASF179:
 21411 138e 63665F6F 		.ascii	"cf_off_name\000"
 21411      66665F6E 
 21411      616D6500 
 21412              	.LASF386:
 21413 139a 434F4D4D 		.ascii	"COMM_DETECT_MOTOR_FLUX_LINKAGE\000"
 21413      5F444554 
 21413      4543545F 
 21413      4D4F544F 
 21413      525F464C 
 21414              	.LASF1015:
 21415 13b9 6D637077 		.ascii	"mcpwm_foc_init_done\000"
 21415      6D5F666F 
 21415      635F696E 
 21415      69745F64 
 21415      6F6E6500 
 21416              	.LASF690:
 21417 13cd 44494550 		.ascii	"DIEPEMPMSK\000"
 21417      454D504D 
 21417      534B00
 21418              	.LASF294:
 21419 13d8 6C6F5F63 		.ascii	"lo_current_motor_min_now\000"
ARM GAS  C:\Users\CHRIST~1\AppData\Local\Temp\ccCFoZV9.s 			page 394


 21419      75727265 
 21419      6E745F6D 
 21419      6F746F72 
 21419      5F6D696E 
 21420              	.LASF635:
 21421 13f1 44494550 		.ascii	"DIEPCTL\000"
 21421      43544C00 
 21422              	.LASF883:
 21423 13f9 6D5F7361 		.ascii	"m_sample_mode\000"
 21423      6D706C65 
 21423      5F6D6F64 
 21423      6500
 21424              	.LASF277:
 21425 1407 6C5F6D61 		.ascii	"l_max_vin\000"
 21425      785F7669 
 21425      6E00
 21426              	.LASF195:
 21427 1411 656C5F77 		.ascii	"el_wflags\000"
 21427      666C6167 
 21427      7300
 21428              	.LASF591:
 21429 141b 6F746770 		.ascii	"otgparams\000"
 21429      6172616D 
 21429      7300
 21430              	.LASF154:
 21431 1425 65786974 		.ascii	"exitcode\000"
 21431      636F6465 
 21431      00
 21432              	.LASF446:
 21433 142e 50444461 		.ascii	"PDData\000"
 21433      746100
 21434              	.LASF1027:
 21435 1435 6D637077 		.ascii	"mcpwm_foc_get_tot_current_in_filtered\000"
 21435      6D5F666F 
 21435      635F6765 
 21435      745F746F 
 21435      745F6375 
 21436              	.LASF804:
 21437 145b 5F637674 		.ascii	"_cvtbuf\000"
 21437      62756600 
 21438              	.LASF724:
 21439 1463 6F75745F 		.ascii	"out_state\000"
 21439      73746174 
 21439      6500
 21440              	.LASF199:
 21441 146d 696F5F71 		.ascii	"io_queue_t\000"
 21441      75657565 
 21441      5F7400
 21442              	.LASF794:
 21443 1478 5F656D65 		.ascii	"_emergency\000"
 21443      7267656E 
 21443      637900
 21444              	.LASF910:
 21445 1483 6C6F5F6D 		.ascii	"lo_min\000"
 21445      696E00
 21446              	.LASF945:
 21447 148a 6D635F69 		.ascii	"mc_interface_read_reset_avg_input_current\000"
ARM GAS  C:\Users\CHRIST~1\AppData\Local\Temp\ccCFoZV9.s 			page 395


 21447      6E746572 
 21447      66616365 
 21447      5F726561 
 21447      645F7265 
 21448              	.LASF474:
 21449 14b4 4932435F 		.ascii	"I2C_STOP\000"
 21449      53544F50 
 21449      00
 21450              	.LASF498:
 21451 14bd 61646472 		.ascii	"addr\000"
 21451      00
 21452              	.LASF482:
 21453 14c2 4F504D4F 		.ascii	"OPMODE_I2C\000"
 21453      44455F49 
 21453      324300
 21454              	.LASF102:
 21455 14cd 52463052 		.ascii	"RF0R\000"
 21455      00
 21456              	.LASF890:
 21457 14d2 73616D70 		.ascii	"sample_send_thread_wa\000"
 21457      6C655F73 
 21457      656E645F 
 21457      74687265 
 21457      61645F77 
 21458              	.LASF468:
 21459 14e8 6572726F 		.ascii	"error_event\000"
 21459      725F6576 
 21459      656E7400 
 21460              	.LASF365:
 21461 14f4 434F4D4D 		.ascii	"COMM_SET_DUTY\000"
 21461      5F534554 
 21461      5F445554 
 21461      5900
 21462              	.LASF429:
 21463 1502 4F535045 		.ascii	"OSPEEDR\000"
 21463      45445200 
 21464              	.LASF659:
 21465 150a 72657376 		.ascii	"resvd30\000"
 21465      64333000 
 21466              	.LASF739:
 21467 1512 5F5F7763 		.ascii	"__wchb\000"
 21467      686200
 21468              	.LASF660:
 21469 1519 72657376 		.ascii	"resvd34\000"
 21469      64333400 
 21470              	.LASF278:
 21471 1521 6C5F6261 		.ascii	"l_battery_cut_start\000"
 21471      74746572 
 21471      795F6375 
 21471      745F7374 
 21471      61727400 
 21472              	.LASF1051:
 21473 1535 6D637077 		.ascii	"mcpwm_foc_set_pid_speed\000"
 21473      6D5F666F 
 21473      635F7365 
 21473      745F7069 
 21473      645F7370 
ARM GAS  C:\Users\CHRIST~1\AppData\Local\Temp\ccCFoZV9.s 			page 396


 21474              	.LASF753:
 21475 154d 5F5F746D 		.ascii	"__tm_hour\000"
 21475      5F686F75 
 21475      7200
 21476              	.LASF279:
 21477 1557 6C5F6261 		.ascii	"l_battery_cut_end\000"
 21477      74746572 
 21477      795F6375 
 21477      745F656E 
 21477      6400
 21478              	.LASF418:
 21479 1569 6D637077 		.ascii	"mcpwm_vzero\000"
 21479      6D5F767A 
 21479      65726F00 
 21480              	.LASF276:
 21481 1575 6C5F6D69 		.ascii	"l_min_vin\000"
 21481      6E5F7669 
 21481      6E00
 21482              	.LASF609:
 21483 157f 5553425F 		.ascii	"USB_EP0_ERROR\000"
 21483      4550305F 
 21483      4552524F 
 21483      5200
 21484              	.LASF1040:
 21485 158d 6D637077 		.ascii	"mcpwm_get_rpm\000"
 21485      6D5F6765 
 21485      745F7270 
 21485      6D00
 21486              	.LASF374:
 21487 159b 434F4D4D 		.ascii	"COMM_GET_MCCONF\000"
 21487      5F474554 
 21487      5F4D4343 
 21487      4F4E4600 
 21488              	.LASF737:
 21489 15ab 77696E74 		.ascii	"wint_t\000"
 21489      5F7400
 21490              	.LASF1035:
 21491 15b2 6D637077 		.ascii	"mcpwm_foc_get_tot_current_filtered\000"
 21491      6D5F666F 
 21491      635F6765 
 21491      745F746F 
 21491      745F6375 
 21492              	.LASF326:
 21493 15d5 666F635F 		.ascii	"foc_hall_table\000"
 21493      68616C6C 
 21493      5F746162 
 21493      6C6500
 21494              	.LASF103:
 21495 15e4 52463152 		.ascii	"RF1R\000"
 21495      00
 21496              	.LASF372:
 21497 15e9 434F4D4D 		.ascii	"COMM_SET_SERVO_POS\000"
 21497      5F534554 
 21497      5F534552 
 21497      564F5F50 
 21497      4F5300
 21498              	.LASF698:
ARM GAS  C:\Users\CHRIST~1\AppData\Local\Temp\ccCFoZV9.s 			page 397


 21499 15fc 72657376 		.ascii	"resvdE04\000"
 21499      64453034 
 21499      00
 21500              	.LASF703:
 21501 1605 6E756D5F 		.ascii	"num_endpoints\000"
 21501      656E6470 
 21501      6F696E74 
 21501      7300
 21502              	.LASF963:
 21503 1613 6D635F69 		.ascii	"mc_interface_get_duty_cycle_now\000"
 21503      6E746572 
 21503      66616365 
 21503      5F676574 
 21503      5F647574 
 21504              	.LASF391:
 21505 1633 434F4D4D 		.ascii	"COMM_GET_DECODED_PPM\000"
 21505      5F474554 
 21505      5F444543 
 21505      4F444544 
 21505      5F50504D 
 21506              	.LASF711:
 21507 1648 746F7473 		.ascii	"totsize\000"
 21507      697A6500 
 21508              	.LASF234:
 21509 1650 4D4F544F 		.ascii	"MOTOR_TYPE_FOC\000"
 21509      525F5459 
 21509      50455F46 
 21509      4F4300
 21510              	.LASF812:
 21511 165f 5F6E696F 		.ascii	"_niobs\000"
 21511      627300
 21512              	.LASF295:
 21513 1666 736C5F6D 		.ascii	"sl_min_erpm\000"
 21513      696E5F65 
 21513      72706D00 
 21514              	.LASF1010:
 21515 1672 6C656470 		.ascii	"ledpwm_update_pwm\000"
 21515      776D5F75 
 21515      70646174 
 21515      655F7077 
 21515      6D00
 21516              	.LASF138:
 21517 1684 43435231 		.ascii	"CCR1\000"
 21517      00
 21518              	.LASF139:
 21519 1689 43435232 		.ascii	"CCR2\000"
 21519      00
 21520              	.LASF140:
 21521 168e 43435233 		.ascii	"CCR3\000"
 21521      00
 21522              	.LASF141:
 21523 1693 43435234 		.ascii	"CCR4\000"
 21523      00
 21524              	.LASF625:
 21525 1698 75736267 		.ascii	"usbgetdescriptor_t\000"
 21525      65746465 
 21525      73637269 
ARM GAS  C:\Users\CHRIST~1\AppData\Local\Temp\ccCFoZV9.s 			page 398


 21525      70746F72 
 21525      5F7400
 21526              	.LASF904:
 21527 16ab 72706D5F 		.ascii	"rpm_pos_cut_start\000"
 21527      706F735F 
 21527      6375745F 
 21527      73746172 
 21527      7400
 21528              	.LASF1067:
 21529 16bd 6D637077 		.ascii	"mcpwm_deinit\000"
 21529      6D5F6465 
 21529      696E6974 
 21529      00
 21530              	.LASF789:
 21531 16ca 5F657272 		.ascii	"_errno\000"
 21531      6E6F00
 21532              	.LASF350:
 21533 16d1 6D5F7365 		.ascii	"m_sensor_port_mode\000"
 21533      6E736F72 
 21533      5F706F72 
 21533      745F6D6F 
 21533      646500
 21534              	.LASF1050:
 21535 16e4 6D637077 		.ascii	"mcpwm_set_pid_pos\000"
 21535      6D5F7365 
 21535      745F7069 
 21535      645F706F 
 21535      7300
 21536              	.LASF604:
 21537 16f6 5553425F 		.ascii	"USB_EP0_TX\000"
 21537      4550305F 
 21537      545800
 21538              	.LASF237:
 21539 1701 4641554C 		.ascii	"FAULT_CODE_OVER_VOLTAGE\000"
 21539      545F434F 
 21539      44455F4F 
 21539      5645525F 
 21539      564F4C54 
 21540              	.LASF348:
 21541 1719 6D5F6375 		.ascii	"m_current_backoff_gain\000"
 21541      7272656E 
 21541      745F6261 
 21541      636B6F66 
 21541      665F6761 
 21542              	.LASF754:
 21543 1730 5F5F746D 		.ascii	"__tm_mday\000"
 21543      5F6D6461 
 21543      7900
 21544              	.LASF351:
 21545 173a 6D5F696E 		.ascii	"m_invert_direction\000"
 21545      76657274 
 21545      5F646972 
 21545      65637469 
 21545      6F6E00
 21546              	.LASF420:
 21547 174d 69666372 		.ascii	"ifcr\000"
 21547      00
ARM GAS  C:\Users\CHRIST~1\AppData\Local\Temp\ccCFoZV9.s 			page 399


 21548              	.LASF722:
 21549 1752 6F75745F 		.ascii	"out_maxsize\000"
 21549      6D617873 
 21549      697A6500 
 21550              	.LASF435:
 21551 175e 73746D33 		.ascii	"stm32_gpio_t\000"
 21551      325F6770 
 21551      696F5F74 
 21551      00
 21552              	.LASF394:
 21553 176b 434F4D4D 		.ascii	"COMM_FORWARD_CAN\000"
 21553      5F464F52 
 21553      57415244 
 21553      5F43414E 
 21553      00
 21554              	.LASF153:
 21555 177c 7264796D 		.ascii	"rdymsg\000"
 21555      736700
 21556              	.LASF761:
 21557 1783 5F666E61 		.ascii	"_fnargs\000"
 21557      72677300 
 21558              	.LASF93:
 21559 178b 54445452 		.ascii	"TDTR\000"
 21559      00
 21560              	.LASF881:
 21561 1790 6D5F7361 		.ascii	"m_sample_len\000"
 21561      6D706C65 
 21561      5F6C656E 
 21561      00
 21562              	.LASF286:
 21563 179d 6C5F6D61 		.ascii	"l_max_duty\000"
 21563      785F6475 
 21563      747900
 21564              	.LASF101:
 21565 17a8 43414E5F 		.ascii	"CAN_FilterRegister_TypeDef\000"
 21565      46696C74 
 21565      65725265 
 21565      67697374 
 21565      65725F54 
 21566              	.LASF383:
 21567 17c3 434F4D4D 		.ascii	"COMM_EXPERIMENT_SAMPLE\000"
 21567      5F455850 
 21567      4552494D 
 21567      454E545F 
 21567      53414D50 
 21568              	.LASF255:
 21569 17da 44454255 		.ascii	"DEBUG_SAMPLING_START\000"
 21569      475F5341 
 21569      4D504C49 
 21569      4E475F53 
 21569      54415254 
 21570              	.LASF662:
 21571 17ef 72657376 		.ascii	"resvd58\000"
 21571      64353800 
 21572              	.LASF712:
 21573 17f7 55534249 		.ascii	"USBInEndpointState\000"
 21573      6E456E64 
ARM GAS  C:\Users\CHRIST~1\AppData\Local\Temp\ccCFoZV9.s 			page 400


 21573      706F696E 
 21573      74537461 
 21573      746500
 21574              	.LASF39:
 21575 180a 705F7072 		.ascii	"p_prio\000"
 21575      696F00
 21576              	.LASF200:
 21577 1811 696F5F71 		.ascii	"io_queue\000"
 21577      75657565 
 21577      00
 21578              	.LASF1041:
 21579 181a 6D637077 		.ascii	"mcpwm_foc_get_sampling_frequency_now\000"
 21579      6D5F666F 
 21579      635F6765 
 21579      745F7361 
 21579      6D706C69 
 21580              	.LASF443:
 21581 183f 50414461 		.ascii	"PAData\000"
 21581      746100
 21582              	.LASF980:
 21583 1846 6D635F69 		.ascii	"mc_interface_get_fault\000"
 21583      6E746572 
 21583      66616365 
 21583      5F676574 
 21583      5F666175 
 21584              	.LASF14:
 21585 185d 5F5F7569 		.ascii	"__uint64_t\000"
 21585      6E743634 
 21585      5F7400
 21586              	.LASF1031:
 21587 1868 6D637077 		.ascii	"mcpwm_foc_get_tot_current_directional_filtered\000"
 21587      6D5F666F 
 21587      635F6765 
 21587      745F746F 
 21587      745F6375 
 21588              	.LASF1048:
 21589 1897 6D637077 		.ascii	"mcpwm_set_brake_current\000"
 21589      6D5F7365 
 21589      745F6272 
 21589      616B655F 
 21589      63757272 
 21590              	.LASF327:
 21591 18af 666F635F 		.ascii	"foc_sl_erpm\000"
 21591      736C5F65 
 21591      72706D00 
 21592              	.LASF983:
 21593 18bb 6D635F69 		.ascii	"mc_interface_lock\000"
 21593      6E746572 
 21593      66616365 
 21593      5F6C6F63 
 21593      6B00
 21594              	.LASF746:
 21595 18cd 5F6E6578 		.ascii	"_next\000"
 21595      7400
 21596              	.LASF1076:
 21597 18d3 7574696C 		.ascii	"utils_min_abs\000"
 21597      735F6D69 
ARM GAS  C:\Users\CHRIST~1\AppData\Local\Temp\ccCFoZV9.s 			page 401


 21597      6E5F6162 
 21597      7300
 21598              	.LASF694:
 21599 18e1 72657376 		.ascii	"resvd880\000"
 21599      64383830 
 21599      00
 21600              	.LASF1042:
 21601 18ea 6D637077 		.ascii	"mcpwm_get_switching_frequency_now\000"
 21601      6D5F6765 
 21601      745F7377 
 21601      69746368 
 21601      696E675F 
 21602              	.LASF608:
 21603 190c 5553425F 		.ascii	"USB_EP0_SENDING_STS\000"
 21603      4550305F 
 21603      53454E44 
 21603      494E475F 
 21603      53545300 
 21604              	.LASF829:
 21605 1920 5F736967 		.ascii	"_signal_buf\000"
 21605      6E616C5F 
 21605      62756600 
 21606              	.LASF528:
 21607 192c 70657269 		.ascii	"period_cb\000"
 21607      6F645F63 
 21607      6200
 21608              	.LASF887:
 21609 1936 6D5F6C61 		.ascii	"m_last_adc_duration_sample\000"
 21609      73745F61 
 21609      64635F64 
 21609      75726174 
 21609      696F6E5F 
 21610              	.LASF479:
 21611 1951 69326373 		.ascii	"i2cstate_t\000"
 21611      74617465 
 21611      5F7400
 21612              	.LASF775:
 21613 195c 5F636F6F 		.ascii	"_cookie\000"
 21613      6B696500 
 21614              	.LASF283:
 21615 1964 6C5F7465 		.ascii	"l_temp_motor_start\000"
 21615      6D705F6D 
 21615      6F746F72 
 21615      5F737461 
 21615      727400
 21616              	.LASF1002:
 21617 1977 636F6D6D 		.ascii	"commands_send_packet\000"
 21617      616E6473 
 21617      5F73656E 
 21617      645F7061 
 21617      636B6574 
 21618              	.LASF299:
 21619 198c 736C5F70 		.ascii	"sl_phase_advance_at_br\000"
 21619      68617365 
 21619      5F616476 
 21619      616E6365 
 21619      5F61745F 
ARM GAS  C:\Users\CHRIST~1\AppData\Local\Temp\ccCFoZV9.s 			page 402


 21620              	.LASF610:
 21621 19a3 75736265 		.ascii	"usbep0state_t\000"
 21621      70307374 
 21621      6174655F 
 21621      7400
 21622              	.LASF105:
 21623 19b1 7354784D 		.ascii	"sTxMailBox\000"
 21623      61696C42 
 21623      6F7800
 21624              	.LASF537:
 21625 19bc 5350495F 		.ascii	"SPI_ACTIVE\000"
 21625      41435449 
 21625      564500
 21626              	.LASF203:
 21627 19c7 715F6275 		.ascii	"q_buffer\000"
 21627      66666572 
 21627      00
 21628              	.LASF37:
 21629 19d0 705F6E65 		.ascii	"p_next\000"
 21629      787400
 21630              	.LASF503:
 21631 19d7 49324344 		.ascii	"I2CD2\000"
 21631      3200
 21632              	.LASF1037:
 21633 19dd 6D637077 		.ascii	"mcpwm_foc_get_tot_current\000"
 21633      6D5F666F 
 21633      635F6765 
 21633      745F746F 
 21633      745F6375 
 21634              	.LASF578:
 21635 19f7 55534244 		.ascii	"USBDriver\000"
 21635      72697665 
 21635      7200
 21636              	.LASF695:
 21637 1a01 72657376 		.ascii	"resvd8C0\000"
 21637      64384330 
 21637      00
 21638              	.LASF732:
 21639 1a0a 55534243 		.ascii	"USBConfig\000"
 21639      6F6E6669 
 21639      6700
 21640              	.LASF638:
 21641 1a14 72657376 		.ascii	"resvdC\000"
 21641      644300
 21642              	.LASF530:
 21643 1a1b 6368616E 		.ascii	"channel\000"
 21643      6E656C00 
 21644              	.LASF870:
 21645 1a23 6D5F7465 		.ascii	"m_temp_motor\000"
 21645      6D705F6D 
 21645      6F746F72 
 21645      00
 21646              	.LASF987:
 21647 1a30 6D635F69 		.ascii	"mc_interface_set_configuration\000"
 21647      6E746572 
 21647      66616365 
 21647      5F736574 
ARM GAS  C:\Users\CHRIST~1\AppData\Local\Temp\ccCFoZV9.s 			page 403


 21647      5F636F6E 
 21648              	.LASF344:
 21649 1a4f 63635F67 		.ascii	"cc_gain\000"
 21649      61696E00 
 21650              	.LASF414:
 21651 1a57 4144435F 		.ascii	"ADC_curr_norm_value\000"
 21651      63757272 
 21651      5F6E6F72 
 21651      6D5F7661 
 21651      6C756500 
 21652              	.LASF894:
 21653 1a6b 696E645F 		.ascii	"ind_samp\000"
 21653      73616D70 
 21653      00
 21654              	.LASF28:
 21655 1a74 74726566 		.ascii	"trefs_t\000"
 21655      735F7400 
 21656              	.LASF55:
 21657 1a7c 705F6D70 		.ascii	"p_mpool\000"
 21657      6F6F6C00 
 21658              	.LASF1013:
 21659 1a84 6D637077 		.ascii	"mcpwm_foc_get_abs_motor_current\000"
 21659      6D5F666F 
 21659      635F6765 
 21659      745F6162 
 21659      735F6D6F 
 21660              	.LASF262:
 21661 1aa4 70776D5F 		.ascii	"pwm_mode\000"
 21661      6D6F6465 
 21661      00
 21662              	.LASF976:
 21663 1aad 64757479 		.ascii	"dutyCycle\000"
 21663      4379636C 
 21663      6500
 21664              	.LASF1055:
 21665 1ab7 6D637077 		.ascii	"mcpwm_foc_get_state\000"
 21665      6D5F666F 
 21665      635F6765 
 21665      745F7374 
 21665      61746500 
 21666              	.LASF264:
 21667 1acb 6D6F746F 		.ascii	"motor_type\000"
 21667      725F7479 
 21667      706500
 21668              	.LASF290:
 21669 1ad6 6C6F5F63 		.ascii	"lo_current_min\000"
 21669      75727265 
 21669      6E745F6D 
 21669      696E00
 21670              	.LASF725:
 21671 1ae5 696E5F6D 		.ascii	"in_multiplier\000"
 21671      756C7469 
 21671      706C6965 
 21671      7200
 21672              	.LASF297:
 21673 1af3 736C5F6D 		.ascii	"sl_max_fullbreak_current_dir_change\000"
 21673      61785F66 
ARM GAS  C:\Users\CHRIST~1\AppData\Local\Temp\ccCFoZV9.s 			page 404


 21673      756C6C62 
 21673      7265616B 
 21673      5F637572 
 21674              	.LASF969:
 21675 1b17 6D635F69 		.ascii	"mc_interface_set_current_rel\000"
 21675      6E746572 
 21675      66616365 
 21675      5F736574 
 21675      5F637572 
 21676              	.LASF760:
 21677 1b34 5F6F6E5F 		.ascii	"_on_exit_args\000"
 21677      65786974 
 21677      5F617267 
 21677      7300
 21678              	.LASF1061:
 21679 1b42 6D637077 		.ascii	"mcpwm_set_configuration\000"
 21679      6D5F7365 
 21679      745F636F 
 21679      6E666967 
 21679      75726174 
 21680              	.LASF1014:
 21681 1b5a 6D637077 		.ascii	"mcpwm_foc_get_abs_motor_current_filtered\000"
 21681      6D5F666F 
 21681      635F6765 
 21681      745F6162 
 21681      735F6D6F 
 21682              	.LASF26:
 21683 1b83 746D6F64 		.ascii	"tmode_t\000"
 21683      655F7400 
 21684              	.LASF798:
 21685 1b8b 5F5F636C 		.ascii	"__cleanup\000"
 21685      65616E75 
 21685      7000
 21686              	.LASF962:
 21687 1b95 6D635F69 		.ascii	"mc_interface_get_sampling_frequency_now\000"
 21687      6E746572 
 21687      66616365 
 21687      5F676574 
 21687      5F73616D 
 21688              	.LASF914:
 21689 1bbd 6C6F5F69 		.ascii	"lo_in_max\000"
 21689      6E5F6D61 
 21689      7800
 21690              	.LASF769:
 21691 1bc7 5F626173 		.ascii	"_base\000"
 21691      6500
 21692              	.LASF679:
 21693 1bcd 44535453 		.ascii	"DSTS\000"
 21693      00
 21694              	.LASF323:
 21695 1bd2 666F635F 		.ascii	"foc_sl_d_current_duty\000"
 21695      736C5F64 
 21695      5F637572 
 21695      72656E74 
 21695      5F647574 
 21696              	.LASF560:
 21697 1be8 55415254 		.ascii	"UARTDriver\000"
ARM GAS  C:\Users\CHRIST~1\AppData\Local\Temp\ccCFoZV9.s 			page 405


 21697      44726976 
 21697      657200
 21698              	.LASF431:
 21699 1bf3 42535252 		.ascii	"BSRR\000"
 21699      00
 21700              	.LASF575:
 21701 1bf8 55415254 		.ascii	"UARTConfig\000"
 21701      436F6E66 
 21701      696700
 21702              	.LASF144:
 21703 1c03 54494D5F 		.ascii	"TIM_TypeDef\000"
 21703      54797065 
 21703      44656600 
 21704              	.LASF730:
 21705 1c0f 72657175 		.ascii	"requests_hook_cb\000"
 21705      65737473 
 21705      5F686F6F 
 21705      6B5F6362 
 21705      00
 21706              	.LASF834:
 21707 1c20 5F776372 		.ascii	"_wcrtomb_state\000"
 21707      746F6D62 
 21707      5F737461 
 21707      746500
 21708              	.LASF302:
 21709 1c2f 68616C6C 		.ascii	"hall_table\000"
 21709      5F746162 
 21709      6C6500
 21710              	.LASF709:
 21711 1c3a 74787369 		.ascii	"txsize\000"
 21711      7A6500
 21712              	.LASF941:
 21713 1c41 6D635F69 		.ascii	"mc_interface_get_pid_pos_now\000"
 21713      6E746572 
 21713      66616365 
 21713      5F676574 
 21713      5F706964 
 21714              	.LASF569:
 21715 1c5e 7478656E 		.ascii	"txend1_cb\000"
 21715      64315F63 
 21715      6200
 21716              	.LASF576:
 21717 1c68 55415254 		.ascii	"UARTD3\000"
 21717      443300
 21718              	.LASF859:
 21719 1c6f 6D5F696E 		.ascii	"m_input_current_iterations\000"
 21719      7075745F 
 21719      63757272 
 21719      656E745F 
 21719      69746572 
 21720              	.LASF577:
 21721 1c8a 55415254 		.ascii	"UARTD6\000"
 21721      443600
 21722              	.LASF1086:
 21723 1c91 6D635F69 		.ascii	"mc_interface_get_last_sample_adc_isr_duration\000"
 21723      6E746572 
 21723      66616365 
ARM GAS  C:\Users\CHRIST~1\AppData\Local\Temp\ccCFoZV9.s 			page 406


 21723      5F676574 
 21723      5F6C6173 
 21724              	.LASF572:
 21725 1cbf 72786368 		.ascii	"rxchar_cb\000"
 21725      61725F63 
 21725      6200
 21726              	.LASF478:
 21727 1cc9 4932435F 		.ascii	"I2C_LOCKED\000"
 21727      4C4F434B 
 21727      454400
 21728              	.LASF260:
 21729 1cd4 44454255 		.ascii	"DEBUG_SAMPLING_SEND_LAST_SAMPLES\000"
 21729      475F5341 
 21729      4D504C49 
 21729      4E475F53 
 21729      454E445F 
 21730              	.LASF233:
 21731 1cf5 4D4F544F 		.ascii	"MOTOR_TYPE_DC\000"
 21731      525F5459 
 21731      50455F44 
 21731      4300
 21732              	.LASF1074:
 21733 1d03 6D637077 		.ascii	"mcpwm_foc_stop_pwm\000"
 21733      6D5F666F 
 21733      635F7374 
 21733      6F705F70 
 21733      776D00
 21734              	.LASF214:
 21735 1d16 4D435F53 		.ascii	"MC_STATE_RUNNING\000"
 21735      54415445 
 21735      5F52554E 
 21735      4E494E47 
 21735      00
 21736              	.LASF947:
 21737 1d27 6D635F69 		.ascii	"mc_interface_get_last_inj_adc_isr_duration\000"
 21737      6E746572 
 21737      66616365 
 21737      5F676574 
 21737      5F6C6173 
 21738              	.LASF599:
 21739 1d52 5553425F 		.ascii	"USB_READY\000"
 21739      52454144 
 21739      5900
 21740              	.LASF313:
 21741 1d5c 666F635F 		.ascii	"foc_motor_flux_linkage\000"
 21741      6D6F746F 
 21741      725F666C 
 21741      75785F6C 
 21741      696E6B61 
 21742              	.LASF651:
 21743 1d73 47525354 		.ascii	"GRSTCTL\000"
 21743      43544C00 
 21744              	.LASF567:
 21745 1d7b 75617274 		.ascii	"uartccb_t\000"
 21745      6363625F 
 21745      7400
 21746              	.LASF1029:
ARM GAS  C:\Users\CHRIST~1\AppData\Local\Temp\ccCFoZV9.s 			page 407


 21747 1d85 6D637077 		.ascii	"mcpwm_foc_get_tot_current_in\000"
 21747      6D5F666F 
 21747      635F6765 
 21747      745F746F 
 21747      745F6375 
 21748              	.LASF298:
 21749 1da2 736C5F63 		.ascii	"sl_cycle_int_limit\000"
 21749      79636C65 
 21749      5F696E74 
 21749      5F6C696D 
 21749      697400
 21750              	.LASF17:
 21751 1db5 696E7438 		.ascii	"int8_t\000"
 21751      5F7400
 21752              	.LASF549:
 21753 1dbc 55415254 		.ascii	"UART_READY\000"
 21753      5F524541 
 21753      445900
 21754              	.LASF744:
 21755 1dc7 5F5F554C 		.ascii	"__ULong\000"
 21755      6F6E6700 
 21756              	.LASF83:
 21757 1dcf 70616E69 		.ascii	"panic_msg\000"
 21757      635F6D73 
 21757      6700
 21758              	.LASF538:
 21759 1dd9 5350495F 		.ascii	"SPI_COMPLETE\000"
 21759      434F4D50 
 21759      4C455445 
 21759      00
 21760              	.LASF784:
 21761 1de6 5F646174 		.ascii	"_data\000"
 21761      6100
 21762              	.LASF67:
 21763 1dec 725F6E65 		.ascii	"r_newer\000"
 21763      77657200 
 21764              	.LASF366:
 21765 1df4 434F4D4D 		.ascii	"COMM_SET_CURRENT\000"
 21765      5F534554 
 21765      5F435552 
 21765      52454E54 
 21765      00
 21766              	.LASF944:
 21767 1e05 6D635F69 		.ascii	"mc_interface_read_reset_avg_id\000"
 21767      6E746572 
 21767      66616365 
 21767      5F726561 
 21767      645F7265 
 21768              	.LASF616:
 21769 1e24 5553425F 		.ascii	"USB_EVENT_STALLED\000"
 21769      4556454E 
 21769      545F5354 
 21769      414C4C45 
 21769      4400
 21770              	.LASF1011:
 21771 1e36 6D637077 		.ascii	"mcpwm_foc_get_id\000"
 21771      6D5F666F 
ARM GAS  C:\Users\CHRIST~1\AppData\Local\Temp\ccCFoZV9.s 			page 408


 21771      635F6765 
 21771      745F6964 
 21771      00
 21772              	.LASF186:
 21773 1e47 63686465 		.ascii	"chdebug_t\000"
 21773      6275675F 
 21773      7400
 21774              	.LASF996:
 21775 1e51 706F7274 		.ascii	"port_lock_from_isr\000"
 21775      5F6C6F63 
 21775      6B5F6672 
 21775      6F6D5F69 
 21775      737200
 21776              	.LASF1012:
 21777 1e64 6D637077 		.ascii	"mcpwm_foc_get_iq\000"
 21777      6D5F666F 
 21777      635F6765 
 21777      745F6971 
 21777      00
 21778              	.LASF714:
 21779 1e75 72787369 		.ascii	"rxsize\000"
 21779      7A6500
 21780              	.LASF507:
 21781 1e7c 4943555F 		.ascii	"ICU_WAITING\000"
 21781      57414954 
 21781      494E4700 
 21782              	.LASF630:
 21783 1e88 48435453 		.ascii	"HCTSIZ\000"
 21783      495A00
 21784              	.LASF613:
 21785 1e8f 5553425F 		.ascii	"USB_EVENT_CONFIGURED\000"
 21785      4556454E 
 21785      545F434F 
 21785      4E464947 
 21785      55524544 
 21786              	.LASF888:
 21787 1ea4 70776E5F 		.ascii	"pwn_done_func\000"
 21787      646F6E65 
 21787      5F66756E 
 21787      6300
 21788              	.LASF29:
 21789 1eb2 74736C69 		.ascii	"tslices_t\000"
 21789      6365735F 
 21789      7400
 21790              	.LASF819:
 21791 1ebc 5F737472 		.ascii	"_strtok_last\000"
 21791      746F6B5F 
 21791      6C617374 
 21791      00
 21792              	.LASF864:
 21793 1ec9 6D5F616D 		.ascii	"m_amp_seconds\000"
 21793      705F7365 
 21793      636F6E64 
 21793      7300
 21794              	.LASF173:
 21795 1ed7 63685F74 		.ascii	"ch_timesize\000"
 21795      696D6573 
ARM GAS  C:\Users\CHRIST~1\AppData\Local\Temp\ccCFoZV9.s 			page 409


 21795      697A6500 
 21796              	.LASF949:
 21797 1ee3 72657365 		.ascii	"reset\000"
 21797      7400
 21798              	.LASF404:
 21799 1ee9 6379636C 		.ascii	"cycles_running\000"
 21799      65735F72 
 21799      756E6E69 
 21799      6E6700
 21800              	.LASF595:
 21801 1ef8 77615F70 		.ascii	"wa_pump\000"
 21801      756D7000 
 21802              	.LASF198:
 21803 1f00 6576656E 		.ascii	"event_source_t\000"
 21803      745F736F 
 21803      75726365 
 21803      5F7400
 21804              	.LASF665:
 21805 1f0f 72657376 		.ascii	"resvd140\000"
 21805      64313430 
 21805      00
 21806              	.LASF75:
 21807 1f18 76745F64 		.ascii	"vt_delta\000"
 21807      656C7461 
 21807      00
 21808              	.LASF90:
 21809 1f21 73697A65 		.ascii	"sizetype\000"
 21809      74797065 
 21809      00
 21810              	.LASF815:
 21811 1f2a 5F736565 		.ascii	"_seed\000"
 21811      6400
 21812              	.LASF953:
 21813 1f30 6D635F69 		.ascii	"mc_interface_get_tot_current_directional_filtered\000"
 21813      6E746572 
 21813      66616365 
 21813      5F676574 
 21813      5F746F74 
 21814              	.LASF778:
 21815 1f62 5F736565 		.ascii	"_seek\000"
 21815      6B00
 21816              	.LASF614:
 21817 1f68 5553425F 		.ascii	"USB_EVENT_SUSPEND\000"
 21817      4556454E 
 21817      545F5355 
 21817      5350454E 
 21817      4400
 21818              	.LASF898:
 21819 1f7a 72706D5F 		.ascii	"rpm_now\000"
 21819      6E6F7700 
 21820              	.LASF19:
 21821 1f82 696E7431 		.ascii	"int16_t\000"
 21821      365F7400 
 21822              	.LASF8:
 21823 1f8a 73686F72 		.ascii	"short unsigned int\000"
 21823      7420756E 
 21823      7369676E 
ARM GAS  C:\Users\CHRIST~1\AppData\Local\Temp\ccCFoZV9.s 			page 410


 21823      65642069 
 21823      6E7400
 21824              	.LASF897:
 21825 1f9d 765F696E 		.ascii	"v_in\000"
 21825      00
 21826              	.LASF1:
 21827 1fa2 7369676E 		.ascii	"signed char\000"
 21827      65642063 
 21827      68617200 
 21828              	.LASF847:
 21829 1fae 5F5F6664 		.ascii	"__fdlibm_xopen\000"
 21829      6C69626D 
 21829      5F786F70 
 21829      656E00
 21830              	.LASF1038:
 21831 1fbd 6D637077 		.ascii	"mcpwm_get_tot_current\000"
 21831      6D5F6765 
 21831      745F746F 
 21831      745F6375 
 21831      7272656E 
 21832              	.LASF936:
 21833 1fd3 6D635F69 		.ascii	"mc_interface_temp_motor_filtered\000"
 21833      6E746572 
 21833      66616365 
 21833      5F74656D 
 21833      705F6D6F 
 21834              	.LASF47:
 21835 1ff4 705F7072 		.ascii	"p_preempt\000"
 21835      65656D70 
 21835      7400
 21836              	.LASF272:
 21837 1ffe 6C5F6D61 		.ascii	"l_max_erpm\000"
 21837      785F6572 
 21837      706D00
 21838              	.LASF48:
 21839 2009 705F7469 		.ascii	"p_time\000"
 21839      6D6500
 21840              	.LASF95:
 21841 2010 54444852 		.ascii	"TDHR\000"
 21841      00
 21842              	.LASF607:
 21843 2015 5553425F 		.ascii	"USB_EP0_RX\000"
 21843      4550305F 
 21843      525800
 21844              	.LASF1046:
 21845 2020 6D637077 		.ascii	"mcpwm_get_duty_cycle_set\000"
 21845      6D5F6765 
 21845      745F6475 
 21845      74795F63 
 21845      79636C65 
 21846              	.LASF399:
 21847 2039 63757272 		.ascii	"current\000"
 21847      656E7400 
 21848              	.LASF845:
 21849 2041 5F5F6664 		.ascii	"__fdlibm_ieee\000"
 21849      6C69626D 
 21849      5F696565 
ARM GAS  C:\Users\CHRIST~1\AppData\Local\Temp\ccCFoZV9.s 			page 411


 21849      6500
 21850              	.LASF1080:
 21851 204f 6D637077 		.ascii	"mcpwm_foc_set_current\000"
 21851      6D5F666F 
 21851      635F7365 
 21851      745F6375 
 21851      7272656E 
 21852              	.LASF850:
 21853 2065 6D5F636F 		.ascii	"m_conf\000"
 21853      6E6600
 21854              	.LASF588:
 21855 206c 73746174 		.ascii	"status\000"
 21855      757300
 21856              	.LASF1021:
 21857 2073 6D637077 		.ascii	"mcpwm_foc_get_last_inj_adc_isr_duration\000"
 21857      6D5F666F 
 21857      635F6765 
 21857      745F6C61 
 21857      73745F69 
 21858              	.LASF620:
 21859 209b 55534244 		.ascii	"USBDescriptor\000"
 21859      65736372 
 21859      6970746F 
 21859      7200
 21860              	.LASF853:
 21861 20a9 6D5F6379 		.ascii	"m_cycles_running\000"
 21861      636C6573 
 21861      5F72756E 
 21861      6E696E67 
 21861      00
 21862              	.LASF802:
 21863 20ba 5F667265 		.ascii	"_freelist\000"
 21863      656C6973 
 21863      7400
 21864              	.LASF562:
 21865 20c4 72787374 		.ascii	"rxstate\000"
 21865      61746500 
 21866              	.LASF242:
 21867 20cc 4641554C 		.ascii	"FAULT_CODE_OVER_TEMP_MOTOR\000"
 21867      545F434F 
 21867      44455F4F 
 21867      5645525F 
 21867      54454D50 
 21868              	.LASF990:
 21869 20e7 75706461 		.ascii	"update_override_limits\000"
 21869      74655F6F 
 21869      76657272 
 21869      6964655F 
 21869      6C696D69 
 21870              	.LASF412:
 21871 20fe 636F6E66 		.ascii	"conf_general_permanent_nrf_found\000"
 21871      5F67656E 
 21871      6572616C 
 21871      5F706572 
 21871      6D616E65 
 21872              	.LASF589:
 21873 211f 61646472 		.ascii	"address\000"
ARM GAS  C:\Users\CHRIST~1\AppData\Local\Temp\ccCFoZV9.s 			page 412


 21873      65737300 
 21874              	.LASF50:
 21875 2127 705F6D73 		.ascii	"p_msgqueue\000"
 21875      67717565 
 21875      756500
 21876              	.LASF183:
 21877 2132 63665F6F 		.ascii	"cf_off_refs\000"
 21877      66665F72 
 21877      65667300 
 21878              	.LASF319:
 21879 213e 666F635F 		.ascii	"foc_duty_dowmramp_ki\000"
 21879      64757479 
 21879      5F646F77 
 21879      6D72616D 
 21879      705F6B69 
 21880              	.LASF165:
 21881 2153 6D5F6F77 		.ascii	"m_owner\000"
 21881      6E657200 
 21882              	.LASF318:
 21883 215b 666F635F 		.ascii	"foc_duty_dowmramp_kp\000"
 21883      64757479 
 21883      5F646F77 
 21883      6D72616D 
 21883      705F6B70 
 21884              	.LASF783:
 21885 2170 5F6F6666 		.ascii	"_offset\000"
 21885      73657400 
 21886              	.LASF940:
 21887 2178 6D635F69 		.ascii	"mc_interface_try_input\000"
 21887      6E746572 
 21887      66616365 
 21887      5F747279 
 21887      5F696E70 
 21888              	.LASF92:
 21889 218f 53797374 		.ascii	"SystemCoreClock\000"
 21889      656D436F 
 21889      7265436C 
 21889      6F636B00 
 21890              	.LASF926:
 21891 219f 73616D70 		.ascii	"sample\000"
 21891      6C6500
 21892              	.LASF918:
 21893 21a6 6D635F69 		.ascii	"mc_interface_adc_inj_int_handler\000"
 21893      6E746572 
 21893      66616365 
 21893      5F616463 
 21893      5F696E6A 
 21894              	.LASF462:
 21895 21c7 73746174 		.ascii	"state\000"
 21895      6500
 21896              	.LASF171:
 21897 21cd 63685F76 		.ascii	"ch_version\000"
 21897      65727369 
 21897      6F6E00
 21898              	.LASF768:
 21899 21d8 5F5F7362 		.ascii	"__sbuf\000"
 21899      756600
ARM GAS  C:\Users\CHRIST~1\AppData\Local\Temp\ccCFoZV9.s 			page 413


 21900              	.LASF606:
 21901 21df 5553425F 		.ascii	"USB_EP0_WAITING_STS\000"
 21901      4550305F 
 21901      57414954 
 21901      494E475F 
 21901      53545300 
 21902              	.LASF126:
 21903 21f3 4932435F 		.ascii	"I2C_TypeDef\000"
 21903      54797065 
 21903      44656600 
 21904              	.LASF99:
 21905 21ff 52444852 		.ascii	"RDHR\000"
 21905      00
 21906              	.LASF1071:
 21907 2204 7574696C 		.ascii	"utils_sys_unlock_cnt\000"
 21907      735F7379 
 21907      735F756E 
 21907      6C6F636B 
 21907      5F636E74 
 21908              	.LASF817:
 21909 2219 5F616464 		.ascii	"_add\000"
 21909      00
 21910              	.LASF143:
 21911 221e 444D4152 		.ascii	"DMAR\000"
 21911      00
 21912              	.LASF85:
 21913 2223 63685F73 		.ascii	"ch_system\000"
 21913      79737465 
 21913      6D00
 21914              	.LASF884:
 21915 222d 6D5F7361 		.ascii	"m_sample_mode_last\000"
 21915      6D706C65 
 21915      5F6D6F64 
 21915      655F6C61 
 21915      737400
 21916              	.LASF788:
 21917 2240 5F726565 		.ascii	"_reent\000"
 21917      6E7400
 21918              	.LASF266:
 21919 2247 6C5F6375 		.ascii	"l_current_max\000"
 21919      7272656E 
 21919      745F6D61 
 21919      7800
 21920              	.LASF828:
 21921 2255 5F6C3634 		.ascii	"_l64a_buf\000"
 21921      615F6275 
 21921      6600
 21922              	.LASF410:
 21923 225f 64727638 		.ascii	"drv8301_faults\000"
 21923      3330315F 
 21923      6661756C 
 21923      747300
 21924              	.LASF820:
 21925 226e 5F617363 		.ascii	"_asctime_buf\000"
 21925      74696D65 
 21925      5F627566 
 21925      00
ARM GAS  C:\Users\CHRIST~1\AppData\Local\Temp\ccCFoZV9.s 			page 414


 21926              	.LASF555:
 21927 227b 55415254 		.ascii	"UART_RX_IDLE\000"
 21927      5F52585F 
 21927      49444C45 
 21927      00
 21928              	.LASF738:
 21929 2288 5F5F7763 		.ascii	"__wch\000"
 21929      6800
 21930              	.LASF741:
 21931 228e 5F5F7661 		.ascii	"__value\000"
 21931      6C756500 
 21932              	.LASF160:
 21933 2296 63685F73 		.ascii	"ch_semaphore\000"
 21933      656D6170 
 21933      686F7265 
 21933      00
 21934              	.LASF835:
 21935 22a3 5F776373 		.ascii	"_wcsrtombs_state\000"
 21935      72746F6D 
 21935      62735F73 
 21935      74617465 
 21935      00
 21936              	.LASF903:
 21937 22b4 6C6F5F6D 		.ascii	"lo_max_rpm\000"
 21937      61785F72 
 21937      706D00
 21938              	.LASF639:
 21939 22bf 44494550 		.ascii	"DIEPTSIZ\000"
 21939      5453495A 
 21939      00
 21940              	.LASF997:
 21941 22c8 706F7274 		.ascii	"port_unlock\000"
 21941      5F756E6C 
 21941      6F636B00 
 21942              	.LASF60:
 21943 22d4 74687265 		.ascii	"threads_queue_t\000"
 21943      6164735F 
 21943      71756575 
 21943      655F7400 
 21944              	.LASF244:
 21945 22e4 53454E53 		.ascii	"SENSOR_PORT_MODE_HALL\000"
 21945      4F525F50 
 21945      4F52545F 
 21945      4D4F4445 
 21945      5F48414C 
 21946              	.LASF1085:
 21947 22fa 5F5F6664 		.ascii	"__fdlibm_version\000"
 21947      6C69626D 
 21947      5F766572 
 21947      73696F6E 
 21947      00
 21948              	.LASF413:
 21949 230b 4144435F 		.ascii	"ADC_Value\000"
 21949      56616C75 
 21949      6500
 21950              	.LASF228:
 21951 2315 464F435F 		.ascii	"FOC_SENSOR_MODE_SENSORLESS\000"
ARM GAS  C:\Users\CHRIST~1\AppData\Local\Temp\ccCFoZV9.s 			page 415


 21951      53454E53 
 21951      4F525F4D 
 21951      4F44455F 
 21951      53454E53 
 21952              	.LASF46:
 21953 2330 705F7265 		.ascii	"p_refs\000"
 21953      667300
 21954              	.LASF717:
 21955 2337 65705F6D 		.ascii	"ep_mode\000"
 21955      6F646500 
 21956              	.LASF1078:
 21957 233f 6D637077 		.ascii	"mcpwm_foc_set_duty\000"
 21957      6D5F666F 
 21957      635F7365 
 21957      745F6475 
 21957      747900
 21958              	.LASF646:
 21959 2352 73746D33 		.ascii	"stm32_otg_out_ep_t\000"
 21959      325F6F74 
 21959      675F6F75 
 21959      745F6570 
 21959      5F7400
 21960              	.LASF227:
 21961 2365 6D635F73 		.ascii	"mc_sensor_mode\000"
 21961      656E736F 
 21961      725F6D6F 
 21961      646500
 21962              	.LASF94:
 21963 2374 54444C52 		.ascii	"TDLR\000"
 21963      00
 21964              	.LASF10:
 21965 2379 6C6F6E67 		.ascii	"long int\000"
 21965      20696E74 
 21965      00
 21966              	.LASF860:
 21967 2382 6D5F6D6F 		.ascii	"m_motor_id_sum\000"
 21967      746F725F 
 21967      69645F73 
 21967      756D00
 21968              	.LASF88:
 21969 2391 6D61696E 		.ascii	"mainthread\000"
 21969      74687265 
 21969      616400
 21970              	.LASF585:
 21971 239c 6570306E 		.ascii	"ep0n\000"
 21971      00
 21972              	.LASF913:
 21973 23a1 6C6F5F69 		.ascii	"lo_in_min_watt\000"
 21973      6E5F6D69 
 21973      6E5F7761 
 21973      747400
 21974              	.LASF164:
 21975 23b0 6D5F7175 		.ascii	"m_queue\000"
 21975      65756500 
 21976              	.LASF371:
 21977 23b8 434F4D4D 		.ascii	"COMM_SET_DETECT\000"
 21977      5F534554 
ARM GAS  C:\Users\CHRIST~1\AppData\Local\Temp\ccCFoZV9.s 			page 416


 21977      5F444554 
 21977      45435400 
 21978              	.LASF450:
 21979 23c8 50484461 		.ascii	"PHData\000"
 21979      746100
 21980              	.LASF1070:
 21981 23cf 7574696C 		.ascii	"utils_sys_lock_cnt\000"
 21981      735F7379 
 21981      735F6C6F 
 21981      636B5F63 
 21981      6E7400
 21982              	.LASF453:
 21983 23e2 696F706F 		.ascii	"ioportid_t\000"
 21983      72746964 
 21983      5F7400
 21984              	.LASF361:
 21985 23ed 434F4D4D 		.ascii	"COMM_JUMP_TO_BOOTLOADER\000"
 21985      5F4A554D 
 21985      505F544F 
 21985      5F424F4F 
 21985      544C4F41 
 21986              	.LASF221:
 21987 2405 434F4D4D 		.ascii	"COMM_MODE_INTEGRATE\000"
 21987      5F4D4F44 
 21987      455F494E 
 21987      54454752 
 21987      41544500 
 21988              	.LASF666:
 21989 2419 48434647 		.ascii	"HCFG\000"
 21989      00
 21990              	.LASF415:
 21991 241e 6D637077 		.ascii	"mcpwm_detect_currents\000"
 21991      6D5F6465 
 21991      74656374 
 21991      5F637572 
 21991      72656E74 
 21992              	.LASF564:
 21993 2434 646D616D 		.ascii	"dmamode\000"
 21993      6F646500 
 21994              	.LASF813:
 21995 243c 5F696F62 		.ascii	"_iobs\000"
 21995      7300
 21996              	.LASF546:
 21997 2442 53504944 		.ascii	"SPID1\000"
 21997      3100
 21998              	.LASF931:
 21999 2448 636F6E66 		.ascii	"conf\000"
 21999      00
 22000              	.LASF550:
 22001 244d 75617274 		.ascii	"uartstate_t\000"
 22001      73746174 
 22001      655F7400 
 22002              	.LASF156:
 22003 2459 77747472 		.ascii	"wttrp\000"
 22003      7000
 22004              	.LASF206:
 22005 245f 715F7264 		.ascii	"q_rdptr\000"
ARM GAS  C:\Users\CHRIST~1\AppData\Local\Temp\ccCFoZV9.s 			page 417


 22005      70747200 
 22006              	.LASF149:
 22007 2467 636F6E74 		.ascii	"context\000"
 22007      65787400 
 22008              	.LASF823:
 22009 246f 5F72616E 		.ascii	"_rand_next\000"
 22009      645F6E65 
 22009      787400
 22010              	.LASF938:
 22011 247a 6D635F69 		.ascii	"mc_interface_sample_print_data\000"
 22011      6E746572 
 22011      66616365 
 22011      5F73616D 
 22011      706C655F 
 22012              	.LASF1052:
 22013 2499 6D637077 		.ascii	"mcpwm_set_pid_speed\000"
 22013      6D5F7365 
 22013      745F7069 
 22013      645F7370 
 22013      65656400 
 22014              	.LASF719:
 22015 24ad 696E5F63 		.ascii	"in_cb\000"
 22015      6200
 22016              	.LASF416:
 22017 24b3 6D637077 		.ascii	"mcpwm_detect_voltages\000"
 22017      6D5F6465 
 22017      74656374 
 22017      5F766F6C 
 22017      74616765 
 22018              	.LASF644:
 22019 24c9 444F4550 		.ascii	"DOEPINT\000"
 22019      494E5400 
 22020              	.LASF955:
 22021 24d1 6D635F69 		.ascii	"mc_interface_get_tot_current_filtered\000"
 22021      6E746572 
 22021      66616365 
 22021      5F676574 
 22021      5F746F74 
 22022              	.LASF432:
 22023 24f7 4C434B52 		.ascii	"LCKR\000"
 22023      00
 22024              	.LASF310:
 22025 24fc 666F635F 		.ascii	"foc_encoder_ratio\000"
 22025      656E636F 
 22025      6465725F 
 22025      72617469 
 22025      6F00
 22026              	.LASF22:
 22027 250e 75696E74 		.ascii	"uint32_t\000"
 22027      33325F74 
 22027      00
 22028              	.LASF215:
 22029 2517 4D435F53 		.ascii	"MC_STATE_FULL_BRAKE\000"
 22029      54415445 
 22029      5F46554C 
 22029      4C5F4252 
 22029      414B4500 
ARM GAS  C:\Users\CHRIST~1\AppData\Local\Temp\ccCFoZV9.s 			page 418


 22030              	.LASF393:
 22031 252b 434F4D4D 		.ascii	"COMM_GET_DECODED_CHUK\000"
 22031      5F474554 
 22031      5F444543 
 22031      4F444544 
 22031      5F434855 
 22032              	.LASF747:
 22033 2541 5F6D6178 		.ascii	"_maxwds\000"
 22033      77647300 
 22034              	.LASF624:
 22035 2549 75736272 		.ascii	"usbreqhandler_t\000"
 22035      65716861 
 22035      6E646C65 
 22035      725F7400 
 22036              	.LASF98:
 22037 2559 52444C52 		.ascii	"RDLR\000"
 22037      00
 22038              	.LASF370:
 22039 255e 434F4D4D 		.ascii	"COMM_SET_HANDBRAKE\000"
 22039      5F534554 
 22039      5F48414E 
 22039      44425241 
 22039      4B4500
 22040              	.LASF748:
 22041 2571 5F736967 		.ascii	"_sign\000"
 22041      6E00
 22042              	.LASF961:
 22043 2577 6D635F69 		.ascii	"mc_interface_get_rpm\000"
 22043      6E746572 
 22043      66616365 
 22043      5F676574 
 22043      5F72706D 
 22044              	.LASF998:
 22045 258c 706F7274 		.ascii	"port_lock\000"
 22045      5F6C6F63 
 22045      6B00
 22046              	.LASF369:
 22047 2596 434F4D4D 		.ascii	"COMM_SET_POS\000"
 22047      5F534554 
 22047      5F504F53 
 22047      00
 22048              	.LASF147:
 22049 25a3 72656761 		.ascii	"regarm_t\000"
 22049      726D5F74 
 22049      00
 22050              	.LASF32:
 22051 25ac 6576656E 		.ascii	"eventmask_t\000"
 22051      746D6173 
 22051      6B5F7400 
 22052              	.LASF611:
 22053 25b8 5553425F 		.ascii	"USB_EVENT_RESET\000"
 22053      4556454E 
 22053      545F5245 
 22053      53455400 
 22054              	.LASF112:
 22055 25c8 46464131 		.ascii	"FFA1R\000"
 22055      5200
ARM GAS  C:\Users\CHRIST~1\AppData\Local\Temp\ccCFoZV9.s 			page 419


 22056              	.LASF600:
 22057 25ce 5553425F 		.ascii	"USB_SELECTED\000"
 22057      53454C45 
 22057      43544544 
 22057      00
 22058              	.LASF1034:
 22059 25db 6D637077 		.ascii	"mcpwm_get_tot_current_directional\000"
 22059      6D5F6765 
 22059      745F746F 
 22059      745F6375 
 22059      7272656E 
 22060              	.LASF12:
 22061 25fd 6C6F6E67 		.ascii	"long unsigned int\000"
 22061      20756E73 
 22061      69676E65 
 22061      6420696E 
 22061      7400
 22062              	.LASF345:
 22063 260f 63635F72 		.ascii	"cc_ramp_step_max\000"
 22063      616D705F 
 22063      73746570 
 22063      5F6D6178 
 22063      00
 22064              	.LASF958:
 22065 2620 6D635F69 		.ascii	"mc_interface_get_watt_hours\000"
 22065      6E746572 
 22065      66616365 
 22065      5F676574 
 22065      5F776174 
 22066              	.LASF340:
 22067 263c 705F7069 		.ascii	"p_pid_kd\000"
 22067      645F6B64 
 22067      00
 22068              	.LASF339:
 22069 2645 705F7069 		.ascii	"p_pid_ki\000"
 22069      645F6B69 
 22069      00
 22070              	.LASF205:
 22071 264e 715F7772 		.ascii	"q_wrptr\000"
 22071      70747200 
 22072              	.LASF338:
 22073 2656 705F7069 		.ascii	"p_pid_kp\000"
 22073      645F6B70 
 22073      00
 22074              	.LASF510:
 22075 265f 49435544 		.ascii	"ICUDriver\000"
 22075      72697665 
 22075      7200
 22076              	.LASF408:
 22077 2669 636F6D6D 		.ascii	"comm_step\000"
 22077      5F737465 
 22077      7000
 22078              	.LASF532:
 22079 2673 49435543 		.ascii	"ICUConfig\000"
 22079      6F6E6669 
 22079      6700
 22080              	.LASF218:
ARM GAS  C:\Users\CHRIST~1\AppData\Local\Temp\ccCFoZV9.s 			page 420


 22081 267d 50574D5F 		.ascii	"PWM_MODE_SYNCHRONOUS\000"
 22081      4D4F4445 
 22081      5F53594E 
 22081      4348524F 
 22081      4E4F5553 
 22082              	.LASF355:
 22083 2692 6D5F626C 		.ascii	"m_bldc_f_sw_max\000"
 22083      64635F66 
 22083      5F73775F 
 22083      6D617800 
 22084              	.LASF869:
 22085 26a2 6D5F7465 		.ascii	"m_temp_fet\000"
 22085      6D705F66 
 22085      657400
 22086              	.LASF252:
 22087 26ad 64727638 		.ascii	"drv8301_oc_mode\000"
 22087      3330315F 
 22087      6F635F6D 
 22087      6F646500 
 22088              	.LASF566:
 22089 26bd 75617274 		.ascii	"uartcb_t\000"
 22089      63625F74 
 22089      00
 22090              	.LASF331:
 22091 26c6 666F635F 		.ascii	"foc_temp_comp\000"
 22091      74656D70 
 22091      5F636F6D 
 22091      7000
 22092              	.LASF1057:
 22093 26d4 6D637077 		.ascii	"mcpwm_foc_is_dccal_done\000"
 22093      6D5F666F 
 22093      635F6973 
 22093      5F646363 
 22093      616C5F64 
 22094              	.LASF466:
 22095 26ec 72786675 		.ascii	"rxfull_event\000"
 22095      6C6C5F65 
 22095      76656E74 
 22095      00
 22096              	.LASF968:
 22097 26f9 6D635F69 		.ascii	"mc_interface_set_brake_current_rel\000"
 22097      6E746572 
 22097      66616365 
 22097      5F736574 
 22097      5F627261 
 22098              	.LASF617:
 22099 271c 75736265 		.ascii	"usbevent_t\000"
 22099      76656E74 
 22099      5F7400
 22100              	.LASF779:
 22101 2727 5F636C6F 		.ascii	"_close\000"
 22101      736500
 22102              	.LASF167:
 22103 272e 63686172 		.ascii	"char\000"
 22103      00
 22104              	.LASF461:
 22105 2733 43414E43 		.ascii	"CANConfig\000"
ARM GAS  C:\Users\CHRIST~1\AppData\Local\Temp\ccCFoZV9.s 			page 421


 22105      6F6E6669 
 22105      6700
 22106              	.LASF447:
 22107 273d 50454461 		.ascii	"PEData\000"
 22107      746100
 22108              	.LASF64:
 22109 2744 725F7175 		.ascii	"r_queue\000"
 22109      65756500 
 22110              	.LASF811:
 22111 274c 5F676C75 		.ascii	"_glue\000"
 22111      6500
 22112              	.LASF301:
 22113 2752 736C5F62 		.ascii	"sl_bemf_coupling_k\000"
 22113      656D665F 
 22113      636F7570 
 22113      6C696E67 
 22113      5F6B00
 22114              	.LASF993:
 22115 2765 63685379 		.ascii	"chSysUnlockFromISR\000"
 22115      73556E6C 
 22115      6F636B46 
 22115      726F6D49 
 22115      535200
 22116              	.LASF937:
 22117 2778 6D635F69 		.ascii	"mc_interface_temp_fet_filtered\000"
 22117      6E746572 
 22117      66616365 
 22117      5F74656D 
 22117      705F6665 
 22118              	.LASF861:
 22119 2797 6D5F6D6F 		.ascii	"m_motor_iq_sum\000"
 22119      746F725F 
 22119      69715F73 
 22119      756D00
 22120              	.LASF656:
 22121 27a6 47525846 		.ascii	"GRXFSIZ\000"
 22121      53495A00 
 22122              	.LASF360:
 22123 27ae 434F4D4D 		.ascii	"COMM_FW_VERSION\000"
 22123      5F46575F 
 22123      56455253 
 22123      494F4E00 
 22124              	.LASF927:
 22125 27be 63757272 		.ascii	"curr_diff_sum\000"
 22125      5F646966 
 22125      665F7375 
 22125      6D00
 22126              	.LASF563:
 22127 27cc 75736172 		.ascii	"usart\000"
 22127      7400
 22128              	.LASF1008:
 22129 27d2 6D637077 		.ascii	"mcpwm_read_hall_phase\000"
 22129      6D5F7265 
 22129      61645F68 
 22129      616C6C5F 
 22129      70686173 
 22130              	.LASF1073:
ARM GAS  C:\Users\CHRIST~1\AppData\Local\Temp\ccCFoZV9.s 			page 422


 22131 27e8 7465726D 		.ascii	"terminal_add_fault_data\000"
 22131      696E616C 
 22131      5F616464 
 22131      5F666175 
 22131      6C745F64 
 22132              	.LASF807:
 22133 2800 5F736967 		.ascii	"_sig_func\000"
 22133      5F66756E 
 22133      6300
 22134              	.LASF208:
 22135 280a 715F6C69 		.ascii	"q_link\000"
 22135      6E6B00
 22136              	.LASF522:
 22137 2811 4943555F 		.ascii	"ICU_CHANNEL_1\000"
 22137      4348414E 
 22137      4E454C5F 
 22137      3100
 22138              	.LASF856:
 22139 281f 6D5F6D6F 		.ascii	"m_motor_current_sum\000"
 22139      746F725F 
 22139      63757272 
 22139      656E745F 
 22139      73756D00 
 22140              	.LASF1018:
 22141 2833 63684576 		.ascii	"chEvtSignal\000"
 22141      74536967 
 22141      6E616C00 
 22142              	.LASF745:
 22143 283f 5F426967 		.ascii	"_Bigint\000"
 22143      696E7400 
 22144              	.LASF216:
 22145 2847 6D635F73 		.ascii	"mc_state\000"
 22145      74617465 
 22145      00
 22146              	.LASF1087:
 22147 2850 63685468 		.ascii	"chThdGetSelfX\000"
 22147      64476574 
 22147      53656C66 
 22147      5800
 22148              	.LASF880:
 22149 285e 6D5F7068 		.ascii	"m_phase_samples\000"
 22149      6173655F 
 22149      73616D70 
 22149      6C657300 
 22150              	.LASF653:
 22151 286e 47494E54 		.ascii	"GINTMSK\000"
 22151      4D534B00 
 22152              	.LASF514:
 22153 2876 69637563 		.ascii	"icucallback_t\000"
 22153      616C6C62 
 22153      61636B5F 
 22153      7400
 22154              	.LASF658:
 22155 2884 484E5054 		.ascii	"HNPTXSTS\000"
 22155      58535453 
 22155      00
 22156              	.LASF943:
ARM GAS  C:\Users\CHRIST~1\AppData\Local\Temp\ccCFoZV9.s 			page 423


 22157 288d 6D635F69 		.ascii	"mc_interface_read_reset_avg_iq\000"
 22157      6E746572 
 22157      66616365 
 22157      5F726561 
 22157      645F7265 
 22158              	.LASF398:
 22159 28ac 6661756C 		.ascii	"fault\000"
 22159      7400
 22160              	.LASF590:
 22161 28b2 636F6E66 		.ascii	"configuration\000"
 22161      69677572 
 22161      6174696F 
 22161      6E00
 22162              	.LASF930:
 22163 28c0 7A65726F 		.ascii	"zero\000"
 22163      00
 22164              	.LASF858:
 22165 28c5 6D5F6D6F 		.ascii	"m_motor_current_iterations\000"
 22165      746F725F 
 22165      63757272 
 22165      656E745F 
 22165      69746572 
 22166              	.LASF806:
 22167 28e0 5F617465 		.ascii	"_atexit0\000"
 22167      78697430 
 22167      00
 22168              	.LASF959:
 22169 28e9 6D635F69 		.ascii	"mc_interface_get_amp_hours_charged\000"
 22169      6E746572 
 22169      66616365 
 22169      5F676574 
 22169      5F616D70 
 22170              	.LASF906:
 22171 290c 6C6F5F6D 		.ascii	"lo_min_rpm\000"
 22171      696E5F72 
 22171      706D00
 22172              	.LASF1025:
 22173 2917 6D637077 		.ascii	"mcpwm_foc_get_tachometer_value\000"
 22173      6D5F666F 
 22173      635F6765 
 22173      745F7461 
 22173      63686F6D 
 22174              	.LASF442:
 22175 2936 73746D33 		.ascii	"stm32_gpio_setup_t\000"
 22175      325F6770 
 22175      696F5F73 
 22175      65747570 
 22175      5F7400
 22176              	.LASF519:
 22177 2949 4943555F 		.ascii	"ICU_INPUT_ACTIVE_LOW\000"
 22177      494E5055 
 22177      545F4143 
 22177      54495645 
 22177      5F4C4F57 
 22178              	.LASF253:
 22179 295e 44454255 		.ascii	"DEBUG_SAMPLING_OFF\000"
 22179      475F5341 
ARM GAS  C:\Users\CHRIST~1\AppData\Local\Temp\ccCFoZV9.s 			page 424


 22179      4D504C49 
 22179      4E475F4F 
 22179      464600
 22180              	.LASF909:
 22181 2971 6C6F5F6D 		.ascii	"lo_max\000"
 22181      617800
 22182              	.LASF267:
 22183 2978 6C5F6375 		.ascii	"l_current_min\000"
 22183      7272656E 
 22183      745F6D69 
 22183      6E00
 22184              	.LASF964:
 22185 2986 6D635F69 		.ascii	"mc_interface_get_duty_cycle_set\000"
 22185      6E746572 
 22185      66616365 
 22185      5F676574 
 22185      5F647574 
 22186              	.LASF425:
 22187 29a6 5F73746D 		.ascii	"_stm32_dma_streams\000"
 22187      33325F64 
 22187      6D615F73 
 22187      74726561 
 22187      6D7300
 22188              	.LASF892:
 22189 29b9 62756666 		.ascii	"buffer\000"
 22189      657200
 22190              	.LASF830:
 22191 29c0 5F676574 		.ascii	"_getdate_err\000"
 22191      64617465 
 22191      5F657272 
 22191      00
 22192              	.LASF403:
 22193 29cd 74616368 		.ascii	"tacho\000"
 22193      6F00
 22194              	.LASF521:
 22195 29d3 69637566 		.ascii	"icufreq_t\000"
 22195      7265715F 
 22195      7400
 22196              	.LASF1009:
 22197 29dd 6D637077 		.ascii	"mcpwm_foc_get_phase\000"
 22197      6D5F666F 
 22197      635F6765 
 22197      745F7068 
 22197      61736500 
 22198              	.LASF750:
 22199 29f1 5F5F746D 		.ascii	"__tm\000"
 22199      00
 22200              	.LASF238:
 22201 29f6 4641554C 		.ascii	"FAULT_CODE_UNDER_VOLTAGE\000"
 22201      545F434F 
 22201      44455F55 
 22201      4E444552 
 22201      5F564F4C 
 22202              	.LASF387:
 22203 2a0f 434F4D4D 		.ascii	"COMM_DETECT_ENCODER\000"
 22203      5F444554 
 22203      4543545F 
ARM GAS  C:\Users\CHRIST~1\AppData\Local\Temp\ccCFoZV9.s 			page 425


 22203      454E434F 
 22203      44455200 
 22204              	.LASF1064:
 22205 2a23 656E636F 		.ascii	"encoder_init_as5047p_spi\000"
 22205      6465725F 
 22205      696E6974 
 22205      5F617335 
 22205      30343770 
 22206              	.LASF434:
 22207 2a3c 41465248 		.ascii	"AFRH\000"
 22207      00
 22208              	.LASF375:
 22209 2a41 434F4D4D 		.ascii	"COMM_GET_MCCONF_DEFAULT\000"
 22209      5F474554 
 22209      5F4D4343 
 22209      4F4E465F 
 22209      44454641 
 22210              	.LASF1020:
 22211 2a59 656E636F 		.ascii	"encoder_read_deg\000"
 22211      6465725F 
 22211      72656164 
 22211      5F646567 
 22211      00
 22212              	.LASF364:
 22213 2a6a 434F4D4D 		.ascii	"COMM_GET_VALUES\000"
 22213      5F474554 
 22213      5F56414C 
 22213      55455300 
 22214              	.LASF303:
 22215 2a7a 68616C6C 		.ascii	"hall_sl_erpm\000"
 22215      5F736C5F 
 22215      6572706D 
 22215      00
 22216              	.LASF34:
 22217 2a87 636E745F 		.ascii	"cnt_t\000"
 22217      7400
 22218              	.LASF902:
 22219 2a8d 6C6F5F6D 		.ascii	"lo_min_mot\000"
 22219      696E5F6D 
 22219      6F7400
 22220              	.LASF915:
 22221 2a98 6C6F5F69 		.ascii	"lo_in_min\000"
 22221      6E5F6D69 
 22221      6E00
 22222              	.LASF605:
 22223 2aa2 5553425F 		.ascii	"USB_EP0_WAITING_TX0\000"
 22223      4550305F 
 22223      57414954 
 22223      494E475F 
 22223      54583000 
 22224              	.LASF402:
 22225 2ab6 64757479 		.ascii	"duty\000"
 22225      00
 22226              	.LASF236:
 22227 2abb 4641554C 		.ascii	"FAULT_CODE_NONE\000"
 22227      545F434F 
 22227      44455F4E 
ARM GAS  C:\Users\CHRIST~1\AppData\Local\Temp\ccCFoZV9.s 			page 426


 22227      4F4E4500 
 22228              	.LASF334:
 22229 2acb 735F7069 		.ascii	"s_pid_ki\000"
 22229      645F6B69 
 22229      00
 22230              	.LASF634:
 22231 2ad4 73746D33 		.ascii	"stm32_otg_host_chn_t\000"
 22231      325F6F74 
 22231      675F686F 
 22231      73745F63 
 22231      686E5F74 
 22232              	.LASF259:
 22233 2ae9 44454255 		.ascii	"DEBUG_SAMPLING_TRIGGER_FAULT_NOSEND\000"
 22233      475F5341 
 22233      4D504C49 
 22233      4E475F54 
 22233      52494747 
 22234              	.LASF333:
 22235 2b0d 735F7069 		.ascii	"s_pid_kp\000"
 22235      645F6B70 
 22235      00
 22236              	.LASF381:
 22237 2b16 434F4D4D 		.ascii	"COMM_PRINT\000"
 22237      5F505249 
 22237      4E5400
 22238              	.LASF433:
 22239 2b21 4146524C 		.ascii	"AFRL\000"
 22239      00
 22240              	.LASF293:
 22241 2b26 6C6F5F63 		.ascii	"lo_current_motor_max_now\000"
 22241      75727265 
 22241      6E745F6D 
 22241      6F746F72 
 22241      5F6D6178 
 22242              	.LASF842:
 22243 2b3f 5F696D70 		.ascii	"_impure_ptr\000"
 22243      7572655F 
 22243      70747200 
 22244              	.LASF184:
 22245 2b4b 63665F6F 		.ascii	"cf_off_preempt\000"
 22245      66665F70 
 22245      7265656D 
 22245      707400
 22246              	.LASF839:
 22247 2b5a 5F756E75 		.ascii	"_unused\000"
 22247      73656400 
 22248              	.LASF643:
 22249 2b62 444F4550 		.ascii	"DOEPCTL\000"
 22249      43544C00 
 22250              	.LASF948:
 22251 2b6a 6D635F69 		.ascii	"mc_interface_get_tachometer_abs_value\000"
 22251      6E746572 
 22251      66616365 
 22251      5F676574 
 22251      5F746163 
 22252              	.LASF629:
 22253 2b90 4843494E 		.ascii	"HCINTMSK\000"
ARM GAS  C:\Users\CHRIST~1\AppData\Local\Temp\ccCFoZV9.s 			page 427


 22253      544D534B 
 22253      00
 22254              	.LASF780:
 22255 2b99 5F756275 		.ascii	"_ubuf\000"
 22255      6600
 22256              	.LASF320:
 22257 2b9f 666F635F 		.ascii	"foc_openloop_rpm\000"
 22257      6F70656E 
 22257      6C6F6F70 
 22257      5F72706D 
 22257      00
 22258              	.LASF324:
 22259 2bb0 666F635F 		.ascii	"foc_sl_d_current_factor\000"
 22259      736C5F64 
 22259      5F637572 
 22259      72656E74 
 22259      5F666163 
 22260              	.LASF825:
 22261 2bc8 5F6D626C 		.ascii	"_mblen_state\000"
 22261      656E5F73 
 22261      74617465 
 22261      00
 22262              	.LASF808:
 22263 2bd5 5F5F7367 		.ascii	"__sglue\000"
 22263      6C756500 
 22264              	.LASF841:
 22265 2bdd 5F5F6C6F 		.ascii	"__locale_t\000"
 22265      63616C65 
 22265      5F7400
 22266              	.LASF317:
 22267 2be8 666F635F 		.ascii	"foc_pll_ki\000"
 22267      706C6C5F 
 22267      6B6900
 22268              	.LASF1039:
 22269 2bf3 6D637077 		.ascii	"mcpwm_foc_get_rpm\000"
 22269      6D5F666F 
 22269      635F6765 
 22269      745F7270 
 22269      6D00
 22270              	.LASF559:
 22271 2c05 75617274 		.ascii	"uartflags_t\000"
 22271      666C6167 
 22271      735F7400 
 22272              	.LASF316:
 22273 2c11 666F635F 		.ascii	"foc_pll_kp\000"
 22273      706C6C5F 
 22273      6B7000
 22274              	.LASF677:
 22275 2c1c 44434647 		.ascii	"DCFG\000"
 22275      00
 22276              	.LASF548:
 22277 2c21 55415254 		.ascii	"UART_STOP\000"
 22277      5F53544F 
 22277      5000
 22278              	.LASF256:
 22279 2c2b 44454255 		.ascii	"DEBUG_SAMPLING_TRIGGER_START\000"
 22279      475F5341 
ARM GAS  C:\Users\CHRIST~1\AppData\Local\Temp\ccCFoZV9.s 			page 428


 22279      4D504C49 
 22279      4E475F54 
 22279      52494747 
 22280              	.LASF508:
 22281 2c48 4943555F 		.ascii	"ICU_ACTIVE\000"
 22281      41435449 
 22281      564500
 22282              	.LASF571:
 22283 2c53 7278656E 		.ascii	"rxend_cb\000"
 22283      645F6362 
 22283      00
 22284              	.LASF923:
 22285 2c5c 6162735F 		.ascii	"abs_current\000"
 22285      63757272 
 22285      656E7400 
 22286              	.LASF965:
 22287 2c68 6D635F69 		.ascii	"mc_interface_release_motor\000"
 22287      6E746572 
 22287      66616365 
 22287      5F72656C 
 22287      65617365 
 22288              	.LASF70:
 22289 2c83 76746675 		.ascii	"vtfunc_t\000"
 22289      6E635F74 
 22289      00
 22290              	.LASF100:
 22291 2c8c 43414E5F 		.ascii	"CAN_FIFOMailBox_TypeDef\000"
 22291      4649464F 
 22291      4D61696C 
 22291      426F785F 
 22291      54797065 
 22292              	.LASF155:
 22293 2ca4 77746F62 		.ascii	"wtobjp\000"
 22293      6A7000
 22294              	.LASF736:
 22295 2cab 5F66706F 		.ascii	"_fpos_t\000"
 22295      735F7400 
 22296              	.LASF773:
 22297 2cb3 5F66696C 		.ascii	"_file\000"
 22297      6500
 22298              	.LASF249:
 22299 2cb9 44525638 		.ascii	"DRV8301_OC_LATCH_SHUTDOWN\000"
 22299      3330315F 
 22299      4F435F4C 
 22299      41544348 
 22299      5F534855 
 22300              	.LASF54:
 22301 2cd3 705F7265 		.ascii	"p_realprio\000"
 22301      616C7072 
 22301      696F00
 22302              	.LASF395:
 22303 2cde 434F4D4D 		.ascii	"COMM_SET_CHUCK_DATA\000"
 22303      5F534554 
 22303      5F434855 
 22303      434B5F44 
 22303      41544100 
 22304              	.LASF207:
ARM GAS  C:\Users\CHRIST~1\AppData\Local\Temp\ccCFoZV9.s 			page 429


 22305 2cf2 715F6E6F 		.ascii	"q_notify\000"
 22305      74696679 
 22305      00
 22306              	.LASF158:
 22307 2cfb 77746D74 		.ascii	"wtmtxp\000"
 22307      787000
 22308              	.LASF235:
 22309 2d02 6D635F6D 		.ascii	"mc_motor_type\000"
 22309      6F746F72 
 22309      5F747970 
 22309      6500
 22310              	.LASF771:
 22311 2d10 5F5F7346 		.ascii	"__sFILE\000"
 22311      494C4500 
 22312              	.LASF254:
 22313 2d18 44454255 		.ascii	"DEBUG_SAMPLING_NOW\000"
 22313      475F5341 
 22313      4D504C49 
 22313      4E475F4E 
 22313      4F5700
 22314              	.LASF844:
 22315 2d2b 646F7562 		.ascii	"double\000"
 22315      6C6500
 22316              	.LASF767:
 22317 2d32 5F666E73 		.ascii	"_fns\000"
 22317      00
 22318              	.LASF886:
 22319 2d37 6D5F7361 		.ascii	"m_sample_trigger\000"
 22319      6D706C65 
 22319      5F747269 
 22319      67676572 
 22319      00
 22320              	.LASF1065:
 22321 2d48 656E636F 		.ascii	"encoder_set_counts\000"
 22321      6465725F 
 22321      7365745F 
 22321      636F756E 
 22321      747300
 22322              	.LASF843:
 22323 2d5b 5F676C6F 		.ascii	"_global_impure_ptr\000"
 22323      62616C5F 
 22323      696D7075 
 22323      72655F70 
 22323      747200
 22324              	.LASF377:
 22325 2d6e 434F4D4D 		.ascii	"COMM_GET_APPCONF\000"
 22325      5F474554 
 22325      5F415050 
 22325      434F4E46 
 22325      00
 22326              	.LASF911:
 22327 2d7f 6C6F5F69 		.ascii	"lo_in_max_batt\000"
 22327      6E5F6D61 
 22327      785F6261 
 22327      747400
 22328              	.LASF973:
 22329 2d8e 6D635F69 		.ascii	"mc_interface_set_pid_pos\000"
ARM GAS  C:\Users\CHRIST~1\AppData\Local\Temp\ccCFoZV9.s 			page 430


 22329      6E746572 
 22329      66616365 
 22329      5F736574 
 22329      5F706964 
 22330              	.LASF716:
 22331 2da7 5553424F 		.ascii	"USBOutEndpointState\000"
 22331      7574456E 
 22331      64706F69 
 22331      6E745374 
 22331      61746500 
 22332              	.LASF673:
 22333 2dbb 72657376 		.ascii	"resvd41C\000"
 22333      64343143 
 22333      00
 22334              	.LASF284:
 22335 2dc4 6C5F7465 		.ascii	"l_temp_motor_end\000"
 22335      6D705F6D 
 22335      6F746F72 
 22335      5F656E64 
 22335      00
 22336              	.LASF742:
 22337 2dd5 5F6D6273 		.ascii	"_mbstate_t\000"
 22337      74617465 
 22337      5F7400
 22338              	.LASF836:
 22339 2de0 5F685F65 		.ascii	"_h_errno\000"
 22339      72726E6F 
 22339      00
 22340              	.LASF901:
 22341 2de9 6C6F5F6D 		.ascii	"lo_max_mot\000"
 22341      61785F6D 
 22341      6F7400
 22342              	.LASF332:
 22343 2df4 666F635F 		.ascii	"foc_temp_comp_base_temp\000"
 22343      74656D70 
 22343      5F636F6D 
 22343      705F6261 
 22343      73655F74 
 22344              	.LASF97:
 22345 2e0c 52445452 		.ascii	"RDTR\000"
 22345      00
 22346              	.LASF885:
 22347 2e11 6D5F7361 		.ascii	"m_sample_now\000"
 22347      6D706C65 
 22347      5F6E6F77 
 22347      00
 22348              	.LASF982:
 22349 2e1e 6D635F69 		.ascii	"mc_interface_unlock\000"
 22349      6E746572 
 22349      66616365 
 22349      5F756E6C 
 22349      6F636B00 
 22350              	.LASF265:
 22351 2e32 73656E73 		.ascii	"sensor_mode\000"
 22351      6F725F6D 
 22351      6F646500 
 22352              	.LASF224:
ARM GAS  C:\Users\CHRIST~1\AppData\Local\Temp\ccCFoZV9.s 			page 431


 22353 2e3e 53454E53 		.ascii	"SENSOR_MODE_SENSORLESS\000"
 22353      4F525F4D 
 22353      4F44455F 
 22353      53454E53 
 22353      4F524C45 
 22354              	.LASF574:
 22355 2e55 73706565 		.ascii	"speed\000"
 22355      6400
 22356              	.LASF63:
 22357 2e5b 63685F72 		.ascii	"ch_ready_list\000"
 22357      65616479 
 22357      5F6C6973 
 22357      7400
 22358              	.LASF570:
 22359 2e69 7478656E 		.ascii	"txend2_cb\000"
 22359      64325F63 
 22359      6200
 22360              	.LASF1043:
 22361 2e73 6D637077 		.ascii	"mcpwm_foc_get_duty_cycle_now\000"
 22361      6D5F666F 
 22361      635F6765 
 22361      745F6475 
 22361      74795F63 
 22362              	.LASF430:
 22363 2e90 50555044 		.ascii	"PUPDR\000"
 22363      5200
 22364              	.LASF9:
 22365 2e96 5F5F696E 		.ascii	"__int32_t\000"
 22365      7433325F 
 22365      7400
 22366              	.LASF11:
 22367 2ea0 5F5F7569 		.ascii	"__uint32_t\000"
 22367      6E743332 
 22367      5F7400
 22368              	.LASF512:
 22369 2eab 77636372 		.ascii	"wccrp\000"
 22369      7000
 22370              	.LASF82:
 22371 2eb1 63685F73 		.ascii	"ch_system_debug\000"
 22371      79737465 
 22371      6D5F6465 
 22371      62756700 
 22372              	.LASF407:
 22373 2ec1 74696D5F 		.ascii	"tim_top\000"
 22373      746F7000 
 22374              	.LASF684:
 22375 2ec9 4441494E 		.ascii	"DAINTMSK\000"
 22375      544D534B 
 22375      00
 22376              	.LASF1072:
 22377 2ed2 6C6F6766 		.ascii	"logf\000"
 22377      00
 22378              	.LASF202:
 22379 2ed7 715F636F 		.ascii	"q_counter\000"
 22379      756E7465 
 22379      7200
 22380              	.LASF603:
ARM GAS  C:\Users\CHRIST~1\AppData\Local\Temp\ccCFoZV9.s 			page 432


 22381 2ee1 5553425F 		.ascii	"USB_EP0_WAITING_SETUP\000"
 22381      4550305F 
 22381      57414954 
 22381      494E475F 
 22381      53455455 
 22382              	.LASF764:
 22383 2ef7 5F69735F 		.ascii	"_is_cxa\000"
 22383      63786100 
 22384              	.LASF441:
 22385 2eff 61667268 		.ascii	"afrh\000"
 22385      00
 22386              	.LASF1005:
 22387 2f04 6D637077 		.ascii	"mcpwm_adc_inj_int_handler\000"
 22387      6D5F6164 
 22387      635F696E 
 22387      6A5F696E 
 22387      745F6861 
 22388              	.LASF505:
 22389 2f1e 4943555F 		.ascii	"ICU_STOP\000"
 22389      53544F50 
 22389      00
 22390              	.LASF440:
 22391 2f27 6166726C 		.ascii	"afrl\000"
 22391      00
 22392              	.LASF707:
 22393 2f2c 71756575 		.ascii	"queue\000"
 22393      6500
 22394              	.LASF258:
 22395 2f32 44454255 		.ascii	"DEBUG_SAMPLING_TRIGGER_START_NOSEND\000"
 22395      475F5341 
 22395      4D504C49 
 22395      4E475F54 
 22395      52494747 
 22396              	.LASF354:
 22397 2f56 6D5F626C 		.ascii	"m_bldc_f_sw_min\000"
 22397      64635F66 
 22397      5F73775F 
 22397      6D696E00 
 22398              	.LASF586:
 22399 2f66 65703065 		.ascii	"ep0endcb\000"
 22399      6E646362 
 22399      00
 22400              	.LASF422:
 22401 2f6f 73656C66 		.ascii	"selfindex\000"
 22401      696E6465 
 22401      7800
 22402              	.LASF188:
 22403 2f79 6D757465 		.ascii	"mutex_t\000"
 22403      785F7400 
 22404              	.LASF801:
 22405 2f81 5F703573 		.ascii	"_p5s\000"
 22405      00
 22406              	.LASF942:
 22407 2f86 6D635F69 		.ascii	"mc_interface_get_pid_pos_set\000"
 22407      6E746572 
 22407      66616365 
 22407      5F676574 
ARM GAS  C:\Users\CHRIST~1\AppData\Local\Temp\ccCFoZV9.s 			page 433


 22407      5F706964 
 22408              	.LASF52:
 22409 2fa3 705F6570 		.ascii	"p_epending\000"
 22409      656E6469 
 22409      6E6700
 22410              	.LASF895:
 22411 2fae 73616D70 		.ascii	"sample_send_thread\000"
 22411      6C655F73 
 22411      656E645F 
 22411      74687265 
 22411      616400
 22412              	.LASF427:
 22413 2fc1 4D4F4445 		.ascii	"MODER\000"
 22413      5200
 22414              	.LASF1024:
 22415 2fc7 6D637077 		.ascii	"mcpwm_get_tachometer_abs_value\000"
 22415      6D5F6765 
 22415      745F7461 
 22415      63686F6D 
 22415      65746572 
 22416              	.LASF511:
 22417 2fe6 636C6F63 		.ascii	"clock\000"
 22417      6B00
 22418              	.LASF321:
 22419 2fec 666F635F 		.ascii	"foc_sl_openloop_hyst\000"
 22419      736C5F6F 
 22419      70656E6C 
 22419      6F6F705F 
 22419      68797374 
 22420              	.LASF104:
 22421 3001 52455345 		.ascii	"RESERVED0\000"
 22421      52564544 
 22421      3000
 22422              	.LASF107:
 22423 300b 52455345 		.ascii	"RESERVED1\000"
 22423      52564544 
 22423      3100
 22424              	.LASF109:
 22425 3015 52455345 		.ascii	"RESERVED2\000"
 22425      52564544 
 22425      3200
 22426              	.LASF111:
 22427 301f 52455345 		.ascii	"RESERVED3\000"
 22427      52564544 
 22427      3300
 22428              	.LASF113:
 22429 3029 52455345 		.ascii	"RESERVED4\000"
 22429      52564544 
 22429      3400
 22430              	.LASF115:
 22431 3033 52455345 		.ascii	"RESERVED5\000"
 22431      52564544 
 22431      3500
 22432              	.LASF727:
 22433 303d 55534245 		.ascii	"USBEndpointConfig\000"
 22433      6E64706F 
 22433      696E7443 
ARM GAS  C:\Users\CHRIST~1\AppData\Local\Temp\ccCFoZV9.s 			page 434


 22433      6F6E6669 
 22433      6700
 22434              	.LASF465:
 22435 304f 72787175 		.ascii	"rxqueue\000"
 22435      65756500 
 22436              	.LASF675:
 22437 3057 72657376 		.ascii	"resvd444\000"
 22437      64343434 
 22437      00
 22438              	.LASF454:
 22439 3060 70616C5F 		.ascii	"pal_default_config\000"
 22439      64656661 
 22439      756C745F 
 22439      636F6E66 
 22439      696700
 22440              	.LASF392:
 22441 3073 434F4D4D 		.ascii	"COMM_GET_DECODED_ADC\000"
 22441      5F474554 
 22441      5F444543 
 22441      4F444544 
 22441      5F414443 
 22442              	.LASF557:
 22443 3088 55415254 		.ascii	"UART_RX_COMPLETE\000"
 22443      5F52585F 
 22443      434F4D50 
 22443      4C455445 
 22443      00
 22444              	.LASF376:
 22445 3099 434F4D4D 		.ascii	"COMM_SET_APPCONF\000"
 22445      5F534554 
 22445      5F415050 
 22445      434F4E46 
 22445      00
 22446              	.LASF192:
 22447 30aa 656C5F6C 		.ascii	"el_listener\000"
 22447      69737465 
 22447      6E657200 
 22448              	.LASF706:
 22449 30b6 6C696E65 		.ascii	"linear\000"
 22449      617200
 22450              	.LASF401:
 22451 30bd 766F6C74 		.ascii	"voltage\000"
 22451      61676500 
 22452              	.LASF291:
 22453 30c5 6C6F5F69 		.ascii	"lo_in_current_max\000"
 22453      6E5F6375 
 22453      7272656E 
 22453      745F6D61 
 22453      7800
 22454              	.LASF1004:
 22455 30d7 63685468 		.ascii	"chThdSleep\000"
 22455      64536C65 
 22455      657000
 22456              	.LASF384:
 22457 30e2 434F4D4D 		.ascii	"COMM_DETECT_MOTOR_PARAM\000"
 22457      5F444554 
 22457      4543545F 
ARM GAS  C:\Users\CHRIST~1\AppData\Local\Temp\ccCFoZV9.s 			page 435


 22457      4D4F544F 
 22457      525F5041 
 22458              	.LASF517:
 22459 30fa 73746D33 		.ascii	"stm32_tim_t\000"
 22459      325F7469 
 22459      6D5F7400 
 22460              	.LASF912:
 22461 3106 6C6F5F69 		.ascii	"lo_in_max_watt\000"
 22461      6E5F6D61 
 22461      785F7761 
 22461      747400
 22462              	.LASF65:
 22463 3115 725F7072 		.ascii	"r_prio\000"
 22463      696F00
 22464              	.LASF592:
 22465 311c 706D6E65 		.ascii	"pmnext\000"
 22465      787400
 22466              	.LASF325:
 22467 3123 666F635F 		.ascii	"foc_sensor_mode\000"
 22467      73656E73 
 22467      6F725F6D 
 22467      6F646500 
 22468              	.LASF533:
 22469 3133 49435544 		.ascii	"ICUD3\000"
 22469      3300
 22470              	.LASF91:
 22471 3139 49544D5F 		.ascii	"ITM_RxBuffer\000"
 22471      52784275 
 22471      66666572 
 22471      00
 22472              	.LASF523:
 22473 3146 4943555F 		.ascii	"ICU_CHANNEL_2\000"
 22473      4348414E 
 22473      4E454C5F 
 22473      3200
 22474              	.LASF230:
 22475 3154 464F435F 		.ascii	"FOC_SENSOR_MODE_HALL\000"
 22475      53454E53 
 22475      4F525F4D 
 22475      4F44455F 
 22475      48414C4C 
 22476              	.LASF15:
 22477 3169 6C6F6E67 		.ascii	"long long unsigned int\000"
 22477      206C6F6E 
 22477      6720756E 
 22477      7369676E 
 22477      65642069 
 22478              	.LASF151:
 22479 3180 6F666673 		.ascii	"offset\000"
 22479      657400
 22480              	.LASF919:
 22481 3187 6D635F69 		.ascii	"mc_interface_mc_timer_isr\000"
 22481      6E746572 
 22481      66616365 
 22481      5F6D635F 
 22481      74696D65 
 22482              	.LASF871:
ARM GAS  C:\Users\CHRIST~1\AppData\Local\Temp\ccCFoZV9.s 			page 436


 22483 31a1 6D5F6375 		.ascii	"m_curr0_samples\000"
 22483      7272305F 
 22483      73616D70 
 22483      6C657300 
 22484              	.LASF527:
 22485 31b1 77696474 		.ascii	"width_cb\000"
 22485      685F6362 
 22485      00
 22486              	.LASF307:
 22487 31ba 666F635F 		.ascii	"foc_dt_us\000"
 22487      64745F75 
 22487      7300
 22488              	.LASF872:
 22489 31c4 6D5F6375 		.ascii	"m_curr1_samples\000"
 22489      7272315F 
 22489      73616D70 
 22489      6C657300 
 22490              	.LASF573:
 22491 31d4 72786572 		.ascii	"rxerr_cb\000"
 22491      725F6362 
 22491      00
 22492              	.LASF330:
 22493 31dd 666F635F 		.ascii	"foc_sat_comp\000"
 22493      7361745F 
 22493      636F6D70 
 22493      00
 22494              	.LASF118:
 22495 31ea 4E445452 		.ascii	"NDTR\000"
 22495      00
 22496              	.LASF197:
 22497 31ef 65735F6E 		.ascii	"es_next\000"
 22497      65787400 
 22498              	.LASF822:
 22499 31f7 5F67616D 		.ascii	"_gamma_signgam\000"
 22499      6D615F73 
 22499      69676E67 
 22499      616D00
 22500              	.LASF641:
 22501 3206 72657376 		.ascii	"resvd1C\000"
 22501      64314300 
 22502              	.LASF89:
 22503 320e 69646C65 		.ascii	"idle_thread_wa\000"
 22503      5F746872 
 22503      6561645F 
 22503      776100
 22504              	.LASF637:
 22505 321d 44494550 		.ascii	"DIEPINT\000"
 22505      494E5400 
 22506              	.LASF509:
 22507 3225 69637573 		.ascii	"icustate_t\000"
 22507      74617465 
 22507      5F7400
 22508              	.LASF132:
 22509 3230 5350495F 		.ascii	"SPI_TypeDef\000"
 22509      54797065 
 22509      44656600 
 22510              	.LASF76:
ARM GAS  C:\Users\CHRIST~1\AppData\Local\Temp\ccCFoZV9.s 			page 437


 22511 323c 76745F66 		.ascii	"vt_func\000"
 22511      756E6300 
 22512              	.LASF133:
 22513 3244 534D4352 		.ascii	"SMCR\000"
 22513      00
 22514              	.LASF971:
 22515 3249 6D635F69 		.ascii	"mc_interface_set_brake_current\000"
 22515      6E746572 
 22515      66616365 
 22515      5F736574 
 22515      5F627261 
 22516              	.LASF409:
 22517 3268 74656D70 		.ascii	"temperature\000"
 22517      65726174 
 22517      75726500 
 22518              	.LASF682:
 22519 3274 444F4550 		.ascii	"DOEPMSK\000"
 22519      4D534B00 
 22520              	.LASF367:
 22521 327c 434F4D4D 		.ascii	"COMM_SET_CURRENT_BRAKE\000"
 22521      5F534554 
 22521      5F435552 
 22521      52454E54 
 22521      5F425241 
 22522              	.LASF978:
 22523 3293 6D635F69 		.ascii	"mc_interface_get_state\000"
 22523      6E746572 
 22523      66616365 
 22523      5F676574 
 22523      5F737461 
 22524              	.LASF72:
 22525 32aa 63685F76 		.ascii	"ch_virtual_timer\000"
 22525      69727475 
 22525      616C5F74 
 22525      696D6572 
 22525      00
 22526              	.LASF45:
 22527 32bb 705F666C 		.ascii	"p_flags\000"
 22527      61677300 
 22528              	.LASF373:
 22529 32c3 434F4D4D 		.ascii	"COMM_SET_MCCONF\000"
 22529      5F534554 
 22529      5F4D4343 
 22529      4F4E4600 
 22530              	.LASF159:
 22531 32d3 65776D61 		.ascii	"ewmask\000"
 22531      736B00
 22532              	.LASF988:
 22533 32da 6D635F69 		.ascii	"mc_interface_get_configuration\000"
 22533      6E746572 
 22533      66616365 
 22533      5F676574 
 22533      5F636F6E 
 22534              	.LASF368:
 22535 32f9 434F4D4D 		.ascii	"COMM_SET_RPM\000"
 22535      5F534554 
 22535      5F52504D 
ARM GAS  C:\Users\CHRIST~1\AppData\Local\Temp\ccCFoZV9.s 			page 438


 22535      00
 22536              	.LASF194:
 22537 3306 656C5F66 		.ascii	"el_flags\000"
 22537      6C616773 
 22537      00
 22538              	.LASF196:
 22539 330f 6576656E 		.ascii	"event_source\000"
 22539      745F736F 
 22539      75726365 
 22539      00
 22540              	.LASF967:
 22541 331c 6D635F69 		.ascii	"mc_interface_set_handbrake\000"
 22541      6E746572 
 22541      66616365 
 22541      5F736574 
 22541      5F68616E 
 22542              	.LASF397:
 22543 3337 434F4D4D 		.ascii	"COMM_NRF_START_PAIRING\000"
 22543      5F4E5246 
 22543      5F535441 
 22543      52545F50 
 22543      41495249 
 22544              	.LASF53:
 22545 334e 705F6D74 		.ascii	"p_mtxlist\000"
 22545      786C6973 
 22545      7400
 22546              	.LASF300:
 22547 3358 736C5F63 		.ascii	"sl_cycle_int_rpm_br\000"
 22547      79636C65 
 22547      5F696E74 
 22547      5F72706D 
 22547      5F627200 
 22548              	.LASF472:
 22549 336c 43414E44 		.ascii	"CAND1\000"
 22549      3100
 22550              	.LASF110:
 22551 3372 46533152 		.ascii	"FS1R\000"
 22551      00
 22552              	.LASF27:
 22553 3377 74737461 		.ascii	"tstate_t\000"
 22553      74655F74 
 22553      00
 22554              	.LASF540:
 22555 3380 53504944 		.ascii	"SPIDriver\000"
 22555      72697665 
 22555      7200
 22556              	.LASF683:
 22557 338a 4441494E 		.ascii	"DAINT\000"
 22557      5400
 22558              	.LASF545:
 22559 3390 53504943 		.ascii	"SPIConfig\000"
 22559      6F6E6669 
 22559      6700
 22560              	.LASF795:
 22561 339a 5F756E73 		.ascii	"_unspecified_locale_info\000"
 22561      70656369 
 22561      66696564 
ARM GAS  C:\Users\CHRIST~1\AppData\Local\Temp\ccCFoZV9.s 			page 439


 22561      5F6C6F63 
 22561      616C655F 
 22562              	.LASF439:
 22563 33b3 70757064 		.ascii	"pupdr\000"
 22563      7200
 22564              	.LASF356:
 22565 33b9 6D5F6463 		.ascii	"m_dc_f_sw\000"
 22565      5F665F73 
 22565      7700
 22566              	.LASF329:
 22567 33c3 666F635F 		.ascii	"foc_sample_high_current\000"
 22567      73616D70 
 22567      6C655F68 
 22567      6967685F 
 22567      63757272 
 22568              	.LASF633:
 22569 33db 72657376 		.ascii	"resvd1c\000"
 22569      64316300 
 22570              	.LASF579:
 22571 33e3 7472616E 		.ascii	"transmitting\000"
 22571      736D6974 
 22571      74696E67 
 22571      00
 22572              	.LASF1066:
 22573 33f0 656E636F 		.ascii	"encoder_init_abi\000"
 22573      6465725F 
 22573      696E6974 
 22573      5F616269 
 22573      00
 22574              	.LASF223:
 22575 3401 6D635F63 		.ascii	"mc_comm_mode\000"
 22575      6F6D6D5F 
 22575      6D6F6465 
 22575      00
 22576              	.LASF406:
 22577 340e 74696D5F 		.ascii	"tim_current_samp\000"
 22577      63757272 
 22577      656E745F 
 22577      73616D70 
 22577      00
 22578              	.LASF43:
 22579 341f 705F6E61 		.ascii	"p_name\000"
 22579      6D6500
 22580              	.LASF797:
 22581 3426 5F5F7364 		.ascii	"__sdidinit\000"
 22581      6964696E 
 22581      697400
 22582              	.LASF848:
 22583 3431 5F5F6664 		.ascii	"__fdlibm_posix\000"
 22583      6C69626D 
 22583      5F706F73 
 22583      697800
 22584              	.LASF602:
 22585 3440 75736273 		.ascii	"usbstate_t\000"
 22585      74617465 
 22585      5F7400
 22586              	.LASF645:
ARM GAS  C:\Users\CHRIST~1\AppData\Local\Temp\ccCFoZV9.s 			page 440


 22587 344b 444F4550 		.ascii	"DOEPTSIZ\000"
 22587      5453495A 
 22587      00
 22588              	.LASF400:
 22589 3454 63757272 		.ascii	"current_filtered\000"
 22589      656E745F 
 22589      66696C74 
 22589      65726564 
 22589      00
 22590              	.LASF975:
 22591 3465 6D635F69 		.ascii	"mc_interface_set_duty_noramp\000"
 22591      6E746572 
 22591      66616365 
 22591      5F736574 
 22591      5F647574 
 22592              	.LASF991:
 22593 3482 63685265 		.ascii	"chRegSetThreadName\000"
 22593      67536574 
 22593      54687265 
 22593      61644E61 
 22593      6D6500
 22594              	.LASF992:
 22595 3495 6E616D65 		.ascii	"name\000"
 22595      00
 22596              	.LASF558:
 22597 349a 75617274 		.ascii	"uartrxstate_t\000"
 22597      72787374 
 22597      6174655F 
 22597      7400
 22598              	.LASF743:
 22599 34a8 5F666C6F 		.ascii	"_flock_t\000"
 22599      636B5F74 
 22599      00
 22600              	.LASF78:
 22601 34b1 76697274 		.ascii	"virtual_timers_list_t\000"
 22601      75616C5F 
 22601      74696D65 
 22601      72735F6C 
 22601      6973745F 
 22602              	.LASF217:
 22603 34c7 50574D5F 		.ascii	"PWM_MODE_NONSYNCHRONOUS_HISW\000"
 22603      4D4F4445 
 22603      5F4E4F4E 
 22603      53594E43 
 22603      48524F4E 
 22604              	.LASF554:
 22605 34e4 75617274 		.ascii	"uarttxstate_t\000"
 22605      74787374 
 22605      6174655F 
 22605      7400
 22606              	.LASF251:
 22607 34f2 44525638 		.ascii	"DRV8301_OC_DISABLED\000"
 22607      3330315F 
 22607      4F435F44 
 22607      49534142 
 22607      4C454400 
 22608              	.LASF960:
ARM GAS  C:\Users\CHRIST~1\AppData\Local\Temp\ccCFoZV9.s 			page 441


 22609 3506 6D635F69 		.ascii	"mc_interface_get_amp_hours\000"
 22609      6E746572 
 22609      66616365 
 22609      5F676574 
 22609      5F616D70 
 22610              	.LASF436:
 22611 3521 6D6F6465 		.ascii	"moder\000"
 22611      7200
 22612              	.LASF396:
 22613 3527 434F4D4D 		.ascii	"COMM_CUSTOM_APP_DATA\000"
 22613      5F435553 
 22613      544F4D5F 
 22613      4150505F 
 22613      44415441 
 22614              	.LASF382:
 22615 353c 434F4D4D 		.ascii	"COMM_ROTOR_POSITION\000"
 22615      5F524F54 
 22615      4F525F50 
 22615      4F534954 
 22615      494F4E00 
 22616              	.LASF161:
 22617 3550 735F7175 		.ascii	"s_queue\000"
 22617      65756500 
 22618              	.LASF935:
 22619 3558 72657476 		.ascii	"retval\000"
 22619      616C00
 22620              	.LASF972:
 22621 355f 6D635F69 		.ascii	"mc_interface_set_current\000"
 22621      6E746572 
 22621      66616365 
 22621      5F736574 
 22621      5F637572 
 22622              	.LASF130:
 22623 3578 49325343 		.ascii	"I2SCFGR\000"
 22623      46475200 
 22624              	.LASF243:
 22625 3580 6D635F66 		.ascii	"mc_fault_code\000"
 22625      61756C74 
 22625      5F636F64 
 22625      6500
 22626              	.LASF261:
 22627 358e 64656275 		.ascii	"debug_sampling_mode\000"
 22627      675F7361 
 22627      6D706C69 
 22627      6E675F6D 
 22627      6F646500 
 22628              	.LASF939:
 22629 35a2 64656369 		.ascii	"decimation\000"
 22629      6D617469 
 22629      6F6E00
 22630              	.LASF347:
 22631 35ad 6D5F6475 		.ascii	"m_duty_ramp_step\000"
 22631      74795F72 
 22631      616D705F 
 22631      73746570 
 22631      00
 22632              	.LASF359:
ARM GAS  C:\Users\CHRIST~1\AppData\Local\Temp\ccCFoZV9.s 			page 442


 22633 35be 6D635F63 		.ascii	"mc_configuration\000"
 22633      6F6E6669 
 22633      67757261 
 22633      74696F6E 
 22633      00
 22634              	.LASF463:
 22635 35cf 636F6E66 		.ascii	"config\000"
 22635      696700
 22636              	.LASF168:
 22637 35d6 63685F69 		.ascii	"ch_identifier\000"
 22637      64656E74 
 22637      69666965 
 22637      7200
 22638              	.LASF13:
 22639 35e4 6C6F6E67 		.ascii	"long long int\000"
 22639      206C6F6E 
 22639      6720696E 
 22639      7400
 22640              	.LASF928:
 22641 35f2 63757272 		.ascii	"curr_diff_samples\000"
 22641      5F646966 
 22641      665F7361 
 22641      6D706C65 
 22641      7300
 22642              	.LASF663:
 22643 3604 48505458 		.ascii	"HPTXFSIZ\000"
 22643      4653495A 
 22643      00
 22644              	.LASF175:
 22645 360d 63665F6F 		.ascii	"cf_off_prio\000"
 22645      66665F70 
 22645      72696F00 
 22646              	.LASF787:
 22647 3619 5F666C61 		.ascii	"_flags2\000"
 22647      67733200 
 22648              	.LASF994:
 22649 3621 63685379 		.ascii	"chSysLockFromISR\000"
 22649      734C6F63 
 22649      6B46726F 
 22649      6D495352 
 22649      00
 22650              	.LASF907:
 22651 3632 72706D5F 		.ascii	"rpm_neg_cut_start\000"
 22651      6E65675F 
 22651      6375745F 
 22651      73746172 
 22651      7400
 22652              	.LASF837:
 22653 3644 5F6E6578 		.ascii	"_nextf\000"
 22653      746600
 22654              	.LASF380:
 22655 364b 434F4D4D 		.ascii	"COMM_TERMINAL_CMD\000"
 22655      5F544552 
 22655      4D494E41 
 22655      4C5F434D 
 22655      4400
 22656              	.LASF288:
ARM GAS  C:\Users\CHRIST~1\AppData\Local\Temp\ccCFoZV9.s 			page 443


 22657 365d 6C5F7761 		.ascii	"l_watt_min\000"
 22657      74745F6D 
 22657      696E00
 22658              	.LASF520:
 22659 3668 6963756D 		.ascii	"icumode_t\000"
 22659      6F64655F 
 22659      7400
 22660              	.LASF710:
 22661 3672 7478636E 		.ascii	"txcnt\000"
 22661      7400
 22662              	.LASF612:
 22663 3678 5553425F 		.ascii	"USB_EVENT_ADDRESS\000"
 22663      4556454E 
 22663      545F4144 
 22663      44524553 
 22663      5300
 22664              	.LASF729:
 22665 368a 6765745F 		.ascii	"get_descriptor_cb\000"
 22665      64657363 
 22665      72697074 
 22665      6F725F63 
 22665      6200
 22666              	.LASF275:
 22667 369c 6C5F6D61 		.ascii	"l_max_erpm_fbrake_cc\000"
 22667      785F6572 
 22667      706D5F66 
 22667      6272616B 
 22667      655F6363 
 22668              	.LASF796:
 22669 36b1 5F6C6F63 		.ascii	"_locale\000"
 22669      616C6500 
 22670              	.LASF33:
 22671 36b9 6576656E 		.ascii	"eventflags_t\000"
 22671      74666C61 
 22671      67735F74 
 22671      00
 22672              	.LASF536:
 22673 36c6 5350495F 		.ascii	"SPI_READY\000"
 22673      52454144 
 22673      5900
 22674              	.LASF378:
 22675 36d0 434F4D4D 		.ascii	"COMM_GET_APPCONF_DEFAULT\000"
 22675      5F474554 
 22675      5F415050 
 22675      434F4E46 
 22675      5F444546 
 22676              	.LASF699:
 22677 36e9 4649464F 		.ascii	"FIFO\000"
 22677      00
 22678              	.LASF1058:
 22679 36ee 6D637077 		.ascii	"mcpwm_is_dccal_done\000"
 22679      6D5F6973 
 22679      5F646363 
 22679      616C5F64 
 22679      6F6E6500 
 22680              	.LASF106:
 22681 3702 73464946 		.ascii	"sFIFOMailBox\000"
ARM GAS  C:\Users\CHRIST~1\AppData\Local\Temp\ccCFoZV9.s 			page 444


 22681      4F4D6169 
 22681      6C426F78 
 22681      00
 22682              	.LASF1075:
 22683 370f 7574696C 		.ascii	"utils_map\000"
 22683      735F6D61 
 22683      7000
 22684              	.LASF977:
 22685 3719 6D635F69 		.ascii	"mc_interface_set_duty\000"
 22685      6E746572 
 22685      66616365 
 22685      5F736574 
 22685      5F647574 
 22686              	.LASF212:
 22687 372f 4D435F53 		.ascii	"MC_STATE_OFF\000"
 22687      54415445 
 22687      5F4F4646 
 22687      00
 22688              	.LASF678:
 22689 373c 4443544C 		.ascii	"DCTL\000"
 22689      00
 22690              	.LASF705:
 22691 3741 74786275 		.ascii	"txbuf\000"
 22691      6600
 22692              	.LASF697:
 22693 3747 50434743 		.ascii	"PCGCCTL\000"
 22693      43544C00 
 22694              	.LASF615:
 22695 374f 5553425F 		.ascii	"USB_EVENT_WAKEUP\000"
 22695      4556454E 
 22695      545F5741 
 22695      4B455550 
 22695      00
 22696              	.LASF999:
 22697 3760 5F5F7365 		.ascii	"__set_BASEPRI\000"
 22697      745F4241 
 22697      53455052 
 22697      4900
 22698              	.LASF1081:
 22699 376e 6D637077 		.ascii	"mcpwm_foc_set_brake_current\000"
 22699      6D5F666F 
 22699      635F7365 
 22699      745F6272 
 22699      616B655F 
 22700              	.LASF268:
 22701 378a 6C5F696E 		.ascii	"l_in_current_max\000"
 22701      5F637572 
 22701      72656E74 
 22701      5F6D6178 
 22701      00
 22702              	.LASF879:
 22703 379b 6D5F665F 		.ascii	"m_f_sw_samples\000"
 22703      73775F73 
 22703      616D706C 
 22703      657300
 22704              	.LASF42:
 22705 37aa 705F6F6C 		.ascii	"p_older\000"
ARM GAS  C:\Users\CHRIST~1\AppData\Local\Temp\ccCFoZV9.s 			page 445


 22705      64657200 
 22706              	.LASF451:
 22707 37b2 50494461 		.ascii	"PIData\000"
 22707      746100
 22708              	.LASF726:
 22709 37b9 73657475 		.ascii	"setup_buf\000"
 22709      705F6275 
 22709      6600
 22710              	.LASF1028:
 22711 37c3 6D637077 		.ascii	"mcpwm_get_tot_current_in_filtered\000"
 22711      6D5F6765 
 22711      745F746F 
 22711      745F6375 
 22711      7272656E 
 22712              	.LASF543:
 22713 37e5 7373706F 		.ascii	"ssport\000"
 22713      727400
 22714              	.LASF504:
 22715 37ec 4943555F 		.ascii	"ICU_UNINIT\000"
 22715      554E494E 
 22715      495400
 22716              	.LASF56:
 22717 37f7 74687265 		.ascii	"thread_reference_t\000"
 22717      61645F72 
 22717      65666572 
 22717      656E6365 
 22717      5F7400
 22718              	.LASF341:
 22719 380a 705F7069 		.ascii	"p_pid_ang_div\000"
 22719      645F616E 
 22719      675F6469 
 22719      7600
 22720              	.LASF580:
 22721 3818 72656365 		.ascii	"receiving\000"
 22721      6976696E 
 22721      6700
 22722              	.LASF810:
 22723 3822 5F5F4649 		.ascii	"__FILE\000"
 22723      4C4500
 22724              	.LASF526:
 22725 3829 66726571 		.ascii	"frequency\000"
 22725      75656E63 
 22725      7900
 22726              	.LASF1053:
 22727 3833 6D637077 		.ascii	"mcpwm_foc_set_duty_noramp\000"
 22727      6D5F666F 
 22727      635F7365 
 22727      745F6475 
 22727      74795F6E 
 22728              	.LASF322:
 22729 384d 666F635F 		.ascii	"foc_sl_openloop_time\000"
 22729      736C5F6F 
 22729      70656E6C 
 22729      6F6F705F 
 22729      74696D65 
 22730              	.LASF152:
 22731 3862 746D5F63 		.ascii	"tm_calibration_t\000"
ARM GAS  C:\Users\CHRIST~1\AppData\Local\Temp\ccCFoZV9.s 			page 446


 22731      616C6962 
 22731      72617469 
 22731      6F6E5F74 
 22731      00
 22732              	.LASF970:
 22733 3873 6D635F69 		.ascii	"mc_interface_fault_stop\000"
 22733      6E746572 
 22733      66616365 
 22733      5F666175 
 22733      6C745F73 
 22734              	.LASF2:
 22735 388b 5F5F696E 		.ascii	"__int8_t\000"
 22735      74385F74 
 22735      00
 22736              	.LASF292:
 22737 3894 6C6F5F69 		.ascii	"lo_in_current_min\000"
 22737      6E5F6375 
 22737      7272656E 
 22737      745F6D69 
 22737      6E00
 22738              	.LASF723:
 22739 38a6 696E5F73 		.ascii	"in_state\000"
 22739      74617465 
 22739      00
 22740              	.LASF145:
 22741 38af 47545052 		.ascii	"GTPR\000"
 22741      00
 22742              	.LASF957:
 22743 38b4 6D635F69 		.ascii	"mc_interface_get_watt_hours_charged\000"
 22743      6E746572 
 22743      66616365 
 22743      5F676574 
 22743      5F776174 
 22744              	.LASF920:
 22745 38d8 696E7075 		.ascii	"input_voltage\000"
 22745      745F766F 
 22745      6C746167 
 22745      6500
 22746              	.LASF169:
 22747 38e6 63685F7A 		.ascii	"ch_zero\000"
 22747      65726F00 
 22748              	.LASF285:
 22749 38ee 6C5F6D69 		.ascii	"l_min_duty\000"
 22749      6E5F6475 
 22749      747900
 22750              	.LASF487:
 22751 38f9 46415354 		.ascii	"FAST_DUTY_CYCLE_2\000"
 22751      5F445554 
 22751      595F4359 
 22751      434C455F 
 22751      3200
 22752              	.LASF174:
 22753 390b 63685F74 		.ascii	"ch_threadsize\000"
 22753      68726561 
 22753      6473697A 
 22753      6500
 22754              	.LASF125:
ARM GAS  C:\Users\CHRIST~1\AppData\Local\Temp\ccCFoZV9.s 			page 447


 22755 3919 464C5452 		.ascii	"FLTR\000"
 22755      00
 22756              	.LASF247:
 22757 391e 73656E73 		.ascii	"sensor_port_mode\000"
 22757      6F725F70 
 22757      6F72745F 
 22757      6D6F6465 
 22757      00
 22758              	.LASF849:
 22759 392f 5F5F6664 		.ascii	"__fdlib_version\000"
 22759      6C69625F 
 22759      76657273 
 22759      696F6E00 
 22760              	.LASF135:
 22761 393f 43434D52 		.ascii	"CCMR1\000"
 22761      3100
 22762              	.LASF136:
 22763 3945 43434D52 		.ascii	"CCMR2\000"
 22763      3200
 22764              	.LASF515:
 22765 394b 43434D52 		.ascii	"CCMR3\000"
 22765      3300
 22766              	.LASF231:
 22767 3951 6D635F66 		.ascii	"mc_foc_sensor_mode\000"
 22767      6F635F73 
 22767      656E736F 
 22767      725F6D6F 
 22767      646500
 22768              	.LASF16:
 22769 3964 756E7369 		.ascii	"unsigned int\000"
 22769      676E6564 
 22769      20696E74 
 22769      00
 22770              	.LASF862:
 22771 3971 6D5F6D6F 		.ascii	"m_motor_id_iterations\000"
 22771      746F725F 
 22771      69645F69 
 22771      74657261 
 22771      74696F6E 
 22772              	.LASF824:
 22773 3987 5F723438 		.ascii	"_r48\000"
 22773      00
 22774              	.LASF1003:
 22775 398c 63684576 		.ascii	"chEvtWaitAny\000"
 22775      74576169 
 22775      74416E79 
 22775      00
 22776              	.LASF667:
 22777 3999 48464952 		.ascii	"HFIR\000"
 22777      00
 22778              	.LASF597:
 22779 399e 5553425F 		.ascii	"USB_UNINIT\000"
 22779      554E494E 
 22779      495400
 22780              	.LASF985:
 22781 39a9 705F6675 		.ascii	"p_func\000"
 22781      6E6300
ARM GAS  C:\Users\CHRIST~1\AppData\Local\Temp\ccCFoZV9.s 			page 448


 22782              	.LASF419:
 22783 39b0 73747265 		.ascii	"stream\000"
 22783      616D00
 22784              	.LASF485:
 22785 39b7 6932636F 		.ascii	"i2copmode_t\000"
 22785      706D6F64 
 22785      655F7400 
 22786              	.LASF865:
 22787 39c3 6D5F616D 		.ascii	"m_amp_seconds_charged\000"
 22787      705F7365 
 22787      636F6E64 
 22787      735F6368 
 22787      61726765 
 22788              	.LASF816:
 22789 39d9 5F6D756C 		.ascii	"_mult\000"
 22789      7400
 22790              	.LASF6:
 22791 39df 73686F72 		.ascii	"short int\000"
 22791      7420696E 
 22791      7400
 22792              	.LASF328:
 22793 39e9 666F635F 		.ascii	"foc_sample_v0_v7\000"
 22793      73616D70 
 22793      6C655F76 
 22793      305F7637 
 22793      00
 22794              	.LASF621:
 22795 39fa 75736263 		.ascii	"usbcallback_t\000"
 22795      616C6C62 
 22795      61636B5F 
 22795      7400
 22796              	.LASF417:
 22797 3a08 6D637077 		.ascii	"mcpwm_detect_currents_diff\000"
 22797      6D5F6465 
 22797      74656374 
 22797      5F637572 
 22797      72656E74 
 22798              	.LASF650:
 22799 3a23 47555342 		.ascii	"GUSBCFG\000"
 22799      43464700 
 22800              	.LASF146:
 22801 3a2b 55534152 		.ascii	"USART_TypeDef\000"
 22801      545F5479 
 22801      70654465 
 22801      6600
 22802              	.LASF1077:
 22803 3a39 6D637077 		.ascii	"mcpwm_set_duty\000"
 22803      6D5F7365 
 22803      745F6475 
 22803      747900
 22804              	.LASF854:
 22805 3a48 6D5F6C6F 		.ascii	"m_lock_enabled\000"
 22805      636B5F65 
 22805      6E61626C 
 22805      656400
 22806              	.LASF561:
 22807 3a57 74787374 		.ascii	"txstate\000"
ARM GAS  C:\Users\CHRIST~1\AppData\Local\Temp\ccCFoZV9.s 			page 449


 22807      61746500 
 22808              	.LASF211:
 22809 3a5f 6F757470 		.ascii	"output_queue_t\000"
 22809      75745F71 
 22809      75657565 
 22809      5F7400
 22810              	.LASF411:
 22811 3a6e 6661756C 		.ascii	"fault_data\000"
 22811      745F6461 
 22811      746100
 22812              	.LASF878:
 22813 3a79 6D5F6375 		.ascii	"m_curr_fir_samples\000"
 22813      72725F66 
 22813      69725F73 
 22813      616D706C 
 22813      657300
 22814              	.LASF232:
 22815 3a8c 4D4F544F 		.ascii	"MOTOR_TYPE_BLDC\000"
 22815      525F5459 
 22815      50455F42 
 22815      4C444300 
 22816              	.LASF814:
 22817 3a9c 5F72616E 		.ascii	"_rand48\000"
 22817      64343800 
 22818              	.LASF700:
 22819 3aa4 73746D33 		.ascii	"stm32_otg_t\000"
 22819      325F6F74 
 22819      675F7400 
 22820              	.LASF492:
 22821 3ab0 64757479 		.ascii	"duty_cycle\000"
 22821      5F637963 
 22821      6C6500
 22822              	.LASF389:
 22823 3abb 434F4D4D 		.ascii	"COMM_REBOOT\000"
 22823      5F524542 
 22823      4F4F5400 
 22824              	.LASF618:
 22825 3ac7 75645F73 		.ascii	"ud_size\000"
 22825      697A6500 
 22826              	.LASF989:
 22827 3acf 6D635F69 		.ascii	"mc_interface_init\000"
 22827      6E746572 
 22827      66616365 
 22827      5F696E69 
 22827      7400
 22828              	.LASF981:
 22829 3ae1 6D635F69 		.ascii	"mc_interface_lock_override_once\000"
 22829      6E746572 
 22829      66616365 
 22829      5F6C6F63 
 22829      6B5F6F76 
 22830              	.LASF876:
 22831 3b01 6D5F767A 		.ascii	"m_vzero_samples\000"
 22831      65726F5F 
 22831      73616D70 
 22831      6C657300 
 22832              	.LASF1022:
ARM GAS  C:\Users\CHRIST~1\AppData\Local\Temp\ccCFoZV9.s 			page 450


 22833 3b11 6D637077 		.ascii	"mcpwm_get_last_inj_adc_isr_duration\000"
 22833      6D5F6765 
 22833      745F6C61 
 22833      73745F69 
 22833      6E6A5F61 
 22834              	.LASF721:
 22835 3b35 696E5F6D 		.ascii	"in_maxsize\000"
 22835      61787369 
 22835      7A6500
 22836              	.LASF448:
 22837 3b40 50464461 		.ascii	"PFData\000"
 22837      746100
 22838              	.LASF553:
 22839 3b47 55415254 		.ascii	"UART_TX_COMPLETE\000"
 22839      5F54585F 
 22839      434F4D50 
 22839      4C455445 
 22839      00
 22840              	.LASF44:
 22841 3b58 705F7374 		.ascii	"p_state\000"
 22841      61746500 
 22842              	.LASF891:
 22843 3b60 73616D70 		.ascii	"sample_send_tp\000"
 22843      6C655F73 
 22843      656E645F 
 22843      747000
 22844              	.LASF59:
 22845 3b6f 63685F74 		.ascii	"ch_threads_list\000"
 22845      68726561 
 22845      64735F6C 
 22845      69737400 
 22846              	.LASF222:
 22847 3b7f 434F4D4D 		.ascii	"COMM_MODE_DELAY\000"
 22847      5F4D4F44 
 22847      455F4445 
 22847      4C415900 
 22848              	.LASF122:
 22849 3b8f 4F415231 		.ascii	"OAR1\000"
 22849      00
 22850              	.LASF123:
 22851 3b94 4F415232 		.ascii	"OAR2\000"
 22851      00
 22852              	.LASF349:
 22853 3b99 6D5F656E 		.ascii	"m_encoder_counts\000"
 22853      636F6465 
 22853      725F636F 
 22853      756E7473 
 22853      00
 22854              		.ident	"GCC: (GNU Tools for ARM Embedded Processors 6-2017-q2-update) 6.3.1 20170620 (release) [AR
ARM GAS  C:\Users\CHRIST~1\AppData\Local\Temp\ccCFoZV9.s 			page 451


DEFINED SYMBOLS
                            *ABS*:00000000 mc_interface.c
C:\Users\CHRIST~1\AppData\Local\Temp\ccCFoZV9.s:18     .text.sample_send_thread:00000000 $t
C:\Users\CHRIST~1\AppData\Local\Temp\ccCFoZV9.s:25     .text.sample_send_thread:00000000 sample_send_thread
C:\Users\CHRIST~1\AppData\Local\Temp\ccCFoZV9.s:113    .text.sample_send_thread:00000048 $d
C:\Users\CHRIST~1\AppData\Local\Temp\ccCFoZV9.s:119    .text.sample_send_thread:0000004e $t
C:\Users\CHRIST~1\AppData\Local\Temp\ccCFoZV9.s:342    .text.sample_send_thread:000001f8 $d
C:\Users\CHRIST~1\AppData\Local\Temp\ccCFoZV9.s:367    .text.mc_interface_init:00000000 $t
C:\Users\CHRIST~1\AppData\Local\Temp\ccCFoZV9.s:375    .text.mc_interface_init:00000000 mc_interface_init
C:\Users\CHRIST~1\AppData\Local\Temp\ccCFoZV9.s:615    .text.mc_interface_init:000000f8 $d
C:\Users\CHRIST~1\AppData\Local\Temp\ccCFoZV9.s:2753   .text.timer_thread:00000000 timer_thread
C:\Users\CHRIST~1\AppData\Local\Temp\ccCFoZV9.s:651    .text.mc_interface_get_configuration:00000000 $t
C:\Users\CHRIST~1\AppData\Local\Temp\ccCFoZV9.s:659    .text.mc_interface_get_configuration:00000000 mc_interface_get_configuration
C:\Users\CHRIST~1\AppData\Local\Temp\ccCFoZV9.s:672    .text.mc_interface_get_configuration:00000004 $d
C:\Users\CHRIST~1\AppData\Local\Temp\ccCFoZV9.s:677    .text.mc_interface_dccal_done:00000000 $t
C:\Users\CHRIST~1\AppData\Local\Temp\ccCFoZV9.s:685    .text.mc_interface_dccal_done:00000000 mc_interface_dccal_done
C:\Users\CHRIST~1\AppData\Local\Temp\ccCFoZV9.s:715    .text.mc_interface_dccal_done:0000001c $d
C:\Users\CHRIST~1\AppData\Local\Temp\ccCFoZV9.s:720    .text.mc_interface_set_pwm_callback:00000000 $t
C:\Users\CHRIST~1\AppData\Local\Temp\ccCFoZV9.s:728    .text.mc_interface_set_pwm_callback:00000000 mc_interface_set_pwm_callback
C:\Users\CHRIST~1\AppData\Local\Temp\ccCFoZV9.s:743    .text.mc_interface_set_pwm_callback:00000008 $d
C:\Users\CHRIST~1\AppData\Local\Temp\ccCFoZV9.s:748    .text.mc_interface_lock:00000000 $t
C:\Users\CHRIST~1\AppData\Local\Temp\ccCFoZV9.s:756    .text.mc_interface_lock:00000000 mc_interface_lock
C:\Users\CHRIST~1\AppData\Local\Temp\ccCFoZV9.s:771    .text.mc_interface_lock:00000008 $d
C:\Users\CHRIST~1\AppData\Local\Temp\ccCFoZV9.s:776    .text.mc_interface_unlock:00000000 $t
C:\Users\CHRIST~1\AppData\Local\Temp\ccCFoZV9.s:784    .text.mc_interface_unlock:00000000 mc_interface_unlock
C:\Users\CHRIST~1\AppData\Local\Temp\ccCFoZV9.s:799    .text.mc_interface_unlock:00000008 $d
C:\Users\CHRIST~1\AppData\Local\Temp\ccCFoZV9.s:804    .text.mc_interface_lock_override_once:00000000 $t
C:\Users\CHRIST~1\AppData\Local\Temp\ccCFoZV9.s:812    .text.mc_interface_lock_override_once:00000000 mc_interface_lock_override_once
C:\Users\CHRIST~1\AppData\Local\Temp\ccCFoZV9.s:827    .text.mc_interface_lock_override_once:00000008 $d
C:\Users\CHRIST~1\AppData\Local\Temp\ccCFoZV9.s:832    .text.mc_interface_get_fault:00000000 $t
C:\Users\CHRIST~1\AppData\Local\Temp\ccCFoZV9.s:840    .text.mc_interface_get_fault:00000000 mc_interface_get_fault
C:\Users\CHRIST~1\AppData\Local\Temp\ccCFoZV9.s:855    .text.mc_interface_get_fault:00000008 $d
C:\Users\CHRIST~1\AppData\Local\Temp\ccCFoZV9.s:860    .text.mc_interface_fault_to_string:00000000 $t
C:\Users\CHRIST~1\AppData\Local\Temp\ccCFoZV9.s:868    .text.mc_interface_fault_to_string:00000000 mc_interface_fault_to_string
C:\Users\CHRIST~1\AppData\Local\Temp\ccCFoZV9.s:888    .text.mc_interface_fault_to_string:00000010 $d
C:\Users\CHRIST~1\AppData\Local\Temp\ccCFoZV9.s:894    .text.mc_interface_get_state:00000000 $t
C:\Users\CHRIST~1\AppData\Local\Temp\ccCFoZV9.s:902    .text.mc_interface_get_state:00000000 mc_interface_get_state
C:\Users\CHRIST~1\AppData\Local\Temp\ccCFoZV9.s:932    .text.mc_interface_get_state:0000001c $d
C:\Users\CHRIST~1\AppData\Local\Temp\ccCFoZV9.s:937    .text.mc_interface_get_duty_cycle_set:00000000 $t
C:\Users\CHRIST~1\AppData\Local\Temp\ccCFoZV9.s:945    .text.mc_interface_get_duty_cycle_set:00000000 mc_interface_get_duty_cycle_set
C:\Users\CHRIST~1\AppData\Local\Temp\ccCFoZV9.s:996    .text.mc_interface_get_duty_cycle_set:0000003c $d
C:\Users\CHRIST~1\AppData\Local\Temp\ccCFoZV9.s:1002   .text.mc_interface_get_duty_cycle_now:00000000 $t
C:\Users\CHRIST~1\AppData\Local\Temp\ccCFoZV9.s:1010   .text.mc_interface_get_duty_cycle_now:00000000 mc_interface_get_duty_cycle_now
C:\Users\CHRIST~1\AppData\Local\Temp\ccCFoZV9.s:1061   .text.mc_interface_get_duty_cycle_now:0000003c $d
C:\Users\CHRIST~1\AppData\Local\Temp\ccCFoZV9.s:1067   .text.mc_interface_get_sampling_frequency_now:00000000 $t
C:\Users\CHRIST~1\AppData\Local\Temp\ccCFoZV9.s:1075   .text.mc_interface_get_sampling_frequency_now:00000000 mc_interface_get_sampling_frequency_now
C:\Users\CHRIST~1\AppData\Local\Temp\ccCFoZV9.s:1105   .text.mc_interface_get_sampling_frequency_now:0000001c $d
C:\Users\CHRIST~1\AppData\Local\Temp\ccCFoZV9.s:1111   .text.mc_interface_get_rpm:00000000 $t
C:\Users\CHRIST~1\AppData\Local\Temp\ccCFoZV9.s:1119   .text.mc_interface_get_rpm:00000000 mc_interface_get_rpm
C:\Users\CHRIST~1\AppData\Local\Temp\ccCFoZV9.s:1170   .text.mc_interface_get_rpm:0000003c $d
C:\Users\CHRIST~1\AppData\Local\Temp\ccCFoZV9.s:1176   .text.mc_interface_get_amp_hours:00000000 $t
C:\Users\CHRIST~1\AppData\Local\Temp\ccCFoZV9.s:1184   .text.mc_interface_get_amp_hours:00000000 mc_interface_get_amp_hours
C:\Users\CHRIST~1\AppData\Local\Temp\ccCFoZV9.s:1209   .text.mc_interface_get_amp_hours:00000018 $d
C:\Users\CHRIST~1\AppData\Local\Temp\ccCFoZV9.s:1215   .text.mc_interface_get_amp_hours_charged:00000000 $t
C:\Users\CHRIST~1\AppData\Local\Temp\ccCFoZV9.s:1223   .text.mc_interface_get_amp_hours_charged:00000000 mc_interface_get_amp_hours_charged
C:\Users\CHRIST~1\AppData\Local\Temp\ccCFoZV9.s:1248   .text.mc_interface_get_amp_hours_charged:00000018 $d
C:\Users\CHRIST~1\AppData\Local\Temp\ccCFoZV9.s:1254   .text.mc_interface_get_watt_hours:00000000 $t
ARM GAS  C:\Users\CHRIST~1\AppData\Local\Temp\ccCFoZV9.s 			page 452


C:\Users\CHRIST~1\AppData\Local\Temp\ccCFoZV9.s:1262   .text.mc_interface_get_watt_hours:00000000 mc_interface_get_watt_hours
C:\Users\CHRIST~1\AppData\Local\Temp\ccCFoZV9.s:1287   .text.mc_interface_get_watt_hours:00000018 $d
C:\Users\CHRIST~1\AppData\Local\Temp\ccCFoZV9.s:1293   .text.mc_interface_get_watt_hours_charged:00000000 $t
C:\Users\CHRIST~1\AppData\Local\Temp\ccCFoZV9.s:1301   .text.mc_interface_get_watt_hours_charged:00000000 mc_interface_get_watt_hours_charged
C:\Users\CHRIST~1\AppData\Local\Temp\ccCFoZV9.s:1326   .text.mc_interface_get_watt_hours_charged:00000018 $d
C:\Users\CHRIST~1\AppData\Local\Temp\ccCFoZV9.s:1332   .text.mc_interface_get_tot_current:00000000 $t
C:\Users\CHRIST~1\AppData\Local\Temp\ccCFoZV9.s:1340   .text.mc_interface_get_tot_current:00000000 mc_interface_get_tot_current
C:\Users\CHRIST~1\AppData\Local\Temp\ccCFoZV9.s:1370   .text.mc_interface_get_tot_current:0000001c $d
C:\Users\CHRIST~1\AppData\Local\Temp\ccCFoZV9.s:1376   .text.mc_interface_get_tot_current_filtered:00000000 $t
C:\Users\CHRIST~1\AppData\Local\Temp\ccCFoZV9.s:1384   .text.mc_interface_get_tot_current_filtered:00000000 mc_interface_get_tot_current_filtered
C:\Users\CHRIST~1\AppData\Local\Temp\ccCFoZV9.s:1414   .text.mc_interface_get_tot_current_filtered:0000001c $d
C:\Users\CHRIST~1\AppData\Local\Temp\ccCFoZV9.s:1420   .text.mc_interface_get_tot_current_directional:00000000 $t
C:\Users\CHRIST~1\AppData\Local\Temp\ccCFoZV9.s:1428   .text.mc_interface_get_tot_current_directional:00000000 mc_interface_get_tot_current_directional
C:\Users\CHRIST~1\AppData\Local\Temp\ccCFoZV9.s:1479   .text.mc_interface_get_tot_current_directional:0000003c $d
C:\Users\CHRIST~1\AppData\Local\Temp\ccCFoZV9.s:1485   .text.mc_interface_get_tot_current_directional_filtered:00000000 $t
C:\Users\CHRIST~1\AppData\Local\Temp\ccCFoZV9.s:1493   .text.mc_interface_get_tot_current_directional_filtered:00000000 mc_interface_get_tot_current_directional_filtered
C:\Users\CHRIST~1\AppData\Local\Temp\ccCFoZV9.s:1544   .text.mc_interface_get_tot_current_directional_filtered:0000003c $d
C:\Users\CHRIST~1\AppData\Local\Temp\ccCFoZV9.s:1550   .text.mc_interface_get_tot_current_in:00000000 $t
C:\Users\CHRIST~1\AppData\Local\Temp\ccCFoZV9.s:1558   .text.mc_interface_get_tot_current_in:00000000 mc_interface_get_tot_current_in
C:\Users\CHRIST~1\AppData\Local\Temp\ccCFoZV9.s:1588   .text.mc_interface_get_tot_current_in:0000001c $d
C:\Users\CHRIST~1\AppData\Local\Temp\ccCFoZV9.s:1594   .text.mc_interface_get_tot_current_in_filtered:00000000 $t
C:\Users\CHRIST~1\AppData\Local\Temp\ccCFoZV9.s:1602   .text.mc_interface_get_tot_current_in_filtered:00000000 mc_interface_get_tot_current_in_filtered
C:\Users\CHRIST~1\AppData\Local\Temp\ccCFoZV9.s:1632   .text.mc_interface_get_tot_current_in_filtered:0000001c $d
C:\Users\CHRIST~1\AppData\Local\Temp\ccCFoZV9.s:1638   .text.mc_interface_get_tachometer_value:00000000 $t
C:\Users\CHRIST~1\AppData\Local\Temp\ccCFoZV9.s:1646   .text.mc_interface_get_tachometer_value:00000000 mc_interface_get_tachometer_value
C:\Users\CHRIST~1\AppData\Local\Temp\ccCFoZV9.s:1701   .text.mc_interface_get_tachometer_value:00000054 $d
C:\Users\CHRIST~1\AppData\Local\Temp\ccCFoZV9.s:1707   .text.mc_interface_fault_stop.part.3:00000000 $t
C:\Users\CHRIST~1\AppData\Local\Temp\ccCFoZV9.s:1714   .text.mc_interface_fault_stop.part.3:00000000 mc_interface_fault_stop.part.3
C:\Users\CHRIST~1\AppData\Local\Temp\ccCFoZV9.s:1897   .text.mc_interface_fault_stop.part.3:0000010c $d
C:\Users\CHRIST~1\AppData\Local\Temp\ccCFoZV9.s:1916   .text.update_override_limits.constprop.4:00000000 $t
C:\Users\CHRIST~1\AppData\Local\Temp\ccCFoZV9.s:1923   .text.update_override_limits.constprop.4:00000000 update_override_limits.constprop.4
C:\Users\CHRIST~1\AppData\Local\Temp\ccCFoZV9.s:2422   .text.update_override_limits.constprop.4:000003b0 $d
C:\Users\CHRIST~1\AppData\Local\Temp\ccCFoZV9.s:2441   .text.update_override_limits.constprop.4:000003ec $t
C:\Users\CHRIST~1\AppData\Local\Temp\ccCFoZV9.s:2563   .text.update_override_limits.constprop.4:000004ac $d
C:\Users\CHRIST~1\AppData\Local\Temp\ccCFoZV9.s:2569   .text.mc_interface_set_configuration:00000000 $t
C:\Users\CHRIST~1\AppData\Local\Temp\ccCFoZV9.s:2577   .text.mc_interface_set_configuration:00000000 mc_interface_set_configuration
C:\Users\CHRIST~1\AppData\Local\Temp\ccCFoZV9.s:2741   .text.mc_interface_set_configuration:000000cc $d
C:\Users\CHRIST~1\AppData\Local\Temp\ccCFoZV9.s:2746   .text.timer_thread:00000000 $t
C:\Users\CHRIST~1\AppData\Local\Temp\ccCFoZV9.s:2817   .text.timer_thread:00000034 $d
C:\Users\CHRIST~1\AppData\Local\Temp\ccCFoZV9.s:2826   .text.mc_interface_get_tachometer_abs_value:00000000 $t
C:\Users\CHRIST~1\AppData\Local\Temp\ccCFoZV9.s:2834   .text.mc_interface_get_tachometer_abs_value:00000000 mc_interface_get_tachometer_abs_value
C:\Users\CHRIST~1\AppData\Local\Temp\ccCFoZV9.s:2866   .text.mc_interface_get_tachometer_abs_value:0000001c $d
C:\Users\CHRIST~1\AppData\Local\Temp\ccCFoZV9.s:2871   .text.mc_interface_get_last_inj_adc_isr_duration:00000000 $t
C:\Users\CHRIST~1\AppData\Local\Temp\ccCFoZV9.s:2879   .text.mc_interface_get_last_inj_adc_isr_duration:00000000 mc_interface_get_last_inj_adc_isr_duration
C:\Users\CHRIST~1\AppData\Local\Temp\ccCFoZV9.s:2909   .text.mc_interface_get_last_inj_adc_isr_duration:0000001c $d
C:\Users\CHRIST~1\AppData\Local\Temp\ccCFoZV9.s:2915   .text.mc_interface_read_reset_avg_motor_current:00000000 $t
C:\Users\CHRIST~1\AppData\Local\Temp\ccCFoZV9.s:2923   .text.mc_interface_read_reset_avg_motor_current:00000000 mc_interface_read_reset_avg_motor_current
C:\Users\CHRIST~1\AppData\Local\Temp\ccCFoZV9.s:2949   .text.mc_interface_read_reset_avg_motor_current:00000018 $d
C:\Users\CHRIST~1\AppData\Local\Temp\ccCFoZV9.s:2955   .text.mc_interface_read_reset_avg_input_current:00000000 $t
C:\Users\CHRIST~1\AppData\Local\Temp\ccCFoZV9.s:2963   .text.mc_interface_read_reset_avg_input_current:00000000 mc_interface_read_reset_avg_input_current
C:\Users\CHRIST~1\AppData\Local\Temp\ccCFoZV9.s:2989   .text.mc_interface_read_reset_avg_input_current:00000018 $d
C:\Users\CHRIST~1\AppData\Local\Temp\ccCFoZV9.s:2995   .text.mc_interface_read_reset_avg_id:00000000 $t
C:\Users\CHRIST~1\AppData\Local\Temp\ccCFoZV9.s:3003   .text.mc_interface_read_reset_avg_id:00000000 mc_interface_read_reset_avg_id
C:\Users\CHRIST~1\AppData\Local\Temp\ccCFoZV9.s:3039   .text.mc_interface_read_reset_avg_id:00000034 $d
C:\Users\CHRIST~1\AppData\Local\Temp\ccCFoZV9.s:3046   .text.mc_interface_read_reset_avg_iq:00000000 $t
C:\Users\CHRIST~1\AppData\Local\Temp\ccCFoZV9.s:3054   .text.mc_interface_read_reset_avg_iq:00000000 mc_interface_read_reset_avg_iq
C:\Users\CHRIST~1\AppData\Local\Temp\ccCFoZV9.s:3090   .text.mc_interface_read_reset_avg_iq:00000034 $d
ARM GAS  C:\Users\CHRIST~1\AppData\Local\Temp\ccCFoZV9.s 			page 453


C:\Users\CHRIST~1\AppData\Local\Temp\ccCFoZV9.s:3097   .text.mc_interface_get_pid_pos_set:00000000 $t
C:\Users\CHRIST~1\AppData\Local\Temp\ccCFoZV9.s:3105   .text.mc_interface_get_pid_pos_set:00000000 mc_interface_get_pid_pos_set
C:\Users\CHRIST~1\AppData\Local\Temp\ccCFoZV9.s:3120   .text.mc_interface_get_pid_pos_set:00000008 $d
C:\Users\CHRIST~1\AppData\Local\Temp\ccCFoZV9.s:3125   .text.mc_interface_get_pid_pos_now:00000000 $t
C:\Users\CHRIST~1\AppData\Local\Temp\ccCFoZV9.s:3133   .text.mc_interface_get_pid_pos_now:00000000 mc_interface_get_pid_pos_now
C:\Users\CHRIST~1\AppData\Local\Temp\ccCFoZV9.s:3184   .text.mc_interface_get_pid_pos_now:0000003c $d
C:\Users\CHRIST~1\AppData\Local\Temp\ccCFoZV9.s:3190   .text.mc_interface_get_last_sample_adc_isr_duration:00000000 $t
C:\Users\CHRIST~1\AppData\Local\Temp\ccCFoZV9.s:3198   .text.mc_interface_get_last_sample_adc_isr_duration:00000000 mc_interface_get_last_sample_adc_isr_duration
C:\Users\CHRIST~1\AppData\Local\Temp\ccCFoZV9.s:3213   .text.mc_interface_get_last_sample_adc_isr_duration:00000008 $d
C:\Users\CHRIST~1\AppData\Local\Temp\ccCFoZV9.s:3218   .text.mc_interface_sample_print_data:00000000 $t
C:\Users\CHRIST~1\AppData\Local\Temp\ccCFoZV9.s:3226   .text.mc_interface_sample_print_data:00000000 mc_interface_sample_print_data
C:\Users\CHRIST~1\AppData\Local\Temp\ccCFoZV9.s:3289   .text.mc_interface_sample_print_data:00000038 $d
C:\Users\CHRIST~1\AppData\Local\Temp\ccCFoZV9.s:3299   .text.mc_interface_temp_fet_filtered:00000000 $t
C:\Users\CHRIST~1\AppData\Local\Temp\ccCFoZV9.s:3307   .text.mc_interface_temp_fet_filtered:00000000 mc_interface_temp_fet_filtered
C:\Users\CHRIST~1\AppData\Local\Temp\ccCFoZV9.s:3322   .text.mc_interface_temp_fet_filtered:00000008 $d
C:\Users\CHRIST~1\AppData\Local\Temp\ccCFoZV9.s:3327   .text.mc_interface_temp_motor_filtered:00000000 $t
C:\Users\CHRIST~1\AppData\Local\Temp\ccCFoZV9.s:3335   .text.mc_interface_temp_motor_filtered:00000000 mc_interface_temp_motor_filtered
C:\Users\CHRIST~1\AppData\Local\Temp\ccCFoZV9.s:3350   .text.mc_interface_temp_motor_filtered:00000008 $d
C:\Users\CHRIST~1\AppData\Local\Temp\ccCFoZV9.s:3355   .text.mc_interface_try_input:00000000 $t
C:\Users\CHRIST~1\AppData\Local\Temp\ccCFoZV9.s:3363   .text.mc_interface_try_input:00000000 mc_interface_try_input
C:\Users\CHRIST~1\AppData\Local\Temp\ccCFoZV9.s:3456   .text.mc_interface_try_input:00000064 $d
C:\Users\CHRIST~1\AppData\Local\Temp\ccCFoZV9.s:3464   .text.mc_interface_set_duty:00000000 $t
C:\Users\CHRIST~1\AppData\Local\Temp\ccCFoZV9.s:3472   .text.mc_interface_set_duty:00000000 mc_interface_set_duty
C:\Users\CHRIST~1\AppData\Local\Temp\ccCFoZV9.s:3566   .text.mc_interface_set_duty:0000006c $d
C:\Users\CHRIST~1\AppData\Local\Temp\ccCFoZV9.s:3573   .text.mc_interface_brake_now:00000000 $t
C:\Users\CHRIST~1\AppData\Local\Temp\ccCFoZV9.s:3581   .text.mc_interface_brake_now:00000000 mc_interface_brake_now
C:\Users\CHRIST~1\AppData\Local\Temp\ccCFoZV9.s:3595   .text.mc_interface_brake_now:00000008 $d
C:\Users\CHRIST~1\AppData\Local\Temp\ccCFoZV9.s:3600   .text.mc_interface_set_duty_noramp:00000000 $t
C:\Users\CHRIST~1\AppData\Local\Temp\ccCFoZV9.s:3608   .text.mc_interface_set_duty_noramp:00000000 mc_interface_set_duty_noramp
C:\Users\CHRIST~1\AppData\Local\Temp\ccCFoZV9.s:3696   .text.mc_interface_set_duty_noramp:0000006c $d
C:\Users\CHRIST~1\AppData\Local\Temp\ccCFoZV9.s:3701   .text.mc_interface_set_pid_speed:00000000 $t
C:\Users\CHRIST~1\AppData\Local\Temp\ccCFoZV9.s:3709   .text.mc_interface_set_pid_speed:00000000 mc_interface_set_pid_speed
C:\Users\CHRIST~1\AppData\Local\Temp\ccCFoZV9.s:3797   .text.mc_interface_set_pid_speed:0000006c $d
C:\Users\CHRIST~1\AppData\Local\Temp\ccCFoZV9.s:3802   .text.mc_interface_set_pid_pos:00000000 $t
C:\Users\CHRIST~1\AppData\Local\Temp\ccCFoZV9.s:3810   .text.mc_interface_set_pid_pos:00000000 mc_interface_set_pid_pos
C:\Users\CHRIST~1\AppData\Local\Temp\ccCFoZV9.s:3906   .text.mc_interface_set_pid_pos:0000007c $d
C:\Users\CHRIST~1\AppData\Local\Temp\ccCFoZV9.s:3912   .text.mc_interface_set_current:00000000 $t
C:\Users\CHRIST~1\AppData\Local\Temp\ccCFoZV9.s:3920   .text.mc_interface_set_current:00000000 mc_interface_set_current
C:\Users\CHRIST~1\AppData\Local\Temp\ccCFoZV9.s:4014   .text.mc_interface_set_current:0000006c $d
C:\Users\CHRIST~1\AppData\Local\Temp\ccCFoZV9.s:4021   .text.mc_interface_set_current_rel:00000000 $t
C:\Users\CHRIST~1\AppData\Local\Temp\ccCFoZV9.s:4029   .text.mc_interface_set_current_rel:00000000 mc_interface_set_current_rel
C:\Users\CHRIST~1\AppData\Local\Temp\ccCFoZV9.s:4061   .text.mc_interface_set_current_rel:00000028 $d
C:\Users\CHRIST~1\AppData\Local\Temp\ccCFoZV9.s:4066   .text.mc_interface_release_motor:00000000 $t
C:\Users\CHRIST~1\AppData\Local\Temp\ccCFoZV9.s:4074   .text.mc_interface_release_motor:00000000 mc_interface_release_motor
C:\Users\CHRIST~1\AppData\Local\Temp\ccCFoZV9.s:4088   .text.mc_interface_release_motor:00000008 $d
C:\Users\CHRIST~1\AppData\Local\Temp\ccCFoZV9.s:4093   .text.mc_interface_set_brake_current:00000000 $t
C:\Users\CHRIST~1\AppData\Local\Temp\ccCFoZV9.s:4101   .text.mc_interface_set_brake_current:00000000 mc_interface_set_brake_current
C:\Users\CHRIST~1\AppData\Local\Temp\ccCFoZV9.s:4195   .text.mc_interface_set_brake_current:0000006c $d
C:\Users\CHRIST~1\AppData\Local\Temp\ccCFoZV9.s:4202   .text.mc_interface_set_brake_current_rel:00000000 $t
C:\Users\CHRIST~1\AppData\Local\Temp\ccCFoZV9.s:4210   .text.mc_interface_set_brake_current_rel:00000000 mc_interface_set_brake_current_rel
C:\Users\CHRIST~1\AppData\Local\Temp\ccCFoZV9.s:4228   .text.mc_interface_set_brake_current_rel:00000010 $d
C:\Users\CHRIST~1\AppData\Local\Temp\ccCFoZV9.s:4233   .text.mc_interface_set_handbrake:00000000 $t
C:\Users\CHRIST~1\AppData\Local\Temp\ccCFoZV9.s:4241   .text.mc_interface_set_handbrake:00000000 mc_interface_set_handbrake
C:\Users\CHRIST~1\AppData\Local\Temp\ccCFoZV9.s:4317   .text.mc_interface_set_handbrake:00000044 $d
C:\Users\CHRIST~1\AppData\Local\Temp\ccCFoZV9.s:4322   .text.mc_interface_fault_stop:00000000 $t
C:\Users\CHRIST~1\AppData\Local\Temp\ccCFoZV9.s:4330   .text.mc_interface_fault_stop:00000000 mc_interface_fault_stop
C:\Users\CHRIST~1\AppData\Local\Temp\ccCFoZV9.s:4356   .text.mc_interface_fault_stop:00000018 $d
ARM GAS  C:\Users\CHRIST~1\AppData\Local\Temp\ccCFoZV9.s 			page 454


C:\Users\CHRIST~1\AppData\Local\Temp\ccCFoZV9.s:4363   .text.mc_interface_mc_timer_isr:00000000 $t
C:\Users\CHRIST~1\AppData\Local\Temp\ccCFoZV9.s:4371   .text.mc_interface_mc_timer_isr:00000000 mc_interface_mc_timer_isr
C:\Users\CHRIST~1\AppData\Local\Temp\ccCFoZV9.s:4666   .text.mc_interface_mc_timer_isr:000001e2 $d
C:\Users\CHRIST~1\AppData\Local\Temp\ccCFoZV9.s:4672   .text.mc_interface_mc_timer_isr:000001ee $t
C:\Users\CHRIST~1\AppData\Local\Temp\ccCFoZV9.s:4866   .text.mc_interface_mc_timer_isr:00000318 $d
C:\Users\CHRIST~1\AppData\Local\Temp\ccCFoZV9.s:4910   .text.mc_interface_mc_timer_isr:000003b8 $t
C:\Users\CHRIST~1\AppData\Local\Temp\ccCFoZV9.s:5578   .text.mc_interface_mc_timer_isr:000006e0 $d
C:\Users\CHRIST~1\AppData\Local\Temp\ccCFoZV9.s:5605   .text.mc_interface_adc_inj_int_handler:00000000 $t
C:\Users\CHRIST~1\AppData\Local\Temp\ccCFoZV9.s:5613   .text.mc_interface_adc_inj_int_handler:00000000 mc_interface_adc_inj_int_handler
C:\Users\CHRIST~1\AppData\Local\Temp\ccCFoZV9.s:5633   .text.mc_interface_adc_inj_int_handler:00000010 $d
C:\Users\CHRIST~1\AppData\Local\Temp\ccCFoZV9.s:5651   .bss.ADC_curr_norm_value:00000000 ADC_curr_norm_value
C:\Users\CHRIST~1\AppData\Local\Temp\ccCFoZV9.s:5644   .bss.ADC_Value:00000000 ADC_Value
C:\Users\CHRIST~1\AppData\Local\Temp\ccCFoZV9.s:5640   .bss.ADC_Value:00000000 $d
C:\Users\CHRIST~1\AppData\Local\Temp\ccCFoZV9.s:5647   .bss.ADC_curr_norm_value:00000000 $d
C:\Users\CHRIST~1\AppData\Local\Temp\ccCFoZV9.s:5654   .bss.a.11933:00000000 $d
C:\Users\CHRIST~1\AppData\Local\Temp\ccCFoZV9.s:5658   .bss.a.11933:00000000 a.11933
C:\Users\CHRIST~1\AppData\Local\Temp\ccCFoZV9.s:5661   .bss.curr_diff_samples.11921:00000000 $d
C:\Users\CHRIST~1\AppData\Local\Temp\ccCFoZV9.s:5665   .bss.curr_diff_samples.11921:00000000 curr_diff_samples.11921
C:\Users\CHRIST~1\AppData\Local\Temp\ccCFoZV9.s:5668   .bss.curr_diff_sum.11920:00000000 $d
C:\Users\CHRIST~1\AppData\Local\Temp\ccCFoZV9.s:5672   .bss.curr_diff_sum.11920:00000000 curr_diff_sum.11920
C:\Users\CHRIST~1\AppData\Local\Temp\ccCFoZV9.s:5675   .bss.m_amp_seconds:00000000 $d
C:\Users\CHRIST~1\AppData\Local\Temp\ccCFoZV9.s:5679   .bss.m_amp_seconds:00000000 m_amp_seconds
C:\Users\CHRIST~1\AppData\Local\Temp\ccCFoZV9.s:5682   .bss.m_amp_seconds_charged:00000000 $d
C:\Users\CHRIST~1\AppData\Local\Temp\ccCFoZV9.s:5686   .bss.m_amp_seconds_charged:00000000 m_amp_seconds_charged
C:\Users\CHRIST~1\AppData\Local\Temp\ccCFoZV9.s:5689   .bss.m_conf:00000000 $d
C:\Users\CHRIST~1\AppData\Local\Temp\ccCFoZV9.s:5693   .bss.m_conf:00000000 m_conf
C:\Users\CHRIST~1\AppData\Local\Temp\ccCFoZV9.s:5696   .bss.m_cycles_running:00000000 $d
C:\Users\CHRIST~1\AppData\Local\Temp\ccCFoZV9.s:5700   .bss.m_cycles_running:00000000 m_cycles_running
C:\Users\CHRIST~1\AppData\Local\Temp\ccCFoZV9.s:5706   .bss.m_fault_now:00000000 m_fault_now
C:\Users\CHRIST~1\AppData\Local\Temp\ccCFoZV9.s:5707   .bss.m_fault_now:00000000 $d
C:\Users\CHRIST~1\AppData\Local\Temp\ccCFoZV9.s:5709   .bss.m_ignore_iterations:00000000 $d
C:\Users\CHRIST~1\AppData\Local\Temp\ccCFoZV9.s:5713   .bss.m_ignore_iterations:00000000 m_ignore_iterations
C:\Users\CHRIST~1\AppData\Local\Temp\ccCFoZV9.s:5716   .bss.m_input_current_iterations:00000000 $d
C:\Users\CHRIST~1\AppData\Local\Temp\ccCFoZV9.s:5720   .bss.m_input_current_iterations:00000000 m_input_current_iterations
C:\Users\CHRIST~1\AppData\Local\Temp\ccCFoZV9.s:5723   .bss.m_input_current_sum:00000000 $d
C:\Users\CHRIST~1\AppData\Local\Temp\ccCFoZV9.s:5727   .bss.m_input_current_sum:00000000 m_input_current_sum
C:\Users\CHRIST~1\AppData\Local\Temp\ccCFoZV9.s:5730   .bss.m_last_adc_duration_sample:00000000 $d
C:\Users\CHRIST~1\AppData\Local\Temp\ccCFoZV9.s:5734   .bss.m_last_adc_duration_sample:00000000 m_last_adc_duration_sample
C:\Users\CHRIST~1\AppData\Local\Temp\ccCFoZV9.s:5740   .bss.m_lock_enabled:00000000 m_lock_enabled
C:\Users\CHRIST~1\AppData\Local\Temp\ccCFoZV9.s:5741   .bss.m_lock_enabled:00000000 $d
C:\Users\CHRIST~1\AppData\Local\Temp\ccCFoZV9.s:5746   .bss.m_lock_override_once:00000000 m_lock_override_once
C:\Users\CHRIST~1\AppData\Local\Temp\ccCFoZV9.s:5747   .bss.m_lock_override_once:00000000 $d
C:\Users\CHRIST~1\AppData\Local\Temp\ccCFoZV9.s:5749   .bss.m_motor_current_iterations:00000000 $d
C:\Users\CHRIST~1\AppData\Local\Temp\ccCFoZV9.s:5753   .bss.m_motor_current_iterations:00000000 m_motor_current_iterations
C:\Users\CHRIST~1\AppData\Local\Temp\ccCFoZV9.s:5756   .bss.m_motor_current_sum:00000000 $d
C:\Users\CHRIST~1\AppData\Local\Temp\ccCFoZV9.s:5760   .bss.m_motor_current_sum:00000000 m_motor_current_sum
C:\Users\CHRIST~1\AppData\Local\Temp\ccCFoZV9.s:5763   .bss.m_motor_id_iterations:00000000 $d
C:\Users\CHRIST~1\AppData\Local\Temp\ccCFoZV9.s:5767   .bss.m_motor_id_iterations:00000000 m_motor_id_iterations
C:\Users\CHRIST~1\AppData\Local\Temp\ccCFoZV9.s:5770   .bss.m_motor_id_sum:00000000 $d
C:\Users\CHRIST~1\AppData\Local\Temp\ccCFoZV9.s:5774   .bss.m_motor_id_sum:00000000 m_motor_id_sum
C:\Users\CHRIST~1\AppData\Local\Temp\ccCFoZV9.s:5777   .bss.m_motor_iq_iterations:00000000 $d
C:\Users\CHRIST~1\AppData\Local\Temp\ccCFoZV9.s:5781   .bss.m_motor_iq_iterations:00000000 m_motor_iq_iterations
C:\Users\CHRIST~1\AppData\Local\Temp\ccCFoZV9.s:5784   .bss.m_motor_iq_sum:00000000 $d
C:\Users\CHRIST~1\AppData\Local\Temp\ccCFoZV9.s:5788   .bss.m_motor_iq_sum:00000000 m_motor_iq_sum
C:\Users\CHRIST~1\AppData\Local\Temp\ccCFoZV9.s:5791   .bss.m_position_set:00000000 $d
C:\Users\CHRIST~1\AppData\Local\Temp\ccCFoZV9.s:5795   .bss.m_position_set:00000000 m_position_set
C:\Users\CHRIST~1\AppData\Local\Temp\ccCFoZV9.s:5798   .bss.m_sample_int:00000000 $d
ARM GAS  C:\Users\CHRIST~1\AppData\Local\Temp\ccCFoZV9.s 			page 455


C:\Users\CHRIST~1\AppData\Local\Temp\ccCFoZV9.s:5802   .bss.m_sample_int:00000000 m_sample_int
C:\Users\CHRIST~1\AppData\Local\Temp\ccCFoZV9.s:5805   .bss.m_sample_len:00000000 $d
C:\Users\CHRIST~1\AppData\Local\Temp\ccCFoZV9.s:5809   .bss.m_sample_len:00000000 m_sample_len
C:\Users\CHRIST~1\AppData\Local\Temp\ccCFoZV9.s:5815   .bss.m_sample_mode:00000000 m_sample_mode
C:\Users\CHRIST~1\AppData\Local\Temp\ccCFoZV9.s:5816   .bss.m_sample_mode:00000000 $d
C:\Users\CHRIST~1\AppData\Local\Temp\ccCFoZV9.s:5821   .bss.m_sample_mode_last:00000000 m_sample_mode_last
C:\Users\CHRIST~1\AppData\Local\Temp\ccCFoZV9.s:5822   .bss.m_sample_mode_last:00000000 $d
C:\Users\CHRIST~1\AppData\Local\Temp\ccCFoZV9.s:5824   .bss.m_sample_now:00000000 $d
C:\Users\CHRIST~1\AppData\Local\Temp\ccCFoZV9.s:5828   .bss.m_sample_now:00000000 m_sample_now
C:\Users\CHRIST~1\AppData\Local\Temp\ccCFoZV9.s:5831   .bss.m_sample_trigger:00000000 $d
C:\Users\CHRIST~1\AppData\Local\Temp\ccCFoZV9.s:5835   .bss.m_sample_trigger:00000000 m_sample_trigger
C:\Users\CHRIST~1\AppData\Local\Temp\ccCFoZV9.s:5838   .bss.m_temp_fet:00000000 $d
C:\Users\CHRIST~1\AppData\Local\Temp\ccCFoZV9.s:5842   .bss.m_temp_fet:00000000 m_temp_fet
C:\Users\CHRIST~1\AppData\Local\Temp\ccCFoZV9.s:5845   .bss.m_temp_motor:00000000 $d
C:\Users\CHRIST~1\AppData\Local\Temp\ccCFoZV9.s:5849   .bss.m_temp_motor:00000000 m_temp_motor
C:\Users\CHRIST~1\AppData\Local\Temp\ccCFoZV9.s:5852   .bss.m_watt_seconds:00000000 $d
C:\Users\CHRIST~1\AppData\Local\Temp\ccCFoZV9.s:5856   .bss.m_watt_seconds:00000000 m_watt_seconds
C:\Users\CHRIST~1\AppData\Local\Temp\ccCFoZV9.s:5859   .bss.m_watt_seconds_charged:00000000 $d
C:\Users\CHRIST~1\AppData\Local\Temp\ccCFoZV9.s:5863   .bss.m_watt_seconds_charged:00000000 m_watt_seconds_charged
C:\Users\CHRIST~1\AppData\Local\Temp\ccCFoZV9.s:5866   .bss.pwn_done_func:00000000 $d
C:\Users\CHRIST~1\AppData\Local\Temp\ccCFoZV9.s:5870   .bss.pwn_done_func:00000000 pwn_done_func
C:\Users\CHRIST~1\AppData\Local\Temp\ccCFoZV9.s:5873   .bss.sample_send_thread_wa:00000000 $d
C:\Users\CHRIST~1\AppData\Local\Temp\ccCFoZV9.s:5877   .bss.sample_send_thread_wa:00000000 sample_send_thread_wa
C:\Users\CHRIST~1\AppData\Local\Temp\ccCFoZV9.s:5880   .bss.sample_send_tp:00000000 $d
C:\Users\CHRIST~1\AppData\Local\Temp\ccCFoZV9.s:5884   .bss.sample_send_tp:00000000 sample_send_tp
C:\Users\CHRIST~1\AppData\Local\Temp\ccCFoZV9.s:5887   .bss.timer_thread_wa:00000000 $d
C:\Users\CHRIST~1\AppData\Local\Temp\ccCFoZV9.s:5891   .bss.timer_thread_wa:00000000 timer_thread_wa
C:\Users\CHRIST~1\AppData\Local\Temp\ccCFoZV9.s:5894   .bss.wrong_voltage_iterations.11914:00000000 $d
C:\Users\CHRIST~1\AppData\Local\Temp\ccCFoZV9.s:5898   .bss.wrong_voltage_iterations.11914:00000000 wrong_voltage_iterations.11914
C:\Users\CHRIST~1\AppData\Local\Temp\ccCFoZV9.s:5901   .ram4:00000000 $d
C:\Users\CHRIST~1\AppData\Local\Temp\ccCFoZV9.s:5912   .ram4:00000000 m_curr0_samples
C:\Users\CHRIST~1\AppData\Local\Temp\ccCFoZV9.s:5916   .ram4:00000fa0 m_curr1_samples
C:\Users\CHRIST~1\AppData\Local\Temp\ccCFoZV9.s:5920   .ram4:00001f40 m_ph1_samples
C:\Users\CHRIST~1\AppData\Local\Temp\ccCFoZV9.s:5924   .ram4:00002ee0 m_ph2_samples
C:\Users\CHRIST~1\AppData\Local\Temp\ccCFoZV9.s:5928   .ram4:00003e80 m_ph3_samples
C:\Users\CHRIST~1\AppData\Local\Temp\ccCFoZV9.s:5932   .ram4:00004e20 m_vzero_samples
C:\Users\CHRIST~1\AppData\Local\Temp\ccCFoZV9.s:5936   .ram4:00005dc0 m_curr_fir_samples
C:\Users\CHRIST~1\AppData\Local\Temp\ccCFoZV9.s:5940   .ram4:00006d60 m_f_sw_samples
C:\Users\CHRIST~1\AppData\Local\Temp\ccCFoZV9.s:5944   .ram4:00007d00 m_status_samples
C:\Users\CHRIST~1\AppData\Local\Temp\ccCFoZV9.s:5948   .ram4:000084d0 m_phase_samples
C:\Users\CHRIST~1\AppData\Local\Temp\ccCFoZV9.s:5951   .rodata.CSWTCH.162:00000000 $d
C:\Users\CHRIST~1\AppData\Local\Temp\ccCFoZV9.s:5955   .rodata.CSWTCH.162:00000000 CSWTCH.162
C:\Users\CHRIST~1\AppData\Local\Temp\ccCFoZV9.s:5964   .rodata.mc_interface_fault_to_string.str1.4:00000000 $d
C:\Users\CHRIST~1\AppData\Local\Temp\ccCFoZV9.s:5968   .rodata.sample_send_thread.str1.4:00000000 $d
C:\Users\CHRIST~1\AppData\Local\Temp\ccCFoZV9.s:5972   .rodata.str1.4:00000000 $d
C:\Users\CHRIST~1\AppData\Local\Temp\ccCFoZV9.s:5991   .rodata.timer_thread.str1.4:00000000 $d
                     .debug_frame:00000010 $d

UNDEFINED SYMBOLS
chEvtWaitAny
buffer_append_float32_auto
commands_send_packet
ch
memcpy
chThdCreateStatic
mcpwm_foc_init
encoder_init_as5047p_spi
ARM GAS  C:\Users\CHRIST~1\AppData\Local\Temp\ccCFoZV9.s 			page 456


mcpwm_init
encoder_init_abi
mcpwm_foc_is_dccal_done
mcpwm_is_dccal_done
mcpwm_foc_get_state
mcpwm_get_state
mcpwm_foc_get_duty_cycle_set
mcpwm_get_duty_cycle_set
mcpwm_foc_get_duty_cycle_now
mcpwm_get_duty_cycle_now
mcpwm_foc_get_sampling_frequency_now
mcpwm_get_switching_frequency_now
mcpwm_foc_get_rpm
mcpwm_get_rpm
mcpwm_foc_get_tot_current
mcpwm_get_tot_current
mcpwm_foc_get_tot_current_filtered
mcpwm_get_tot_current_filtered
mcpwm_foc_get_tot_current_directional
mcpwm_get_tot_current_directional
mcpwm_foc_get_tot_current_directional_filtered
mcpwm_get_tot_current_directional_filtered
mcpwm_foc_get_tot_current_in
mcpwm_get_tot_current_in
mcpwm_foc_get_tot_current_in_filtered
mcpwm_get_tot_current_in_filtered
mcpwm_foc_get_tachometer_value
mcpwm_get_tachometer_value
mcpwm_foc_stop_pwm
mcpwm_stop_pwm
utils_sys_lock_cnt
utils_sys_unlock_cnt
mcpwm_get_comm_step
logf
terminal_add_fault_data
utils_min_abs
utils_map
encoder_deinit
mcpwm_foc_set_configuration
mcpwm_set_configuration
mcpwm_foc_deinit
encoder_set_counts
mcpwm_deinit
chThdSleep
mcpwm_foc_get_tachometer_abs_value
mcpwm_get_tachometer_abs_value
mcpwm_foc_get_last_inj_adc_isr_duration
mcpwm_get_last_inj_adc_isr_duration
mcpwm_foc_get_pid_pos_now
encoder_read_deg
chEvtSignal
mcpwm_foc_init_done
mcpwm_init_done
mcpwm_foc_set_duty
mcpwm_set_duty
mcpwm_foc_set_duty_noramp
mcpwm_set_duty_noramp
ARM GAS  C:\Users\CHRIST~1\AppData\Local\Temp\ccCFoZV9.s 			page 457


mcpwm_foc_set_pid_speed
mcpwm_set_pid_speed
mcpwm_foc_set_pid_pos
mcpwm_set_pid_pos
mcpwm_foc_set_current
mcpwm_set_current
mcpwm_foc_set_brake_current
mcpwm_set_brake_current
mcpwm_foc_set_handbrake
ledpwm_update_pwm
mcpwm_foc_get_id
mcpwm_foc_get_iq
mcpwm_read_hall_phase
mcpwm_vzero
chEvtSignalI
mcpwm_foc_get_abs_motor_current
mcpwm_foc_get_abs_motor_current_filtered
mcpwm_foc_get_phase
mcpwm_detect_currents
mcpwm_detect_currents_diff
mcpwm_detect_voltages
mcpwm_adc_inj_int_handler
