ARM GAS  C:\Users\CHRIST~1\AppData\Local\Temp\ccCFoZV9.s 			page 1


   1              		.cpu cortex-m4
   2              		.eabi_attribute 27, 1
   3              		.eabi_attribute 28, 1
   4              		.eabi_attribute 20, 1
   5              		.eabi_attribute 21, 1
   6              		.eabi_attribute 23, 3
   7              		.eabi_attribute 24, 1
   8              		.eabi_attribute 25, 1
   9              		.eabi_attribute 26, 1
  10              		.eabi_attribute 30, 2
  11              		.eabi_attribute 34, 1
  12              		.eabi_attribute 18, 4
  13              		.file	"mc_interface.c"
  14              		.text
  15              	.Ltext0:
  16              		.cfi_sections	.debug_frame
  17              		.section	.text.sample_send_thread,"ax",%progbits
  18              		.align	1
  19              		.p2align 4,,15
  20              		.syntax unified
  21              		.thumb
  22              		.thumb_func
  23              		.fpu fpv4-sp-d16
  24              		.type	sample_send_thread, %function
  25              	sample_send_thread:
  26              	.LFB311:
  27              		.file 1 "mc_interface.c"
  28              		.loc 1 1467 0
  29              		.cfi_startproc
  30              		@ args = 0, pretend = 0, frame = 48
  31              		@ frame_needed = 0, uses_anonymous_args = 0
  32              	.LVL0:
  33 0000 2DE9F04F 		push	{r4, r5, r6, r7, r8, r9, r10, fp, lr}
  34              		.cfi_def_cfa_offset 36
  35              		.cfi_offset 4, -36
  36              		.cfi_offset 5, -32
  37              		.cfi_offset 6, -28
  38              		.cfi_offset 7, -24
  39              		.cfi_offset 8, -20
  40              		.cfi_offset 9, -16
  41              		.cfi_offset 10, -12
  42              		.cfi_offset 11, -8
  43              		.cfi_offset 14, -4
  44              	.LBB109:
  45              	.LBB110:
  46              		.file 2 "ChibiOS_3.0.2/os/rt/include/chregistry.h"
  47              		.loc 2 135 0
  48 0004 7C4B     		ldr	r3, .L21
  49              	.LBE110:
  50              	.LBE109:
  51              		.loc 1 1472 0
  52 0006 7D4A     		ldr	r2, .L21+4
  53              	.LBB113:
  54              	.LBB111:
  55              		.loc 2 135 0
  56 0008 9B69     		ldr	r3, [r3, #24]
  57 000a 7D49     		ldr	r1, .L21+8
ARM GAS  C:\Users\CHRIST~1\AppData\Local\Temp\ccCFoZV9.s 			page 2


  58 000c 7D4E     		ldr	r6, .L21+12
  59 000e DFF82CB2 		ldr	fp, .L21+68
  60 0012 DFF82CA2 		ldr	r10, .L21+72
  61              	.LBE111:
  62              	.LBE113:
  63              		.loc 1 1467 0
  64 0016 2DED068B 		vpush.64	{d8, d9, d10}
  65              		.cfi_def_cfa_offset 60
  66              		.cfi_offset 80, -60
  67              		.cfi_offset 81, -56
  68              		.cfi_offset 82, -52
  69              		.cfi_offset 83, -48
  70              		.cfi_offset 84, -44
  71              		.cfi_offset 85, -40
  72              	.LBB114:
  73              	.LBB115:
  74              	.LBB116:
  75              		.loc 1 1512 0
  76 001a DFED7B9A 		vldr.32	s19, .L21+16
  77              		.loc 1 1514 0
  78 001e 9FED7B9A 		vldr.32	s18, .L21+20
  79 0022 DFED7B8A 		vldr.32	s17, .L21+24
  80 0026 9FED7B8A 		vldr.32	s16, .L21+28
  81              		.loc 1 1518 0
  82 002a 9FED7BAA 		vldr.32	s20, .L21+32
  83              	.LBE116:
  84              	.LBE115:
  85              	.LBE114:
  86              	.LBB125:
  87              	.LBB112:
  88              		.loc 2 135 0
  89 002e 9961     		str	r1, [r3, #24]
  90              	.LVL1:
  91              	.LBE112:
  92              	.LBE125:
  93              		.loc 1 1467 0
  94 0030 8DB0     		sub	sp, sp, #52
  95              		.cfi_def_cfa_offset 112
  96              		.loc 1 1472 0
  97 0032 1360     		str	r3, [r2]
  98              	.LVL2:
  99              	.L13:
 100              	.LBB126:
 101              		.loc 1 1475 0
 102 0034 0120     		movs	r0, #1
 103 0036 FFF7FEFF 		bl	chEvtWaitAny
 104              	.LVL3:
 105              		.loc 1 1480 0
 106 003a 784B     		ldr	r3, .L21+36
 107 003c 1B78     		ldrb	r3, [r3]	@ zero_extendqisi2
 108 003e 013B     		subs	r3, r3, #1
 109 0040 052B     		cmp	r3, #5
 110 0042 F7D8     		bhi	.L13
 111 0044 DFE803F0 		tbb	[pc, r3]
 112              	.L4:
 113 0048 CC       		.byte	(.L3-.L4)/2
 114 0049 CC       		.byte	(.L3-.L4)/2
ARM GAS  C:\Users\CHRIST~1\AppData\Local\Temp\ccCFoZV9.s 			page 3


 115 004a 03       		.byte	(.L5-.L4)/2
 116 004b 03       		.byte	(.L5-.L4)/2
 117 004c 03       		.byte	(.L5-.L4)/2
 118 004d 03       		.byte	(.L5-.L4)/2
 119              		.p2align 1
 120              	.L5:
 121              	.LVL4:
 122              		.loc 1 1491 0
 123 004e 744B     		ldr	r3, .L21+40
 124 0050 D3F80090 		ldr	r9, [r3]
 125 0054 734B     		ldr	r3, .L21+44
 126 0056 1B68     		ldr	r3, [r3]
 127              		.loc 1 1490 0
 128 0058 4FF4FA68 		mov	r8, #2000
 129              		.loc 1 1491 0
 130 005c A9EB0309 		sub	r9, r9, r3
 131              	.LVL5:
 132              	.L6:
 133              	.LBB121:
 134              	.LBB117:
 135              		.loc 1 1503 0
 136 0060 B9F5FA6F 		cmp	r9, #2000
 137              	.LBE117:
 138              	.LBE121:
 139              		.loc 1 1490 0
 140 0064 4FF00007 		mov	r7, #0
 141              	.LVL6:
 142              	.LBB122:
 143              	.LBB118:
 144              		.loc 1 1501 0
 145 0068 4C46     		mov	r4, r9
 146              	.LVL7:
 147              		.loc 1 1503 0
 148 006a C0F2B180 		blt	.L7
 149              	.LVL8:
 150              	.L8:
 151              		.loc 1 1504 0
 152 006e A4F5FA64 		sub	r4, r4, #2000
 153              	.LVL9:
 154              		.loc 1 1503 0
 155 0072 B4F5FA6F 		cmp	r4, #2000
 156 0076 FADA     		bge	.L8
 157              	.L9:
 158              		.loc 1 1512 0 discriminator 2
 159 0078 36F81430 		ldrh	r3, [r6, r4, lsl #1]
 160 007c 1BB2     		sxth	r3, r3
 161 007e 07EE903A 		vmov	s15, r3	@ int
 162 0082 B8EEE70A 		vcvt.f32.s32	s0, s15
 163              		.loc 1 1511 0 discriminator 2
 164 0086 0122     		movs	r2, #1
 165              		.loc 1 1513 0 discriminator 2
 166 0088 04FA02F5 		lsl	r5, r4, r2
 167              		.loc 1 1511 0 discriminator 2
 168 008c 1323     		movs	r3, #19
 169              		.loc 1 1512 0 discriminator 2
 170 008e 20EE290A 		vmul.f32	s0, s0, s19
 171 0092 01A9     		add	r1, sp, #4
ARM GAS  C:\Users\CHRIST~1\AppData\Local\Temp\ccCFoZV9.s 			page 4


 172 0094 02A8     		add	r0, sp, #8
 173              		.loc 1 1511 0 discriminator 2
 174 0096 0192     		str	r2, [sp, #4]
 175 0098 8DF80830 		strb	r3, [sp, #8]
 176              		.loc 1 1512 0 discriminator 2
 177 009c FFF7FEFF 		bl	buffer_append_float32_auto
 178              	.LVL10:
 179              		.loc 1 1513 0 discriminator 2
 180 00a0 7319     		adds	r3, r6, r5
 181 00a2 01A9     		add	r1, sp, #4
 182 00a4 B3F8A03F 		ldrh	r3, [r3, #4000]
 183 00a8 1BB2     		sxth	r3, r3
 184 00aa 07EE903A 		vmov	s15, r3	@ int
 185 00ae B8EEE70A 		vcvt.f32.s32	s0, s15
 186 00b2 02A8     		add	r0, sp, #8
 187 00b4 20EE290A 		vmul.f32	s0, s0, s19
 188 00b8 FFF7FEFF 		bl	buffer_append_float32_auto
 189              	.LVL11:
 190              		.loc 1 1514 0 discriminator 2
 191 00bc 0BEB0503 		add	r3, fp, r5
 192 00c0 01A9     		add	r1, sp, #4
 193 00c2 B3F8483E 		ldrh	r3, [r3, #3656]
 194 00c6 1BB2     		sxth	r3, r3
 195 00c8 07EE903A 		vmov	s15, r3	@ int
 196 00cc B8EEE70A 		vcvt.f32.s32	s0, s15
 197 00d0 02A8     		add	r0, sp, #8
 198 00d2 20EE090A 		vmul.f32	s0, s0, s18
 199              	.LBE118:
 200              		.loc 1 1498 0 discriminator 2
 201 00d6 0137     		adds	r7, r7, #1
 202              	.LVL12:
 203              	.LBB119:
 204              		.loc 1 1514 0 discriminator 2
 205 00d8 20EE280A 		vmul.f32	s0, s0, s17
 206 00dc 09F10109 		add	r9, r9, #1
 207 00e0 20EE080A 		vmul.f32	s0, s0, s16
 208 00e4 FFF7FEFF 		bl	buffer_append_float32_auto
 209              	.LVL13:
 210              		.loc 1 1515 0 discriminator 2
 211 00e8 0AEB0503 		add	r3, r10, r5
 212 00ec 01A9     		add	r1, sp, #4
 213 00ee B3F8F03C 		ldrh	r3, [r3, #3312]
 214 00f2 1BB2     		sxth	r3, r3
 215 00f4 07EE903A 		vmov	s15, r3	@ int
 216 00f8 B8EEE70A 		vcvt.f32.s32	s0, s15
 217 00fc 02A8     		add	r0, sp, #8
 218 00fe 20EE090A 		vmul.f32	s0, s0, s18
 219 0102 20EE280A 		vmul.f32	s0, s0, s17
 220 0106 20EE080A 		vmul.f32	s0, s0, s16
 221 010a FFF7FEFF 		bl	buffer_append_float32_auto
 222              	.LVL14:
 223              		.loc 1 1516 0 discriminator 2
 224 010e 464B     		ldr	r3, .L21+48
 225 0110 2B44     		add	r3, r3, r5
 226 0112 01A9     		add	r1, sp, #4
 227 0114 B3F8983B 		ldrh	r3, [r3, #2968]
 228 0118 1BB2     		sxth	r3, r3
ARM GAS  C:\Users\CHRIST~1\AppData\Local\Temp\ccCFoZV9.s 			page 5


 229 011a 07EE903A 		vmov	s15, r3	@ int
 230 011e B8EEE70A 		vcvt.f32.s32	s0, s15
 231 0122 02A8     		add	r0, sp, #8
 232 0124 20EE090A 		vmul.f32	s0, s0, s18
 233 0128 20EE280A 		vmul.f32	s0, s0, s17
 234 012c 20EE080A 		vmul.f32	s0, s0, s16
 235 0130 FFF7FEFF 		bl	buffer_append_float32_auto
 236              	.LVL15:
 237              		.loc 1 1517 0 discriminator 2
 238 0134 3D4B     		ldr	r3, .L21+52
 239 0136 2B44     		add	r3, r3, r5
 240 0138 01A9     		add	r1, sp, #4
 241 013a B3F8403A 		ldrh	r3, [r3, #2624]
 242 013e 1BB2     		sxth	r3, r3
 243 0140 07EE903A 		vmov	s15, r3	@ int
 244 0144 B8EEE70A 		vcvt.f32.s32	s0, s15
 245 0148 02A8     		add	r0, sp, #8
 246 014a 20EE090A 		vmul.f32	s0, s0, s18
 247 014e 20EE280A 		vmul.f32	s0, s0, s17
 248 0152 20EE080A 		vmul.f32	s0, s0, s16
 249 0156 FFF7FEFF 		bl	buffer_append_float32_auto
 250              	.LVL16:
 251              		.loc 1 1518 0 discriminator 2
 252 015a 354B     		ldr	r3, .L21+56
 253 015c 2B44     		add	r3, r3, r5
 254 015e 01A9     		add	r1, sp, #4
 255 0160 B3F8E838 		ldrh	r3, [r3, #2280]
 256 0164 1BB2     		sxth	r3, r3
 257 0166 07EE903A 		vmov	s15, r3	@ int
 258 016a B8EEE70A 		vcvt.f32.s32	s0, s15
 259 016e 02A8     		add	r0, sp, #8
 260 0170 80EE0A0A 		vdiv.f32	s0, s0, s20
 261 0174 FFF7FEFF 		bl	buffer_append_float32_auto
 262              	.LVL17:
 263              		.loc 1 1519 0 discriminator 2
 264 0178 2E4B     		ldr	r3, .L21+60
 265 017a 1D44     		add	r5, r5, r3
 266 017c 01A9     		add	r1, sp, #4
 267 017e B5F89037 		ldrh	r3, [r5, #1936]
 268 0182 1BB2     		sxth	r3, r3
 269 0184 02A8     		add	r0, sp, #8
 270 0186 07EE903A 		vmov	s15, r3	@ int
 271 018a F8EEE77A 		vcvt.f32.s32	s15, s15
 272 018e B2EE040A 		vmov.f32	s0, #1.0e+1
 273 0192 27EE800A 		vmul.f32	s0, s15, s0
 274 0196 FFF7FEFF 		bl	buffer_append_float32_auto
 275              	.LVL18:
 276              		.loc 1 1520 0 discriminator 2
 277 019a 274A     		ldr	r2, .L21+64
 278 019c 019B     		ldr	r3, [sp, #4]
 279 019e 1444     		add	r4, r4, r2
 280              	.LVL19:
 281 01a0 0CAA     		add	r2, sp, #48
 282 01a2 1A44     		add	r2, r2, r3
 283 01a4 94F83816 		ldrb	r1, [r4, #1592]	@ zero_extendqisi2
 284 01a8 02F8281C 		strb	r1, [r2, #-40]
 285              		.loc 1 1521 0 discriminator 2
ARM GAS  C:\Users\CHRIST~1\AppData\Local\Temp\ccCFoZV9.s 			page 6


 286 01ac 0233     		adds	r3, r3, #2
 287 01ae 94F8084E 		ldrb	r4, [r4, #3592]	@ zero_extendqisi2
 288              	.LVL20:
 289 01b2 02F8274C 		strb	r4, [r2, #-39]
 290              		.loc 1 1523 0 discriminator 2
 291 01b6 1946     		mov	r1, r3
 292 01b8 02A8     		add	r0, sp, #8
 293              		.loc 1 1521 0 discriminator 2
 294 01ba 0193     		str	r3, [sp, #4]
 295              		.loc 1 1523 0 discriminator 2
 296 01bc FFF7FEFF 		bl	commands_send_packet
 297              	.LVL21:
 298              	.LBE119:
 299              		.loc 1 1498 0 discriminator 2
 300 01c0 4745     		cmp	r7, r8
 301 01c2 BFF637AF 		bge	.L13
 302              	.LBB120:
 303              		.loc 1 1503 0
 304 01c6 B9F5FA6F 		cmp	r9, #2000
 305              		.loc 1 1501 0
 306 01ca 4C46     		mov	r4, r9
 307              	.LVL22:
 308              		.loc 1 1503 0
 309 01cc BFF64FAF 		bge	.L8
 310              	.L7:
 311              		.loc 1 1507 0
 312 01d0 B9F1000F 		cmp	r9, #0
 313 01d4 BFF650AF 		bge	.L9
 314              	.L10:
 315              	.LVL23:
 316 01d8 14F5FA64 		adds	r4, r4, #2000
 317              	.LVL24:
 318 01dc FCD4     		bmi	.L10
 319 01de 4BE7     		b	.L9
 320              	.LVL25:
 321              	.L3:
 322              	.LBE120:
 323              	.LBE122:
 324              		.loc 1 1483 0
 325 01e0 104B     		ldr	r3, .L21+44
 326 01e2 D3F80080 		ldr	r8, [r3]
 327              	.LVL26:
 328              	.LBB123:
 329              		.loc 1 1498 0
 330 01e6 B8F1000F 		cmp	r8, #0
 331              	.LBE123:
 332              		.loc 1 1478 0
 333 01ea C8BF     		it	gt
 334 01ec 4FF00009 		movgt	r9, #0
 335              	.LBB124:
 336              		.loc 1 1498 0
 337 01f0 3FF736AF 		bgt	.L6
 338 01f4 1EE7     		b	.L13
 339              	.L22:
 340 01f6 00BF     		.align	2
 341              	.L21:
 342 01f8 00000000 		.word	ch
ARM GAS  C:\Users\CHRIST~1\AppData\Local\Temp\ccCFoZV9.s 			page 7


 343 01fc 00000000 		.word	.LANCHOR0
 344 0200 00000000 		.word	.LC0
 345 0204 00000000 		.word	.LANCHOR4
 346 0208 500AA53D 		.word	1034226256
 347 020c 00008039 		.word	964689920
 348 0210 33335340 		.word	1079194419
 349 0214 74D19541 		.word	1100337524
 350 0218 A48BC642 		.word	1120308132
 351 021c 00000000 		.word	.LANCHOR1
 352 0220 00000000 		.word	.LANCHOR3
 353 0224 00000000 		.word	.LANCHOR2
 354 0228 E8320000 		.word	.LANCHOR7
 355 022c E0430000 		.word	.LANCHOR8
 356 0230 D8540000 		.word	.LANCHOR9
 357 0234 D0650000 		.word	.LANCHOR10
 358 0238 C8760000 		.word	.LANCHOR11
 359 023c F8100000 		.word	.LANCHOR5
 360 0240 F0210000 		.word	.LANCHOR6
 361              	.LBE124:
 362              	.LBE126:
 363              		.cfi_endproc
 364              	.LFE311:
 365              		.size	sample_send_thread, .-sample_send_thread
 366              		.section	.text.mc_interface_init,"ax",%progbits
 367              		.align	1
 368              		.p2align 4,,15
 369              		.global	mc_interface_init
 370              		.syntax unified
 371              		.thumb
 372              		.thumb_func
 373              		.fpu fpv4-sp-d16
 374              		.type	mc_interface_init, %function
 375              	mc_interface_init:
 376              	.LFB256:
 377              		.loc 1 99 0
 378              		.cfi_startproc
 379              		@ args = 0, pretend = 0, frame = 0
 380              		@ frame_needed = 0, uses_anonymous_args = 0
 381              	.LVL27:
 382 0000 F0B5     		push	{r4, r5, r6, r7, lr}
 383              		.cfi_def_cfa_offset 20
 384              		.cfi_offset 4, -20
 385              		.cfi_offset 5, -16
 386              		.cfi_offset 6, -12
 387              		.cfi_offset 7, -8
 388              		.cfi_offset 14, -4
 389              		.loc 1 100 0
 390 0002 3D4D     		ldr	r5, .L35
 391              		.loc 1 103 0
 392 0004 3D4E     		ldr	r6, .L35+4
 393              		.loc 1 107 0
 394 0006 3E4F     		ldr	r7, .L35+8
 395              		.loc 1 99 0
 396 0008 83B0     		sub	sp, sp, #12
 397              		.cfi_def_cfa_offset 32
 398              		.loc 1 100 0
 399 000a 0146     		mov	r1, r0
ARM GAS  C:\Users\CHRIST~1\AppData\Local\Temp\ccCFoZV9.s 			page 8


 400 000c 4FF4B872 		mov	r2, #368
 401 0010 2846     		mov	r0, r5
 402              	.LVL28:
 403 0012 FFF7FEFF 		bl	memcpy
 404              	.LVL29:
 405              		.loc 1 104 0
 406 0016 3B4A     		ldr	r2, .L35+12
 407              		.loc 1 105 0
 408 0018 3B49     		ldr	r1, .L35+16
 409              		.loc 1 106 0
 410 001a 3C48     		ldr	r0, .L35+20
 411              		.loc 1 123 0
 412 001c DFF854E1 		ldr	lr, .L35+124
 413              		.loc 1 106 0
 414 0020 0023     		movs	r3, #0
 415              		.loc 1 101 0
 416 0022 0024     		movs	r4, #0
 417              		.loc 1 131 0
 418 0024 0094     		str	r4, [sp]
 419              		.loc 1 103 0
 420 0026 3460     		str	r4, [r6]
 421              		.loc 1 104 0
 422 0028 1470     		strb	r4, [r2]
 423              		.loc 1 108 0
 424 002a 394E     		ldr	r6, .L35+24
 425              		.loc 1 105 0
 426 002c 0C70     		strb	r4, [r1]
 427              		.loc 1 109 0
 428 002e 394A     		ldr	r2, .L35+28
 429              		.loc 1 106 0
 430 0030 0360     		str	r3, [r0]	@ float
 431              		.loc 1 110 0
 432 0032 3949     		ldr	r1, .L35+32
 433              		.loc 1 111 0
 434 0034 3948     		ldr	r0, .L35+36
 435              		.loc 1 107 0
 436 0036 3B60     		str	r3, [r7]	@ float
 437              		.loc 1 108 0
 438 0038 3360     		str	r3, [r6]	@ float
 439              		.loc 1 112 0
 440 003a 394F     		ldr	r7, .L35+40
 441              		.loc 1 109 0
 442 003c 1360     		str	r3, [r2]	@ float
 443              		.loc 1 113 0
 444 003e 394E     		ldr	r6, .L35+44
 445              		.loc 1 110 0
 446 0040 0B60     		str	r3, [r1]	@ float
 447              		.loc 1 114 0
 448 0042 394A     		ldr	r2, .L35+48
 449              		.loc 1 111 0
 450 0044 0360     		str	r3, [r0]	@ float
 451              		.loc 1 115 0
 452 0046 3949     		ldr	r1, .L35+52
 453              		.loc 1 116 0
 454 0048 3948     		ldr	r0, .L35+56
 455              		.loc 1 112 0
 456 004a 3B60     		str	r3, [r7]	@ float
ARM GAS  C:\Users\CHRIST~1\AppData\Local\Temp\ccCFoZV9.s 			page 9


 457              		.loc 1 113 0
 458 004c 3360     		str	r3, [r6]	@ float
 459              		.loc 1 117 0
 460 004e 394F     		ldr	r7, .L35+60
 461              		.loc 1 114 0
 462 0050 1360     		str	r3, [r2]	@ float
 463              		.loc 1 118 0
 464 0052 394E     		ldr	r6, .L35+64
 465              		.loc 1 115 0
 466 0054 0B60     		str	r3, [r1]	@ float
 467              		.loc 1 119 0
 468 0056 394A     		ldr	r2, .L35+68
 469              		.loc 1 116 0
 470 0058 0360     		str	r3, [r0]	@ float
 471              		.loc 1 120 0
 472 005a 3949     		ldr	r1, .L35+72
 473              		.loc 1 121 0
 474 005c 3948     		ldr	r0, .L35+76
 475              		.loc 1 117 0
 476 005e 3B60     		str	r3, [r7]	@ float
 477              		.loc 1 118 0
 478 0060 3360     		str	r3, [r6]	@ float
 479              		.loc 1 119 0
 480 0062 1360     		str	r3, [r2]	@ float
 481              		.loc 1 120 0
 482 0064 0B60     		str	r3, [r1]	@ float
 483              		.loc 1 121 0
 484 0066 0360     		str	r3, [r0]	@ float
 485              		.loc 1 101 0
 486 0068 374B     		ldr	r3, .L35+80
 487              		.loc 1 124 0
 488 006a 384E     		ldr	r6, .L35+84
 489              		.loc 1 101 0
 490 006c 1C70     		strb	r4, [r3]
 491              		.loc 1 123 0
 492 006e 4FF47A73 		mov	r3, #1000
 493 0072 CEF80030 		str	r3, [lr]
 494              		.loc 1 124 0
 495 0076 0123     		movs	r3, #1
 496 0078 3360     		str	r3, [r6]
 497              		.loc 1 125 0
 498 007a 354A     		ldr	r2, .L35+88
 499              		.loc 1 126 0
 500 007c 3549     		ldr	r1, .L35+92
 501              		.loc 1 127 0
 502 007e 3648     		ldr	r0, .L35+96
 503              		.loc 1 102 0
 504 0080 364F     		ldr	r7, .L35+100
 505              		.loc 1 128 0
 506 0082 374E     		ldr	r6, .L35+104
 507              		.loc 1 125 0
 508 0084 1460     		str	r4, [r2]
 509              		.loc 1 131 0
 510 0086 374B     		ldr	r3, .L35+108
 511              		.loc 1 126 0
 512 0088 0C60     		str	r4, [r1]
 513              		.loc 1 131 0
ARM GAS  C:\Users\CHRIST~1\AppData\Local\Temp\ccCFoZV9.s 			page 10


 514 008a 4022     		movs	r2, #64
 515              		.loc 1 127 0
 516 008c 0470     		strb	r4, [r0]
 517              		.loc 1 131 0
 518 008e 4FF4B361 		mov	r1, #1432
 519 0092 3548     		ldr	r0, .L35+112
 520              		.loc 1 102 0
 521 0094 3C60     		str	r4, [r7]
 522              		.loc 1 128 0
 523 0096 3470     		strb	r4, [r6]
 524              		.loc 1 131 0
 525 0098 FFF7FEFF 		bl	chThdCreateStatic
 526              	.LVL30:
 527              		.loc 1 132 0
 528 009c 334B     		ldr	r3, .L35+116
 529 009e 0094     		str	r4, [sp]
 530 00a0 3348     		ldr	r0, .L35+120
 531 00a2 3F22     		movs	r2, #63
 532 00a4 4FF4B361 		mov	r1, #1432
 533 00a8 FFF7FEFF 		bl	chThdCreateStatic
 534              	.LVL31:
 535              		.loc 1 141 0
 536 00ac 95F85831 		ldrb	r3, [r5, #344]	@ zero_extendqisi2
 537 00b0 DBB2     		uxtb	r3, r3
 538 00b2 012B     		cmp	r3, #1
 539 00b4 1BD0     		beq	.L25
 540 00b6 022B     		cmp	r3, #2
 541 00b8 0BD0     		beq	.L26
 542              	.L24:
 543              		.loc 1 156 0
 544 00ba AB78     		ldrb	r3, [r5, #2]	@ zero_extendqisi2
 545 00bc DBB2     		uxtb	r3, r3
 546 00be 012B     		cmp	r3, #1
 547 00c0 0DD9     		bls	.L28
 548              	.L34:
 549 00c2 022B     		cmp	r3, #2
 550 00c4 11D1     		bne	.L33
 551              		.loc 1 163 0
 552 00c6 0C48     		ldr	r0, .L35
 553              		.loc 1 169 0
 554 00c8 03B0     		add	sp, sp, #12
 555              		.cfi_remember_state
 556              		.cfi_def_cfa_offset 20
 557              		@ sp needed
 558 00ca BDE8F040 		pop	{r4, r5, r6, r7, lr}
 559              		.cfi_restore 14
 560              		.cfi_restore 7
 561              		.cfi_restore 6
 562              		.cfi_restore 5
 563              		.cfi_restore 4
 564              		.cfi_def_cfa_offset 0
 565              		.loc 1 163 0
 566 00ce FFF7FEBF 		b	mcpwm_foc_init
 567              	.LVL32:
 568              	.L26:
 569              		.cfi_restore_state
 570              		.loc 1 147 0
ARM GAS  C:\Users\CHRIST~1\AppData\Local\Temp\ccCFoZV9.s 			page 11


 571 00d2 FFF7FEFF 		bl	encoder_init_as5047p_spi
 572              	.LVL33:
 573              		.loc 1 156 0
 574 00d6 AB78     		ldrb	r3, [r5, #2]	@ zero_extendqisi2
 575 00d8 DBB2     		uxtb	r3, r3
 576 00da 012B     		cmp	r3, #1
 577 00dc F1D8     		bhi	.L34
 578              	.L28:
 579              		.loc 1 159 0
 580 00de 0648     		ldr	r0, .L35
 581              		.loc 1 169 0
 582 00e0 03B0     		add	sp, sp, #12
 583              		.cfi_remember_state
 584              		.cfi_def_cfa_offset 20
 585              		@ sp needed
 586 00e2 BDE8F040 		pop	{r4, r5, r6, r7, lr}
 587              		.cfi_restore 14
 588              		.cfi_restore 7
 589              		.cfi_restore 6
 590              		.cfi_restore 5
 591              		.cfi_restore 4
 592              		.cfi_def_cfa_offset 0
 593              		.loc 1 159 0
 594 00e6 FFF7FEBF 		b	mcpwm_init
 595              	.LVL34:
 596              	.L33:
 597              		.cfi_restore_state
 598              		.loc 1 169 0
 599 00ea 03B0     		add	sp, sp, #12
 600              		.cfi_remember_state
 601              		.cfi_def_cfa_offset 20
 602              		@ sp needed
 603 00ec F0BD     		pop	{r4, r5, r6, r7, pc}
 604              	.L25:
 605              		.cfi_restore_state
 606              		.loc 1 143 0
 607 00ee D5F85401 		ldr	r0, [r5, #340]
 608 00f2 FFF7FEFF 		bl	encoder_init_abi
 609              	.LVL35:
 610              		.loc 1 144 0
 611 00f6 E0E7     		b	.L24
 612              	.L36:
 613              		.align	2
 614              	.L35:
 615 00f8 00000000 		.word	.LANCHOR12
 616 00fc 00000000 		.word	.LANCHOR15
 617 0100 00000000 		.word	.LANCHOR19
 618 0104 00000000 		.word	.LANCHOR16
 619 0108 00000000 		.word	.LANCHOR17
 620 010c 00000000 		.word	.LANCHOR18
 621 0110 00000000 		.word	.LANCHOR20
 622 0114 00000000 		.word	.LANCHOR21
 623 0118 00000000 		.word	.LANCHOR22
 624 011c 00000000 		.word	.LANCHOR23
 625 0120 00000000 		.word	.LANCHOR24
 626 0124 00000000 		.word	.LANCHOR25
 627 0128 00000000 		.word	.LANCHOR26
ARM GAS  C:\Users\CHRIST~1\AppData\Local\Temp\ccCFoZV9.s 			page 12


 628 012c 00000000 		.word	.LANCHOR27
 629 0130 00000000 		.word	.LANCHOR28
 630 0134 00000000 		.word	.LANCHOR29
 631 0138 00000000 		.word	.LANCHOR30
 632 013c 00000000 		.word	.LANCHOR31
 633 0140 00000000 		.word	.LANCHOR32
 634 0144 00000000 		.word	.LANCHOR33
 635 0148 00000000 		.word	.LANCHOR13
 636 014c 00000000 		.word	.LANCHOR34
 637 0150 00000000 		.word	.LANCHOR35
 638 0154 00000000 		.word	.LANCHOR3
 639 0158 00000000 		.word	.LANCHOR36
 640 015c 00000000 		.word	.LANCHOR14
 641 0160 00000000 		.word	.LANCHOR1
 642 0164 00000000 		.word	timer_thread
 643 0168 00000000 		.word	.LANCHOR37
 644 016c 00000000 		.word	sample_send_thread
 645 0170 00000000 		.word	.LANCHOR38
 646 0174 00000000 		.word	.LANCHOR2
 647              		.cfi_endproc
 648              	.LFE256:
 649              		.size	mc_interface_init, .-mc_interface_init
 650              		.section	.text.mc_interface_get_configuration,"ax",%progbits
 651              		.align	1
 652              		.p2align 4,,15
 653              		.global	mc_interface_get_configuration
 654              		.syntax unified
 655              		.thumb
 656              		.thumb_func
 657              		.fpu fpv4-sp-d16
 658              		.type	mc_interface_get_configuration, %function
 659              	mc_interface_get_configuration:
 660              	.LFB257:
 661              		.loc 1 171 0
 662              		.cfi_startproc
 663              		@ args = 0, pretend = 0, frame = 0
 664              		@ frame_needed = 0, uses_anonymous_args = 0
 665              		@ link register save eliminated.
 666              		.loc 1 173 0
 667 0000 0048     		ldr	r0, .L38
 668 0002 7047     		bx	lr
 669              	.L39:
 670              		.align	2
 671              	.L38:
 672 0004 00000000 		.word	.LANCHOR12
 673              		.cfi_endproc
 674              	.LFE257:
 675              		.size	mc_interface_get_configuration, .-mc_interface_get_configuration
 676              		.section	.text.mc_interface_dccal_done,"ax",%progbits
 677              		.align	1
 678              		.p2align 4,,15
 679              		.global	mc_interface_dccal_done
 680              		.syntax unified
 681              		.thumb
 682              		.thumb_func
 683              		.fpu fpv4-sp-d16
 684              		.type	mc_interface_dccal_done, %function
ARM GAS  C:\Users\CHRIST~1\AppData\Local\Temp\ccCFoZV9.s 			page 13


 685              	mc_interface_dccal_done:
 686              	.LFB259:
 687              		.loc 1 234 0
 688              		.cfi_startproc
 689              		@ args = 0, pretend = 0, frame = 0
 690              		@ frame_needed = 0, uses_anonymous_args = 0
 691              		@ link register save eliminated.
 692              	.LVL36:
 693              		.loc 1 236 0
 694 0000 064B     		ldr	r3, .L47
 695 0002 9B78     		ldrb	r3, [r3, #2]	@ zero_extendqisi2
 696 0004 DBB2     		uxtb	r3, r3
 697 0006 012B     		cmp	r3, #1
 698 0008 05D9     		bls	.L42
 699 000a 022B     		cmp	r3, #2
 700 000c 01D1     		bne	.L46
 701              		.loc 1 243 0
 702 000e FFF7FEBF 		b	mcpwm_foc_is_dccal_done
 703              	.LVL37:
 704              	.L46:
 705              		.loc 1 251 0
 706 0012 0020     		movs	r0, #0
 707 0014 7047     		bx	lr
 708              	.L42:
 709              		.loc 1 239 0
 710 0016 FFF7FEBF 		b	mcpwm_is_dccal_done
 711              	.LVL38:
 712              	.L48:
 713 001a 00BF     		.align	2
 714              	.L47:
 715 001c 00000000 		.word	.LANCHOR12
 716              		.cfi_endproc
 717              	.LFE259:
 718              		.size	mc_interface_dccal_done, .-mc_interface_dccal_done
 719              		.section	.text.mc_interface_set_pwm_callback,"ax",%progbits
 720              		.align	1
 721              		.p2align 4,,15
 722              		.global	mc_interface_set_pwm_callback
 723              		.syntax unified
 724              		.thumb
 725              		.thumb_func
 726              		.fpu fpv4-sp-d16
 727              		.type	mc_interface_set_pwm_callback, %function
 728              	mc_interface_set_pwm_callback:
 729              	.LFB260:
 730              		.loc 1 259 0
 731              		.cfi_startproc
 732              		@ args = 0, pretend = 0, frame = 0
 733              		@ frame_needed = 0, uses_anonymous_args = 0
 734              		@ link register save eliminated.
 735              	.LVL39:
 736              		.loc 1 260 0
 737 0000 014B     		ldr	r3, .L50
 738 0002 1860     		str	r0, [r3]
 739 0004 7047     		bx	lr
 740              	.L51:
 741 0006 00BF     		.align	2
ARM GAS  C:\Users\CHRIST~1\AppData\Local\Temp\ccCFoZV9.s 			page 14


 742              	.L50:
 743 0008 00000000 		.word	.LANCHOR39
 744              		.cfi_endproc
 745              	.LFE260:
 746              		.size	mc_interface_set_pwm_callback, .-mc_interface_set_pwm_callback
 747              		.section	.text.mc_interface_lock,"ax",%progbits
 748              		.align	1
 749              		.p2align 4,,15
 750              		.global	mc_interface_lock
 751              		.syntax unified
 752              		.thumb
 753              		.thumb_func
 754              		.fpu fpv4-sp-d16
 755              		.type	mc_interface_lock, %function
 756              	mc_interface_lock:
 757              	.LFB261:
 758              		.loc 1 266 0
 759              		.cfi_startproc
 760              		@ args = 0, pretend = 0, frame = 0
 761              		@ frame_needed = 0, uses_anonymous_args = 0
 762              		@ link register save eliminated.
 763              		.loc 1 267 0
 764 0000 014B     		ldr	r3, .L53
 765 0002 0122     		movs	r2, #1
 766 0004 1A70     		strb	r2, [r3]
 767 0006 7047     		bx	lr
 768              	.L54:
 769              		.align	2
 770              	.L53:
 771 0008 00000000 		.word	.LANCHOR16
 772              		.cfi_endproc
 773              	.LFE261:
 774              		.size	mc_interface_lock, .-mc_interface_lock
 775              		.section	.text.mc_interface_unlock,"ax",%progbits
 776              		.align	1
 777              		.p2align 4,,15
 778              		.global	mc_interface_unlock
 779              		.syntax unified
 780              		.thumb
 781              		.thumb_func
 782              		.fpu fpv4-sp-d16
 783              		.type	mc_interface_unlock, %function
 784              	mc_interface_unlock:
 785              	.LFB262:
 786              		.loc 1 273 0
 787              		.cfi_startproc
 788              		@ args = 0, pretend = 0, frame = 0
 789              		@ frame_needed = 0, uses_anonymous_args = 0
 790              		@ link register save eliminated.
 791              		.loc 1 274 0
 792 0000 014B     		ldr	r3, .L56
 793 0002 0022     		movs	r2, #0
 794 0004 1A70     		strb	r2, [r3]
 795 0006 7047     		bx	lr
 796              	.L57:
 797              		.align	2
 798              	.L56:
ARM GAS  C:\Users\CHRIST~1\AppData\Local\Temp\ccCFoZV9.s 			page 15


 799 0008 00000000 		.word	.LANCHOR16
 800              		.cfi_endproc
 801              	.LFE262:
 802              		.size	mc_interface_unlock, .-mc_interface_unlock
 803              		.section	.text.mc_interface_lock_override_once,"ax",%progbits
 804              		.align	1
 805              		.p2align 4,,15
 806              		.global	mc_interface_lock_override_once
 807              		.syntax unified
 808              		.thumb
 809              		.thumb_func
 810              		.fpu fpv4-sp-d16
 811              		.type	mc_interface_lock_override_once, %function
 812              	mc_interface_lock_override_once:
 813              	.LFB263:
 814              		.loc 1 280 0
 815              		.cfi_startproc
 816              		@ args = 0, pretend = 0, frame = 0
 817              		@ frame_needed = 0, uses_anonymous_args = 0
 818              		@ link register save eliminated.
 819              		.loc 1 281 0
 820 0000 014B     		ldr	r3, .L59
 821 0002 0122     		movs	r2, #1
 822 0004 1A70     		strb	r2, [r3]
 823 0006 7047     		bx	lr
 824              	.L60:
 825              		.align	2
 826              	.L59:
 827 0008 00000000 		.word	.LANCHOR17
 828              		.cfi_endproc
 829              	.LFE263:
 830              		.size	mc_interface_lock_override_once, .-mc_interface_lock_override_once
 831              		.section	.text.mc_interface_get_fault,"ax",%progbits
 832              		.align	1
 833              		.p2align 4,,15
 834              		.global	mc_interface_get_fault
 835              		.syntax unified
 836              		.thumb
 837              		.thumb_func
 838              		.fpu fpv4-sp-d16
 839              		.type	mc_interface_get_fault, %function
 840              	mc_interface_get_fault:
 841              	.LFB264:
 842              		.loc 1 284 0
 843              		.cfi_startproc
 844              		@ args = 0, pretend = 0, frame = 0
 845              		@ frame_needed = 0, uses_anonymous_args = 0
 846              		@ link register save eliminated.
 847              		.loc 1 285 0
 848 0000 014B     		ldr	r3, .L62
 849              		.loc 1 286 0
 850 0002 1878     		ldrb	r0, [r3]	@ zero_extendqisi2
 851 0004 7047     		bx	lr
 852              	.L63:
 853 0006 00BF     		.align	2
 854              	.L62:
 855 0008 00000000 		.word	.LANCHOR13
ARM GAS  C:\Users\CHRIST~1\AppData\Local\Temp\ccCFoZV9.s 			page 16


 856              		.cfi_endproc
 857              	.LFE264:
 858              		.size	mc_interface_get_fault, .-mc_interface_get_fault
 859              		.section	.text.mc_interface_fault_to_string,"ax",%progbits
 860              		.align	1
 861              		.p2align 4,,15
 862              		.global	mc_interface_fault_to_string
 863              		.syntax unified
 864              		.thumb
 865              		.thumb_func
 866              		.fpu fpv4-sp-d16
 867              		.type	mc_interface_fault_to_string, %function
 868              	mc_interface_fault_to_string:
 869              	.LFB265:
 870              		.loc 1 288 0
 871              		.cfi_startproc
 872              		@ args = 0, pretend = 0, frame = 0
 873              		@ frame_needed = 0, uses_anonymous_args = 0
 874              		@ link register save eliminated.
 875              	.LVL40:
 876 0000 0628     		cmp	r0, #6
 877 0002 9ABF     		itte	ls
 878 0004 024B     		ldrls	r3, .L67
 879 0006 53F82000 		ldrls	r0, [r3, r0, lsl #2]
 880              	.LVL41:
 881              		.loc 1 288 0
 882 000a 0248     		ldrhi	r0, .L67+4
 883              		.loc 1 299 0
 884 000c 7047     		bx	lr
 885              	.L68:
 886 000e 00BF     		.align	2
 887              	.L67:
 888 0010 00000000 		.word	.LANCHOR40
 889 0014 00000000 		.word	.LC1
 890              		.cfi_endproc
 891              	.LFE265:
 892              		.size	mc_interface_fault_to_string, .-mc_interface_fault_to_string
 893              		.section	.text.mc_interface_get_state,"ax",%progbits
 894              		.align	1
 895              		.p2align 4,,15
 896              		.global	mc_interface_get_state
 897              		.syntax unified
 898              		.thumb
 899              		.thumb_func
 900              		.fpu fpv4-sp-d16
 901              		.type	mc_interface_get_state, %function
 902              	mc_interface_get_state:
 903              	.LFB266:
 904              		.loc 1 301 0
 905              		.cfi_startproc
 906              		@ args = 0, pretend = 0, frame = 0
 907              		@ frame_needed = 0, uses_anonymous_args = 0
 908              		@ link register save eliminated.
 909              	.LVL42:
 910              		.loc 1 303 0
 911 0000 064B     		ldr	r3, .L76
 912 0002 9B78     		ldrb	r3, [r3, #2]	@ zero_extendqisi2
ARM GAS  C:\Users\CHRIST~1\AppData\Local\Temp\ccCFoZV9.s 			page 17


 913 0004 DBB2     		uxtb	r3, r3
 914 0006 012B     		cmp	r3, #1
 915 0008 05D9     		bls	.L71
 916 000a 022B     		cmp	r3, #2
 917 000c 01D1     		bne	.L75
 918              		.loc 1 310 0
 919 000e FFF7FEBF 		b	mcpwm_foc_get_state
 920              	.LVL43:
 921              	.L75:
 922              		.loc 1 318 0
 923 0012 0020     		movs	r0, #0
 924 0014 7047     		bx	lr
 925              	.L71:
 926              		.loc 1 306 0
 927 0016 FFF7FEBF 		b	mcpwm_get_state
 928              	.LVL44:
 929              	.L77:
 930 001a 00BF     		.align	2
 931              	.L76:
 932 001c 00000000 		.word	.LANCHOR12
 933              		.cfi_endproc
 934              	.LFE266:
 935              		.size	mc_interface_get_state, .-mc_interface_get_state
 936              		.section	.text.mc_interface_get_duty_cycle_set,"ax",%progbits
 937              		.align	1
 938              		.p2align 4,,15
 939              		.global	mc_interface_get_duty_cycle_set
 940              		.syntax unified
 941              		.thumb
 942              		.thumb_func
 943              		.fpu fpv4-sp-d16
 944              		.type	mc_interface_get_duty_cycle_set, %function
 945              	mc_interface_get_duty_cycle_set:
 946              	.LFB278:
 947              		.loc 1 501 0
 948              		.cfi_startproc
 949              		@ args = 0, pretend = 0, frame = 0
 950              		@ frame_needed = 0, uses_anonymous_args = 0
 951              	.LVL45:
 952 0000 10B5     		push	{r4, lr}
 953              		.cfi_def_cfa_offset 8
 954              		.cfi_offset 4, -8
 955              		.cfi_offset 14, -4
 956              		.loc 1 504 0
 957 0002 0E4C     		ldr	r4, .L88
 958 0004 A378     		ldrb	r3, [r4, #2]	@ zero_extendqisi2
 959 0006 DBB2     		uxtb	r3, r3
 960 0008 012B     		cmp	r3, #1
 961 000a 13D9     		bls	.L80
 962 000c 022B     		cmp	r3, #2
 963 000e 0ED0     		beq	.L81
 964              		.loc 1 502 0
 965 0010 9FED0B0A 		vldr.32	s0, .L88+4
 966              	.LVL46:
 967              	.L79:
 968              		.loc 1 518 0
 969 0014 94F85931 		ldrb	r3, [r4, #345]	@ zero_extendqisi2
ARM GAS  C:\Users\CHRIST~1\AppData\Local\Temp\ccCFoZV9.s 			page 18


 970 0018 B7EE007A 		vmov.f32	s14, #1.0e+0
 971 001c 002B     		cmp	r3, #0
 972 001e FFEE007A 		vmov.f32	s15, #-1.0e+0
 973 0022 08BF     		it	eq
 974 0024 F0EE477A 		vmoveq.f32	s15, s14
 975              		.loc 1 519 0
 976 0028 20EE270A 		vmul.f32	s0, s0, s15
 977              	.LVL47:
 978 002c 10BD     		pop	{r4, pc}
 979              	.LVL48:
 980              	.L81:
 981              		.loc 1 511 0
 982 002e FFF7FEFF 		bl	mcpwm_foc_get_duty_cycle_set
 983              	.LVL49:
 984              		.loc 1 512 0
 985 0032 EFE7     		b	.L79
 986              	.LVL50:
 987              	.L80:
 988              		.loc 1 507 0
 989 0034 FFF7FEFF 		bl	mcpwm_get_duty_cycle_set
 990              	.LVL51:
 991              		.loc 1 508 0
 992 0038 ECE7     		b	.L79
 993              	.L89:
 994 003a 00BF     		.align	2
 995              	.L88:
 996 003c 00000000 		.word	.LANCHOR12
 997 0040 00000000 		.word	0
 998              		.cfi_endproc
 999              	.LFE278:
 1000              		.size	mc_interface_get_duty_cycle_set, .-mc_interface_get_duty_cycle_set
 1001              		.section	.text.mc_interface_get_duty_cycle_now,"ax",%progbits
 1002              		.align	1
 1003              		.p2align 4,,15
 1004              		.global	mc_interface_get_duty_cycle_now
 1005              		.syntax unified
 1006              		.thumb
 1007              		.thumb_func
 1008              		.fpu fpv4-sp-d16
 1009              		.type	mc_interface_get_duty_cycle_now, %function
 1010              	mc_interface_get_duty_cycle_now:
 1011              	.LFB279:
 1012              		.loc 1 521 0
 1013              		.cfi_startproc
 1014              		@ args = 0, pretend = 0, frame = 0
 1015              		@ frame_needed = 0, uses_anonymous_args = 0
 1016              	.LVL52:
 1017 0000 10B5     		push	{r4, lr}
 1018              		.cfi_def_cfa_offset 8
 1019              		.cfi_offset 4, -8
 1020              		.cfi_offset 14, -4
 1021              		.loc 1 524 0
 1022 0002 0E4C     		ldr	r4, .L100
 1023 0004 A378     		ldrb	r3, [r4, #2]	@ zero_extendqisi2
 1024 0006 DBB2     		uxtb	r3, r3
 1025 0008 012B     		cmp	r3, #1
 1026 000a 13D9     		bls	.L92
ARM GAS  C:\Users\CHRIST~1\AppData\Local\Temp\ccCFoZV9.s 			page 19


 1027 000c 022B     		cmp	r3, #2
 1028 000e 0ED0     		beq	.L93
 1029              		.loc 1 522 0
 1030 0010 9FED0B0A 		vldr.32	s0, .L100+4
 1031              	.LVL53:
 1032              	.L91:
 1033              		.loc 1 538 0
 1034 0014 94F85931 		ldrb	r3, [r4, #345]	@ zero_extendqisi2
 1035 0018 B7EE007A 		vmov.f32	s14, #1.0e+0
 1036 001c 002B     		cmp	r3, #0
 1037 001e FFEE007A 		vmov.f32	s15, #-1.0e+0
 1038 0022 08BF     		it	eq
 1039 0024 F0EE477A 		vmoveq.f32	s15, s14
 1040              		.loc 1 539 0
 1041 0028 20EE270A 		vmul.f32	s0, s0, s15
 1042              	.LVL54:
 1043 002c 10BD     		pop	{r4, pc}
 1044              	.LVL55:
 1045              	.L93:
 1046              		.loc 1 531 0
 1047 002e FFF7FEFF 		bl	mcpwm_foc_get_duty_cycle_now
 1048              	.LVL56:
 1049              		.loc 1 532 0
 1050 0032 EFE7     		b	.L91
 1051              	.LVL57:
 1052              	.L92:
 1053              		.loc 1 527 0
 1054 0034 FFF7FEFF 		bl	mcpwm_get_duty_cycle_now
 1055              	.LVL58:
 1056              		.loc 1 528 0
 1057 0038 ECE7     		b	.L91
 1058              	.L101:
 1059 003a 00BF     		.align	2
 1060              	.L100:
 1061 003c 00000000 		.word	.LANCHOR12
 1062 0040 00000000 		.word	0
 1063              		.cfi_endproc
 1064              	.LFE279:
 1065              		.size	mc_interface_get_duty_cycle_now, .-mc_interface_get_duty_cycle_now
 1066              		.section	.text.mc_interface_get_sampling_frequency_now,"ax",%progbits
 1067              		.align	1
 1068              		.p2align 4,,15
 1069              		.global	mc_interface_get_sampling_frequency_now
 1070              		.syntax unified
 1071              		.thumb
 1072              		.thumb_func
 1073              		.fpu fpv4-sp-d16
 1074              		.type	mc_interface_get_sampling_frequency_now, %function
 1075              	mc_interface_get_sampling_frequency_now:
 1076              	.LFB280:
 1077              		.loc 1 541 0
 1078              		.cfi_startproc
 1079              		@ args = 0, pretend = 0, frame = 0
 1080              		@ frame_needed = 0, uses_anonymous_args = 0
 1081              		@ link register save eliminated.
 1082              	.LVL59:
 1083              		.loc 1 544 0
ARM GAS  C:\Users\CHRIST~1\AppData\Local\Temp\ccCFoZV9.s 			page 20


 1084 0000 064B     		ldr	r3, .L109
 1085 0002 9B78     		ldrb	r3, [r3, #2]	@ zero_extendqisi2
 1086 0004 DBB2     		uxtb	r3, r3
 1087 0006 012B     		cmp	r3, #1
 1088 0008 06D9     		bls	.L104
 1089 000a 022B     		cmp	r3, #2
 1090 000c 01D1     		bne	.L108
 1091              		.loc 1 551 0
 1092 000e FFF7FEBF 		b	mcpwm_foc_get_sampling_frequency_now
 1093              	.LVL60:
 1094              	.L108:
 1095              		.loc 1 559 0
 1096 0012 9FED030A 		vldr.32	s0, .L109+4
 1097 0016 7047     		bx	lr
 1098              	.L104:
 1099              		.loc 1 547 0
 1100 0018 FFF7FEBF 		b	mcpwm_get_switching_frequency_now
 1101              	.LVL61:
 1102              	.L110:
 1103              		.align	2
 1104              	.L109:
 1105 001c 00000000 		.word	.LANCHOR12
 1106 0020 00000000 		.word	0
 1107              		.cfi_endproc
 1108              	.LFE280:
 1109              		.size	mc_interface_get_sampling_frequency_now, .-mc_interface_get_sampling_frequency_now
 1110              		.section	.text.mc_interface_get_rpm,"ax",%progbits
 1111              		.align	1
 1112              		.p2align 4,,15
 1113              		.global	mc_interface_get_rpm
 1114              		.syntax unified
 1115              		.thumb
 1116              		.thumb_func
 1117              		.fpu fpv4-sp-d16
 1118              		.type	mc_interface_get_rpm, %function
 1119              	mc_interface_get_rpm:
 1120              	.LFB281:
 1121              		.loc 1 561 0
 1122              		.cfi_startproc
 1123              		@ args = 0, pretend = 0, frame = 0
 1124              		@ frame_needed = 0, uses_anonymous_args = 0
 1125              	.LVL62:
 1126 0000 10B5     		push	{r4, lr}
 1127              		.cfi_def_cfa_offset 8
 1128              		.cfi_offset 4, -8
 1129              		.cfi_offset 14, -4
 1130              		.loc 1 564 0
 1131 0002 0E4C     		ldr	r4, .L121
 1132 0004 A378     		ldrb	r3, [r4, #2]	@ zero_extendqisi2
 1133 0006 DBB2     		uxtb	r3, r3
 1134 0008 012B     		cmp	r3, #1
 1135 000a 13D9     		bls	.L113
 1136 000c 022B     		cmp	r3, #2
 1137 000e 0ED0     		beq	.L114
 1138              		.loc 1 562 0
 1139 0010 9FED0B0A 		vldr.32	s0, .L121+4
 1140              	.LVL63:
ARM GAS  C:\Users\CHRIST~1\AppData\Local\Temp\ccCFoZV9.s 			page 21


 1141              	.L112:
 1142              		.loc 1 578 0
 1143 0014 94F85931 		ldrb	r3, [r4, #345]	@ zero_extendqisi2
 1144 0018 B7EE007A 		vmov.f32	s14, #1.0e+0
 1145 001c 002B     		cmp	r3, #0
 1146 001e FFEE007A 		vmov.f32	s15, #-1.0e+0
 1147 0022 08BF     		it	eq
 1148 0024 F0EE477A 		vmoveq.f32	s15, s14
 1149              		.loc 1 579 0
 1150 0028 20EE270A 		vmul.f32	s0, s0, s15
 1151              	.LVL64:
 1152 002c 10BD     		pop	{r4, pc}
 1153              	.LVL65:
 1154              	.L114:
 1155              		.loc 1 571 0
 1156 002e FFF7FEFF 		bl	mcpwm_foc_get_rpm
 1157              	.LVL66:
 1158              		.loc 1 572 0
 1159 0032 EFE7     		b	.L112
 1160              	.LVL67:
 1161              	.L113:
 1162              		.loc 1 567 0
 1163 0034 FFF7FEFF 		bl	mcpwm_get_rpm
 1164              	.LVL68:
 1165              		.loc 1 568 0
 1166 0038 ECE7     		b	.L112
 1167              	.L122:
 1168 003a 00BF     		.align	2
 1169              	.L121:
 1170 003c 00000000 		.word	.LANCHOR12
 1171 0040 00000000 		.word	0
 1172              		.cfi_endproc
 1173              	.LFE281:
 1174              		.size	mc_interface_get_rpm, .-mc_interface_get_rpm
 1175              		.section	.text.mc_interface_get_amp_hours,"ax",%progbits
 1176              		.align	1
 1177              		.p2align 4,,15
 1178              		.global	mc_interface_get_amp_hours
 1179              		.syntax unified
 1180              		.thumb
 1181              		.thumb_func
 1182              		.fpu fpv4-sp-d16
 1183              		.type	mc_interface_get_amp_hours, %function
 1184              	mc_interface_get_amp_hours:
 1185              	.LFB282:
 1186              		.loc 1 590 0
 1187              		.cfi_startproc
 1188              		@ args = 0, pretend = 0, frame = 0
 1189              		@ frame_needed = 0, uses_anonymous_args = 0
 1190              		@ link register save eliminated.
 1191              	.LVL69:
 1192              		.loc 1 591 0
 1193 0000 054B     		ldr	r3, .L128
 1194 0002 DFED067A 		vldr.32	s15, .L128+4
 1195 0006 93ED007A 		vldr.32	s14, [r3]
 1196 000a 87EE270A 		vdiv.f32	s0, s14, s15
 1197              	.LVL70:
ARM GAS  C:\Users\CHRIST~1\AppData\Local\Temp\ccCFoZV9.s 			page 22


 1198              		.loc 1 593 0
 1199 000e 08B1     		cbz	r0, .L123
 1200              		.loc 1 594 0
 1201 0010 0022     		movs	r2, #0
 1202 0012 1A60     		str	r2, [r3]	@ float
 1203              	.L123:
 1204              		.loc 1 598 0
 1205 0014 7047     		bx	lr
 1206              	.L129:
 1207 0016 00BF     		.align	2
 1208              	.L128:
 1209 0018 00000000 		.word	.LANCHOR26
 1210 001c 00006145 		.word	1163984896
 1211              		.cfi_endproc
 1212              	.LFE282:
 1213              		.size	mc_interface_get_amp_hours, .-mc_interface_get_amp_hours
 1214              		.section	.text.mc_interface_get_amp_hours_charged,"ax",%progbits
 1215              		.align	1
 1216              		.p2align 4,,15
 1217              		.global	mc_interface_get_amp_hours_charged
 1218              		.syntax unified
 1219              		.thumb
 1220              		.thumb_func
 1221              		.fpu fpv4-sp-d16
 1222              		.type	mc_interface_get_amp_hours_charged, %function
 1223              	mc_interface_get_amp_hours_charged:
 1224              	.LFB283:
 1225              		.loc 1 609 0
 1226              		.cfi_startproc
 1227              		@ args = 0, pretend = 0, frame = 0
 1228              		@ frame_needed = 0, uses_anonymous_args = 0
 1229              		@ link register save eliminated.
 1230              	.LVL71:
 1231              		.loc 1 610 0
 1232 0000 054B     		ldr	r3, .L135
 1233 0002 DFED067A 		vldr.32	s15, .L135+4
 1234 0006 93ED007A 		vldr.32	s14, [r3]
 1235 000a 87EE270A 		vdiv.f32	s0, s14, s15
 1236              	.LVL72:
 1237              		.loc 1 612 0
 1238 000e 08B1     		cbz	r0, .L130
 1239              		.loc 1 613 0
 1240 0010 0022     		movs	r2, #0
 1241 0012 1A60     		str	r2, [r3]	@ float
 1242              	.L130:
 1243              		.loc 1 617 0
 1244 0014 7047     		bx	lr
 1245              	.L136:
 1246 0016 00BF     		.align	2
 1247              	.L135:
 1248 0018 00000000 		.word	.LANCHOR27
 1249 001c 00006145 		.word	1163984896
 1250              		.cfi_endproc
 1251              	.LFE283:
 1252              		.size	mc_interface_get_amp_hours_charged, .-mc_interface_get_amp_hours_charged
 1253              		.section	.text.mc_interface_get_watt_hours,"ax",%progbits
 1254              		.align	1
ARM GAS  C:\Users\CHRIST~1\AppData\Local\Temp\ccCFoZV9.s 			page 23


 1255              		.p2align 4,,15
 1256              		.global	mc_interface_get_watt_hours
 1257              		.syntax unified
 1258              		.thumb
 1259              		.thumb_func
 1260              		.fpu fpv4-sp-d16
 1261              		.type	mc_interface_get_watt_hours, %function
 1262              	mc_interface_get_watt_hours:
 1263              	.LFB284:
 1264              		.loc 1 628 0
 1265              		.cfi_startproc
 1266              		@ args = 0, pretend = 0, frame = 0
 1267              		@ frame_needed = 0, uses_anonymous_args = 0
 1268              		@ link register save eliminated.
 1269              	.LVL73:
 1270              		.loc 1 629 0
 1271 0000 054B     		ldr	r3, .L142
 1272 0002 DFED067A 		vldr.32	s15, .L142+4
 1273 0006 93ED007A 		vldr.32	s14, [r3]
 1274 000a 87EE270A 		vdiv.f32	s0, s14, s15
 1275              	.LVL74:
 1276              		.loc 1 631 0
 1277 000e 08B1     		cbz	r0, .L137
 1278              		.loc 1 632 0
 1279 0010 0022     		movs	r2, #0
 1280 0012 1A60     		str	r2, [r3]	@ float
 1281              	.L137:
 1282              		.loc 1 636 0
 1283 0014 7047     		bx	lr
 1284              	.L143:
 1285 0016 00BF     		.align	2
 1286              	.L142:
 1287 0018 00000000 		.word	.LANCHOR28
 1288 001c 00006145 		.word	1163984896
 1289              		.cfi_endproc
 1290              	.LFE284:
 1291              		.size	mc_interface_get_watt_hours, .-mc_interface_get_watt_hours
 1292              		.section	.text.mc_interface_get_watt_hours_charged,"ax",%progbits
 1293              		.align	1
 1294              		.p2align 4,,15
 1295              		.global	mc_interface_get_watt_hours_charged
 1296              		.syntax unified
 1297              		.thumb
 1298              		.thumb_func
 1299              		.fpu fpv4-sp-d16
 1300              		.type	mc_interface_get_watt_hours_charged, %function
 1301              	mc_interface_get_watt_hours_charged:
 1302              	.LFB285:
 1303              		.loc 1 647 0
 1304              		.cfi_startproc
 1305              		@ args = 0, pretend = 0, frame = 0
 1306              		@ frame_needed = 0, uses_anonymous_args = 0
 1307              		@ link register save eliminated.
 1308              	.LVL75:
 1309              		.loc 1 648 0
 1310 0000 054B     		ldr	r3, .L149
 1311 0002 DFED067A 		vldr.32	s15, .L149+4
ARM GAS  C:\Users\CHRIST~1\AppData\Local\Temp\ccCFoZV9.s 			page 24


 1312 0006 93ED007A 		vldr.32	s14, [r3]
 1313 000a 87EE270A 		vdiv.f32	s0, s14, s15
 1314              	.LVL76:
 1315              		.loc 1 650 0
 1316 000e 08B1     		cbz	r0, .L144
 1317              		.loc 1 651 0
 1318 0010 0022     		movs	r2, #0
 1319 0012 1A60     		str	r2, [r3]	@ float
 1320              	.L144:
 1321              		.loc 1 655 0
 1322 0014 7047     		bx	lr
 1323              	.L150:
 1324 0016 00BF     		.align	2
 1325              	.L149:
 1326 0018 00000000 		.word	.LANCHOR29
 1327 001c 00006145 		.word	1163984896
 1328              		.cfi_endproc
 1329              	.LFE285:
 1330              		.size	mc_interface_get_watt_hours_charged, .-mc_interface_get_watt_hours_charged
 1331              		.section	.text.mc_interface_get_tot_current,"ax",%progbits
 1332              		.align	1
 1333              		.p2align 4,,15
 1334              		.global	mc_interface_get_tot_current
 1335              		.syntax unified
 1336              		.thumb
 1337              		.thumb_func
 1338              		.fpu fpv4-sp-d16
 1339              		.type	mc_interface_get_tot_current, %function
 1340              	mc_interface_get_tot_current:
 1341              	.LFB286:
 1342              		.loc 1 657 0
 1343              		.cfi_startproc
 1344              		@ args = 0, pretend = 0, frame = 0
 1345              		@ frame_needed = 0, uses_anonymous_args = 0
 1346              		@ link register save eliminated.
 1347              	.LVL77:
 1348              		.loc 1 660 0
 1349 0000 064B     		ldr	r3, .L158
 1350 0002 9B78     		ldrb	r3, [r3, #2]	@ zero_extendqisi2
 1351 0004 DBB2     		uxtb	r3, r3
 1352 0006 012B     		cmp	r3, #1
 1353 0008 06D9     		bls	.L153
 1354 000a 022B     		cmp	r3, #2
 1355 000c 01D1     		bne	.L157
 1356              		.loc 1 667 0
 1357 000e FFF7FEBF 		b	mcpwm_foc_get_tot_current
 1358              	.LVL78:
 1359              	.L157:
 1360              		.loc 1 675 0
 1361 0012 9FED030A 		vldr.32	s0, .L158+4
 1362 0016 7047     		bx	lr
 1363              	.L153:
 1364              		.loc 1 663 0
 1365 0018 FFF7FEBF 		b	mcpwm_get_tot_current
 1366              	.LVL79:
 1367              	.L159:
 1368              		.align	2
ARM GAS  C:\Users\CHRIST~1\AppData\Local\Temp\ccCFoZV9.s 			page 25


 1369              	.L158:
 1370 001c 00000000 		.word	.LANCHOR12
 1371 0020 00000000 		.word	0
 1372              		.cfi_endproc
 1373              	.LFE286:
 1374              		.size	mc_interface_get_tot_current, .-mc_interface_get_tot_current
 1375              		.section	.text.mc_interface_get_tot_current_filtered,"ax",%progbits
 1376              		.align	1
 1377              		.p2align 4,,15
 1378              		.global	mc_interface_get_tot_current_filtered
 1379              		.syntax unified
 1380              		.thumb
 1381              		.thumb_func
 1382              		.fpu fpv4-sp-d16
 1383              		.type	mc_interface_get_tot_current_filtered, %function
 1384              	mc_interface_get_tot_current_filtered:
 1385              	.LFB287:
 1386              		.loc 1 677 0
 1387              		.cfi_startproc
 1388              		@ args = 0, pretend = 0, frame = 0
 1389              		@ frame_needed = 0, uses_anonymous_args = 0
 1390              		@ link register save eliminated.
 1391              	.LVL80:
 1392              		.loc 1 680 0
 1393 0000 064B     		ldr	r3, .L167
 1394 0002 9B78     		ldrb	r3, [r3, #2]	@ zero_extendqisi2
 1395 0004 DBB2     		uxtb	r3, r3
 1396 0006 012B     		cmp	r3, #1
 1397 0008 06D9     		bls	.L162
 1398 000a 022B     		cmp	r3, #2
 1399 000c 01D1     		bne	.L166
 1400              		.loc 1 687 0
 1401 000e FFF7FEBF 		b	mcpwm_foc_get_tot_current_filtered
 1402              	.LVL81:
 1403              	.L166:
 1404              		.loc 1 695 0
 1405 0012 9FED030A 		vldr.32	s0, .L167+4
 1406 0016 7047     		bx	lr
 1407              	.L162:
 1408              		.loc 1 683 0
 1409 0018 FFF7FEBF 		b	mcpwm_get_tot_current_filtered
 1410              	.LVL82:
 1411              	.L168:
 1412              		.align	2
 1413              	.L167:
 1414 001c 00000000 		.word	.LANCHOR12
 1415 0020 00000000 		.word	0
 1416              		.cfi_endproc
 1417              	.LFE287:
 1418              		.size	mc_interface_get_tot_current_filtered, .-mc_interface_get_tot_current_filtered
 1419              		.section	.text.mc_interface_get_tot_current_directional,"ax",%progbits
 1420              		.align	1
 1421              		.p2align 4,,15
 1422              		.global	mc_interface_get_tot_current_directional
 1423              		.syntax unified
 1424              		.thumb
 1425              		.thumb_func
ARM GAS  C:\Users\CHRIST~1\AppData\Local\Temp\ccCFoZV9.s 			page 26


 1426              		.fpu fpv4-sp-d16
 1427              		.type	mc_interface_get_tot_current_directional, %function
 1428              	mc_interface_get_tot_current_directional:
 1429              	.LFB288:
 1430              		.loc 1 697 0
 1431              		.cfi_startproc
 1432              		@ args = 0, pretend = 0, frame = 0
 1433              		@ frame_needed = 0, uses_anonymous_args = 0
 1434              	.LVL83:
 1435 0000 10B5     		push	{r4, lr}
 1436              		.cfi_def_cfa_offset 8
 1437              		.cfi_offset 4, -8
 1438              		.cfi_offset 14, -4
 1439              		.loc 1 700 0
 1440 0002 0E4C     		ldr	r4, .L179
 1441 0004 A378     		ldrb	r3, [r4, #2]	@ zero_extendqisi2
 1442 0006 DBB2     		uxtb	r3, r3
 1443 0008 012B     		cmp	r3, #1
 1444 000a 13D9     		bls	.L171
 1445 000c 022B     		cmp	r3, #2
 1446 000e 0ED0     		beq	.L172
 1447              		.loc 1 698 0
 1448 0010 9FED0B0A 		vldr.32	s0, .L179+4
 1449              	.LVL84:
 1450              	.L170:
 1451              		.loc 1 714 0
 1452 0014 94F85931 		ldrb	r3, [r4, #345]	@ zero_extendqisi2
 1453 0018 B7EE007A 		vmov.f32	s14, #1.0e+0
 1454 001c 002B     		cmp	r3, #0
 1455 001e FFEE007A 		vmov.f32	s15, #-1.0e+0
 1456 0022 08BF     		it	eq
 1457 0024 F0EE477A 		vmoveq.f32	s15, s14
 1458              		.loc 1 715 0
 1459 0028 20EE270A 		vmul.f32	s0, s0, s15
 1460              	.LVL85:
 1461 002c 10BD     		pop	{r4, pc}
 1462              	.LVL86:
 1463              	.L172:
 1464              		.loc 1 707 0
 1465 002e FFF7FEFF 		bl	mcpwm_foc_get_tot_current_directional
 1466              	.LVL87:
 1467              		.loc 1 708 0
 1468 0032 EFE7     		b	.L170
 1469              	.LVL88:
 1470              	.L171:
 1471              		.loc 1 703 0
 1472 0034 FFF7FEFF 		bl	mcpwm_get_tot_current_directional
 1473              	.LVL89:
 1474              		.loc 1 704 0
 1475 0038 ECE7     		b	.L170
 1476              	.L180:
 1477 003a 00BF     		.align	2
 1478              	.L179:
 1479 003c 00000000 		.word	.LANCHOR12
 1480 0040 00000000 		.word	0
 1481              		.cfi_endproc
 1482              	.LFE288:
ARM GAS  C:\Users\CHRIST~1\AppData\Local\Temp\ccCFoZV9.s 			page 27


 1483              		.size	mc_interface_get_tot_current_directional, .-mc_interface_get_tot_current_directional
 1484              		.section	.text.mc_interface_get_tot_current_directional_filtered,"ax",%progbits
 1485              		.align	1
 1486              		.p2align 4,,15
 1487              		.global	mc_interface_get_tot_current_directional_filtered
 1488              		.syntax unified
 1489              		.thumb
 1490              		.thumb_func
 1491              		.fpu fpv4-sp-d16
 1492              		.type	mc_interface_get_tot_current_directional_filtered, %function
 1493              	mc_interface_get_tot_current_directional_filtered:
 1494              	.LFB289:
 1495              		.loc 1 717 0
 1496              		.cfi_startproc
 1497              		@ args = 0, pretend = 0, frame = 0
 1498              		@ frame_needed = 0, uses_anonymous_args = 0
 1499              	.LVL90:
 1500 0000 10B5     		push	{r4, lr}
 1501              		.cfi_def_cfa_offset 8
 1502              		.cfi_offset 4, -8
 1503              		.cfi_offset 14, -4
 1504              		.loc 1 720 0
 1505 0002 0E4C     		ldr	r4, .L191
 1506 0004 A378     		ldrb	r3, [r4, #2]	@ zero_extendqisi2
 1507 0006 DBB2     		uxtb	r3, r3
 1508 0008 012B     		cmp	r3, #1
 1509 000a 13D9     		bls	.L183
 1510 000c 022B     		cmp	r3, #2
 1511 000e 0ED0     		beq	.L184
 1512              		.loc 1 718 0
 1513 0010 9FED0B0A 		vldr.32	s0, .L191+4
 1514              	.LVL91:
 1515              	.L182:
 1516              		.loc 1 734 0
 1517 0014 94F85931 		ldrb	r3, [r4, #345]	@ zero_extendqisi2
 1518 0018 B7EE007A 		vmov.f32	s14, #1.0e+0
 1519 001c 002B     		cmp	r3, #0
 1520 001e FFEE007A 		vmov.f32	s15, #-1.0e+0
 1521 0022 08BF     		it	eq
 1522 0024 F0EE477A 		vmoveq.f32	s15, s14
 1523              		.loc 1 735 0
 1524 0028 20EE270A 		vmul.f32	s0, s0, s15
 1525              	.LVL92:
 1526 002c 10BD     		pop	{r4, pc}
 1527              	.LVL93:
 1528              	.L184:
 1529              		.loc 1 727 0
 1530 002e FFF7FEFF 		bl	mcpwm_foc_get_tot_current_directional_filtered
 1531              	.LVL94:
 1532              		.loc 1 728 0
 1533 0032 EFE7     		b	.L182
 1534              	.LVL95:
 1535              	.L183:
 1536              		.loc 1 723 0
 1537 0034 FFF7FEFF 		bl	mcpwm_get_tot_current_directional_filtered
 1538              	.LVL96:
 1539              		.loc 1 724 0
ARM GAS  C:\Users\CHRIST~1\AppData\Local\Temp\ccCFoZV9.s 			page 28


 1540 0038 ECE7     		b	.L182
 1541              	.L192:
 1542 003a 00BF     		.align	2
 1543              	.L191:
 1544 003c 00000000 		.word	.LANCHOR12
 1545 0040 00000000 		.word	0
 1546              		.cfi_endproc
 1547              	.LFE289:
 1548              		.size	mc_interface_get_tot_current_directional_filtered, .-mc_interface_get_tot_current_directiona
 1549              		.section	.text.mc_interface_get_tot_current_in,"ax",%progbits
 1550              		.align	1
 1551              		.p2align 4,,15
 1552              		.global	mc_interface_get_tot_current_in
 1553              		.syntax unified
 1554              		.thumb
 1555              		.thumb_func
 1556              		.fpu fpv4-sp-d16
 1557              		.type	mc_interface_get_tot_current_in, %function
 1558              	mc_interface_get_tot_current_in:
 1559              	.LFB290:
 1560              		.loc 1 737 0
 1561              		.cfi_startproc
 1562              		@ args = 0, pretend = 0, frame = 0
 1563              		@ frame_needed = 0, uses_anonymous_args = 0
 1564              		@ link register save eliminated.
 1565              	.LVL97:
 1566              		.loc 1 740 0
 1567 0000 064B     		ldr	r3, .L200
 1568 0002 9B78     		ldrb	r3, [r3, #2]	@ zero_extendqisi2
 1569 0004 DBB2     		uxtb	r3, r3
 1570 0006 012B     		cmp	r3, #1
 1571 0008 06D9     		bls	.L195
 1572 000a 022B     		cmp	r3, #2
 1573 000c 01D1     		bne	.L199
 1574              		.loc 1 747 0
 1575 000e FFF7FEBF 		b	mcpwm_foc_get_tot_current_in
 1576              	.LVL98:
 1577              	.L199:
 1578              		.loc 1 755 0
 1579 0012 9FED030A 		vldr.32	s0, .L200+4
 1580 0016 7047     		bx	lr
 1581              	.L195:
 1582              		.loc 1 743 0
 1583 0018 FFF7FEBF 		b	mcpwm_get_tot_current_in
 1584              	.LVL99:
 1585              	.L201:
 1586              		.align	2
 1587              	.L200:
 1588 001c 00000000 		.word	.LANCHOR12
 1589 0020 00000000 		.word	0
 1590              		.cfi_endproc
 1591              	.LFE290:
 1592              		.size	mc_interface_get_tot_current_in, .-mc_interface_get_tot_current_in
 1593              		.section	.text.mc_interface_get_tot_current_in_filtered,"ax",%progbits
 1594              		.align	1
 1595              		.p2align 4,,15
 1596              		.global	mc_interface_get_tot_current_in_filtered
ARM GAS  C:\Users\CHRIST~1\AppData\Local\Temp\ccCFoZV9.s 			page 29


 1597              		.syntax unified
 1598              		.thumb
 1599              		.thumb_func
 1600              		.fpu fpv4-sp-d16
 1601              		.type	mc_interface_get_tot_current_in_filtered, %function
 1602              	mc_interface_get_tot_current_in_filtered:
 1603              	.LFB291:
 1604              		.loc 1 757 0
 1605              		.cfi_startproc
 1606              		@ args = 0, pretend = 0, frame = 0
 1607              		@ frame_needed = 0, uses_anonymous_args = 0
 1608              		@ link register save eliminated.
 1609              	.LVL100:
 1610              		.loc 1 760 0
 1611 0000 064B     		ldr	r3, .L209
 1612 0002 9B78     		ldrb	r3, [r3, #2]	@ zero_extendqisi2
 1613 0004 DBB2     		uxtb	r3, r3
 1614 0006 012B     		cmp	r3, #1
 1615 0008 06D9     		bls	.L204
 1616 000a 022B     		cmp	r3, #2
 1617 000c 01D1     		bne	.L208
 1618              		.loc 1 767 0
 1619 000e FFF7FEBF 		b	mcpwm_foc_get_tot_current_in_filtered
 1620              	.LVL101:
 1621              	.L208:
 1622              		.loc 1 775 0
 1623 0012 9FED030A 		vldr.32	s0, .L209+4
 1624 0016 7047     		bx	lr
 1625              	.L204:
 1626              		.loc 1 763 0
 1627 0018 FFF7FEBF 		b	mcpwm_get_tot_current_in_filtered
 1628              	.LVL102:
 1629              	.L210:
 1630              		.align	2
 1631              	.L209:
 1632 001c 00000000 		.word	.LANCHOR12
 1633 0020 00000000 		.word	0
 1634              		.cfi_endproc
 1635              	.LFE291:
 1636              		.size	mc_interface_get_tot_current_in_filtered, .-mc_interface_get_tot_current_in_filtered
 1637              		.section	.text.mc_interface_get_tachometer_value,"ax",%progbits
 1638              		.align	1
 1639              		.p2align 4,,15
 1640              		.global	mc_interface_get_tachometer_value
 1641              		.syntax unified
 1642              		.thumb
 1643              		.thumb_func
 1644              		.fpu fpv4-sp-d16
 1645              		.type	mc_interface_get_tachometer_value, %function
 1646              	mc_interface_get_tachometer_value:
 1647              	.LFB292:
 1648              		.loc 1 777 0
 1649              		.cfi_startproc
 1650              		@ args = 0, pretend = 0, frame = 0
 1651              		@ frame_needed = 0, uses_anonymous_args = 0
 1652              	.LVL103:
 1653 0000 10B5     		push	{r4, lr}
ARM GAS  C:\Users\CHRIST~1\AppData\Local\Temp\ccCFoZV9.s 			page 30


 1654              		.cfi_def_cfa_offset 8
 1655              		.cfi_offset 4, -8
 1656              		.cfi_offset 14, -4
 1657              		.loc 1 780 0
 1658 0002 144C     		ldr	r4, .L221
 1659 0004 A378     		ldrb	r3, [r4, #2]	@ zero_extendqisi2
 1660 0006 DBB2     		uxtb	r3, r3
 1661 0008 012B     		cmp	r3, #1
 1662 000a 1BD9     		bls	.L213
 1663 000c 022B     		cmp	r3, #2
 1664 000e 12D0     		beq	.L214
 1665 0010 9FED117A 		vldr.32	s14, .L221+4
 1666              	.LVL104:
 1667              	.L212:
 1668              		.loc 1 794 0
 1669 0014 94F85931 		ldrb	r3, [r4, #345]	@ zero_extendqisi2
 1670 0018 FFEE006A 		vmov.f32	s13, #-1.0e+0
 1671 001c 002B     		cmp	r3, #0
 1672 001e F7EE007A 		vmov.f32	s15, #1.0e+0
 1673 0022 18BF     		it	ne
 1674 0024 F0EE667A 		vmovne.f32	s15, s13
 1675 0028 67EE877A 		vmul.f32	s15, s15, s14
 1676              		.loc 1 795 0
 1677 002c FDEEE77A 		vcvt.s32.f32	s15, s15
 1678 0030 17EE900A 		vmov	r0, s15	@ int
 1679 0034 10BD     		pop	{r4, pc}
 1680              	.LVL105:
 1681              	.L214:
 1682              		.loc 1 787 0
 1683 0036 FFF7FEFF 		bl	mcpwm_foc_get_tachometer_value
 1684              	.LVL106:
 1685 003a 07EE900A 		vmov	s15, r0	@ int
 1686 003e B8EEE77A 		vcvt.f32.s32	s14, s15
 1687              		.loc 1 788 0
 1688 0042 E7E7     		b	.L212
 1689              	.LVL107:
 1690              	.L213:
 1691              		.loc 1 783 0
 1692 0044 FFF7FEFF 		bl	mcpwm_get_tachometer_value
 1693              	.LVL108:
 1694 0048 07EE900A 		vmov	s15, r0	@ int
 1695 004c B8EEE77A 		vcvt.f32.s32	s14, s15
 1696              		.loc 1 784 0
 1697 0050 E0E7     		b	.L212
 1698              	.L222:
 1699 0052 00BF     		.align	2
 1700              	.L221:
 1701 0054 00000000 		.word	.LANCHOR12
 1702 0058 00000000 		.word	0
 1703              		.cfi_endproc
 1704              	.LFE292:
 1705              		.size	mc_interface_get_tachometer_value, .-mc_interface_get_tachometer_value
 1706              		.section	.text.mc_interface_fault_stop.part.3,"ax",%progbits
 1707              		.align	1
 1708              		.p2align 4,,15
 1709              		.syntax unified
 1710              		.thumb
ARM GAS  C:\Users\CHRIST~1\AppData\Local\Temp\ccCFoZV9.s 			page 31


 1711              		.thumb_func
 1712              		.fpu fpv4-sp-d16
 1713              		.type	mc_interface_fault_stop.part.3, %function
 1714              	mc_interface_fault_stop.part.3:
 1715              	.LFB315:
 1716              		.loc 1 991 0
 1717              		.cfi_startproc
 1718              		@ args = 0, pretend = 0, frame = 72
 1719              		@ frame_needed = 0, uses_anonymous_args = 0
 1720              	.LVL109:
 1721 0000 F0B5     		push	{r4, r5, r6, r7, lr}
 1722              		.cfi_def_cfa_offset 20
 1723              		.cfi_offset 4, -20
 1724              		.cfi_offset 5, -16
 1725              		.cfi_offset 6, -12
 1726              		.cfi_offset 7, -8
 1727              		.cfi_offset 14, -4
 1728 0002 93B0     		sub	sp, sp, #76
 1729              		.cfi_def_cfa_offset 96
 1730              		.loc 1 991 0
 1731 0004 0546     		mov	r5, r0
 1732              		.loc 1 997 0
 1733 0006 FFF7FEFF 		bl	mc_interface_dccal_done
 1734              	.LVL110:
 1735 000a 404C     		ldr	r4, .L233
 1736 000c 08B1     		cbz	r0, .L224
 1737 000e 2678     		ldrb	r6, [r4]	@ zero_extendqisi2
 1738 0010 A6B1     		cbz	r6, .L232
 1739              	.L224:
 1740              		.loc 1 1028 0
 1741 0012 3F4B     		ldr	r3, .L233+4
 1742 0014 3F4A     		ldr	r2, .L233+8
 1743 0016 D3F84811 		ldr	r1, [r3, #328]
 1744              		.loc 1 1030 0
 1745 001a 9B78     		ldrb	r3, [r3, #2]	@ zero_extendqisi2
 1746              		.loc 1 1028 0
 1747 001c 1160     		str	r1, [r2]
 1748              		.loc 1 1030 0
 1749 001e DBB2     		uxtb	r3, r3
 1750 0020 012B     		cmp	r3, #1
 1751 0022 06D9     		bls	.L226
 1752 0024 022B     		cmp	r3, #2
 1753 0026 01D1     		bne	.L225
 1754              		.loc 1 1037 0
 1755 0028 FFF7FEFF 		bl	mcpwm_foc_stop_pwm
 1756              	.LVL111:
 1757              	.L225:
 1758              		.loc 1 1044 0
 1759 002c 2570     		strb	r5, [r4]
 1760              		.loc 1 1045 0
 1761 002e 13B0     		add	sp, sp, #76
 1762              		.cfi_remember_state
 1763              		.cfi_def_cfa_offset 20
 1764              		@ sp needed
 1765 0030 F0BD     		pop	{r4, r5, r6, r7, pc}
 1766              	.L226:
 1767              		.cfi_restore_state
ARM GAS  C:\Users\CHRIST~1\AppData\Local\Temp\ccCFoZV9.s 			page 32


 1768              		.loc 1 1033 0
 1769 0032 FFF7FEFF 		bl	mcpwm_stop_pwm
 1770              	.LVL112:
 1771              		.loc 1 1044 0
 1772 0036 2570     		strb	r5, [r4]
 1773              		.loc 1 1045 0
 1774 0038 13B0     		add	sp, sp, #76
 1775              		.cfi_remember_state
 1776              		.cfi_def_cfa_offset 20
 1777              		@ sp needed
 1778 003a F0BD     		pop	{r4, r5, r6, r7, pc}
 1779              	.L232:
 1780              		.cfi_restore_state
 1781              	.LBB127:
 1782              		.loc 1 1000 0
 1783 003c FFF7FEFF 		bl	utils_sys_lock_cnt
 1784              	.LVL113:
 1785              		.loc 1 1001 0
 1786 0040 354A     		ldr	r2, .L233+12
 1787              		.loc 1 1002 0
 1788 0042 364B     		ldr	r3, .L233+16
 1789              		.loc 1 1001 0
 1790 0044 526B     		ldr	r2, [r2, #52]
 1791 0046 0192     		str	r2, [sp, #4]
 1792              		.loc 1 1002 0
 1793 0048 1A6C     		ldr	r2, [r3, #64]
 1794 004a 0292     		str	r2, [sp, #8]
 1795              		.loc 1 1003 0
 1796 004c DB6A     		ldr	r3, [r3, #44]
 1797 004e 0393     		str	r3, [sp, #12]
 1798              		.loc 1 1004 0
 1799 0050 FFF7FEFF 		bl	utils_sys_unlock_cnt
 1800              	.LVL114:
 1801              		.loc 1 1007 0
 1802 0054 8DF81050 		strb	r5, [sp, #16]
 1803              		.loc 1 1008 0
 1804 0058 FFF7FEFF 		bl	mc_interface_get_tot_current
 1805              	.LVL115:
 1806              		.loc 1 1010 0
 1807 005c 304F     		ldr	r7, .L233+20
 1808              		.loc 1 1008 0
 1809 005e 8DED050A 		vstr.32	s0, [sp, #20]
 1810              		.loc 1 1009 0
 1811 0062 FFF7FEFF 		bl	mc_interface_get_tot_current_filtered
 1812              	.LVL116:
 1813              		.loc 1 1010 0
 1814 0066 3B8A     		ldrh	r3, [r7, #16]
 1815 0068 DFED2E6A 		vldr.32	s13, .L233+24
 1816 006c 9FED2E7A 		vldr.32	s14, .L233+28
 1817              		.loc 1 1009 0
 1818 0070 8DED060A 		vstr.32	s0, [sp, #24]
 1819              		.loc 1 1010 0
 1820 0074 9BB2     		uxth	r3, r3
 1821 0076 07EE903A 		vmov	s15, r3	@ int
 1822 007a F8EE677A 		vcvt.f32.u32	s15, s15
 1823 007e 67EEA67A 		vmul.f32	s15, s15, s13
 1824 0082 67EE877A 		vmul.f32	s15, s15, s14
ARM GAS  C:\Users\CHRIST~1\AppData\Local\Temp\ccCFoZV9.s 			page 33


 1825 0086 CDED077A 		vstr.32	s15, [sp, #28]
 1826              		.loc 1 1011 0
 1827 008a FFF7FEFF 		bl	mc_interface_get_duty_cycle_now
 1828              	.LVL117:
 1829 008e 8DED080A 		vstr.32	s0, [sp, #32]
 1830              		.loc 1 1012 0
 1831 0092 FFF7FEFF 		bl	mc_interface_get_rpm
 1832              	.LVL118:
 1833              		.loc 1 1013 0
 1834 0096 3046     		mov	r0, r6
 1835              		.loc 1 1012 0
 1836 0098 8DED090A 		vstr.32	s0, [sp, #36]
 1837              		.loc 1 1013 0
 1838 009c FFF7FEFF 		bl	mc_interface_get_tachometer_value
 1839              	.LVL119:
 1840              		.loc 1 1014 0
 1841 00a0 224B     		ldr	r3, .L233+32
 1842              		.loc 1 1013 0
 1843 00a2 0A90     		str	r0, [sp, #40]
 1844              		.loc 1 1014 0
 1845 00a4 1868     		ldr	r0, [r3]
 1846              		.loc 1 1015 0
 1847 00a6 0199     		ldr	r1, [sp, #4]
 1848              		.loc 1 1016 0
 1849 00a8 029A     		ldr	r2, [sp, #8]
 1850              		.loc 1 1017 0
 1851 00aa 039B     		ldr	r3, [sp, #12]
 1852              		.loc 1 1015 0
 1853 00ac 0C91     		str	r1, [sp, #48]
 1854              		.loc 1 1016 0
 1855 00ae 0D92     		str	r2, [sp, #52]
 1856              		.loc 1 1017 0
 1857 00b0 0E93     		str	r3, [sp, #56]
 1858              		.loc 1 1014 0
 1859 00b2 0B90     		str	r0, [sp, #44]
 1860              		.loc 1 1018 0
 1861 00b4 FFF7FEFF 		bl	mcpwm_get_comm_step
 1862              	.LVL120:
 1863              		.loc 1 1019 0
 1864 00b8 7B89     		ldrh	r3, [r7, #10]
 1865 00ba DFED1D6A 		vldr.32	s13, .L233+36
 1866 00be 9FED1D0A 		vldr.32	s0, .L233+40
 1867              		.loc 1 1018 0
 1868 00c2 0F90     		str	r0, [sp, #60]
 1869              		.loc 1 1019 0
 1870 00c4 9BB2     		uxth	r3, r3
 1871 00c6 07EE903A 		vmov	s15, r3	@ int
 1872 00ca F8EEE77A 		vcvt.f32.s32	s15, s15
 1873 00ce 86EEA77A 		vdiv.f32	s14, s13, s15
 1874 00d2 37EE407A 		vsub.f32	s14, s14, s0
 1875 00d6 87EE000A 		vdiv.f32	s0, s14, s0
 1876 00da FFF7FEFF 		bl	logf
 1877              	.LVL121:
 1878              		.loc 1 1025 0
 1879 00de 04A8     		add	r0, sp, #16
 1880              		.loc 1 1019 0
 1881 00e0 DFED156A 		vldr.32	s13, .L233+44
ARM GAS  C:\Users\CHRIST~1\AppData\Local\Temp\ccCFoZV9.s 			page 34


 1882 00e4 DFED157A 		vldr.32	s15, .L233+48
 1883 00e8 9FED157A 		vldr.32	s14, .L233+52
 1884 00ec 80EE260A 		vdiv.f32	s0, s0, s13
 1885 00f0 F7EE006A 		vmov.f32	s13, #1.0e+0
 1886 00f4 30EE270A 		vadd.f32	s0, s0, s15
 1887 00f8 C6EE807A 		vdiv.f32	s15, s13, s0
 1888 00fc 77EEC77A 		vsub.f32	s15, s15, s14
 1889 0100 CDED107A 		vstr.32	s15, [sp, #64]
 1890              		.loc 1 1025 0
 1891 0104 FFF7FEFF 		bl	terminal_add_fault_data
 1892              	.LVL122:
 1893 0108 83E7     		b	.L224
 1894              	.L234:
 1895 010a 00BF     		.align	2
 1896              	.L233:
 1897 010c 00000000 		.word	.LANCHOR13
 1898 0110 00000000 		.word	.LANCHOR12
 1899 0114 00000000 		.word	.LANCHOR14
 1900 0118 00040140 		.word	1073808384
 1901 011c 00000140 		.word	1073807360
 1902 0120 00000000 		.word	.LANCHOR41
 1903 0124 6740533A 		.word	978534503
 1904 0128 74D19541 		.word	1100337524
 1905 012c 00000000 		.word	.LANCHOR15
 1906 0130 3C361C4C 		.word	1276917308
 1907 0134 00401C46 		.word	1176256512
 1908 0138 00A05645 		.word	1163304960
 1909 013c 0FCF5B3B 		.word	995872527
 1910 0140 33938843 		.word	1133024051
 1911              	.LBE127:
 1912              		.cfi_endproc
 1913              	.LFE315:
 1914              		.size	mc_interface_fault_stop.part.3, .-mc_interface_fault_stop.part.3
 1915              		.section	.text.update_override_limits.constprop.4,"ax",%progbits
 1916              		.align	1
 1917              		.p2align 4,,15
 1918              		.syntax unified
 1919              		.thumb
 1920              		.thumb_func
 1921              		.fpu fpv4-sp-d16
 1922              		.type	update_override_limits.constprop.4, %function
 1923              	update_override_limits.constprop.4:
 1924              	.LFB316:
 1925              		.loc 1 1301 0
 1926              		.cfi_startproc
 1927              		@ args = 0, pretend = 0, frame = 0
 1928              		@ frame_needed = 0, uses_anonymous_args = 0
 1929              	.LVL123:
 1930 0000 F8B5     		push	{r3, r4, r5, r6, r7, lr}
 1931              		.cfi_def_cfa_offset 24
 1932              		.cfi_offset 3, -24
 1933              		.cfi_offset 4, -20
 1934              		.cfi_offset 5, -16
 1935              		.cfi_offset 6, -12
 1936              		.cfi_offset 7, -8
 1937              		.cfi_offset 14, -4
 1938              		.loc 1 1302 0
ARM GAS  C:\Users\CHRIST~1\AppData\Local\Temp\ccCFoZV9.s 			page 35


 1939 0002 EB4F     		ldr	r7, .L321
 1940 0004 9FEDEB7A 		vldr.32	s14, .L321+4
 1941 0008 3B8A     		ldrh	r3, [r7, #16]
 1942              		.loc 1 1305 0
 1943 000a EB4D     		ldr	r5, .L321+8
 1944              		.loc 1 1302 0
 1945 000c DFEDEB7A 		vldr.32	s15, .L321+12
 1946              		.loc 1 1306 0
 1947 0010 EB4E     		ldr	r6, .L321+16
 1948 0012 EC4C     		ldr	r4, .L321+20
 1949              		.loc 1 1302 0
 1950 0014 9BB2     		uxth	r3, r3
 1951              		.loc 1 1301 0
 1952 0016 2DED088B 		vpush.64	{d8, d9, d10, d11}
 1953              		.cfi_def_cfa_offset 56
 1954              		.cfi_offset 80, -56
 1955              		.cfi_offset 81, -52
 1956              		.cfi_offset 82, -48
 1957              		.cfi_offset 83, -44
 1958              		.cfi_offset 84, -40
 1959              		.cfi_offset 85, -36
 1960              		.cfi_offset 86, -32
 1961              		.cfi_offset 87, -28
 1962              		.loc 1 1302 0
 1963 001a 08EE103A 		vmov	s16, r3	@ int
 1964 001e B8EE488A 		vcvt.f32.u32	s16, s16
 1965              		.loc 1 1305 0
 1966 0022 DFEDE98A 		vldr.32	s17, .L321+24
 1967 0026 9FEDE9BA 		vldr.32	s22, .L321+28
 1968 002a DFEDE9AA 		vldr.32	s21, .L321+32
 1969 002e 9FEDE9AA 		vldr.32	s20, .L321+36
 1970              		.loc 1 1302 0
 1971 0032 28EE078A 		vmul.f32	s16, s16, s14
 1972              		.loc 1 1305 0
 1973 0036 F7EE00BA 		vmov.f32	s23, #1.0e+0
 1974              		.loc 1 1302 0
 1975 003a 28EE278A 		vmul.f32	s16, s16, s15
 1976              	.LVL124:
 1977              		.loc 1 1303 0
 1978 003e FFF7FEFF 		bl	mc_interface_get_rpm
 1979              	.LVL125:
 1980              		.loc 1 1305 0
 1981 0042 D5ED009A 		vldr.32	s19, [r5]
 1982 0046 7B89     		ldrh	r3, [r7, #10]
 1983 0048 9FEDE37A 		vldr.32	s14, .L321+40
 1984 004c 9BB2     		uxth	r3, r3
 1985 004e 07EE903A 		vmov	s15, r3	@ int
 1986 0052 F8EEE77A 		vcvt.f32.s32	s15, s15
 1987              		.loc 1 1303 0
 1988 0056 B0EE409A 		vmov.f32	s18, s0
 1989              	.LVL126:
 1990              		.loc 1 1305 0
 1991 005a 87EE270A 		vdiv.f32	s0, s14, s15
 1992              	.LVL127:
 1993 005e 30EE680A 		vsub.f32	s0, s0, s17
 1994 0062 80EE280A 		vdiv.f32	s0, s0, s17
 1995 0066 FFF7FEFF 		bl	logf
ARM GAS  C:\Users\CHRIST~1\AppData\Local\Temp\ccCFoZV9.s 			page 36


 1996              	.LVL128:
 1997 006a 9FEDDC7A 		vldr.32	s14, .L321+44
 1998 006e D5ED007A 		vldr.32	s15, [r5]
 1999              		.loc 1 1306 0
 2000 0072 DFEDDB6A 		vldr.32	s13, .L321+48
 2001              		.loc 1 1305 0
 2002 0076 80EE070A 		vdiv.f32	s0, s0, s14
 2003 007a 30EE0B0A 		vadd.f32	s0, s0, s22
 2004 007e 8BEE807A 		vdiv.f32	s14, s23, s0
 2005 0082 37EE6A7A 		vsub.f32	s14, s14, s21
 2006 0086 79EEC79A 		vsub.f32	s19, s19, s14
 2007 008a E9EECA7A 		vfms.f32	s15, s19, s20
 2008 008e C5ED007A 		vstr.32	s15, [r5]
 2009              		.loc 1 1306 0
 2010 0092 D6ED009A 		vldr.32	s19, [r6]
 2011 0096 FB8A     		ldrh	r3, [r7, #22]
 2012 0098 9BB2     		uxth	r3, r3
 2013 009a 07EE903A 		vmov	s15, r3	@ int
 2014 009e F8EE677A 		vcvt.f32.u32	s15, s15
 2015 00a2 86EEA77A 		vdiv.f32	s14, s13, s15
 2016 00a6 77EE6B7A 		vsub.f32	s15, s14, s23
 2017 00aa 88EEA70A 		vdiv.f32	s0, s17, s15
 2018 00ae 80EE280A 		vdiv.f32	s0, s0, s17
 2019 00b2 FFF7FEFF 		bl	logf
 2020              	.LVL129:
 2021 00b6 94ED5B7A 		vldr.32	s14, [r4, #364]
 2022 00ba D6ED007A 		vldr.32	s15, [r6]
 2023 00be 80EE070A 		vdiv.f32	s0, s0, s14
 2024 00c2 30EE0B0A 		vadd.f32	s0, s0, s22
 2025 00c6 8BEE807A 		vdiv.f32	s14, s23, s0
 2026 00ca 37EE6A7A 		vsub.f32	s14, s14, s21
 2027 00ce 79EEC79A 		vsub.f32	s19, s19, s14
 2028 00d2 E9EECA7A 		vfms.f32	s15, s19, s20
 2029 00d6 C6ED007A 		vstr.32	s15, [r6]
 2030              	.LVL130:
 2031              		.loc 1 1311 0
 2032 00da 94ED107A 		vldr.32	s14, [r4, #64]
 2033 00de D5ED007A 		vldr.32	s15, [r5]
 2034 00e2 B4EEE77A 		vcmpe.f32	s14, s15
 2035 00e6 F1EE10FA 		vmrs	APSR_nzcv, FPSCR
 2036 00ea 40F39F80 		ble	.L301
 2037              		.loc 1 1312 0
 2038 00ee D4ED028A 		vldr.32	s17, [r4, #8]
 2039              	.LVL131:
 2040              		.loc 1 1313 0
 2041 00f2 94ED01AA 		vldr.32	s20, [r4, #4]
 2042              	.LVL132:
 2043              	.L238:
 2044              		.loc 1 1338 0
 2045 00f6 94ED127A 		vldr.32	s14, [r4, #72]
 2046 00fa D6ED007A 		vldr.32	s15, [r6]
 2047 00fe B4EEE77A 		vcmpe.f32	s14, s15
 2048 0102 F1EE10FA 		vmrs	APSR_nzcv, FPSCR
 2049 0106 40F3B980 		ble	.L305
 2050              		.loc 1 1339 0
 2051 010a D4ED029A 		vldr.32	s19, [r4, #8]
 2052              	.LVL133:
ARM GAS  C:\Users\CHRIST~1\AppData\Local\Temp\ccCFoZV9.s 			page 37


 2053              		.loc 1 1340 0
 2054 010e D4ED01AA 		vldr.32	s21, [r4, #4]
 2055              	.LVL134:
 2056              	.L251:
 2057              		.loc 1 1364 0
 2058 0112 D4ED070A 		vldr.32	s1, [r4, #28]
 2059 0116 D4ED087A 		vldr.32	s15, [r4, #32]
 2060              		.loc 1 1365 0
 2061 011a 94ED071A 		vldr.32	s2, [r4, #28]
 2062              		.loc 1 1364 0
 2063 011e 60EEA70A 		vmul.f32	s1, s1, s15
 2064              	.LVL135:
 2065              		.loc 1 1366 0
 2066 0122 B4EEE09A 		vcmpe.f32	s18, s1
 2067 0126 F1EE10FA 		vmrs	APSR_nzcv, FPSCR
 2068 012a 40F19E80 		bpl	.L309
 2069              		.loc 1 1367 0
 2070 012e 94ED01BA 		vldr.32	s22, [r4, #4]
 2071              	.LVL136:
 2072              	.L264:
 2073              		.loc 1 1376 0
 2074 0132 D4ED060A 		vldr.32	s1, [r4, #24]
 2075 0136 D4ED087A 		vldr.32	s15, [r4, #32]
 2076              		.loc 1 1377 0
 2077 013a 94ED061A 		vldr.32	s2, [r4, #24]
 2078              		.loc 1 1376 0
 2079 013e 60EEA70A 		vmul.f32	s1, s1, s15
 2080              	.LVL137:
 2081              		.loc 1 1378 0
 2082 0142 B4EEE09A 		vcmpe.f32	s18, s1
 2083 0146 F1EE10FA 		vmrs	APSR_nzcv, FPSCR
 2084 014a 40F38580 		ble	.L310
 2085              		.loc 1 1379 0
 2086 014e 94ED019A 		vldr.32	s18, [r4, #4]
 2087              	.LVL138:
 2088              	.L267:
 2089              		.loc 1 1386 0
 2090 0152 F0EE6A0A 		vmov.f32	s1, s21
 2091 0156 B0EE4A0A 		vmov.f32	s0, s20
 2092 015a FFF7FEFF 		bl	utils_min_abs
 2093              	.LVL139:
 2094              		.loc 1 1387 0
 2095 015e F0EE690A 		vmov.f32	s1, s19
 2096              		.loc 1 1386 0
 2097 0162 B0EE40AA 		vmov.f32	s20, s0
 2098              	.LVL140:
 2099              		.loc 1 1387 0
 2100 0166 B0EE680A 		vmov.f32	s0, s17
 2101              	.LVL141:
 2102 016a FFF7FEFF 		bl	utils_min_abs
 2103              	.LVL142:
 2104              		.loc 1 1389 0
 2105 016e F0EE4B0A 		vmov.f32	s1, s22
 2106              		.loc 1 1387 0
 2107 0172 F0EE408A 		vmov.f32	s17, s0
 2108              	.LVL143:
 2109              		.loc 1 1389 0
ARM GAS  C:\Users\CHRIST~1\AppData\Local\Temp\ccCFoZV9.s 			page 38


 2110 0176 B0EE4A0A 		vmov.f32	s0, s20
 2111              	.LVL144:
 2112 017a FFF7FEFF 		bl	utils_min_abs
 2113              	.LVL145:
 2114              		.loc 1 1390 0
 2115 017e F0EE490A 		vmov.f32	s1, s18
 2116 0182 FFF7FEFF 		bl	utils_min_abs
 2117              	.LVL146:
 2118              		.loc 1 1392 0
 2119 0186 D4ED4F7A 		vldr.32	s15, [r4, #316]
 2120 018a B4EEE70A 		vcmpe.f32	s0, s15
 2121 018e F1EE10FA 		vmrs	APSR_nzcv, FPSCR
 2122              		.loc 1 1393 0
 2123 0192 48BF     		it	mi
 2124 0194 94ED4F0A 		vldrmi.32	s0, [r4, #316]
 2125              	.LVL147:
 2126              		.loc 1 1396 0
 2127 0198 D4ED4F7A 		vldr.32	s15, [r4, #316]
 2128 019c F1EE677A 		vneg.f32	s15, s15
 2129 01a0 F4EEE78A 		vcmpe.f32	s17, s15
 2130 01a4 F1EE10FA 		vmrs	APSR_nzcv, FPSCR
 2131              		.loc 1 1397 0
 2132 01a8 C8BF     		it	gt
 2133 01aa D4ED4F8A 		vldrgt.32	s17, [r4, #316]
 2134              	.LVL148:
 2135              		.loc 1 1400 0
 2136 01ae 84ED180A 		vstr.32	s0, [r4, #96]
 2137              		.loc 1 1397 0
 2138 01b2 C8BF     		it	gt
 2139 01b4 F1EE688A 		vneggt.f32	s17, s17
 2140              	.LVL149:
 2141              		.loc 1 1401 0
 2142 01b8 C4ED198A 		vstr.32	s17, [r4, #100]
 2143              	.LVL150:
 2144              		.loc 1 1405 0
 2145 01bc D4ED0D7A 		vldr.32	s15, [r4, #52]
 2146 01c0 B4EEE78A 		vcmpe.f32	s16, s15
 2147 01c4 F1EE10FA 		vmrs	APSR_nzcv, FPSCR
 2148 01c8 00F31F81 		bgt	.L313
 2149              		.loc 1 1407 0
 2150 01cc D4ED0E7A 		vldr.32	s15, [r4, #56]
 2151 01d0 B4EEE78A 		vcmpe.f32	s16, s15
 2152 01d4 F1EE10FA 		vmrs	APSR_nzcv, FPSCR
 2153 01d8 40F10881 		bpl	.L314
 2154              		.loc 1 1408 0
 2155 01dc DFED820A 		vldr.32	s1, .L321+56
 2156              	.LVL151:
 2157              	.L274:
 2158              		.loc 1 1415 0
 2159 01e0 94ED160A 		vldr.32	s0, [r4, #88]
 2160              	.LVL152:
 2161              		.loc 1 1416 0
 2162 01e4 94ED177A 		vldr.32	s14, [r4, #92]
 2163 01e8 C7EE088A 		vdiv.f32	s17, s14, s16
 2164              	.LVL153:
 2165              		.loc 1 1418 0
 2166 01ec 80EE080A 		vdiv.f32	s0, s0, s16
ARM GAS  C:\Users\CHRIST~1\AppData\Local\Temp\ccCFoZV9.s 			page 39


 2167              	.LVL154:
 2168 01f0 FFF7FEFF 		bl	utils_min_abs
 2169              	.LVL155:
 2170              		.loc 1 1421 0
 2171 01f4 D4ED037A 		vldr.32	s15, [r4, #12]
 2172 01f8 F0EE400A 		vmov.f32	s1, s0
 2173 01fc B0EE670A 		vmov.f32	s0, s15
 2174              	.LVL156:
 2175 0200 FFF7FEFF 		bl	utils_min_abs
 2176              	.LVL157:
 2177 0204 84ED1A0A 		vstr.32	s0, [r4, #104]
 2178              		.loc 1 1422 0
 2179 0208 F0EE680A 		vmov.f32	s1, s17
 2180 020c 94ED040A 		vldr.32	s0, [r4, #16]
 2181 0210 FFF7FEFF 		bl	utils_min_abs
 2182              	.LVL158:
 2183 0214 84ED1B0A 		vstr.32	s0, [r4, #108]
 2184              		.loc 1 1425 0
 2185 0218 FFF7FEFF 		bl	mc_interface_get_duty_cycle_now
 2186              	.LVL159:
 2187              		.loc 1 1444 0
 2188 021c BDEC088B 		vldm	sp!, {d8-d11}
 2189              		.cfi_remember_state
 2190              		.cfi_restore 86
 2191              		.cfi_restore 87
 2192              		.cfi_restore 84
 2193              		.cfi_restore 85
 2194              		.cfi_restore 82
 2195              		.cfi_restore 83
 2196              		.cfi_restore 80
 2197              		.cfi_restore 81
 2198              		.cfi_def_cfa_offset 24
 2199              	.LVL160:
 2200              		.loc 1 1428 0
 2201 0220 A378     		ldrb	r3, [r4, #2]	@ zero_extendqisi2
 2202              		.loc 1 1442 0
 2203 0222 236E     		ldr	r3, [r4, #96]	@ float
 2204 0224 2367     		str	r3, [r4, #112]	@ float
 2205              		.loc 1 1443 0
 2206 0226 636E     		ldr	r3, [r4, #100]	@ float
 2207 0228 6367     		str	r3, [r4, #116]	@ float
 2208              		.loc 1 1444 0
 2209 022a F8BD     		pop	{r3, r4, r5, r6, r7, pc}
 2210              	.LVL161:
 2211              	.L301:
 2212              		.cfi_restore_state
 2213              		.loc 1 1314 0
 2214 022c 94ED117A 		vldr.32	s14, [r4, #68]
 2215 0230 D5ED007A 		vldr.32	s15, [r5]
 2216 0234 B4EEE77A 		vcmpe.f32	s14, s15
 2217 0238 F1EE10FA 		vmrs	APSR_nzcv, FPSCR
 2218 023c 34D5     		bpl	.L302
 2219              	.LVL162:
 2220              	.LBB128:
 2221              	.LBB129:
 2222              		.loc 1 992 0
 2223 023e 694B     		ldr	r3, .L321+52
ARM GAS  C:\Users\CHRIST~1\AppData\Local\Temp\ccCFoZV9.s 			page 40


 2224 0240 1B78     		ldrb	r3, [r3]	@ zero_extendqisi2
 2225 0242 052B     		cmp	r3, #5
 2226 0244 00F01A81 		beq	.L315
 2227              	.LBE129:
 2228              	.LBE128:
 2229              		.loc 1 1315 0
 2230 0248 DFED678A 		vldr.32	s17, .L321+56
 2231              	.LBB134:
 2232              	.LBB130:
 2233 024c 0520     		movs	r0, #5
 2234              	.LBE130:
 2235              	.LBE134:
 2236              		.loc 1 1316 0
 2237 024e B0EE68AA 		vmov.f32	s20, s17
 2238              	.LBB135:
 2239              	.LBB131:
 2240 0252 FFF7FEFF 		bl	mc_interface_fault_stop.part.3
 2241              	.LVL163:
 2242 0256 4EE7     		b	.L238
 2243              	.LVL164:
 2244              	.L310:
 2245              	.LBE131:
 2246              	.LBE135:
 2247              		.loc 1 1380 0
 2248 0258 B4EEC19A 		vcmpe.f32	s18, s2
 2249 025c F1EE10FA 		vmrs	APSR_nzcv, FPSCR
 2250 0260 40F1D680 		bpl	.L316
 2251              		.loc 1 1381 0
 2252 0264 9FED609A 		vldr.32	s18, .L321+56
 2253              	.LVL165:
 2254 0268 73E7     		b	.L267
 2255              	.LVL166:
 2256              	.L309:
 2257              		.loc 1 1368 0
 2258 026a B4EEC19A 		vcmpe.f32	s18, s2
 2259 026e F1EE10FA 		vmrs	APSR_nzcv, FPSCR
 2260 0272 40F3D880 		ble	.L317
 2261              		.loc 1 1369 0
 2262 0276 9FED5CBA 		vldr.32	s22, .L321+56
 2263 027a 5AE7     		b	.L264
 2264              	.LVL167:
 2265              	.L305:
 2266              		.loc 1 1341 0
 2267 027c 94ED137A 		vldr.32	s14, [r4, #76]
 2268 0280 D6ED007A 		vldr.32	s15, [r6]
 2269 0284 B4EEE77A 		vcmpe.f32	s14, s15
 2270 0288 F1EE10FA 		vmrs	APSR_nzcv, FPSCR
 2271 028c 4ED5     		bpl	.L306
 2272              	.LVL168:
 2273              	.LBB136:
 2274              	.LBB137:
 2275              		.loc 1 992 0
 2276 028e 554B     		ldr	r3, .L321+52
 2277 0290 1B78     		ldrb	r3, [r3]	@ zero_extendqisi2
 2278 0292 062B     		cmp	r3, #6
 2279 0294 00F0FB80 		beq	.L318
 2280              	.LBE137:
ARM GAS  C:\Users\CHRIST~1\AppData\Local\Temp\ccCFoZV9.s 			page 41


 2281              	.LBE136:
 2282              		.loc 1 1342 0
 2283 0298 DFED539A 		vldr.32	s19, .L321+56
 2284              	.LBB142:
 2285              	.LBB138:
 2286 029c 0620     		movs	r0, #6
 2287              	.LBE138:
 2288              	.LBE142:
 2289              		.loc 1 1343 0
 2290 029e F0EE69AA 		vmov.f32	s21, s19
 2291              	.LBB143:
 2292              	.LBB139:
 2293 02a2 FFF7FEFF 		bl	mc_interface_fault_stop.part.3
 2294              	.LVL169:
 2295 02a6 34E7     		b	.L251
 2296              	.LVL170:
 2297              	.L302:
 2298              	.LBE139:
 2299              	.LBE143:
 2300              	.LBB144:
 2301              		.loc 1 1319 0
 2302 02a8 D4ED011A 		vldr.32	s3, [r4, #4]
 2303              		.loc 1 1320 0
 2304 02ac D4ED027A 		vldr.32	s15, [r4, #8]
 2305              		.loc 1 1324 0
 2306 02b0 9FED4D2A 		vldr.32	s4, .L321+56
 2307              		.loc 1 1319 0
 2308 02b4 F0EEE11A 		vabs.f32	s3, s3
 2309              	.LVL171:
 2310              		.loc 1 1320 0
 2311 02b8 F0EEE77A 		vabs.f32	s15, s15
 2312 02bc F4EEE71A 		vcmpe.f32	s3, s15
 2313 02c0 F1EE10FA 		vmrs	APSR_nzcv, FPSCR
 2314              		.loc 1 1321 0
 2315 02c4 48BF     		it	mi
 2316 02c6 D4ED021A 		vldrmi.32	s3, [r4, #8]
 2317              	.LVL172:
 2318              		.loc 1 1324 0
 2319 02ca 95ED000A 		vldr.32	s0, [r5]
 2320 02ce D4ED100A 		vldr.32	s1, [r4, #64]
 2321 02d2 94ED111A 		vldr.32	s2, [r4, #68]
 2322              		.loc 1 1321 0
 2323 02d6 48BF     		it	mi
 2324 02d8 F0EEE11A 		vabsmi.f32	s3, s3
 2325              	.LVL173:
 2326              		.loc 1 1324 0
 2327 02dc FFF7FEFF 		bl	utils_map
 2328              	.LVL174:
 2329              		.loc 1 1326 0
 2330 02e0 D4ED017A 		vldr.32	s15, [r4, #4]
 2331 02e4 F0EEE77A 		vabs.f32	s15, s15
 2332 02e8 B4EEE70A 		vcmpe.f32	s0, s15
 2333 02ec F1EE10FA 		vmrs	APSR_nzcv, FPSCR
 2334 02f0 00F1A480 		bmi	.L319
 2335              	.LBE144:
 2336              		.loc 1 1309 0
 2337 02f4 9FED3CAA 		vldr.32	s20, .L321+56
ARM GAS  C:\Users\CHRIST~1\AppData\Local\Temp\ccCFoZV9.s 			page 42


 2338              	.LVL175:
 2339              	.L244:
 2340              	.LBB145:
 2341              		.loc 1 1330 0
 2342 02f8 D4ED027A 		vldr.32	s15, [r4, #8]
 2343 02fc F0EEE77A 		vabs.f32	s15, s15
 2344 0300 B4EEE70A 		vcmpe.f32	s0, s15
 2345 0304 F1EE10FA 		vmrs	APSR_nzcv, FPSCR
 2346 0308 40F1CA80 		bpl	.L304
 2347              		.loc 1 1331 0
 2348 030c D4ED027A 		vldr.32	s15, [r4, #8]
 2349 0310 F5EEC07A 		vcmpe.f32	s15, #0
 2350 0314 F1EE10FA 		vmrs	APSR_nzcv, FPSCR
 2351 0318 FFEE008A 		vmov.f32	s17, #-1.0e+0
 2352 031c F7EE007A 		vmov.f32	s15, #1.0e+0
 2353 0320 58BF     		it	pl
 2354 0322 F0EE678A 		vmovpl.f32	s17, s15
 2355 0326 60EE288A 		vmul.f32	s17, s0, s17
 2356              	.LVL176:
 2357 032a E4E6     		b	.L238
 2358              	.LVL177:
 2359              	.L306:
 2360              	.LBE145:
 2361              	.LBB146:
 2362              		.loc 1 1346 0
 2363 032c D4ED011A 		vldr.32	s3, [r4, #4]
 2364              		.loc 1 1347 0
 2365 0330 D4ED027A 		vldr.32	s15, [r4, #8]
 2366              		.loc 1 1351 0
 2367 0334 9FED2C2A 		vldr.32	s4, .L321+56
 2368              		.loc 1 1346 0
 2369 0338 F0EEE11A 		vabs.f32	s3, s3
 2370              	.LVL178:
 2371              		.loc 1 1347 0
 2372 033c F0EEE77A 		vabs.f32	s15, s15
 2373 0340 F4EEE71A 		vcmpe.f32	s3, s15
 2374 0344 F1EE10FA 		vmrs	APSR_nzcv, FPSCR
 2375              		.loc 1 1348 0
 2376 0348 48BF     		it	mi
 2377 034a D4ED021A 		vldrmi.32	s3, [r4, #8]
 2378              	.LVL179:
 2379              		.loc 1 1351 0
 2380 034e 96ED000A 		vldr.32	s0, [r6]
 2381 0352 D4ED120A 		vldr.32	s1, [r4, #72]
 2382 0356 94ED131A 		vldr.32	s2, [r4, #76]
 2383              		.loc 1 1348 0
 2384 035a 48BF     		it	mi
 2385 035c F0EEE11A 		vabsmi.f32	s3, s3
 2386              	.LVL180:
 2387              		.loc 1 1351 0
 2388 0360 FFF7FEFF 		bl	utils_map
 2389              	.LVL181:
 2390              		.loc 1 1353 0
 2391 0364 D4ED017A 		vldr.32	s15, [r4, #4]
 2392 0368 F0EEE77A 		vabs.f32	s15, s15
 2393 036c B4EEE70A 		vcmpe.f32	s0, s15
 2394 0370 F1EE10FA 		vmrs	APSR_nzcv, FPSCR
ARM GAS  C:\Users\CHRIST~1\AppData\Local\Temp\ccCFoZV9.s 			page 43


 2395 0374 72D4     		bmi	.L320
 2396              	.LBE146:
 2397              		.loc 1 1336 0
 2398 0376 DFED1CAA 		vldr.32	s21, .L321+56
 2399              	.LVL182:
 2400              	.L257:
 2401              	.LBB147:
 2402              		.loc 1 1357 0
 2403 037a D4ED027A 		vldr.32	s15, [r4, #8]
 2404 037e F0EEE77A 		vabs.f32	s15, s15
 2405 0382 B4EEE70A 		vcmpe.f32	s0, s15
 2406 0386 F1EE10FA 		vmrs	APSR_nzcv, FPSCR
 2407 038a 40F18C80 		bpl	.L308
 2408              		.loc 1 1358 0
 2409 038e D4ED027A 		vldr.32	s15, [r4, #8]
 2410 0392 F5EEC07A 		vcmpe.f32	s15, #0
 2411 0396 F1EE10FA 		vmrs	APSR_nzcv, FPSCR
 2412 039a FFEE009A 		vmov.f32	s19, #-1.0e+0
 2413 039e F7EE007A 		vmov.f32	s15, #1.0e+0
 2414 03a2 58BF     		it	pl
 2415 03a4 F0EE679A 		vmovpl.f32	s19, s15
 2416 03a8 60EE299A 		vmul.f32	s19, s0, s19
 2417              	.LVL183:
 2418 03ac B1E6     		b	.L251
 2419              	.L322:
 2420 03ae 00BF     		.align	2
 2421              	.L321:
 2422 03b0 00000000 		.word	.LANCHOR41
 2423 03b4 6740533A 		.word	978534503
 2424 03b8 00000000 		.word	.LANCHOR32
 2425 03bc 74D19541 		.word	1100337524
 2426 03c0 00000000 		.word	.LANCHOR33
 2427 03c4 00000000 		.word	.LANCHOR12
 2428 03c8 00401C46 		.word	1176256512
 2429 03cc 0FCF5B3B 		.word	995872527
 2430 03d0 33938843 		.word	1133024051
 2431 03d4 CDCCCC3D 		.word	1036831949
 2432 03d8 3C361C4C 		.word	1276917308
 2433 03dc 00A05645 		.word	1163304960
 2434 03e0 00F07F45 		.word	1166012416
 2435 03e4 00000000 		.word	.LANCHOR13
 2436 03e8 00000000 		.word	0
 2437              	.LVL184:
 2438              	.L314:
 2439              	.LBE147:
 2440              		.loc 1 1410 0
 2441 03ec D4ED0D0A 		vldr.32	s1, [r4, #52]
 2442 03f0 1FED032A 		vldr.32	s4, .L321+56
 2443 03f4 94ED0E1A 		vldr.32	s2, [r4, #56]
 2444 03f8 D4ED031A 		vldr.32	s3, [r4, #12]
 2445 03fc B0EE480A 		vmov.f32	s0, s16
 2446              	.LVL185:
 2447 0400 FFF7FEFF 		bl	utils_map
 2448              	.LVL186:
 2449 0404 F0EE400A 		vmov.f32	s1, s0
 2450              	.LVL187:
 2451 0408 EAE6     		b	.L274
ARM GAS  C:\Users\CHRIST~1\AppData\Local\Temp\ccCFoZV9.s 			page 44


 2452              	.LVL188:
 2453              	.L313:
 2454              		.loc 1 1406 0
 2455 040a D4ED030A 		vldr.32	s1, [r4, #12]
 2456              	.LVL189:
 2457 040e E7E6     		b	.L274
 2458              	.LVL190:
 2459              	.L316:
 2460              		.loc 1 1383 0
 2461 0410 B0EE490A 		vmov.f32	s0, s18
 2462 0414 D4ED011A 		vldr.32	s3, [r4, #4]
 2463 0418 1FED0D2A 		vldr.32	s4, .L321+56
 2464 041c FFF7FEFF 		bl	utils_map
 2465              	.LVL191:
 2466 0420 B0EE409A 		vmov.f32	s18, s0
 2467              	.LVL192:
 2468 0424 95E6     		b	.L267
 2469              	.LVL193:
 2470              	.L317:
 2471              		.loc 1 1371 0
 2472 0426 D4ED011A 		vldr.32	s3, [r4, #4]
 2473 042a 1FED112A 		vldr.32	s4, .L321+56
 2474 042e B0EE490A 		vmov.f32	s0, s18
 2475 0432 FFF7FEFF 		bl	utils_map
 2476              	.LVL194:
 2477 0436 B0EE40BA 		vmov.f32	s22, s0
 2478              	.LVL195:
 2479 043a 7AE6     		b	.L264
 2480              	.LVL196:
 2481              	.L319:
 2482              	.LBB148:
 2483              		.loc 1 1327 0
 2484 043c D4ED017A 		vldr.32	s15, [r4, #4]
 2485 0440 F5EEC07A 		vcmpe.f32	s15, #0
 2486 0444 F1EE10FA 		vmrs	APSR_nzcv, FPSCR
 2487 0448 BFEE00AA 		vmov.f32	s20, #-1.0e+0
 2488 044c F7EE007A 		vmov.f32	s15, #1.0e+0
 2489 0450 58BF     		it	pl
 2490 0452 B0EE67AA 		vmovpl.f32	s20, s15
 2491 0456 20EE0AAA 		vmul.f32	s20, s0, s20
 2492              	.LVL197:
 2493 045a 4DE7     		b	.L244
 2494              	.LVL198:
 2495              	.L320:
 2496              	.LBE148:
 2497              	.LBB149:
 2498              		.loc 1 1354 0
 2499 045c D4ED017A 		vldr.32	s15, [r4, #4]
 2500 0460 F5EEC07A 		vcmpe.f32	s15, #0
 2501 0464 F1EE10FA 		vmrs	APSR_nzcv, FPSCR
 2502 0468 FFEE00AA 		vmov.f32	s21, #-1.0e+0
 2503 046c F7EE007A 		vmov.f32	s15, #1.0e+0
 2504 0470 58BF     		it	pl
 2505 0472 F0EE67AA 		vmovpl.f32	s21, s15
 2506 0476 60EE2AAA 		vmul.f32	s21, s0, s21
 2507              	.LVL199:
 2508 047a 7EE7     		b	.L257
ARM GAS  C:\Users\CHRIST~1\AppData\Local\Temp\ccCFoZV9.s 			page 45


 2509              	.LVL200:
 2510              	.L315:
 2511              	.LBE149:
 2512              	.LBB150:
 2513              	.LBB132:
 2514              		.loc 1 993 0
 2515 047c 0B4B     		ldr	r3, .L323
 2516              	.LBE132:
 2517              	.LBE150:
 2518              		.loc 1 1315 0
 2519 047e DFED0C8A 		vldr.32	s17, .L323+4
 2520              	.LBB151:
 2521              	.LBB133:
 2522              		.loc 1 993 0
 2523 0482 D4F84821 		ldr	r2, [r4, #328]
 2524 0486 1A60     		str	r2, [r3]
 2525              	.LBE133:
 2526              	.LBE151:
 2527              		.loc 1 1316 0
 2528 0488 B0EE68AA 		vmov.f32	s20, s17
 2529 048c 33E6     		b	.L238
 2530              	.LVL201:
 2531              	.L318:
 2532              	.LBB152:
 2533              	.LBB140:
 2534              		.loc 1 993 0
 2535 048e 074B     		ldr	r3, .L323
 2536              	.LBE140:
 2537              	.LBE152:
 2538              		.loc 1 1342 0
 2539 0490 DFED079A 		vldr.32	s19, .L323+4
 2540              	.LBB153:
 2541              	.LBB141:
 2542              		.loc 1 993 0
 2543 0494 D4F84821 		ldr	r2, [r4, #328]
 2544 0498 1A60     		str	r2, [r3]
 2545              	.LBE141:
 2546              	.LBE153:
 2547              		.loc 1 1343 0
 2548 049a F0EE69AA 		vmov.f32	s21, s19
 2549 049e 38E6     		b	.L251
 2550              	.LVL202:
 2551              	.L304:
 2552              		.loc 1 1310 0
 2553 04a0 DFED038A 		vldr.32	s17, .L323+4
 2554 04a4 27E6     		b	.L238
 2555              	.LVL203:
 2556              	.L308:
 2557              		.loc 1 1337 0
 2558 04a6 DFED029A 		vldr.32	s19, .L323+4
 2559 04aa 32E6     		b	.L251
 2560              	.L324:
 2561              		.align	2
 2562              	.L323:
 2563 04ac 00000000 		.word	.LANCHOR14
 2564 04b0 00000000 		.word	0
 2565              		.cfi_endproc
ARM GAS  C:\Users\CHRIST~1\AppData\Local\Temp\ccCFoZV9.s 			page 46


 2566              	.LFE316:
 2567              		.size	update_override_limits.constprop.4, .-update_override_limits.constprop.4
 2568              		.section	.text.mc_interface_set_configuration,"ax",%progbits
 2569              		.align	1
 2570              		.p2align 4,,15
 2571              		.global	mc_interface_set_configuration
 2572              		.syntax unified
 2573              		.thumb
 2574              		.thumb_func
 2575              		.fpu fpv4-sp-d16
 2576              		.type	mc_interface_set_configuration, %function
 2577              	mc_interface_set_configuration:
 2578              	.LFB258:
 2579              		.loc 1 175 0
 2580              		.cfi_startproc
 2581              		@ args = 0, pretend = 0, frame = 0
 2582              		@ frame_needed = 0, uses_anonymous_args = 0
 2583              	.LVL204:
 2584 0000 38B5     		push	{r3, r4, r5, lr}
 2585              		.cfi_def_cfa_offset 16
 2586              		.cfi_offset 3, -16
 2587              		.cfi_offset 4, -12
 2588              		.cfi_offset 5, -8
 2589              		.cfi_offset 14, -4
 2590              		.loc 1 177 0
 2591 0002 324D     		ldr	r5, .L346
 2592 0004 90F85831 		ldrb	r3, [r0, #344]	@ zero_extendqisi2
 2593 0008 95F85821 		ldrb	r2, [r5, #344]	@ zero_extendqisi2
 2594 000c 9A42     		cmp	r2, r3
 2595              		.loc 1 175 0
 2596 000e 0446     		mov	r4, r0
 2597              		.loc 1 177 0
 2598 0010 07D0     		beq	.L326
 2599              		.loc 1 178 0
 2600 0012 FFF7FEFF 		bl	encoder_deinit
 2601              	.LVL205:
 2602              		.loc 1 179 0
 2603 0016 94F85831 		ldrb	r3, [r4, #344]	@ zero_extendqisi2
 2604 001a 012B     		cmp	r3, #1
 2605 001c 3FD0     		beq	.L327
 2606 001e 022B     		cmp	r3, #2
 2607 0020 32D0     		beq	.L328
 2608              	.L326:
 2609              		.loc 1 193 0
 2610 0022 012B     		cmp	r3, #1
 2611 0024 36D0     		beq	.L343
 2612              	.L329:
 2613              		.loc 1 203 0
 2614 0026 AB78     		ldrb	r3, [r5, #2]	@ zero_extendqisi2
 2615 0028 022B     		cmp	r3, #2
 2616 002a 1ED0     		beq	.L344
 2617              		.loc 1 208 0
 2618 002c AB78     		ldrb	r3, [r5, #2]	@ zero_extendqisi2
 2619 002e 022B     		cmp	r3, #2
 2620 0030 02D0     		beq	.L333
 2621              		.loc 1 209 0
 2622 0032 A378     		ldrb	r3, [r4, #2]	@ zero_extendqisi2
ARM GAS  C:\Users\CHRIST~1\AppData\Local\Temp\ccCFoZV9.s 			page 47


 2623 0034 022B     		cmp	r3, #2
 2624 0036 3CD0     		beq	.L337
 2625              	.L333:
 2626              		.loc 1 214 0
 2627 0038 2146     		mov	r1, r4
 2628 003a 4FF4B872 		mov	r2, #368
 2629 003e 2348     		ldr	r0, .L346
 2630 0040 FFF7FEFF 		bl	memcpy
 2631              	.LVL206:
 2632              	.L332:
 2633              		.loc 1 217 0
 2634 0044 FFF7FEFF 		bl	update_override_limits.constprop.4
 2635              	.LVL207:
 2636              		.loc 1 219 0
 2637 0048 AB78     		ldrb	r3, [r5, #2]	@ zero_extendqisi2
 2638 004a DBB2     		uxtb	r3, r3
 2639 004c 012B     		cmp	r3, #1
 2640 004e 07D9     		bls	.L335
 2641 0050 022B     		cmp	r3, #2
 2642 0052 04D1     		bne	.L345
 2643              		.loc 1 226 0
 2644 0054 1D48     		ldr	r0, .L346
 2645              		.loc 1 232 0
 2646 0056 BDE83840 		pop	{r3, r4, r5, lr}
 2647              		.cfi_remember_state
 2648              		.cfi_restore 14
 2649              		.cfi_restore 5
 2650              		.cfi_restore 4
 2651              		.cfi_restore 3
 2652              		.cfi_def_cfa_offset 0
 2653              	.LVL208:
 2654              		.loc 1 226 0
 2655 005a FFF7FEBF 		b	mcpwm_foc_set_configuration
 2656              	.LVL209:
 2657              	.L345:
 2658              		.cfi_restore_state
 2659 005e 38BD     		pop	{r3, r4, r5, pc}
 2660              	.LVL210:
 2661              	.L335:
 2662              		.loc 1 222 0
 2663 0060 1A48     		ldr	r0, .L346
 2664              		.loc 1 232 0
 2665 0062 BDE83840 		pop	{r3, r4, r5, lr}
 2666              		.cfi_remember_state
 2667              		.cfi_restore 14
 2668              		.cfi_restore 5
 2669              		.cfi_restore 4
 2670              		.cfi_restore 3
 2671              		.cfi_def_cfa_offset 0
 2672              	.LVL211:
 2673              		.loc 1 222 0
 2674 0066 FFF7FEBF 		b	mcpwm_set_configuration
 2675              	.LVL212:
 2676              	.L344:
 2677              		.cfi_restore_state
 2678              		.loc 1 204 0
 2679 006a A378     		ldrb	r3, [r4, #2]	@ zero_extendqisi2
ARM GAS  C:\Users\CHRIST~1\AppData\Local\Temp\ccCFoZV9.s 			page 48


 2680 006c 022B     		cmp	r3, #2
 2681 006e 1DD0     		beq	.L331
 2682              		.loc 1 205 0
 2683 0070 FFF7FEFF 		bl	mcpwm_foc_deinit
 2684              	.LVL213:
 2685              		.loc 1 206 0
 2686 0074 2146     		mov	r1, r4
 2687 0076 4FF4B872 		mov	r2, #368
 2688 007a 1448     		ldr	r0, .L346
 2689 007c FFF7FEFF 		bl	memcpy
 2690              	.LVL214:
 2691              		.loc 1 207 0
 2692 0080 1248     		ldr	r0, .L346
 2693 0082 FFF7FEFF 		bl	mcpwm_init
 2694              	.LVL215:
 2695 0086 DDE7     		b	.L332
 2696              	.L328:
 2697              		.loc 1 185 0
 2698 0088 FFF7FEFF 		bl	encoder_init_as5047p_spi
 2699              	.LVL216:
 2700 008c 94F85831 		ldrb	r3, [r4, #344]	@ zero_extendqisi2
 2701              		.loc 1 193 0
 2702 0090 012B     		cmp	r3, #1
 2703 0092 C8D1     		bne	.L329
 2704              	.L343:
 2705              		.loc 1 194 0
 2706 0094 D4F85401 		ldr	r0, [r4, #340]
 2707 0098 FFF7FEFF 		bl	encoder_set_counts
 2708              	.LVL217:
 2709 009c C3E7     		b	.L329
 2710              	.L327:
 2711              		.loc 1 181 0
 2712 009e D4F85401 		ldr	r0, [r4, #340]
 2713 00a2 FFF7FEFF 		bl	encoder_init_abi
 2714              	.LVL218:
 2715 00a6 94F85831 		ldrb	r3, [r4, #344]	@ zero_extendqisi2
 2716              		.loc 1 182 0
 2717 00aa BAE7     		b	.L326
 2718              	.L331:
 2719              		.loc 1 208 0
 2720 00ac AB78     		ldrb	r3, [r5, #2]	@ zero_extendqisi2
 2721 00ae 022B     		cmp	r3, #2
 2722 00b0 C2D0     		beq	.L333
 2723              	.L337:
 2724              		.loc 1 210 0
 2725 00b2 FFF7FEFF 		bl	mcpwm_deinit
 2726              	.LVL219:
 2727              		.loc 1 211 0
 2728 00b6 2146     		mov	r1, r4
 2729 00b8 4FF4B872 		mov	r2, #368
 2730 00bc 0348     		ldr	r0, .L346
 2731 00be FFF7FEFF 		bl	memcpy
 2732              	.LVL220:
 2733              		.loc 1 212 0
 2734 00c2 0248     		ldr	r0, .L346
 2735 00c4 FFF7FEFF 		bl	mcpwm_foc_init
 2736              	.LVL221:
ARM GAS  C:\Users\CHRIST~1\AppData\Local\Temp\ccCFoZV9.s 			page 49


 2737 00c8 BCE7     		b	.L332
 2738              	.L347:
 2739 00ca 00BF     		.align	2
 2740              	.L346:
 2741 00cc 00000000 		.word	.LANCHOR12
 2742              		.cfi_endproc
 2743              	.LFE258:
 2744              		.size	mc_interface_set_configuration, .-mc_interface_set_configuration
 2745              		.section	.text.timer_thread,"ax",%progbits
 2746              		.align	1
 2747              		.p2align 4,,15
 2748              		.syntax unified
 2749              		.thumb
 2750              		.thumb_func
 2751              		.fpu fpv4-sp-d16
 2752              		.type	timer_thread, %function
 2753              	timer_thread:
 2754              	.LFB310:
 2755              		.loc 1 1446 0
 2756              		.cfi_startproc
 2757              		@ Volatile: function does not return.
 2758              		@ args = 0, pretend = 0, frame = 0
 2759              		@ frame_needed = 0, uses_anonymous_args = 0
 2760              	.LVL222:
 2761              	.LBB154:
 2762              	.LBB155:
 2763              		.loc 2 135 0
 2764 0000 0C4B     		ldr	r3, .L357
 2765 0002 0D4A     		ldr	r2, .L357+4
 2766 0004 9B69     		ldr	r3, [r3, #24]
 2767 0006 0D4C     		ldr	r4, .L357+8
 2768              	.LBE155:
 2769              	.LBE154:
 2770              		.loc 1 1456 0
 2771 0008 0D4D     		ldr	r5, .L357+12
 2772              		.loc 1 1446 0
 2773 000a 80B5     		push	{r7, lr}
 2774              		.cfi_def_cfa_offset 8
 2775              		.cfi_offset 7, -8
 2776              		.cfi_offset 14, -4
 2777              		.loc 1 1457 0
 2778 000c 0026     		movs	r6, #0
 2779 000e 0D4F     		ldr	r7, .L357+16
 2780              	.LBB157:
 2781              	.LBB156:
 2782              		.loc 2 135 0
 2783 0010 9A61     		str	r2, [r3, #24]
 2784 0012 05E0     		b	.L351
 2785              	.LVL223:
 2786              	.L356:
 2787              	.LBE156:
 2788              	.LBE157:
 2789              		.loc 1 1454 0
 2790 0014 2360     		str	r3, [r4]
 2791              	.L350:
 2792              		.loc 1 1461 0
 2793 0016 FFF7FEFF 		bl	update_override_limits.constprop.4
ARM GAS  C:\Users\CHRIST~1\AppData\Local\Temp\ccCFoZV9.s 			page 50


 2794              	.LVL224:
 2795              		.loc 1 1463 0
 2796 001a 0A20     		movs	r0, #10
 2797 001c FFF7FEFF 		bl	chThdSleep
 2798              	.LVL225:
 2799              	.L351:
 2800              		.loc 1 1453 0
 2801 0020 2368     		ldr	r3, [r4]
 2802 0022 002B     		cmp	r3, #0
 2803              		.loc 1 1454 0
 2804 0024 03F1FF33 		add	r3, r3, #-1
 2805              		.loc 1 1453 0
 2806 0028 F4DC     		bgt	.L356
 2807              		.loc 1 1456 0
 2808 002a 2B69     		ldr	r3, [r5, #16]
 2809 002c DB04     		lsls	r3, r3, #19
 2810              		.loc 1 1457 0
 2811 002e 48BF     		it	mi
 2812 0030 3E70     		strbmi	r6, [r7]
 2813 0032 F0E7     		b	.L350
 2814              	.L358:
 2815              		.align	2
 2816              	.L357:
 2817 0034 00000000 		.word	ch
 2818 0038 00000000 		.word	.LC2
 2819 003c 00000000 		.word	.LANCHOR14
 2820 0040 00080240 		.word	1073874944
 2821 0044 00000000 		.word	.LANCHOR13
 2822              		.cfi_endproc
 2823              	.LFE310:
 2824              		.size	timer_thread, .-timer_thread
 2825              		.section	.text.mc_interface_get_tachometer_abs_value,"ax",%progbits
 2826              		.align	1
 2827              		.p2align 4,,15
 2828              		.global	mc_interface_get_tachometer_abs_value
 2829              		.syntax unified
 2830              		.thumb
 2831              		.thumb_func
 2832              		.fpu fpv4-sp-d16
 2833              		.type	mc_interface_get_tachometer_abs_value, %function
 2834              	mc_interface_get_tachometer_abs_value:
 2835              	.LFB293:
 2836              		.loc 1 797 0
 2837              		.cfi_startproc
 2838              		@ args = 0, pretend = 0, frame = 0
 2839              		@ frame_needed = 0, uses_anonymous_args = 0
 2840              		@ link register save eliminated.
 2841              	.LVL226:
 2842              		.loc 1 800 0
 2843 0000 064B     		ldr	r3, .L366
 2844 0002 9B78     		ldrb	r3, [r3, #2]	@ zero_extendqisi2
 2845 0004 DBB2     		uxtb	r3, r3
 2846 0006 012B     		cmp	r3, #1
 2847 0008 05D9     		bls	.L361
 2848 000a 022B     		cmp	r3, #2
 2849 000c 01D1     		bne	.L365
 2850              		.loc 1 807 0
ARM GAS  C:\Users\CHRIST~1\AppData\Local\Temp\ccCFoZV9.s 			page 51


 2851 000e FFF7FEBF 		b	mcpwm_foc_get_tachometer_abs_value
 2852              	.LVL227:
 2853              	.L365:
 2854              		.loc 1 815 0
 2855 0012 0020     		movs	r0, #0
 2856              	.LVL228:
 2857 0014 7047     		bx	lr
 2858              	.LVL229:
 2859              	.L361:
 2860              		.loc 1 803 0
 2861 0016 FFF7FEBF 		b	mcpwm_get_tachometer_abs_value
 2862              	.LVL230:
 2863              	.L367:
 2864 001a 00BF     		.align	2
 2865              	.L366:
 2866 001c 00000000 		.word	.LANCHOR12
 2867              		.cfi_endproc
 2868              	.LFE293:
 2869              		.size	mc_interface_get_tachometer_abs_value, .-mc_interface_get_tachometer_abs_value
 2870              		.section	.text.mc_interface_get_last_inj_adc_isr_duration,"ax",%progbits
 2871              		.align	1
 2872              		.p2align 4,,15
 2873              		.global	mc_interface_get_last_inj_adc_isr_duration
 2874              		.syntax unified
 2875              		.thumb
 2876              		.thumb_func
 2877              		.fpu fpv4-sp-d16
 2878              		.type	mc_interface_get_last_inj_adc_isr_duration, %function
 2879              	mc_interface_get_last_inj_adc_isr_duration:
 2880              	.LFB294:
 2881              		.loc 1 817 0
 2882              		.cfi_startproc
 2883              		@ args = 0, pretend = 0, frame = 0
 2884              		@ frame_needed = 0, uses_anonymous_args = 0
 2885              		@ link register save eliminated.
 2886              	.LVL231:
 2887              		.loc 1 820 0
 2888 0000 064B     		ldr	r3, .L375
 2889 0002 9B78     		ldrb	r3, [r3, #2]	@ zero_extendqisi2
 2890 0004 DBB2     		uxtb	r3, r3
 2891 0006 012B     		cmp	r3, #1
 2892 0008 06D9     		bls	.L370
 2893 000a 022B     		cmp	r3, #2
 2894 000c 01D1     		bne	.L374
 2895              		.loc 1 827 0
 2896 000e FFF7FEBF 		b	mcpwm_foc_get_last_inj_adc_isr_duration
 2897              	.LVL232:
 2898              	.L374:
 2899              		.loc 1 835 0
 2900 0012 9FED030A 		vldr.32	s0, .L375+4
 2901 0016 7047     		bx	lr
 2902              	.L370:
 2903              		.loc 1 823 0
 2904 0018 FFF7FEBF 		b	mcpwm_get_last_inj_adc_isr_duration
 2905              	.LVL233:
 2906              	.L376:
 2907              		.align	2
ARM GAS  C:\Users\CHRIST~1\AppData\Local\Temp\ccCFoZV9.s 			page 52


 2908              	.L375:
 2909 001c 00000000 		.word	.LANCHOR12
 2910 0020 00000000 		.word	0
 2911              		.cfi_endproc
 2912              	.LFE294:
 2913              		.size	mc_interface_get_last_inj_adc_isr_duration, .-mc_interface_get_last_inj_adc_isr_duration
 2914              		.section	.text.mc_interface_read_reset_avg_motor_current,"ax",%progbits
 2915              		.align	1
 2916              		.p2align 4,,15
 2917              		.global	mc_interface_read_reset_avg_motor_current
 2918              		.syntax unified
 2919              		.thumb
 2920              		.thumb_func
 2921              		.fpu fpv4-sp-d16
 2922              		.type	mc_interface_read_reset_avg_motor_current, %function
 2923              	mc_interface_read_reset_avg_motor_current:
 2924              	.LFB295:
 2925              		.loc 1 837 0
 2926              		.cfi_startproc
 2927              		@ args = 0, pretend = 0, frame = 0
 2928              		@ frame_needed = 0, uses_anonymous_args = 0
 2929              		@ link register save eliminated.
 2930              		.loc 1 838 0
 2931 0000 0549     		ldr	r1, .L378
 2932 0002 064B     		ldr	r3, .L378+4
 2933 0004 91ED000A 		vldr.32	s0, [r1]
 2934 0008 D3ED007A 		vldr.32	s15, [r3]
 2935              	.LVL234:
 2936              		.loc 1 839 0
 2937 000c 0022     		movs	r2, #0
 2938 000e 0A60     		str	r2, [r1]	@ float
 2939              		.loc 1 842 0
 2940 0010 80EE270A 		vdiv.f32	s0, s0, s15
 2941              	.LVL235:
 2942              		.loc 1 840 0
 2943 0014 1A60     		str	r2, [r3]	@ float
 2944              		.loc 1 842 0
 2945 0016 7047     		bx	lr
 2946              	.L379:
 2947              		.align	2
 2948              	.L378:
 2949 0018 00000000 		.word	.LANCHOR18
 2950 001c 00000000 		.word	.LANCHOR20
 2951              		.cfi_endproc
 2952              	.LFE295:
 2953              		.size	mc_interface_read_reset_avg_motor_current, .-mc_interface_read_reset_avg_motor_current
 2954              		.section	.text.mc_interface_read_reset_avg_input_current,"ax",%progbits
 2955              		.align	1
 2956              		.p2align 4,,15
 2957              		.global	mc_interface_read_reset_avg_input_current
 2958              		.syntax unified
 2959              		.thumb
 2960              		.thumb_func
 2961              		.fpu fpv4-sp-d16
 2962              		.type	mc_interface_read_reset_avg_input_current, %function
 2963              	mc_interface_read_reset_avg_input_current:
 2964              	.LFB296:
ARM GAS  C:\Users\CHRIST~1\AppData\Local\Temp\ccCFoZV9.s 			page 53


 2965              		.loc 1 844 0
 2966              		.cfi_startproc
 2967              		@ args = 0, pretend = 0, frame = 0
 2968              		@ frame_needed = 0, uses_anonymous_args = 0
 2969              		@ link register save eliminated.
 2970              		.loc 1 845 0
 2971 0000 0549     		ldr	r1, .L381
 2972 0002 064B     		ldr	r3, .L381+4
 2973 0004 91ED000A 		vldr.32	s0, [r1]
 2974 0008 D3ED007A 		vldr.32	s15, [r3]
 2975              	.LVL236:
 2976              		.loc 1 846 0
 2977 000c 0022     		movs	r2, #0
 2978 000e 0A60     		str	r2, [r1]	@ float
 2979              		.loc 1 849 0
 2980 0010 80EE270A 		vdiv.f32	s0, s0, s15
 2981              	.LVL237:
 2982              		.loc 1 847 0
 2983 0014 1A60     		str	r2, [r3]	@ float
 2984              		.loc 1 849 0
 2985 0016 7047     		bx	lr
 2986              	.L382:
 2987              		.align	2
 2988              	.L381:
 2989 0018 00000000 		.word	.LANCHOR19
 2990 001c 00000000 		.word	.LANCHOR21
 2991              		.cfi_endproc
 2992              	.LFE296:
 2993              		.size	mc_interface_read_reset_avg_input_current, .-mc_interface_read_reset_avg_input_current
 2994              		.section	.text.mc_interface_read_reset_avg_id,"ax",%progbits
 2995              		.align	1
 2996              		.p2align 4,,15
 2997              		.global	mc_interface_read_reset_avg_id
 2998              		.syntax unified
 2999              		.thumb
 3000              		.thumb_func
 3001              		.fpu fpv4-sp-d16
 3002              		.type	mc_interface_read_reset_avg_id, %function
 3003              	mc_interface_read_reset_avg_id:
 3004              	.LFB297:
 3005              		.loc 1 857 0
 3006              		.cfi_startproc
 3007              		@ args = 0, pretend = 0, frame = 0
 3008              		@ frame_needed = 0, uses_anonymous_args = 0
 3009              		@ link register save eliminated.
 3010              		.loc 1 858 0
 3011 0000 0C49     		ldr	r1, .L386
 3012 0002 0D4B     		ldr	r3, .L386+4
 3013 0004 91ED007A 		vldr.32	s14, [r1]
 3014 0008 D3ED007A 		vldr.32	s15, [r3]
 3015              		.loc 1 861 0
 3016 000c 0B48     		ldr	r0, .L386+8
 3017              		.loc 1 858 0
 3018 000e 87EE270A 		vdiv.f32	s0, s14, s15
 3019              	.LVL238:
 3020              		.loc 1 859 0
 3021 0012 0022     		movs	r2, #0
ARM GAS  C:\Users\CHRIST~1\AppData\Local\Temp\ccCFoZV9.s 			page 54


 3022 0014 0A60     		str	r2, [r1]	@ float
 3023              		.loc 1 860 0
 3024 0016 1A60     		str	r2, [r3]	@ float
 3025              		.loc 1 861 0
 3026 0018 90F85931 		ldrb	r3, [r0, #345]	@ zero_extendqisi2
 3027 001c 002B     		cmp	r3, #0
 3028 001e B7EE007A 		vmov.f32	s14, #1.0e+0
 3029 0022 FFEE007A 		vmov.f32	s15, #-1.0e+0
 3030 0026 08BF     		it	eq
 3031 0028 F0EE477A 		vmoveq.f32	s15, s14
 3032              		.loc 1 862 0
 3033 002c 27EE800A 		vmul.f32	s0, s15, s0
 3034              	.LVL239:
 3035 0030 7047     		bx	lr
 3036              	.L387:
 3037 0032 00BF     		.align	2
 3038              	.L386:
 3039 0034 00000000 		.word	.LANCHOR22
 3040 0038 00000000 		.word	.LANCHOR24
 3041 003c 00000000 		.word	.LANCHOR12
 3042              		.cfi_endproc
 3043              	.LFE297:
 3044              		.size	mc_interface_read_reset_avg_id, .-mc_interface_read_reset_avg_id
 3045              		.section	.text.mc_interface_read_reset_avg_iq,"ax",%progbits
 3046              		.align	1
 3047              		.p2align 4,,15
 3048              		.global	mc_interface_read_reset_avg_iq
 3049              		.syntax unified
 3050              		.thumb
 3051              		.thumb_func
 3052              		.fpu fpv4-sp-d16
 3053              		.type	mc_interface_read_reset_avg_iq, %function
 3054              	mc_interface_read_reset_avg_iq:
 3055              	.LFB298:
 3056              		.loc 1 870 0
 3057              		.cfi_startproc
 3058              		@ args = 0, pretend = 0, frame = 0
 3059              		@ frame_needed = 0, uses_anonymous_args = 0
 3060              		@ link register save eliminated.
 3061              		.loc 1 871 0
 3062 0000 0C49     		ldr	r1, .L391
 3063 0002 0D4B     		ldr	r3, .L391+4
 3064 0004 91ED007A 		vldr.32	s14, [r1]
 3065 0008 D3ED007A 		vldr.32	s15, [r3]
 3066              		.loc 1 874 0
 3067 000c 0B48     		ldr	r0, .L391+8
 3068              		.loc 1 871 0
 3069 000e 87EE270A 		vdiv.f32	s0, s14, s15
 3070              	.LVL240:
 3071              		.loc 1 872 0
 3072 0012 0022     		movs	r2, #0
 3073 0014 0A60     		str	r2, [r1]	@ float
 3074              		.loc 1 873 0
 3075 0016 1A60     		str	r2, [r3]	@ float
 3076              		.loc 1 874 0
 3077 0018 90F85931 		ldrb	r3, [r0, #345]	@ zero_extendqisi2
 3078 001c 002B     		cmp	r3, #0
ARM GAS  C:\Users\CHRIST~1\AppData\Local\Temp\ccCFoZV9.s 			page 55


 3079 001e B7EE007A 		vmov.f32	s14, #1.0e+0
 3080 0022 FFEE007A 		vmov.f32	s15, #-1.0e+0
 3081 0026 08BF     		it	eq
 3082 0028 F0EE477A 		vmoveq.f32	s15, s14
 3083              		.loc 1 875 0
 3084 002c 27EE800A 		vmul.f32	s0, s15, s0
 3085              	.LVL241:
 3086 0030 7047     		bx	lr
 3087              	.L392:
 3088 0032 00BF     		.align	2
 3089              	.L391:
 3090 0034 00000000 		.word	.LANCHOR23
 3091 0038 00000000 		.word	.LANCHOR25
 3092 003c 00000000 		.word	.LANCHOR12
 3093              		.cfi_endproc
 3094              	.LFE298:
 3095              		.size	mc_interface_read_reset_avg_iq, .-mc_interface_read_reset_avg_iq
 3096              		.section	.text.mc_interface_get_pid_pos_set,"ax",%progbits
 3097              		.align	1
 3098              		.p2align 4,,15
 3099              		.global	mc_interface_get_pid_pos_set
 3100              		.syntax unified
 3101              		.thumb
 3102              		.thumb_func
 3103              		.fpu fpv4-sp-d16
 3104              		.type	mc_interface_get_pid_pos_set, %function
 3105              	mc_interface_get_pid_pos_set:
 3106              	.LFB299:
 3107              		.loc 1 877 0
 3108              		.cfi_startproc
 3109              		@ args = 0, pretend = 0, frame = 0
 3110              		@ frame_needed = 0, uses_anonymous_args = 0
 3111              		@ link register save eliminated.
 3112              		.loc 1 878 0
 3113 0000 014B     		ldr	r3, .L394
 3114 0002 93ED000A 		vldr.32	s0, [r3]
 3115              		.loc 1 879 0
 3116 0006 7047     		bx	lr
 3117              	.L395:
 3118              		.align	2
 3119              	.L394:
 3120 0008 00000000 		.word	.LANCHOR30
 3121              		.cfi_endproc
 3122              	.LFE299:
 3123              		.size	mc_interface_get_pid_pos_set, .-mc_interface_get_pid_pos_set
 3124              		.section	.text.mc_interface_get_pid_pos_now,"ax",%progbits
 3125              		.align	1
 3126              		.p2align 4,,15
 3127              		.global	mc_interface_get_pid_pos_now
 3128              		.syntax unified
 3129              		.thumb
 3130              		.thumb_func
 3131              		.fpu fpv4-sp-d16
 3132              		.type	mc_interface_get_pid_pos_now, %function
 3133              	mc_interface_get_pid_pos_now:
 3134              	.LFB300:
 3135              		.loc 1 881 0
ARM GAS  C:\Users\CHRIST~1\AppData\Local\Temp\ccCFoZV9.s 			page 56


 3136              		.cfi_startproc
 3137              		@ args = 0, pretend = 0, frame = 0
 3138              		@ frame_needed = 0, uses_anonymous_args = 0
 3139              	.LVL242:
 3140 0000 10B5     		push	{r4, lr}
 3141              		.cfi_def_cfa_offset 8
 3142              		.cfi_offset 4, -8
 3143              		.cfi_offset 14, -4
 3144              		.loc 1 884 0
 3145 0002 0E4C     		ldr	r4, .L406
 3146 0004 A378     		ldrb	r3, [r4, #2]	@ zero_extendqisi2
 3147 0006 DBB2     		uxtb	r3, r3
 3148 0008 012B     		cmp	r3, #1
 3149 000a 13D9     		bls	.L398
 3150 000c 022B     		cmp	r3, #2
 3151 000e 0ED0     		beq	.L399
 3152              		.loc 1 882 0
 3153 0010 9FED0B0A 		vldr.32	s0, .L406+4
 3154              	.LVL243:
 3155              	.L397:
 3156              		.loc 1 898 0
 3157 0014 94F85931 		ldrb	r3, [r4, #345]	@ zero_extendqisi2
 3158 0018 B7EE007A 		vmov.f32	s14, #1.0e+0
 3159 001c 002B     		cmp	r3, #0
 3160 001e FFEE007A 		vmov.f32	s15, #-1.0e+0
 3161 0022 08BF     		it	eq
 3162 0024 F0EE477A 		vmoveq.f32	s15, s14
 3163              		.loc 1 899 0
 3164 0028 20EE270A 		vmul.f32	s0, s0, s15
 3165              	.LVL244:
 3166 002c 10BD     		pop	{r4, pc}
 3167              	.LVL245:
 3168              	.L399:
 3169              		.loc 1 891 0
 3170 002e FFF7FEFF 		bl	mcpwm_foc_get_pid_pos_now
 3171              	.LVL246:
 3172              		.loc 1 892 0
 3173 0032 EFE7     		b	.L397
 3174              	.LVL247:
 3175              	.L398:
 3176              		.loc 1 887 0
 3177 0034 FFF7FEFF 		bl	encoder_read_deg
 3178              	.LVL248:
 3179              		.loc 1 888 0
 3180 0038 ECE7     		b	.L397
 3181              	.L407:
 3182 003a 00BF     		.align	2
 3183              	.L406:
 3184 003c 00000000 		.word	.LANCHOR12
 3185 0040 00000000 		.word	0
 3186              		.cfi_endproc
 3187              	.LFE300:
 3188              		.size	mc_interface_get_pid_pos_now, .-mc_interface_get_pid_pos_now
 3189              		.section	.text.mc_interface_get_last_sample_adc_isr_duration,"ax",%progbits
 3190              		.align	1
 3191              		.p2align 4,,15
 3192              		.global	mc_interface_get_last_sample_adc_isr_duration
ARM GAS  C:\Users\CHRIST~1\AppData\Local\Temp\ccCFoZV9.s 			page 57


 3193              		.syntax unified
 3194              		.thumb
 3195              		.thumb_func
 3196              		.fpu fpv4-sp-d16
 3197              		.type	mc_interface_get_last_sample_adc_isr_duration, %function
 3198              	mc_interface_get_last_sample_adc_isr_duration:
 3199              	.LFB301:
 3200              		.loc 1 901 0
 3201              		.cfi_startproc
 3202              		@ args = 0, pretend = 0, frame = 0
 3203              		@ frame_needed = 0, uses_anonymous_args = 0
 3204              		@ link register save eliminated.
 3205              		.loc 1 902 0
 3206 0000 014B     		ldr	r3, .L409
 3207 0002 93ED000A 		vldr.32	s0, [r3]
 3208              		.loc 1 903 0
 3209 0006 7047     		bx	lr
 3210              	.L410:
 3211              		.align	2
 3212              	.L409:
 3213 0008 00000000 		.word	.LANCHOR31
 3214              		.cfi_endproc
 3215              	.LFE301:
 3216              		.size	mc_interface_get_last_sample_adc_isr_duration, .-mc_interface_get_last_sample_adc_isr_durati
 3217              		.section	.text.mc_interface_sample_print_data,"ax",%progbits
 3218              		.align	1
 3219              		.p2align 4,,15
 3220              		.global	mc_interface_sample_print_data
 3221              		.syntax unified
 3222              		.thumb
 3223              		.thumb_func
 3224              		.fpu fpv4-sp-d16
 3225              		.type	mc_interface_sample_print_data, %function
 3226              	mc_interface_sample_print_data:
 3227              	.LFB302:
 3228              		.loc 1 905 0
 3229              		.cfi_startproc
 3230              		@ args = 0, pretend = 0, frame = 0
 3231              		@ frame_needed = 0, uses_anonymous_args = 0
 3232              	.LVL249:
 3233 0000 B1F5FA6F 		cmp	r1, #2000
 3234 0004 28BF     		it	cs
 3235 0006 4FF4FA61 		movcs	r1, #2000
 3236              	.LVL250:
 3237              		.loc 1 910 0
 3238 000a 0728     		cmp	r0, #7
 3239 000c 0FD0     		beq	.L415
 3240              		.loc 1 905 0
 3241 000e F0B5     		push	{r4, r5, r6, r7, lr}
 3242              		.cfi_def_cfa_offset 20
 3243              		.cfi_offset 4, -20
 3244              		.cfi_offset 5, -16
 3245              		.cfi_offset 6, -12
 3246              		.cfi_offset 7, -8
 3247              		.cfi_offset 14, -4
 3248              		.loc 1 913 0
 3249 0010 094F     		ldr	r7, .L416
ARM GAS  C:\Users\CHRIST~1\AppData\Local\Temp\ccCFoZV9.s 			page 58


 3250              		.loc 1 914 0
 3251 0012 0A4E     		ldr	r6, .L416+4
 3252              		.loc 1 915 0
 3253 0014 0A4D     		ldr	r5, .L416+8
 3254              		.loc 1 916 0
 3255 0016 0B4C     		ldr	r4, .L416+12
 3256              		.loc 1 917 0
 3257 0018 0B4B     		ldr	r3, .L416+16
 3258              		.loc 1 913 0
 3259 001a 4FF0FF3E 		mov	lr, #-1
 3260 001e C7F800E0 		str	lr, [r7]
 3261              		.loc 1 914 0
 3262 0022 0027     		movs	r7, #0
 3263 0024 3760     		str	r7, [r6]
 3264              		.loc 1 915 0
 3265 0026 2960     		str	r1, [r5]
 3266              		.loc 1 916 0
 3267 0028 2260     		str	r2, [r4]
 3268              		.loc 1 917 0
 3269 002a 1870     		strb	r0, [r3]
 3270 002c F0BD     		pop	{r4, r5, r6, r7, pc}
 3271              	.L415:
 3272              		.cfi_def_cfa_offset 0
 3273              		.cfi_restore 4
 3274              		.cfi_restore 5
 3275              		.cfi_restore 6
 3276              		.cfi_restore 7
 3277              		.cfi_restore 14
 3278              		.loc 1 911 0
 3279 002e 074B     		ldr	r3, .L416+20
 3280 0030 0121     		movs	r1, #1
 3281              	.LVL251:
 3282 0032 1868     		ldr	r0, [r3]
 3283              	.LVL252:
 3284 0034 FFF7FEBF 		b	chEvtSignal
 3285              	.LVL253:
 3286              	.L417:
 3287              		.align	2
 3288              	.L416:
 3289 0038 00000000 		.word	.LANCHOR3
 3290 003c 00000000 		.word	.LANCHOR35
 3291 0040 00000000 		.word	.LANCHOR2
 3292 0044 00000000 		.word	.LANCHOR34
 3293 0048 00000000 		.word	.LANCHOR36
 3294 004c 00000000 		.word	.LANCHOR0
 3295              		.cfi_endproc
 3296              	.LFE302:
 3297              		.size	mc_interface_sample_print_data, .-mc_interface_sample_print_data
 3298              		.section	.text.mc_interface_temp_fet_filtered,"ax",%progbits
 3299              		.align	1
 3300              		.p2align 4,,15
 3301              		.global	mc_interface_temp_fet_filtered
 3302              		.syntax unified
 3303              		.thumb
 3304              		.thumb_func
 3305              		.fpu fpv4-sp-d16
 3306              		.type	mc_interface_temp_fet_filtered, %function
ARM GAS  C:\Users\CHRIST~1\AppData\Local\Temp\ccCFoZV9.s 			page 59


 3307              	mc_interface_temp_fet_filtered:
 3308              	.LFB303:
 3309              		.loc 1 928 0
 3310              		.cfi_startproc
 3311              		@ args = 0, pretend = 0, frame = 0
 3312              		@ frame_needed = 0, uses_anonymous_args = 0
 3313              		@ link register save eliminated.
 3314              		.loc 1 929 0
 3315 0000 014B     		ldr	r3, .L419
 3316 0002 93ED000A 		vldr.32	s0, [r3]
 3317              		.loc 1 930 0
 3318 0006 7047     		bx	lr
 3319              	.L420:
 3320              		.align	2
 3321              	.L419:
 3322 0008 00000000 		.word	.LANCHOR32
 3323              		.cfi_endproc
 3324              	.LFE303:
 3325              		.size	mc_interface_temp_fet_filtered, .-mc_interface_temp_fet_filtered
 3326              		.section	.text.mc_interface_temp_motor_filtered,"ax",%progbits
 3327              		.align	1
 3328              		.p2align 4,,15
 3329              		.global	mc_interface_temp_motor_filtered
 3330              		.syntax unified
 3331              		.thumb
 3332              		.thumb_func
 3333              		.fpu fpv4-sp-d16
 3334              		.type	mc_interface_temp_motor_filtered, %function
 3335              	mc_interface_temp_motor_filtered:
 3336              	.LFB304:
 3337              		.loc 1 939 0
 3338              		.cfi_startproc
 3339              		@ args = 0, pretend = 0, frame = 0
 3340              		@ frame_needed = 0, uses_anonymous_args = 0
 3341              		@ link register save eliminated.
 3342              		.loc 1 940 0
 3343 0000 014B     		ldr	r3, .L422
 3344 0002 93ED000A 		vldr.32	s0, [r3]
 3345              		.loc 1 941 0
 3346 0006 7047     		bx	lr
 3347              	.L423:
 3348              		.align	2
 3349              	.L422:
 3350 0008 00000000 		.word	.LANCHOR33
 3351              		.cfi_endproc
 3352              	.LFE304:
 3353              		.size	mc_interface_temp_motor_filtered, .-mc_interface_temp_motor_filtered
 3354              		.section	.text.mc_interface_try_input,"ax",%progbits
 3355              		.align	1
 3356              		.p2align 4,,15
 3357              		.global	mc_interface_try_input
 3358              		.syntax unified
 3359              		.thumb
 3360              		.thumb_func
 3361              		.fpu fpv4-sp-d16
 3362              		.type	mc_interface_try_input, %function
 3363              	mc_interface_try_input:
ARM GAS  C:\Users\CHRIST~1\AppData\Local\Temp\ccCFoZV9.s 			page 60


 3364              	.LFB305:
 3365              		.loc 1 953 0
 3366              		.cfi_startproc
 3367              		@ args = 0, pretend = 0, frame = 0
 3368              		@ frame_needed = 0, uses_anonymous_args = 0
 3369 0000 10B5     		push	{r4, lr}
 3370              		.cfi_def_cfa_offset 8
 3371              		.cfi_offset 4, -8
 3372              		.cfi_offset 14, -4
 3373              		.loc 1 955 0
 3374 0002 FFF7FEFF 		bl	mc_interface_get_state
 3375              	.LVL254:
 3376 0006 0128     		cmp	r0, #1
 3377 0008 24D0     		beq	.L440
 3378              		.loc 1 960 0
 3379 000a 164B     		ldr	r3, .L444
 3380 000c 1C68     		ldr	r4, [r3]
 3381              	.LVL255:
 3382              		.loc 1 962 0
 3383 000e 14B9     		cbnz	r4, .L426
 3384              		.loc 1 962 0 is_stmt 0 discriminator 1
 3385 0010 154B     		ldr	r3, .L444+4
 3386 0012 1B78     		ldrb	r3, [r3]	@ zero_extendqisi2
 3387 0014 63B9     		cbnz	r3, .L441
 3388              	.LVL256:
 3389              	.L426:
 3390              		.loc 1 970 0 is_stmt 1
 3391 0016 154B     		ldr	r3, .L444+8
 3392 0018 9B78     		ldrb	r3, [r3, #2]	@ zero_extendqisi2
 3393 001a DBB2     		uxtb	r3, r3
 3394 001c 012B     		cmp	r3, #1
 3395 001e 11D9     		bls	.L428
 3396              	.L443:
 3397 0020 022B     		cmp	r3, #2
 3398 0022 03D1     		bne	.L424
 3399              		.loc 1 979 0
 3400 0024 FFF7FEFF 		bl	mcpwm_foc_init_done
 3401              	.LVL257:
 3402 0028 00B9     		cbnz	r0, .L424
 3403              	.L430:
 3404              	.LVL258:
 3405              		.loc 1 974 0
 3406 002a 0124     		movs	r4, #1
 3407              	.LVL259:
 3408              	.L424:
 3409              		.loc 1 989 0
 3410 002c 2046     		mov	r0, r4
 3411 002e 10BD     		pop	{r4, pc}
 3412              	.LVL260:
 3413              	.L441:
 3414              		.loc 1 963 0
 3415 0030 0F4B     		ldr	r3, .L444+12
 3416 0032 1A78     		ldrb	r2, [r3]	@ zero_extendqisi2
 3417 0034 62B9     		cbnz	r2, .L442
 3418              		.loc 1 970 0
 3419 0036 0D4B     		ldr	r3, .L444+8
 3420 0038 9B78     		ldrb	r3, [r3, #2]	@ zero_extendqisi2
ARM GAS  C:\Users\CHRIST~1\AppData\Local\Temp\ccCFoZV9.s 			page 61


 3421 003a DBB2     		uxtb	r3, r3
 3422 003c 012B     		cmp	r3, #1
 3423              		.loc 1 964 0
 3424 003e 4FF00104 		mov	r4, #1
 3425              	.LVL261:
 3426              		.loc 1 970 0
 3427 0042 EDD8     		bhi	.L443
 3428              	.L428:
 3429              		.loc 1 973 0
 3430 0044 FFF7FEFF 		bl	mcpwm_init_done
 3431              	.LVL262:
 3432 0048 0028     		cmp	r0, #0
 3433 004a EED0     		beq	.L430
 3434              		.loc 1 989 0
 3435 004c 2046     		mov	r0, r4
 3436 004e 10BD     		pop	{r4, pc}
 3437              	.LVL263:
 3438              	.L442:
 3439              		.loc 1 966 0
 3440 0050 1C70     		strb	r4, [r3]
 3441 0052 E0E7     		b	.L426
 3442              	.LVL264:
 3443              	.L440:
 3444              		.loc 1 956 0
 3445 0054 FFF7FEFF 		bl	mcpwm_stop_pwm
 3446              	.LVL265:
 3447              		.loc 1 957 0
 3448 0058 024B     		ldr	r3, .L444
 3449 005a 4FF4FA74 		mov	r4, #500
 3450 005e 1C60     		str	r4, [r3]
 3451              	.LVL266:
 3452 0060 D9E7     		b	.L426
 3453              	.L445:
 3454 0062 00BF     		.align	2
 3455              	.L444:
 3456 0064 00000000 		.word	.LANCHOR14
 3457 0068 00000000 		.word	.LANCHOR16
 3458 006c 00000000 		.word	.LANCHOR12
 3459 0070 00000000 		.word	.LANCHOR17
 3460              		.cfi_endproc
 3461              	.LFE305:
 3462              		.size	mc_interface_try_input, .-mc_interface_try_input
 3463              		.section	.text.mc_interface_set_duty,"ax",%progbits
 3464              		.align	1
 3465              		.p2align 4,,15
 3466              		.global	mc_interface_set_duty
 3467              		.syntax unified
 3468              		.thumb
 3469              		.thumb_func
 3470              		.fpu fpv4-sp-d16
 3471              		.type	mc_interface_set_duty, %function
 3472              	mc_interface_set_duty:
 3473              	.LFB267:
 3474              		.loc 1 320 0
 3475              		.cfi_startproc
 3476              		@ args = 0, pretend = 0, frame = 0
 3477              		@ frame_needed = 0, uses_anonymous_args = 0
ARM GAS  C:\Users\CHRIST~1\AppData\Local\Temp\ccCFoZV9.s 			page 62


 3478              	.LVL267:
 3479 0000 08B5     		push	{r3, lr}
 3480              		.cfi_def_cfa_offset 8
 3481              		.cfi_offset 3, -8
 3482              		.cfi_offset 14, -4
 3483 0002 2DED028B 		vpush.64	{d8}
 3484              		.cfi_def_cfa_offset 16
 3485              		.cfi_offset 80, -16
 3486              		.cfi_offset 81, -12
 3487              		.loc 1 320 0
 3488 0006 B0EE408A 		vmov.f32	s16, s0
 3489              		.loc 1 321 0
 3490 000a FFF7FEFF 		bl	mc_interface_try_input
 3491              	.LVL268:
 3492 000e C0B9     		cbnz	r0, .L446
 3493              		.loc 1 325 0
 3494 0010 164A     		ldr	r2, .L455
 3495 0012 9378     		ldrb	r3, [r2, #2]	@ zero_extendqisi2
 3496 0014 DBB2     		uxtb	r3, r3
 3497 0016 012B     		cmp	r3, #1
 3498 0018 16D9     		bls	.L448
 3499 001a 022B     		cmp	r3, #2
 3500 001c 11D1     		bne	.L446
 3501              		.loc 1 332 0
 3502 001e 92F85931 		ldrb	r3, [r2, #345]	@ zero_extendqisi2
 3503 0022 BFEE000A 		vmov.f32	s0, #-1.0e+0
 3504 0026 002B     		cmp	r3, #0
 3505 0028 F7EE007A 		vmov.f32	s15, #1.0e+0
 3506 002c 08BF     		it	eq
 3507 002e B0EE670A 		vmoveq.f32	s0, s15
 3508 0032 20EE080A 		vmul.f32	s0, s0, s16
 3509              		.loc 1 338 0
 3510 0036 BDEC028B 		vldm	sp!, {d8}
 3511              		.cfi_remember_state
 3512              		.cfi_restore 80
 3513              		.cfi_restore 81
 3514              		.cfi_def_cfa_offset 8
 3515              	.LVL269:
 3516 003a BDE80840 		pop	{r3, lr}
 3517              		.cfi_restore 14
 3518              		.cfi_restore 3
 3519              		.cfi_def_cfa_offset 0
 3520              		.loc 1 332 0
 3521 003e FFF7FEBF 		b	mcpwm_foc_set_duty
 3522              	.LVL270:
 3523              	.L446:
 3524              		.cfi_restore_state
 3525              		.loc 1 338 0
 3526 0042 BDEC028B 		vldm	sp!, {d8}
 3527              		.cfi_remember_state
 3528              		.cfi_restore 80
 3529              		.cfi_restore 81
 3530              		.cfi_def_cfa_offset 8
 3531              	.LVL271:
 3532 0046 08BD     		pop	{r3, pc}
 3533              	.LVL272:
 3534              	.L448:
ARM GAS  C:\Users\CHRIST~1\AppData\Local\Temp\ccCFoZV9.s 			page 63


 3535              		.cfi_restore_state
 3536              	.LBB160:
 3537              	.LBB161:
 3538              		.loc 1 328 0
 3539 0048 92F85931 		ldrb	r3, [r2, #345]	@ zero_extendqisi2
 3540 004c BFEE000A 		vmov.f32	s0, #-1.0e+0
 3541 0050 002B     		cmp	r3, #0
 3542 0052 F7EE007A 		vmov.f32	s15, #1.0e+0
 3543 0056 08BF     		it	eq
 3544 0058 B0EE670A 		vmoveq.f32	s0, s15
 3545 005c 28EE000A 		vmul.f32	s0, s16, s0
 3546              	.LBE161:
 3547              	.LBE160:
 3548              		.loc 1 338 0
 3549 0060 BDEC028B 		vldm	sp!, {d8}
 3550              		.cfi_restore 80
 3551              		.cfi_restore 81
 3552              		.cfi_def_cfa_offset 8
 3553              	.LVL273:
 3554 0064 BDE80840 		pop	{r3, lr}
 3555              		.cfi_restore 14
 3556              		.cfi_restore 3
 3557              		.cfi_def_cfa_offset 0
 3558              	.LBB163:
 3559              	.LBB162:
 3560              		.loc 1 328 0
 3561 0068 FFF7FEBF 		b	mcpwm_set_duty
 3562              	.LVL274:
 3563              	.L456:
 3564              		.align	2
 3565              	.L455:
 3566 006c 00000000 		.word	.LANCHOR12
 3567              	.LBE162:
 3568              	.LBE163:
 3569              		.cfi_endproc
 3570              	.LFE267:
 3571              		.size	mc_interface_set_duty, .-mc_interface_set_duty
 3572              		.section	.text.mc_interface_brake_now,"ax",%progbits
 3573              		.align	1
 3574              		.p2align 4,,15
 3575              		.global	mc_interface_brake_now
 3576              		.syntax unified
 3577              		.thumb
 3578              		.thumb_func
 3579              		.fpu fpv4-sp-d16
 3580              		.type	mc_interface_brake_now, %function
 3581              	mc_interface_brake_now:
 3582              	.LFB276:
 3583              		.loc 1 487 0
 3584              		.cfi_startproc
 3585              		@ args = 0, pretend = 0, frame = 0
 3586              		@ frame_needed = 0, uses_anonymous_args = 0
 3587              		@ link register save eliminated.
 3588              		.loc 1 488 0
 3589 0000 9FED010A 		vldr.32	s0, .L458
 3590 0004 FFF7FEBF 		b	mc_interface_set_duty
 3591              	.LVL275:
ARM GAS  C:\Users\CHRIST~1\AppData\Local\Temp\ccCFoZV9.s 			page 64


 3592              	.L459:
 3593              		.align	2
 3594              	.L458:
 3595 0008 00000000 		.word	0
 3596              		.cfi_endproc
 3597              	.LFE276:
 3598              		.size	mc_interface_brake_now, .-mc_interface_brake_now
 3599              		.section	.text.mc_interface_set_duty_noramp,"ax",%progbits
 3600              		.align	1
 3601              		.p2align 4,,15
 3602              		.global	mc_interface_set_duty_noramp
 3603              		.syntax unified
 3604              		.thumb
 3605              		.thumb_func
 3606              		.fpu fpv4-sp-d16
 3607              		.type	mc_interface_set_duty_noramp, %function
 3608              	mc_interface_set_duty_noramp:
 3609              	.LFB268:
 3610              		.loc 1 340 0
 3611              		.cfi_startproc
 3612              		@ args = 0, pretend = 0, frame = 0
 3613              		@ frame_needed = 0, uses_anonymous_args = 0
 3614              	.LVL276:
 3615 0000 08B5     		push	{r3, lr}
 3616              		.cfi_def_cfa_offset 8
 3617              		.cfi_offset 3, -8
 3618              		.cfi_offset 14, -4
 3619 0002 2DED028B 		vpush.64	{d8}
 3620              		.cfi_def_cfa_offset 16
 3621              		.cfi_offset 80, -16
 3622              		.cfi_offset 81, -12
 3623              		.loc 1 340 0
 3624 0006 B0EE408A 		vmov.f32	s16, s0
 3625              		.loc 1 341 0
 3626 000a FFF7FEFF 		bl	mc_interface_try_input
 3627              	.LVL277:
 3628 000e C0B9     		cbnz	r0, .L460
 3629              		.loc 1 345 0
 3630 0010 164A     		ldr	r2, .L469
 3631 0012 9378     		ldrb	r3, [r2, #2]	@ zero_extendqisi2
 3632 0014 DBB2     		uxtb	r3, r3
 3633 0016 012B     		cmp	r3, #1
 3634 0018 16D9     		bls	.L462
 3635 001a 022B     		cmp	r3, #2
 3636 001c 11D1     		bne	.L460
 3637              		.loc 1 352 0
 3638 001e 92F85931 		ldrb	r3, [r2, #345]	@ zero_extendqisi2
 3639 0022 BFEE000A 		vmov.f32	s0, #-1.0e+0
 3640 0026 002B     		cmp	r3, #0
 3641 0028 F7EE007A 		vmov.f32	s15, #1.0e+0
 3642 002c 08BF     		it	eq
 3643 002e B0EE670A 		vmoveq.f32	s0, s15
 3644 0032 20EE080A 		vmul.f32	s0, s0, s16
 3645              		.loc 1 358 0
 3646 0036 BDEC028B 		vldm	sp!, {d8}
 3647              		.cfi_remember_state
 3648              		.cfi_restore 80
ARM GAS  C:\Users\CHRIST~1\AppData\Local\Temp\ccCFoZV9.s 			page 65


 3649              		.cfi_restore 81
 3650              		.cfi_def_cfa_offset 8
 3651              	.LVL278:
 3652 003a BDE80840 		pop	{r3, lr}
 3653              		.cfi_restore 14
 3654              		.cfi_restore 3
 3655              		.cfi_def_cfa_offset 0
 3656              		.loc 1 352 0
 3657 003e FFF7FEBF 		b	mcpwm_foc_set_duty_noramp
 3658              	.LVL279:
 3659              	.L460:
 3660              		.cfi_restore_state
 3661              		.loc 1 358 0
 3662 0042 BDEC028B 		vldm	sp!, {d8}
 3663              		.cfi_remember_state
 3664              		.cfi_restore 80
 3665              		.cfi_restore 81
 3666              		.cfi_def_cfa_offset 8
 3667              	.LVL280:
 3668 0046 08BD     		pop	{r3, pc}
 3669              	.LVL281:
 3670              	.L462:
 3671              		.cfi_restore_state
 3672              		.loc 1 348 0
 3673 0048 92F85931 		ldrb	r3, [r2, #345]	@ zero_extendqisi2
 3674 004c BFEE000A 		vmov.f32	s0, #-1.0e+0
 3675 0050 002B     		cmp	r3, #0
 3676 0052 F7EE007A 		vmov.f32	s15, #1.0e+0
 3677 0056 08BF     		it	eq
 3678 0058 B0EE670A 		vmoveq.f32	s0, s15
 3679 005c 20EE080A 		vmul.f32	s0, s0, s16
 3680              		.loc 1 358 0
 3681 0060 BDEC028B 		vldm	sp!, {d8}
 3682              		.cfi_restore 80
 3683              		.cfi_restore 81
 3684              		.cfi_def_cfa_offset 8
 3685              	.LVL282:
 3686 0064 BDE80840 		pop	{r3, lr}
 3687              		.cfi_restore 14
 3688              		.cfi_restore 3
 3689              		.cfi_def_cfa_offset 0
 3690              		.loc 1 348 0
 3691 0068 FFF7FEBF 		b	mcpwm_set_duty_noramp
 3692              	.LVL283:
 3693              	.L470:
 3694              		.align	2
 3695              	.L469:
 3696 006c 00000000 		.word	.LANCHOR12
 3697              		.cfi_endproc
 3698              	.LFE268:
 3699              		.size	mc_interface_set_duty_noramp, .-mc_interface_set_duty_noramp
 3700              		.section	.text.mc_interface_set_pid_speed,"ax",%progbits
 3701              		.align	1
 3702              		.p2align 4,,15
 3703              		.global	mc_interface_set_pid_speed
 3704              		.syntax unified
 3705              		.thumb
ARM GAS  C:\Users\CHRIST~1\AppData\Local\Temp\ccCFoZV9.s 			page 66


 3706              		.thumb_func
 3707              		.fpu fpv4-sp-d16
 3708              		.type	mc_interface_set_pid_speed, %function
 3709              	mc_interface_set_pid_speed:
 3710              	.LFB269:
 3711              		.loc 1 360 0
 3712              		.cfi_startproc
 3713              		@ args = 0, pretend = 0, frame = 0
 3714              		@ frame_needed = 0, uses_anonymous_args = 0
 3715              	.LVL284:
 3716 0000 08B5     		push	{r3, lr}
 3717              		.cfi_def_cfa_offset 8
 3718              		.cfi_offset 3, -8
 3719              		.cfi_offset 14, -4
 3720 0002 2DED028B 		vpush.64	{d8}
 3721              		.cfi_def_cfa_offset 16
 3722              		.cfi_offset 80, -16
 3723              		.cfi_offset 81, -12
 3724              		.loc 1 360 0
 3725 0006 B0EE408A 		vmov.f32	s16, s0
 3726              		.loc 1 361 0
 3727 000a FFF7FEFF 		bl	mc_interface_try_input
 3728              	.LVL285:
 3729 000e C0B9     		cbnz	r0, .L471
 3730              		.loc 1 365 0
 3731 0010 164A     		ldr	r2, .L480
 3732 0012 9378     		ldrb	r3, [r2, #2]	@ zero_extendqisi2
 3733 0014 DBB2     		uxtb	r3, r3
 3734 0016 012B     		cmp	r3, #1
 3735 0018 16D9     		bls	.L473
 3736 001a 022B     		cmp	r3, #2
 3737 001c 11D1     		bne	.L471
 3738              		.loc 1 372 0
 3739 001e 92F85931 		ldrb	r3, [r2, #345]	@ zero_extendqisi2
 3740 0022 BFEE000A 		vmov.f32	s0, #-1.0e+0
 3741 0026 002B     		cmp	r3, #0
 3742 0028 F7EE007A 		vmov.f32	s15, #1.0e+0
 3743 002c 08BF     		it	eq
 3744 002e B0EE670A 		vmoveq.f32	s0, s15
 3745 0032 20EE080A 		vmul.f32	s0, s0, s16
 3746              		.loc 1 378 0
 3747 0036 BDEC028B 		vldm	sp!, {d8}
 3748              		.cfi_remember_state
 3749              		.cfi_restore 80
 3750              		.cfi_restore 81
 3751              		.cfi_def_cfa_offset 8
 3752              	.LVL286:
 3753 003a BDE80840 		pop	{r3, lr}
 3754              		.cfi_restore 14
 3755              		.cfi_restore 3
 3756              		.cfi_def_cfa_offset 0
 3757              		.loc 1 372 0
 3758 003e FFF7FEBF 		b	mcpwm_foc_set_pid_speed
 3759              	.LVL287:
 3760              	.L471:
 3761              		.cfi_restore_state
 3762              		.loc 1 378 0
ARM GAS  C:\Users\CHRIST~1\AppData\Local\Temp\ccCFoZV9.s 			page 67


 3763 0042 BDEC028B 		vldm	sp!, {d8}
 3764              		.cfi_remember_state
 3765              		.cfi_restore 80
 3766              		.cfi_restore 81
 3767              		.cfi_def_cfa_offset 8
 3768              	.LVL288:
 3769 0046 08BD     		pop	{r3, pc}
 3770              	.LVL289:
 3771              	.L473:
 3772              		.cfi_restore_state
 3773              		.loc 1 368 0
 3774 0048 92F85931 		ldrb	r3, [r2, #345]	@ zero_extendqisi2
 3775 004c BFEE000A 		vmov.f32	s0, #-1.0e+0
 3776 0050 002B     		cmp	r3, #0
 3777 0052 F7EE007A 		vmov.f32	s15, #1.0e+0
 3778 0056 08BF     		it	eq
 3779 0058 B0EE670A 		vmoveq.f32	s0, s15
 3780 005c 20EE080A 		vmul.f32	s0, s0, s16
 3781              		.loc 1 378 0
 3782 0060 BDEC028B 		vldm	sp!, {d8}
 3783              		.cfi_restore 80
 3784              		.cfi_restore 81
 3785              		.cfi_def_cfa_offset 8
 3786              	.LVL290:
 3787 0064 BDE80840 		pop	{r3, lr}
 3788              		.cfi_restore 14
 3789              		.cfi_restore 3
 3790              		.cfi_def_cfa_offset 0
 3791              		.loc 1 368 0
 3792 0068 FFF7FEBF 		b	mcpwm_set_pid_speed
 3793              	.LVL291:
 3794              	.L481:
 3795              		.align	2
 3796              	.L480:
 3797 006c 00000000 		.word	.LANCHOR12
 3798              		.cfi_endproc
 3799              	.LFE269:
 3800              		.size	mc_interface_set_pid_speed, .-mc_interface_set_pid_speed
 3801              		.section	.text.mc_interface_set_pid_pos,"ax",%progbits
 3802              		.align	1
 3803              		.p2align 4,,15
 3804              		.global	mc_interface_set_pid_pos
 3805              		.syntax unified
 3806              		.thumb
 3807              		.thumb_func
 3808              		.fpu fpv4-sp-d16
 3809              		.type	mc_interface_set_pid_pos, %function
 3810              	mc_interface_set_pid_pos:
 3811              	.LFB270:
 3812              		.loc 1 380 0
 3813              		.cfi_startproc
 3814              		@ args = 0, pretend = 0, frame = 0
 3815              		@ frame_needed = 0, uses_anonymous_args = 0
 3816              	.LVL292:
 3817 0000 08B5     		push	{r3, lr}
 3818              		.cfi_def_cfa_offset 8
 3819              		.cfi_offset 3, -8
ARM GAS  C:\Users\CHRIST~1\AppData\Local\Temp\ccCFoZV9.s 			page 68


 3820              		.cfi_offset 14, -4
 3821 0002 2DED028B 		vpush.64	{d8}
 3822              		.cfi_def_cfa_offset 16
 3823              		.cfi_offset 80, -16
 3824              		.cfi_offset 81, -12
 3825              		.loc 1 380 0
 3826 0006 B0EE408A 		vmov.f32	s16, s0
 3827              		.loc 1 381 0
 3828 000a FFF7FEFF 		bl	mc_interface_try_input
 3829              	.LVL293:
 3830 000e E8B9     		cbnz	r0, .L482
 3831              		.loc 1 385 0
 3832 0010 1A4A     		ldr	r2, .L491
 3833              		.loc 1 387 0
 3834 0012 1B49     		ldr	r1, .L491+4
 3835              		.loc 1 385 0
 3836 0014 82ED008A 		vstr.32	s16, [r2]
 3837              		.loc 1 387 0
 3838 0018 8B78     		ldrb	r3, [r1, #2]	@ zero_extendqisi2
 3839 001a DBB2     		uxtb	r3, r3
 3840 001c 012B     		cmp	r3, #1
 3841 001e 18D9     		bls	.L484
 3842 0020 022B     		cmp	r3, #2
 3843 0022 13D1     		bne	.L482
 3844              		.loc 1 400 0
 3845 0024 BDEC028B 		vldm	sp!, {d8}
 3846              		.cfi_remember_state
 3847              		.cfi_restore 80
 3848              		.cfi_restore 81
 3849              		.cfi_def_cfa_offset 8
 3850              	.LVL294:
 3851              		.loc 1 394 0
 3852 0028 91F85931 		ldrb	r3, [r1, #345]	@ zero_extendqisi2
 3853 002c 92ED000A 		vldr.32	s0, [r2]
 3854 0030 002B     		cmp	r3, #0
 3855 0032 FFEE007A 		vmov.f32	s15, #-1.0e+0
 3856 0036 B7EE007A 		vmov.f32	s14, #1.0e+0
 3857 003a 08BF     		it	eq
 3858 003c F0EE477A 		vmoveq.f32	s15, s14
 3859 0040 27EE800A 		vmul.f32	s0, s15, s0
 3860              		.loc 1 400 0
 3861 0044 BDE80840 		pop	{r3, lr}
 3862              		.cfi_restore 14
 3863              		.cfi_restore 3
 3864              		.cfi_def_cfa_offset 0
 3865              		.loc 1 394 0
 3866 0048 FFF7FEBF 		b	mcpwm_foc_set_pid_pos
 3867              	.LVL295:
 3868              	.L482:
 3869              		.cfi_restore_state
 3870              		.loc 1 400 0
 3871 004c BDEC028B 		vldm	sp!, {d8}
 3872              		.cfi_remember_state
 3873              		.cfi_restore 80
 3874              		.cfi_restore 81
 3875              		.cfi_def_cfa_offset 8
 3876              	.LVL296:
ARM GAS  C:\Users\CHRIST~1\AppData\Local\Temp\ccCFoZV9.s 			page 69


 3877 0050 08BD     		pop	{r3, pc}
 3878              	.LVL297:
 3879              	.L484:
 3880              		.cfi_restore_state
 3881 0052 BDEC028B 		vldm	sp!, {d8}
 3882              		.cfi_restore 80
 3883              		.cfi_restore 81
 3884              		.cfi_def_cfa_offset 8
 3885              	.LVL298:
 3886              		.loc 1 390 0
 3887 0056 91F85931 		ldrb	r3, [r1, #345]	@ zero_extendqisi2
 3888 005a 92ED000A 		vldr.32	s0, [r2]
 3889 005e 002B     		cmp	r3, #0
 3890 0060 FFEE007A 		vmov.f32	s15, #-1.0e+0
 3891 0064 B7EE007A 		vmov.f32	s14, #1.0e+0
 3892 0068 08BF     		it	eq
 3893 006a F0EE477A 		vmoveq.f32	s15, s14
 3894 006e 27EE800A 		vmul.f32	s0, s15, s0
 3895              		.loc 1 400 0
 3896 0072 BDE80840 		pop	{r3, lr}
 3897              		.cfi_restore 14
 3898              		.cfi_restore 3
 3899              		.cfi_def_cfa_offset 0
 3900              		.loc 1 390 0
 3901 0076 FFF7FEBF 		b	mcpwm_set_pid_pos
 3902              	.LVL299:
 3903              	.L492:
 3904 007a 00BF     		.align	2
 3905              	.L491:
 3906 007c 00000000 		.word	.LANCHOR30
 3907 0080 00000000 		.word	.LANCHOR12
 3908              		.cfi_endproc
 3909              	.LFE270:
 3910              		.size	mc_interface_set_pid_pos, .-mc_interface_set_pid_pos
 3911              		.section	.text.mc_interface_set_current,"ax",%progbits
 3912              		.align	1
 3913              		.p2align 4,,15
 3914              		.global	mc_interface_set_current
 3915              		.syntax unified
 3916              		.thumb
 3917              		.thumb_func
 3918              		.fpu fpv4-sp-d16
 3919              		.type	mc_interface_set_current, %function
 3920              	mc_interface_set_current:
 3921              	.LFB271:
 3922              		.loc 1 402 0
 3923              		.cfi_startproc
 3924              		@ args = 0, pretend = 0, frame = 0
 3925              		@ frame_needed = 0, uses_anonymous_args = 0
 3926              	.LVL300:
 3927 0000 08B5     		push	{r3, lr}
 3928              		.cfi_def_cfa_offset 8
 3929              		.cfi_offset 3, -8
 3930              		.cfi_offset 14, -4
 3931 0002 2DED028B 		vpush.64	{d8}
 3932              		.cfi_def_cfa_offset 16
 3933              		.cfi_offset 80, -16
ARM GAS  C:\Users\CHRIST~1\AppData\Local\Temp\ccCFoZV9.s 			page 70


 3934              		.cfi_offset 81, -12
 3935              		.loc 1 402 0
 3936 0006 B0EE408A 		vmov.f32	s16, s0
 3937              		.loc 1 403 0
 3938 000a FFF7FEFF 		bl	mc_interface_try_input
 3939              	.LVL301:
 3940 000e C0B9     		cbnz	r0, .L493
 3941              		.loc 1 407 0
 3942 0010 164A     		ldr	r2, .L502
 3943 0012 9378     		ldrb	r3, [r2, #2]	@ zero_extendqisi2
 3944 0014 DBB2     		uxtb	r3, r3
 3945 0016 012B     		cmp	r3, #1
 3946 0018 16D9     		bls	.L495
 3947 001a 022B     		cmp	r3, #2
 3948 001c 11D1     		bne	.L493
 3949              		.loc 1 414 0
 3950 001e 92F85931 		ldrb	r3, [r2, #345]	@ zero_extendqisi2
 3951 0022 BFEE000A 		vmov.f32	s0, #-1.0e+0
 3952 0026 002B     		cmp	r3, #0
 3953 0028 F7EE007A 		vmov.f32	s15, #1.0e+0
 3954 002c 08BF     		it	eq
 3955 002e B0EE670A 		vmoveq.f32	s0, s15
 3956 0032 20EE080A 		vmul.f32	s0, s0, s16
 3957              		.loc 1 420 0
 3958 0036 BDEC028B 		vldm	sp!, {d8}
 3959              		.cfi_remember_state
 3960              		.cfi_restore 80
 3961              		.cfi_restore 81
 3962              		.cfi_def_cfa_offset 8
 3963              	.LVL302:
 3964 003a BDE80840 		pop	{r3, lr}
 3965              		.cfi_restore 14
 3966              		.cfi_restore 3
 3967              		.cfi_def_cfa_offset 0
 3968              		.loc 1 414 0
 3969 003e FFF7FEBF 		b	mcpwm_foc_set_current
 3970              	.LVL303:
 3971              	.L493:
 3972              		.cfi_restore_state
 3973              		.loc 1 420 0
 3974 0042 BDEC028B 		vldm	sp!, {d8}
 3975              		.cfi_remember_state
 3976              		.cfi_restore 80
 3977              		.cfi_restore 81
 3978              		.cfi_def_cfa_offset 8
 3979              	.LVL304:
 3980 0046 08BD     		pop	{r3, pc}
 3981              	.LVL305:
 3982              	.L495:
 3983              		.cfi_restore_state
 3984              	.LBB166:
 3985              	.LBB167:
 3986              		.loc 1 410 0
 3987 0048 92F85931 		ldrb	r3, [r2, #345]	@ zero_extendqisi2
 3988 004c BFEE000A 		vmov.f32	s0, #-1.0e+0
 3989 0050 002B     		cmp	r3, #0
 3990 0052 F7EE007A 		vmov.f32	s15, #1.0e+0
ARM GAS  C:\Users\CHRIST~1\AppData\Local\Temp\ccCFoZV9.s 			page 71


 3991 0056 08BF     		it	eq
 3992 0058 B0EE670A 		vmoveq.f32	s0, s15
 3993 005c 28EE000A 		vmul.f32	s0, s16, s0
 3994              	.LBE167:
 3995              	.LBE166:
 3996              		.loc 1 420 0
 3997 0060 BDEC028B 		vldm	sp!, {d8}
 3998              		.cfi_restore 80
 3999              		.cfi_restore 81
 4000              		.cfi_def_cfa_offset 8
 4001              	.LVL306:
 4002 0064 BDE80840 		pop	{r3, lr}
 4003              		.cfi_restore 14
 4004              		.cfi_restore 3
 4005              		.cfi_def_cfa_offset 0
 4006              	.LBB169:
 4007              	.LBB168:
 4008              		.loc 1 410 0
 4009 0068 FFF7FEBF 		b	mcpwm_set_current
 4010              	.LVL307:
 4011              	.L503:
 4012              		.align	2
 4013              	.L502:
 4014 006c 00000000 		.word	.LANCHOR12
 4015              	.LBE168:
 4016              	.LBE169:
 4017              		.cfi_endproc
 4018              	.LFE271:
 4019              		.size	mc_interface_set_current, .-mc_interface_set_current
 4020              		.section	.text.mc_interface_set_current_rel,"ax",%progbits
 4021              		.align	1
 4022              		.p2align 4,,15
 4023              		.global	mc_interface_set_current_rel
 4024              		.syntax unified
 4025              		.thumb
 4026              		.thumb_func
 4027              		.fpu fpv4-sp-d16
 4028              		.type	mc_interface_set_current_rel, %function
 4029              	mc_interface_set_current_rel:
 4030              	.LFB273:
 4031              		.loc 1 448 0
 4032              		.cfi_startproc
 4033              		@ args = 0, pretend = 0, frame = 0
 4034              		@ frame_needed = 0, uses_anonymous_args = 0
 4035              		@ link register save eliminated.
 4036              	.LVL308:
 4037              		.loc 1 449 0
 4038 0000 B5EEC00A 		vcmpe.f32	s0, #0
 4039 0004 F1EE10FA 		vmrs	APSR_nzcv, FPSCR
 4040              		.loc 1 450 0
 4041 0008 074B     		ldr	r3, .L509
 4042              		.loc 1 449 0
 4043 000a 05DD     		ble	.L508
 4044              		.loc 1 450 0
 4045 000c D3ED1C7A 		vldr.32	s15, [r3, #112]
 4046 0010 20EE270A 		vmul.f32	s0, s0, s15
 4047              	.LVL309:
ARM GAS  C:\Users\CHRIST~1\AppData\Local\Temp\ccCFoZV9.s 			page 72


 4048 0014 FFF7FEBF 		b	mc_interface_set_current
 4049              	.LVL310:
 4050              	.L508:
 4051              		.loc 1 452 0
 4052 0018 D3ED1D7A 		vldr.32	s15, [r3, #116]
 4053 001c F0EEE77A 		vabs.f32	s15, s15
 4054 0020 27EE800A 		vmul.f32	s0, s15, s0
 4055              	.LVL311:
 4056 0024 FFF7FEBF 		b	mc_interface_set_current
 4057              	.LVL312:
 4058              	.L510:
 4059              		.align	2
 4060              	.L509:
 4061 0028 00000000 		.word	.LANCHOR12
 4062              		.cfi_endproc
 4063              	.LFE273:
 4064              		.size	mc_interface_set_current_rel, .-mc_interface_set_current_rel
 4065              		.section	.text.mc_interface_release_motor,"ax",%progbits
 4066              		.align	1
 4067              		.p2align 4,,15
 4068              		.global	mc_interface_release_motor
 4069              		.syntax unified
 4070              		.thumb
 4071              		.thumb_func
 4072              		.fpu fpv4-sp-d16
 4073              		.type	mc_interface_release_motor, %function
 4074              	mc_interface_release_motor:
 4075              	.LFB277:
 4076              		.loc 1 494 0
 4077              		.cfi_startproc
 4078              		@ args = 0, pretend = 0, frame = 0
 4079              		@ frame_needed = 0, uses_anonymous_args = 0
 4080              		@ link register save eliminated.
 4081              		.loc 1 495 0
 4082 0000 9FED010A 		vldr.32	s0, .L512
 4083 0004 FFF7FEBF 		b	mc_interface_set_current
 4084              	.LVL313:
 4085              	.L513:
 4086              		.align	2
 4087              	.L512:
 4088 0008 00000000 		.word	0
 4089              		.cfi_endproc
 4090              	.LFE277:
 4091              		.size	mc_interface_release_motor, .-mc_interface_release_motor
 4092              		.section	.text.mc_interface_set_brake_current,"ax",%progbits
 4093              		.align	1
 4094              		.p2align 4,,15
 4095              		.global	mc_interface_set_brake_current
 4096              		.syntax unified
 4097              		.thumb
 4098              		.thumb_func
 4099              		.fpu fpv4-sp-d16
 4100              		.type	mc_interface_set_brake_current, %function
 4101              	mc_interface_set_brake_current:
 4102              	.LFB272:
 4103              		.loc 1 422 0
 4104              		.cfi_startproc
ARM GAS  C:\Users\CHRIST~1\AppData\Local\Temp\ccCFoZV9.s 			page 73


 4105              		@ args = 0, pretend = 0, frame = 0
 4106              		@ frame_needed = 0, uses_anonymous_args = 0
 4107              	.LVL314:
 4108 0000 08B5     		push	{r3, lr}
 4109              		.cfi_def_cfa_offset 8
 4110              		.cfi_offset 3, -8
 4111              		.cfi_offset 14, -4
 4112 0002 2DED028B 		vpush.64	{d8}
 4113              		.cfi_def_cfa_offset 16
 4114              		.cfi_offset 80, -16
 4115              		.cfi_offset 81, -12
 4116              		.loc 1 422 0
 4117 0006 B0EE408A 		vmov.f32	s16, s0
 4118              		.loc 1 423 0
 4119 000a FFF7FEFF 		bl	mc_interface_try_input
 4120              	.LVL315:
 4121 000e C0B9     		cbnz	r0, .L514
 4122              		.loc 1 427 0
 4123 0010 164A     		ldr	r2, .L523
 4124 0012 9378     		ldrb	r3, [r2, #2]	@ zero_extendqisi2
 4125 0014 DBB2     		uxtb	r3, r3
 4126 0016 012B     		cmp	r3, #1
 4127 0018 16D9     		bls	.L516
 4128 001a 022B     		cmp	r3, #2
 4129 001c 11D1     		bne	.L514
 4130              		.loc 1 434 0
 4131 001e 92F85931 		ldrb	r3, [r2, #345]	@ zero_extendqisi2
 4132 0022 BFEE000A 		vmov.f32	s0, #-1.0e+0
 4133 0026 002B     		cmp	r3, #0
 4134 0028 F7EE007A 		vmov.f32	s15, #1.0e+0
 4135 002c 08BF     		it	eq
 4136 002e B0EE670A 		vmoveq.f32	s0, s15
 4137 0032 20EE080A 		vmul.f32	s0, s0, s16
 4138              		.loc 1 440 0
 4139 0036 BDEC028B 		vldm	sp!, {d8}
 4140              		.cfi_remember_state
 4141              		.cfi_restore 80
 4142              		.cfi_restore 81
 4143              		.cfi_def_cfa_offset 8
 4144              	.LVL316:
 4145 003a BDE80840 		pop	{r3, lr}
 4146              		.cfi_restore 14
 4147              		.cfi_restore 3
 4148              		.cfi_def_cfa_offset 0
 4149              		.loc 1 434 0
 4150 003e FFF7FEBF 		b	mcpwm_foc_set_brake_current
 4151              	.LVL317:
 4152              	.L514:
 4153              		.cfi_restore_state
 4154              		.loc 1 440 0
 4155 0042 BDEC028B 		vldm	sp!, {d8}
 4156              		.cfi_remember_state
 4157              		.cfi_restore 80
 4158              		.cfi_restore 81
 4159              		.cfi_def_cfa_offset 8
 4160              	.LVL318:
 4161 0046 08BD     		pop	{r3, pc}
ARM GAS  C:\Users\CHRIST~1\AppData\Local\Temp\ccCFoZV9.s 			page 74


 4162              	.LVL319:
 4163              	.L516:
 4164              		.cfi_restore_state
 4165              	.LBB172:
 4166              	.LBB173:
 4167              		.loc 1 430 0
 4168 0048 92F85931 		ldrb	r3, [r2, #345]	@ zero_extendqisi2
 4169 004c BFEE000A 		vmov.f32	s0, #-1.0e+0
 4170 0050 002B     		cmp	r3, #0
 4171 0052 F7EE007A 		vmov.f32	s15, #1.0e+0
 4172 0056 08BF     		it	eq
 4173 0058 B0EE670A 		vmoveq.f32	s0, s15
 4174 005c 28EE000A 		vmul.f32	s0, s16, s0
 4175              	.LBE173:
 4176              	.LBE172:
 4177              		.loc 1 440 0
 4178 0060 BDEC028B 		vldm	sp!, {d8}
 4179              		.cfi_restore 80
 4180              		.cfi_restore 81
 4181              		.cfi_def_cfa_offset 8
 4182              	.LVL320:
 4183 0064 BDE80840 		pop	{r3, lr}
 4184              		.cfi_restore 14
 4185              		.cfi_restore 3
 4186              		.cfi_def_cfa_offset 0
 4187              	.LBB175:
 4188              	.LBB174:
 4189              		.loc 1 430 0
 4190 0068 FFF7FEBF 		b	mcpwm_set_brake_current
 4191              	.LVL321:
 4192              	.L524:
 4193              		.align	2
 4194              	.L523:
 4195 006c 00000000 		.word	.LANCHOR12
 4196              	.LBE174:
 4197              	.LBE175:
 4198              		.cfi_endproc
 4199              	.LFE272:
 4200              		.size	mc_interface_set_brake_current, .-mc_interface_set_brake_current
 4201              		.section	.text.mc_interface_set_brake_current_rel,"ax",%progbits
 4202              		.align	1
 4203              		.p2align 4,,15
 4204              		.global	mc_interface_set_brake_current_rel
 4205              		.syntax unified
 4206              		.thumb
 4207              		.thumb_func
 4208              		.fpu fpv4-sp-d16
 4209              		.type	mc_interface_set_brake_current_rel, %function
 4210              	mc_interface_set_brake_current_rel:
 4211              	.LFB274:
 4212              		.loc 1 462 0
 4213              		.cfi_startproc
 4214              		@ args = 0, pretend = 0, frame = 0
 4215              		@ frame_needed = 0, uses_anonymous_args = 0
 4216              		@ link register save eliminated.
 4217              	.LVL322:
 4218              		.loc 1 463 0
ARM GAS  C:\Users\CHRIST~1\AppData\Local\Temp\ccCFoZV9.s 			page 75


 4219 0000 034B     		ldr	r3, .L526
 4220 0002 D3ED1C7A 		vldr.32	s15, [r3, #112]
 4221 0006 27EE800A 		vmul.f32	s0, s15, s0
 4222              	.LVL323:
 4223 000a FFF7FEBF 		b	mc_interface_set_brake_current
 4224              	.LVL324:
 4225              	.L527:
 4226 000e 00BF     		.align	2
 4227              	.L526:
 4228 0010 00000000 		.word	.LANCHOR12
 4229              		.cfi_endproc
 4230              	.LFE274:
 4231              		.size	mc_interface_set_brake_current_rel, .-mc_interface_set_brake_current_rel
 4232              		.section	.text.mc_interface_set_handbrake,"ax",%progbits
 4233              		.align	1
 4234              		.p2align 4,,15
 4235              		.global	mc_interface_set_handbrake
 4236              		.syntax unified
 4237              		.thumb
 4238              		.thumb_func
 4239              		.fpu fpv4-sp-d16
 4240              		.type	mc_interface_set_handbrake, %function
 4241              	mc_interface_set_handbrake:
 4242              	.LFB275:
 4243              		.loc 1 466 0
 4244              		.cfi_startproc
 4245              		@ args = 0, pretend = 0, frame = 0
 4246              		@ frame_needed = 0, uses_anonymous_args = 0
 4247              	.LVL325:
 4248 0000 08B5     		push	{r3, lr}
 4249              		.cfi_def_cfa_offset 8
 4250              		.cfi_offset 3, -8
 4251              		.cfi_offset 14, -4
 4252 0002 2DED028B 		vpush.64	{d8}
 4253              		.cfi_def_cfa_offset 16
 4254              		.cfi_offset 80, -16
 4255              		.cfi_offset 81, -12
 4256              		.loc 1 466 0
 4257 0006 B0EE408A 		vmov.f32	s16, s0
 4258              		.loc 1 467 0
 4259 000a FFF7FEFF 		bl	mc_interface_try_input
 4260              	.LVL326:
 4261 000e 70B9     		cbnz	r0, .L528
 4262              		.loc 1 471 0
 4263 0010 0C4B     		ldr	r3, .L533
 4264 0012 9B78     		ldrb	r3, [r3, #2]	@ zero_extendqisi2
 4265 0014 DBB2     		uxtb	r3, r3
 4266 0016 012B     		cmp	r3, #1
 4267 0018 0CD9     		bls	.L530
 4268 001a 022B     		cmp	r3, #2
 4269 001c 07D1     		bne	.L528
 4270              		.loc 1 479 0
 4271 001e B0EE480A 		vmov.f32	s0, s16
 4272              		.loc 1 485 0
 4273 0022 BDEC028B 		vldm	sp!, {d8}
 4274              		.cfi_remember_state
 4275              		.cfi_restore 80
ARM GAS  C:\Users\CHRIST~1\AppData\Local\Temp\ccCFoZV9.s 			page 76


 4276              		.cfi_restore 81
 4277              		.cfi_def_cfa_offset 8
 4278              	.LVL327:
 4279 0026 BDE80840 		pop	{r3, lr}
 4280              		.cfi_restore 14
 4281              		.cfi_restore 3
 4282              		.cfi_def_cfa_offset 0
 4283              		.loc 1 479 0
 4284 002a FFF7FEBF 		b	mcpwm_foc_set_handbrake
 4285              	.LVL328:
 4286              	.L528:
 4287              		.cfi_restore_state
 4288              		.loc 1 485 0
 4289 002e BDEC028B 		vldm	sp!, {d8}
 4290              		.cfi_remember_state
 4291              		.cfi_restore 80
 4292              		.cfi_restore 81
 4293              		.cfi_def_cfa_offset 8
 4294              	.LVL329:
 4295 0032 08BD     		pop	{r3, pc}
 4296              	.LVL330:
 4297              	.L530:
 4298              		.cfi_restore_state
 4299              		.loc 1 475 0
 4300 0034 B0EE480A 		vmov.f32	s0, s16
 4301              		.loc 1 485 0
 4302 0038 BDEC028B 		vldm	sp!, {d8}
 4303              		.cfi_restore 80
 4304              		.cfi_restore 81
 4305              		.cfi_def_cfa_offset 8
 4306              	.LVL331:
 4307 003c BDE80840 		pop	{r3, lr}
 4308              		.cfi_restore 14
 4309              		.cfi_restore 3
 4310              		.cfi_def_cfa_offset 0
 4311              		.loc 1 475 0
 4312 0040 FFF7FEBF 		b	mcpwm_set_brake_current
 4313              	.LVL332:
 4314              	.L534:
 4315              		.align	2
 4316              	.L533:
 4317 0044 00000000 		.word	.LANCHOR12
 4318              		.cfi_endproc
 4319              	.LFE275:
 4320              		.size	mc_interface_set_handbrake, .-mc_interface_set_handbrake
 4321              		.section	.text.mc_interface_fault_stop,"ax",%progbits
 4322              		.align	1
 4323              		.p2align 4,,15
 4324              		.global	mc_interface_fault_stop
 4325              		.syntax unified
 4326              		.thumb
 4327              		.thumb_func
 4328              		.fpu fpv4-sp-d16
 4329              		.type	mc_interface_fault_stop, %function
 4330              	mc_interface_fault_stop:
 4331              	.LFB306:
 4332              		.loc 1 991 0
ARM GAS  C:\Users\CHRIST~1\AppData\Local\Temp\ccCFoZV9.s 			page 77


 4333              		.cfi_startproc
 4334              		@ args = 0, pretend = 0, frame = 0
 4335              		@ frame_needed = 0, uses_anonymous_args = 0
 4336              		@ link register save eliminated.
 4337              	.LVL333:
 4338              		.loc 1 992 0
 4339 0000 054B     		ldr	r3, .L540
 4340 0002 1B78     		ldrb	r3, [r3]	@ zero_extendqisi2
 4341 0004 8342     		cmp	r3, r0
 4342 0006 01D0     		beq	.L539
 4343 0008 FFF7FEBF 		b	mc_interface_fault_stop.part.3
 4344              	.LVL334:
 4345              	.L539:
 4346              		.loc 1 993 0
 4347 000c 034A     		ldr	r2, .L540+4
 4348 000e 044B     		ldr	r3, .L540+8
 4349 0010 D2F84821 		ldr	r2, [r2, #328]
 4350 0014 1A60     		str	r2, [r3]
 4351              		.loc 1 994 0
 4352 0016 7047     		bx	lr
 4353              	.L541:
 4354              		.align	2
 4355              	.L540:
 4356 0018 00000000 		.word	.LANCHOR13
 4357 001c 00000000 		.word	.LANCHOR12
 4358 0020 00000000 		.word	.LANCHOR14
 4359              		.cfi_endproc
 4360              	.LFE306:
 4361              		.size	mc_interface_fault_stop, .-mc_interface_fault_stop
 4362              		.section	.text.mc_interface_mc_timer_isr,"ax",%progbits
 4363              		.align	1
 4364              		.p2align 4,,15
 4365              		.global	mc_interface_mc_timer_isr
 4366              		.syntax unified
 4367              		.thumb
 4368              		.thumb_func
 4369              		.fpu fpv4-sp-d16
 4370              		.type	mc_interface_mc_timer_isr, %function
 4371              	mc_interface_mc_timer_isr:
 4372              	.LFB307:
 4373              		.loc 1 1047 0
 4374              		.cfi_startproc
 4375              		@ args = 0, pretend = 0, frame = 8
 4376              		@ frame_needed = 0, uses_anonymous_args = 0
 4377 0000 2DE9F043 		push	{r4, r5, r6, r7, r8, r9, lr}
 4378              		.cfi_def_cfa_offset 28
 4379              		.cfi_offset 4, -28
 4380              		.cfi_offset 5, -24
 4381              		.cfi_offset 6, -20
 4382              		.cfi_offset 7, -16
 4383              		.cfi_offset 8, -12
 4384              		.cfi_offset 9, -8
 4385              		.cfi_offset 14, -4
 4386 0004 2DED048B 		vpush.64	{d8, d9}
 4387              		.cfi_def_cfa_offset 44
 4388              		.cfi_offset 80, -44
 4389              		.cfi_offset 81, -40
ARM GAS  C:\Users\CHRIST~1\AppData\Local\Temp\ccCFoZV9.s 			page 78


 4390              		.cfi_offset 82, -36
 4391              		.cfi_offset 83, -32
 4392              		.loc 1 1050 0
 4393 0008 C34E     		ldr	r6, .L651
 4394              		.loc 1 1054 0
 4395 000a C44C     		ldr	r4, .L651+4
 4396              		.loc 1 1047 0
 4397 000c 83B0     		sub	sp, sp, #12
 4398              		.cfi_def_cfa_offset 56
 4399              		.loc 1 1048 0
 4400 000e FFF7FEFF 		bl	ledpwm_update_pwm
 4401              	.LVL335:
 4402              		.loc 1 1050 0
 4403 0012 338A     		ldrh	r3, [r6, #16]
 4404 0014 DFEDC26A 		vldr.32	s13, .L651+8
 4405 0018 9FEDC27A 		vldr.32	s14, .L651+12
 4406              		.loc 1 1054 0
 4407 001c D4ED0B7A 		vldr.32	s15, [r4, #44]
 4408              		.loc 1 1050 0
 4409 0020 9BB2     		uxth	r3, r3
 4410 0022 08EE103A 		vmov	s16, r3	@ int
 4411 0026 B8EE488A 		vcvt.f32.u32	s16, s16
 4412 002a 28EE268A 		vmul.f32	s16, s16, s13
 4413 002e 28EE078A 		vmul.f32	s16, s16, s14
 4414              	.LVL336:
 4415              		.loc 1 1054 0
 4416 0032 B4EEE78A 		vcmpe.f32	s16, s15
 4417 0036 F1EE10FA 		vmrs	APSR_nzcv, FPSCR
 4418 003a 07D4     		bmi	.L543
 4419              		.loc 1 1055 0 discriminator 1
 4420 003c D4ED0C7A 		vldr.32	s15, [r4, #48]
 4421              		.loc 1 1054 0 discriminator 1
 4422 0040 B4EEE78A 		vcmpe.f32	s16, s15
 4423 0044 F1EE10FA 		vmrs	APSR_nzcv, FPSCR
 4424 0048 40F3DD81 		ble	.L623
 4425              	.L543:
 4426              		.loc 1 1056 0
 4427 004c B64A     		ldr	r2, .L651+16
 4428 004e 1368     		ldr	r3, [r2]
 4429 0050 0133     		adds	r3, r3, #1
 4430              		.loc 1 1058 0
 4431 0052 072B     		cmp	r3, #7
 4432              		.loc 1 1056 0
 4433 0054 1360     		str	r3, [r2]
 4434              		.loc 1 1058 0
 4435 0056 00F3BD81 		bgt	.L637
 4436              	.L546:
 4437              		.loc 1 1066 0
 4438 005a FFF7FEFF 		bl	mc_interface_get_state
 4439              	.LVL337:
 4440 005e 0228     		cmp	r0, #2
 4441 0060 00F0CC81 		beq	.L638
 4442              	.L549:
 4443              		.loc 1 1069 0
 4444 0064 B14B     		ldr	r3, .L651+20
 4445 0066 0022     		movs	r2, #0
 4446 0068 1A60     		str	r2, [r3]
ARM GAS  C:\Users\CHRIST~1\AppData\Local\Temp\ccCFoZV9.s 			page 79


 4447              	.L550:
 4448              		.loc 1 1072 0
 4449 006a B14B     		ldr	r3, .L651+24
 4450 006c 1B68     		ldr	r3, [r3]
 4451 006e 03B1     		cbz	r3, .L551
 4452              		.loc 1 1073 0
 4453 0070 9847     		blx	r3
 4454              	.LVL338:
 4455              	.L551:
 4456              		.loc 1 1076 0
 4457 0072 FFF7FEFF 		bl	mc_interface_get_tot_current_filtered
 4458              	.LVL339:
 4459 0076 F0EE408A 		vmov.f32	s17, s0
 4460              	.LVL340:
 4461              		.loc 1 1077 0
 4462 007a FFF7FEFF 		bl	mc_interface_get_tot_current_in_filtered
 4463              	.LVL341:
 4464              		.loc 1 1078 0
 4465 007e AD48     		ldr	r0, .L651+28
 4466              		.loc 1 1079 0
 4467 0080 AD49     		ldr	r1, .L651+32
 4468              		.loc 1 1078 0
 4469 0082 D0ED007A 		vldr.32	s15, [r0]
 4470              		.loc 1 1080 0
 4471 0086 AD4A     		ldr	r2, .L651+36
 4472              		.loc 1 1081 0
 4473 0088 AD4B     		ldr	r3, .L651+40
 4474              		.loc 1 1078 0
 4475 008a 78EEA77A 		vadd.f32	s15, s17, s15
 4476              		.loc 1 1080 0
 4477 008e B7EE009A 		vmov.f32	s18, #1.0e+0
 4478              		.loc 1 1078 0
 4479 0092 C0ED007A 		vstr.32	s15, [r0]
 4480              		.loc 1 1079 0
 4481 0096 D1ED007A 		vldr.32	s15, [r1]
 4482 009a 70EE277A 		vadd.f32	s15, s0, s15
 4483              		.loc 1 1077 0
 4484 009e F0EE409A 		vmov.f32	s19, s0
 4485              	.LVL342:
 4486              		.loc 1 1079 0
 4487 00a2 C1ED007A 		vstr.32	s15, [r1]
 4488              		.loc 1 1080 0
 4489 00a6 D2ED007A 		vldr.32	s15, [r2]
 4490 00aa 77EE897A 		vadd.f32	s15, s15, s18
 4491 00ae C2ED007A 		vstr.32	s15, [r2]
 4492              		.loc 1 1081 0
 4493 00b2 D3ED007A 		vldr.32	s15, [r3]
 4494 00b6 77EE897A 		vadd.f32	s15, s15, s18
 4495 00ba C3ED007A 		vstr.32	s15, [r3]
 4496              		.loc 1 1083 0
 4497 00be FFF7FEFF 		bl	mcpwm_foc_get_id
 4498              	.LVL343:
 4499 00c2 A04B     		ldr	r3, .L651+44
 4500 00c4 D3ED007A 		vldr.32	s15, [r3]
 4501 00c8 30EE270A 		vadd.f32	s0, s0, s15
 4502 00cc 83ED000A 		vstr.32	s0, [r3]
 4503              		.loc 1 1084 0
ARM GAS  C:\Users\CHRIST~1\AppData\Local\Temp\ccCFoZV9.s 			page 80


 4504 00d0 FFF7FEFF 		bl	mcpwm_foc_get_iq
 4505              	.LVL344:
 4506 00d4 9C49     		ldr	r1, .L651+48
 4507              		.loc 1 1085 0
 4508 00d6 9D4A     		ldr	r2, .L651+52
 4509              		.loc 1 1084 0
 4510 00d8 D1ED007A 		vldr.32	s15, [r1]
 4511              		.loc 1 1086 0
 4512 00dc 9C4B     		ldr	r3, .L651+56
 4513              		.loc 1 1084 0
 4514 00de 30EE270A 		vadd.f32	s0, s0, s15
 4515 00e2 81ED000A 		vstr.32	s0, [r1]
 4516              		.loc 1 1085 0
 4517 00e6 D2ED007A 		vldr.32	s15, [r2]
 4518 00ea 77EE897A 		vadd.f32	s15, s15, s18
 4519 00ee C2ED007A 		vstr.32	s15, [r2]
 4520              		.loc 1 1086 0
 4521 00f2 D3ED007A 		vldr.32	s15, [r3]
 4522 00f6 37EE899A 		vadd.f32	s18, s15, s18
 4523 00fa 83ED009A 		vstr.32	s18, [r3]
 4524              		.loc 1 1088 0
 4525 00fe FFF7FEFF 		bl	mc_interface_get_tot_current
 4526              	.LVL345:
 4527              		.loc 1 1090 0
 4528 0102 A378     		ldrb	r3, [r4, #2]	@ zero_extendqisi2
 4529 0104 022B     		cmp	r3, #2
 4530              		.loc 1 1088 0
 4531 0106 B0EE409A 		vmov.f32	s18, s0
 4532              	.LVL346:
 4533              		.loc 1 1090 0
 4534 010a 00F0FB81 		beq	.L639
 4535              		.loc 1 1089 0
 4536 010e B0EE680A 		vmov.f32	s0, s17
 4537              	.LVL347:
 4538              	.L552:
 4539              		.loc 1 1097 0
 4540 0112 94F83C30 		ldrb	r3, [r4, #60]	@ zero_extendqisi2
 4541              		.loc 1 1098 0
 4542 0116 D4ED057A 		vldr.32	s15, [r4, #20]
 4543              		.loc 1 1097 0
 4544 011a 002B     		cmp	r3, #0
 4545 011c 00F04C81 		beq	.L553
 4546              		.loc 1 1098 0
 4547 0120 B0EEC00A 		vabs.f32	s0, s0
 4548              	.LVL348:
 4549 0124 B4EEE70A 		vcmpe.f32	s0, s15
 4550 0128 F1EE10FA 		vmrs	APSR_nzcv, FPSCR
 4551 012c 07DD     		ble	.L554
 4552              	.LVL349:
 4553              	.LBB176:
 4554              	.LBB177:
 4555              		.loc 1 992 0
 4556 012e 894B     		ldr	r3, .L651+60
 4557 0130 1B78     		ldrb	r3, [r3]	@ zero_extendqisi2
 4558 0132 042B     		cmp	r3, #4
 4559 0134 00F0CE81 		beq	.L640
 4560              	.LVL350:
ARM GAS  C:\Users\CHRIST~1\AppData\Local\Temp\ccCFoZV9.s 			page 81


 4561              	.L556:
 4562              	.LBE177:
 4563              	.LBE176:
 4564              	.LBB180:
 4565              	.LBB181:
 4566 0138 0420     		movs	r0, #4
 4567 013a FFF7FEFF 		bl	mc_interface_fault_stop.part.3
 4568              	.LVL351:
 4569              	.L554:
 4570              	.LBE181:
 4571              	.LBE180:
 4572              		.loc 1 1108 0
 4573 013e 864B     		ldr	r3, .L651+64
 4574 0140 1B69     		ldr	r3, [r3, #16]
 4575 0142 DB04     		lsls	r3, r3, #19
 4576 0144 08D4     		bmi	.L560
 4577              	.LVL352:
 4578              	.LBB182:
 4579              	.LBB183:
 4580              		.loc 1 992 0
 4581 0146 834B     		ldr	r3, .L651+60
 4582 0148 1B78     		ldrb	r3, [r3]	@ zero_extendqisi2
 4583 014a 032B     		cmp	r3, #3
 4584 014c 40F0CB81 		bne	.L561
 4585              		.loc 1 993 0
 4586 0150 824B     		ldr	r3, .L651+68
 4587 0152 D4F84821 		ldr	r2, [r4, #328]
 4588 0156 1A60     		str	r2, [r3]
 4589              	.LVL353:
 4590              	.L560:
 4591              	.LBE183:
 4592              	.LBE182:
 4593              		.loc 1 1113 0
 4594 0158 FFF7FEFF 		bl	mc_interface_get_sampling_frequency_now
 4595              	.LVL354:
 4596              		.loc 1 1114 0
 4597 015c F0EEE88A 		vabs.f32	s17, s17
 4598              	.LVL355:
 4599 0160 F7EE006A 		vmov.f32	s13, #1.0e+0
 4600 0164 F4EEE68A 		vcmpe.f32	s17, s13
 4601 0168 F1EE10FA 		vmrs	APSR_nzcv, FPSCR
 4602              		.loc 1 1113 0
 4603 016c B0EE409A 		vmov.f32	s18, s0
 4604              	.LVL356:
 4605              		.loc 1 1114 0
 4606 0170 2FDD     		ble	.L563
 4607              	.LBB185:
 4608              		.loc 1 1120 0
 4609 0172 86EE807A 		vdiv.f32	s14, s13, s0
 4610 0176 7A4A     		ldr	r2, .L651+72
 4611              		.loc 1 1119 0
 4612 0178 7A4B     		ldr	r3, .L651+76
 4613 017a C9EE807A 		vdiv.f32	s15, s19, s0
 4614              		.loc 1 1120 0
 4615 017e 92ED006A 		vldr.32	s12, [r2]
 4616              		.loc 1 1119 0
 4617 0182 D3ED005A 		vldr.32	s11, [r3]
ARM GAS  C:\Users\CHRIST~1\AppData\Local\Temp\ccCFoZV9.s 			page 82


 4618              		.loc 1 1122 0
 4619 0186 DFED786A 		vldr.32	s13, .L651+80
 4620              		.loc 1 1120 0
 4621 018a 37EE067A 		vadd.f32	s14, s14, s12
 4622              		.loc 1 1119 0
 4623 018e 77EEA57A 		vadd.f32	s15, s15, s11
 4624              		.loc 1 1122 0
 4625 0192 B4EEE67A 		vcmpe.f32	s14, s13
 4626 0196 F1EE10FA 		vmrs	APSR_nzcv, FPSCR
 4627              		.loc 1 1119 0
 4628 019a C3ED007A 		vstr.32	s15, [r3]
 4629              		.loc 1 1120 0
 4630 019e 82ED007A 		vstr.32	s14, [r2]
 4631              		.loc 1 1122 0
 4632 01a2 16DB     		blt	.L563
 4633              		.loc 1 1123 0
 4634 01a4 F5EEC07A 		vcmpe.f32	s15, #0
 4635 01a8 F1EE10FA 		vmrs	APSR_nzcv, FPSCR
 4636 01ac 40F3B181 		ble	.L624
 4637              		.loc 1 1124 0
 4638 01b0 6E48     		ldr	r0, .L651+84
 4639              		.loc 1 1125 0
 4640 01b2 6F49     		ldr	r1, .L651+88
 4641              		.loc 1 1124 0
 4642 01b4 90ED007A 		vldr.32	s14, [r0]
 4643 01b8 37EE877A 		vadd.f32	s14, s15, s14
 4644 01bc 80ED007A 		vstr.32	s14, [r0]
 4645              		.loc 1 1125 0
 4646 01c0 91ED007A 		vldr.32	s14, [r1]
 4647 01c4 A8EE277A 		vfma.f32	s14, s16, s15
 4648 01c8 81ED007A 		vstr.32	s14, [r1]
 4649              	.L568:
 4650              		.loc 1 1131 0
 4651 01cc 0021     		movs	r1, #0
 4652 01ce 1160     		str	r1, [r2]	@ float
 4653              		.loc 1 1132 0
 4654 01d0 1960     		str	r1, [r3]	@ float
 4655              	.L563:
 4656              	.LVL357:
 4657              	.LBE185:
 4658              		.loc 1 1138 0
 4659 01d2 684F     		ldr	r7, .L651+92
 4660 01d4 3B78     		ldrb	r3, [r7]	@ zero_extendqisi2
 4661 01d6 013B     		subs	r3, r3, #1
 4662 01d8 052B     		cmp	r3, #5
 4663 01da 00F29780 		bhi	.L542
 4664 01de DFE813F0 		tbh	[pc, r3, lsl #1]
 4665              	.L571:
 4666 01e2 0600     		.2byte	(.L570-.L571)/2
 4667 01e4 5101     		.2byte	(.L572-.L571)/2
 4668 01e6 2B01     		.2byte	(.L573-.L571)/2
 4669 01e8 1601     		.2byte	(.L574-.L571)/2
 4670 01ea 2B01     		.2byte	(.L573-.L571)/2
 4671 01ec 1601     		.2byte	(.L574-.L571)/2
 4672              		.p2align 1
 4673              	.L570:
 4674              		.loc 1 1140 0
ARM GAS  C:\Users\CHRIST~1\AppData\Local\Temp\ccCFoZV9.s 			page 83


 4675 01ee 624D     		ldr	r5, .L651+96
 4676 01f0 624B     		ldr	r3, .L651+100
 4677 01f2 2A68     		ldr	r2, [r5]
 4678 01f4 1B68     		ldr	r3, [r3]
 4679 01f6 9A42     		cmp	r2, r3
 4680 01f8 00F03B82 		beq	.L575
 4681              	.LVL358:
 4682              	.L589:
 4683              	.LBB186:
 4684              		.loc 1 1231 0
 4685 01fc 604A     		ldr	r2, .L651+104
 4686              		.loc 1 1233 0
 4687 01fe 6149     		ldr	r1, .L651+108
 4688              		.loc 1 1231 0
 4689 0200 1368     		ldr	r3, [r2]
 4690              		.loc 1 1233 0
 4691 0202 0968     		ldr	r1, [r1]
 4692              		.loc 1 1231 0
 4693 0204 0133     		adds	r3, r3, #1
 4694              		.loc 1 1233 0
 4695 0206 8B42     		cmp	r3, r1
 4696              		.loc 1 1231 0
 4697 0208 1360     		str	r3, [r2]
 4698              		.loc 1 1233 0
 4699 020a 7FDB     		blt	.L542
 4700              	.LBB187:
 4701              		.loc 1 1236 0
 4702 020c 2968     		ldr	r1, [r5]
 4703              		.loc 1 1234 0
 4704 020e 0023     		movs	r3, #0
 4705              		.loc 1 1236 0
 4706 0210 B1F5FA6F 		cmp	r1, #2000
 4707              		.loc 1 1237 0
 4708 0214 A8BF     		it	ge
 4709 0216 2B60     		strge	r3, [r5]
 4710              		.loc 1 1234 0
 4711 0218 1360     		str	r3, [r2]
 4712              		.loc 1 1241 0
 4713 021a A378     		ldrb	r3, [r4, #2]	@ zero_extendqisi2
 4714 021c 022B     		cmp	r3, #2
 4715 021e 00F00382 		beq	.L641
 4716              		.loc 1 1248 0
 4717 0222 594B     		ldr	r3, .L651+112
 4718              		.loc 1 1249 0
 4719 0224 594F     		ldr	r7, .L651+116
 4720              		.loc 1 1248 0
 4721 0226 1C68     		ldr	r4, [r3]
 4722              		.loc 1 1249 0
 4723 0228 2B68     		ldr	r3, [r5]
 4724 022a 3B44     		add	r3, r3, r7
 4725 022c 0022     		movs	r2, #0
 4726              		.loc 1 1248 0
 4727 022e 24B2     		sxth	r4, r4
 4728              	.LVL359:
 4729              		.loc 1 1249 0
 4730 0230 83F8082E 		strb	r2, [r3, #3592]
 4731              	.L592:
ARM GAS  C:\Users\CHRIST~1\AppData\Local\Temp\ccCFoZV9.s 			page 84


 4732              		.loc 1 1252 0
 4733 0234 FFF7FEFF 		bl	mc_interface_get_state
 4734              	.LVL360:
 4735 0238 0128     		cmp	r0, #1
 4736 023a 00F0A281 		beq	.L642
 4737              		.loc 1 1260 0
 4738 023e 5449     		ldr	r1, .L651+120
 4739 0240 D5F800E0 		ldr	lr, [r5]
 4740 0244 0A68     		ldr	r2, [r1]
 4741 0246 534B     		ldr	r3, .L651+124
 4742              		.loc 1 1263 0
 4743 0248 5348     		ldr	r0, .L651+128
 4744              		.loc 1 1260 0
 4745 024a 12B2     		sxth	r2, r2
 4746 024c 23F81E20 		strh	r2, [r3, lr, lsl #1]	@ movhi
 4747              		.loc 1 1261 0
 4748 0250 D5F800C0 		ldr	ip, [r5]
 4749 0254 4A68     		ldr	r2, [r1, #4]
 4750              		.loc 1 1264 0
 4751 0256 DFF85CE1 		ldr	lr, .L651+156
 4752              		.loc 1 1265 0
 4753 025a 5049     		ldr	r1, .L651+132
 4754              		.loc 1 1261 0
 4755 025c 03EB4C03 		add	r3, r3, ip, lsl #1
 4756 0260 12B2     		sxth	r2, r2
 4757 0262 A3F8A02F 		strh	r2, [r3, #4000]	@ movhi
 4758              		.loc 1 1263 0
 4759 0266 2B68     		ldr	r3, [r5]
 4760 0268 B288     		ldrh	r2, [r6, #4]
 4761 026a 00EB4303 		add	r3, r0, r3, lsl #1
 4762 026e A0B2     		uxth	r0, r4
 4763 0270 121A     		subs	r2, r2, r0
 4764 0272 12B2     		sxth	r2, r2
 4765 0274 A3F8482E 		strh	r2, [r3, #3656]	@ movhi
 4766              		.loc 1 1264 0
 4767 0278 2B68     		ldr	r3, [r5]
 4768 027a 7288     		ldrh	r2, [r6, #2]
 4769 027c 0EEB4303 		add	r3, lr, r3, lsl #1
 4770 0280 121A     		subs	r2, r2, r0
 4771 0282 12B2     		sxth	r2, r2
 4772 0284 A3F8F02C 		strh	r2, [r3, #3312]	@ movhi
 4773              		.loc 1 1265 0
 4774 0288 2A68     		ldr	r2, [r5]
 4775 028a 3388     		ldrh	r3, [r6]
 4776 028c 01EB4202 		add	r2, r1, r2, lsl #1
 4777 0290 1B1A     		subs	r3, r3, r0
 4778 0292 1BB2     		sxth	r3, r3
 4779 0294 A2F8983B 		strh	r3, [r2, #2968]	@ movhi
 4780              	.L594:
 4781              		.loc 1 1268 0
 4782 0298 2A68     		ldr	r2, [r5]
 4783 029a 414B     		ldr	r3, .L651+136
 4784 029c 03EB4203 		add	r3, r3, r2, lsl #1
 4785 02a0 A3F8404A 		strh	r4, [r3, #2624]	@ movhi
 4786              		.loc 1 1269 0
 4787 02a4 2C68     		ldr	r4, [r5]
 4788              	.LVL361:
ARM GAS  C:\Users\CHRIST~1\AppData\Local\Temp\ccCFoZV9.s 			page 85


 4789 02a6 FFF7FEFF 		bl	mc_interface_get_tot_current
 4790              	.LVL362:
 4791              		.loc 1 1270 0
 4792 02aa F2EE047A 		vmov.f32	s15, #1.0e+1
 4793 02ae 89EE277A 		vdiv.f32	s14, s18, s15
 4794              		.loc 1 1269 0
 4795 02b2 3C49     		ldr	r1, .L651+140
 4796              		.loc 1 1270 0
 4797 02b4 3C4B     		ldr	r3, .L651+144
 4798              		.loc 1 1269 0
 4799 02b6 01EB4401 		add	r1, r1, r4, lsl #1
 4800 02ba DFED3C7A 		vldr.32	s15, .L651+148
 4801 02be 20EE270A 		vmul.f32	s0, s0, s15
 4802              		.loc 1 1270 0
 4803 02c2 FDEEC77A 		vcvt.s32.f32	s15, s14
 4804 02c6 CDED017A 		vstr.32	s15, [sp, #4]	@ int
 4805              		.loc 1 1269 0
 4806 02ca FDEEC07A 		vcvt.s32.f32	s15, s0
 4807              		.loc 1 1270 0
 4808 02ce BDF90420 		ldrsh	r2, [sp, #4]
 4809              		.loc 1 1269 0
 4810 02d2 CDED007A 		vstr.32	s15, [sp]	@ int
 4811 02d6 BDF90000 		ldrsh	r0, [sp]
 4812 02da A1F8E808 		strh	r0, [r1, #2280]	@ movhi
 4813              		.loc 1 1270 0
 4814 02de 2968     		ldr	r1, [r5]
 4815 02e0 03EB4103 		add	r3, r3, r1, lsl #1
 4816 02e4 A3F89027 		strh	r2, [r3, #1936]	@ movhi
 4817              		.loc 1 1271 0
 4818 02e8 2E68     		ldr	r6, [r5]
 4819 02ea FFF7FEFF 		bl	mcpwm_get_comm_step
 4820              	.LVL363:
 4821 02ee 0446     		mov	r4, r0
 4822 02f0 FFF7FEFF 		bl	mcpwm_read_hall_phase
 4823              	.LVL364:
 4824 02f4 3744     		add	r7, r7, r6
 4825 02f6 44EAC000 		orr	r0, r4, r0, lsl #3
 4826 02fa C0B2     		uxtb	r0, r0
 4827 02fc 87F83806 		strb	r0, [r7, #1592]
 4828              		.loc 1 1273 0
 4829 0300 2B68     		ldr	r3, [r5]
 4830              	.LBB188:
 4831              	.LBB189:
 4832              		.loc 1 902 0
 4833 0302 2B4A     		ldr	r2, .L651+152
 4834              	.LBE189:
 4835              	.LBE188:
 4836              		.loc 1 1273 0
 4837 0304 0133     		adds	r3, r3, #1
 4838 0306 2B60     		str	r3, [r5]
 4839              	.LBB191:
 4840              	.LBB190:
 4841              		.loc 1 902 0
 4842 0308 1368     		ldr	r3, [r2]	@ float
 4843              	.LBE190:
 4844              	.LBE191:
 4845              		.loc 1 1275 0
ARM GAS  C:\Users\CHRIST~1\AppData\Local\Temp\ccCFoZV9.s 			page 86


 4846 030a 1360     		str	r3, [r2]	@ float
 4847              	.L542:
 4848              	.LBE187:
 4849              	.LBE186:
 4850              		.loc 1 1278 0
 4851 030c 03B0     		add	sp, sp, #12
 4852              		.cfi_remember_state
 4853              		.cfi_def_cfa_offset 44
 4854              		@ sp needed
 4855 030e BDEC048B 		vldm	sp!, {d8-d9}
 4856              		.cfi_restore 82
 4857              		.cfi_restore 83
 4858              		.cfi_restore 80
 4859              		.cfi_restore 81
 4860              		.cfi_def_cfa_offset 28
 4861              	.LVL365:
 4862 0312 BDE8F083 		pop	{r4, r5, r6, r7, r8, r9, pc}
 4863              	.L652:
 4864 0316 00BF     		.align	2
 4865              	.L651:
 4866 0318 00000000 		.word	.LANCHOR41
 4867 031c 00000000 		.word	.LANCHOR12
 4868 0320 6740533A 		.word	978534503
 4869 0324 74D19541 		.word	1100337524
 4870 0328 00000000 		.word	.LANCHOR42
 4871 032c 00000000 		.word	.LANCHOR15
 4872 0330 00000000 		.word	.LANCHOR39
 4873 0334 00000000 		.word	.LANCHOR18
 4874 0338 00000000 		.word	.LANCHOR19
 4875 033c 00000000 		.word	.LANCHOR20
 4876 0340 00000000 		.word	.LANCHOR21
 4877 0344 00000000 		.word	.LANCHOR22
 4878 0348 00000000 		.word	.LANCHOR23
 4879 034c 00000000 		.word	.LANCHOR24
 4880 0350 00000000 		.word	.LANCHOR25
 4881 0354 00000000 		.word	.LANCHOR13
 4882 0358 00080240 		.word	1073874944
 4883 035c 00000000 		.word	.LANCHOR14
 4884 0360 00000000 		.word	.LANCHOR44
 4885 0364 00000000 		.word	.LANCHOR43
 4886 0368 0AD7233C 		.word	1008981770
 4887 036c 00000000 		.word	.LANCHOR26
 4888 0370 00000000 		.word	.LANCHOR28
 4889 0374 00000000 		.word	.LANCHOR36
 4890 0378 00000000 		.word	.LANCHOR35
 4891 037c 00000000 		.word	.LANCHOR2
 4892 0380 00000000 		.word	.LANCHOR45
 4893 0384 00000000 		.word	.LANCHOR34
 4894 0388 00000000 		.word	mcpwm_vzero
 4895 038c C8760000 		.word	.LANCHOR11
 4896 0390 00000000 		.word	.LANCHOR46
 4897 0394 00000000 		.word	.LANCHOR4
 4898 0398 F8100000 		.word	.LANCHOR5
 4899 039c E8320000 		.word	.LANCHOR7
 4900 03a0 E0430000 		.word	.LANCHOR8
 4901 03a4 D8540000 		.word	.LANCHOR9
 4902 03a8 D0650000 		.word	.LANCHOR10
ARM GAS  C:\Users\CHRIST~1\AppData\Local\Temp\ccCFoZV9.s 			page 87


 4903 03ac A48BC642 		.word	1120308132
 4904 03b0 00000000 		.word	.LANCHOR31
 4905 03b4 F0210000 		.word	.LANCHOR6
 4906              	.LVL366:
 4907              	.L553:
 4908              		.cfi_restore_state
 4909              		.loc 1 1102 0
 4910 03b8 B0EEC99A 		vabs.f32	s18, s18
 4911              	.LVL367:
 4912 03bc B4EEE79A 		vcmpe.f32	s18, s15
 4913 03c0 F1EE10FA 		vmrs	APSR_nzcv, FPSCR
 4914 03c4 7FF7BBAE 		ble	.L554
 4915              	.LVL368:
 4916              	.LBB193:
 4917              	.LBB178:
 4918              		.loc 1 992 0
 4919 03c8 C54B     		ldr	r3, .L653
 4920 03ca 1B78     		ldrb	r3, [r3]	@ zero_extendqisi2
 4921 03cc 042B     		cmp	r3, #4
 4922 03ce 7FF4B3AE 		bne	.L556
 4923 03d2 7FE0     		b	.L640
 4924              	.LVL369:
 4925              	.L637:
 4926              	.LBE178:
 4927              	.LBE193:
 4928              		.loc 1 1059 0
 4929 03d4 D4ED0B7A 		vldr.32	s15, [r4, #44]
 4930              	.LBB194:
 4931              	.LBB195:
 4932              		.loc 1 992 0
 4933 03d8 C14B     		ldr	r3, .L653
 4934              	.LBE195:
 4935              	.LBE194:
 4936              		.loc 1 1059 0
 4937 03da B4EEE78A 		vcmpe.f32	s16, s15
 4938 03de F1EE10FA 		vmrs	APSR_nzcv, FPSCR
 4939              	.LBB199:
 4940              	.LBB196:
 4941              		.loc 1 992 0
 4942 03e2 1B78     		ldrb	r3, [r3]	@ zero_extendqisi2
 4943              	.LBE196:
 4944              	.LBE199:
 4945              		.loc 1 1059 0
 4946 03e4 4CBF     		ite	mi
 4947 03e6 0220     		movmi	r0, #2
 4948 03e8 0120     		movpl	r0, #1
 4949              	.LVL370:
 4950              	.LBB200:
 4951              	.LBB197:
 4952              		.loc 1 992 0
 4953 03ea 8342     		cmp	r3, r0
 4954 03ec 7FD0     		beq	.L643
 4955 03ee FFF7FEFF 		bl	mc_interface_fault_stop.part.3
 4956              	.LVL371:
 4957              	.LBE197:
 4958              	.LBE200:
 4959              		.loc 1 1066 0
ARM GAS  C:\Users\CHRIST~1\AppData\Local\Temp\ccCFoZV9.s 			page 88


 4960 03f2 FFF7FEFF 		bl	mc_interface_get_state
 4961              	.LVL372:
 4962 03f6 0228     		cmp	r0, #2
 4963 03f8 7FF434AE 		bne	.L549
 4964              	.L638:
 4965              		.loc 1 1067 0
 4966 03fc B94A     		ldr	r2, .L653+4
 4967 03fe 1368     		ldr	r3, [r2]
 4968 0400 0133     		adds	r3, r3, #1
 4969 0402 1360     		str	r3, [r2]
 4970 0404 31E6     		b	.L550
 4971              	.L623:
 4972              		.loc 1 1063 0
 4973 0406 B84B     		ldr	r3, .L653+8
 4974 0408 0022     		movs	r2, #0
 4975 040a 1A60     		str	r2, [r3]
 4976 040c 25E6     		b	.L546
 4977              	.LVL373:
 4978              	.L574:
 4979              	.LBB201:
 4980              		.loc 1 1200 0
 4981 040e DFF82883 		ldr	r8, .L653+88
 4982 0412 D8F80030 		ldr	r3, [r8]
 4983 0416 002B     		cmp	r3, #0
 4984 0418 71DB     		blt	.L604
 4985              		.loc 1 1201 0
 4986 041a B44A     		ldr	r2, .L653+12
 4987 041c D8F80030 		ldr	r3, [r8]
 4988 0420 1268     		ldr	r2, [r2]
 4989              	.LVL374:
 4990              		.loc 1 1202 0
 4991 0422 9B1A     		subs	r3, r3, r2
 4992              	.LVL375:
 4993 0424 00F14F81 		bmi	.L644
 4994              	.LVL376:
 4995              	.L585:
 4996              		.loc 1 1207 0
 4997 0428 B14D     		ldr	r5, .L653+16
 4998 042a 2A68     		ldr	r2, [r5]
 4999 042c 9342     		cmp	r3, r2
 5000 042e 7FD0     		beq	.L645
 5001              		.loc 1 1220 0
 5002 0430 AB4B     		ldr	r3, .L653
 5003              	.LVL377:
 5004 0432 1B78     		ldrb	r3, [r3]	@ zero_extendqisi2
 5005 0434 BBB9     		cbnz	r3, .L597
 5006 0436 E1E6     		b	.L589
 5007              	.LVL378:
 5008              	.L573:
 5009              	.LBE201:
 5010              	.LBB212:
 5011              		.loc 1 1170 0
 5012 0438 DFF8FC82 		ldr	r8, .L653+88
 5013 043c D8F80030 		ldr	r3, [r8]
 5014 0440 002B     		cmp	r3, #0
 5015 0442 59DB     		blt	.L603
 5016              		.loc 1 1171 0
ARM GAS  C:\Users\CHRIST~1\AppData\Local\Temp\ccCFoZV9.s 			page 89


 5017 0444 A94A     		ldr	r2, .L653+12
 5018 0446 D8F80030 		ldr	r3, [r8]
 5019 044a 1268     		ldr	r2, [r2]
 5020              	.LVL379:
 5021              		.loc 1 1172 0
 5022 044c 9B1A     		subs	r3, r3, r2
 5023              	.LVL380:
 5024 044e 00F13781 		bmi	.L646
 5025              	.LVL381:
 5026              	.L581:
 5027              		.loc 1 1177 0
 5028 0452 A74D     		ldr	r5, .L653+16
 5029 0454 2A68     		ldr	r2, [r5]
 5030 0456 9342     		cmp	r3, r2
 5031 0458 00F08180 		beq	.L647
 5032              		.loc 1 1190 0
 5033 045c FFF7FEFF 		bl	mc_interface_get_state
 5034              	.LVL382:
 5035 0460 0228     		cmp	r0, #2
 5036 0462 7FF4CBAE 		bne	.L589
 5037              	.L597:
 5038              	.LBE212:
 5039              	.LBB223:
 5040              		.loc 1 1220 0
 5041 0466 D8F80030 		ldr	r3, [r8]
 5042 046a 002B     		cmp	r3, #0
 5043 046c BFF6C6AE 		bge	.L589
 5044              		.loc 1 1197 0
 5045 0470 4FF00109 		mov	r9, #1
 5046              	.LVL383:
 5047              	.L600:
 5048              		.loc 1 1221 0
 5049 0474 2B68     		ldr	r3, [r5]
 5050 0476 C8F80030 		str	r3, [r8]
 5051              	.LBE223:
 5052              		.loc 1 1229 0
 5053 047a B9F1000F 		cmp	r9, #0
 5054 047e 7FF4BDAE 		bne	.L589
 5055 0482 43E7     		b	.L542
 5056              	.LVL384:
 5057              	.L572:
 5058              		.loc 1 1152 0
 5059 0484 FFF7FEFF 		bl	mc_interface_get_state
 5060              	.LVL385:
 5061 0488 0228     		cmp	r0, #2
 5062 048a 994D     		ldr	r5, .L653+16
 5063 048c 03D0     		beq	.L578
 5064              		.loc 1 1152 0 is_stmt 0 discriminator 1
 5065 048e 2B68     		ldr	r3, [r5]
 5066 0490 002B     		cmp	r3, #0
 5067 0492 40F31B81 		ble	.L648
 5068              	.L578:
 5069              	.LVL386:
 5070              		.loc 1 1156 0 is_stmt 1
 5071 0496 954B     		ldr	r3, .L653+12
 5072 0498 2A68     		ldr	r2, [r5]
 5073 049a 1B68     		ldr	r3, [r3]
ARM GAS  C:\Users\CHRIST~1\AppData\Local\Temp\ccCFoZV9.s 			page 90


 5074 049c 9A42     		cmp	r2, r3
 5075 049e 7FF4ADAE 		bne	.L589
 5076 04a2 4FF00109 		mov	r9, #1
 5077              	.LVL387:
 5078              	.L595:
 5079              		.loc 1 1157 0
 5080 04a6 3B78     		ldrb	r3, [r7]	@ zero_extendqisi2
 5081 04a8 924A     		ldr	r2, .L653+20
 5082 04aa DBB2     		uxtb	r3, r3
 5083              		.loc 1 1158 0
 5084 04ac 4FF00008 		mov	r8, #0
 5085              		.loc 1 1157 0
 5086 04b0 1370     		strb	r3, [r2]
 5087              	.LBB224:
 5088              	.LBB225:
 5089              	.LBB226:
 5090              	.LBB227:
 5091              	.LBB228:
 5092              		.file 3 "ChibiOS_3.0.2/os/ext/CMSIS/include/core_cmFunc.h"
 5093              		.loc 3 546 0
 5094 04b2 2023     		movs	r3, #32
 5095              	.LBE228:
 5096              	.LBE227:
 5097              	.LBE226:
 5098              	.LBE225:
 5099              	.LBE224:
 5100              		.loc 1 1158 0
 5101 04b4 87F80080 		strb	r8, [r7]
 5102              	.LVL388:
 5103              	.LBB233:
 5104              	.LBB232:
 5105              	.LBB231:
 5106              	.LBB230:
 5107              	.LBB229:
 5108              		.loc 3 546 0
 5109              		.syntax unified
 5110              	@ 546 "ChibiOS_3.0.2/os/ext/CMSIS/include/core_cmFunc.h" 1
 5111 04b8 83F31188 		MSR basepri, r3
 5112              	@ 0 "" 2
 5113              	.LVL389:
 5114              		.thumb
 5115              		.syntax unified
 5116              	.LBE229:
 5117              	.LBE230:
 5118              	.LBE231:
 5119              	.LBE232:
 5120              	.LBE233:
 5121              		.loc 1 1160 0
 5122 04bc 8E4B     		ldr	r3, .L653+24
 5123 04be 0121     		movs	r1, #1
 5124 04c0 1868     		ldr	r0, [r3]
 5125 04c2 FFF7FEFF 		bl	chEvtSignalI
 5126              	.LVL390:
 5127              	.LBB234:
 5128              	.LBB235:
 5129              	.LBB236:
 5130              	.LBB237:
ARM GAS  C:\Users\CHRIST~1\AppData\Local\Temp\ccCFoZV9.s 			page 91


 5131              	.LBB238:
 5132              		.loc 3 546 0
 5133              		.syntax unified
 5134              	@ 546 "ChibiOS_3.0.2/os/ext/CMSIS/include/core_cmFunc.h" 1
 5135 04c6 88F31188 		MSR basepri, r8
 5136              	@ 0 "" 2
 5137              	.LVL391:
 5138              		.thumb
 5139              		.syntax unified
 5140              	.LBE238:
 5141              	.LBE237:
 5142              	.LBE236:
 5143              	.LBE235:
 5144              	.LBE234:
 5145              		.loc 1 1229 0
 5146 04ca B9F1000F 		cmp	r9, #0
 5147 04ce 7FF495AE 		bne	.L589
 5148 04d2 1BE7     		b	.L542
 5149              	.LVL392:
 5150              	.L640:
 5151              	.LBB239:
 5152              	.LBB179:
 5153              		.loc 1 993 0
 5154 04d4 894B     		ldr	r3, .L653+28
 5155 04d6 D4F84821 		ldr	r2, [r4, #328]
 5156 04da 1A60     		str	r2, [r3]
 5157              	.LBE179:
 5158              	.LBE239:
 5159              		.loc 1 1108 0
 5160 04dc 884B     		ldr	r3, .L653+32
 5161 04de 1B69     		ldr	r3, [r3, #16]
 5162 04e0 DA04     		lsls	r2, r3, #19
 5163 04e2 3FF539AE 		bmi	.L560
 5164              	.LVL393:
 5165              	.L561:
 5166              	.LBB240:
 5167              	.LBB184:
 5168 04e6 0320     		movs	r0, #3
 5169 04e8 FFF7FEFF 		bl	mc_interface_fault_stop.part.3
 5170              	.LVL394:
 5171 04ec 34E6     		b	.L560
 5172              	.LVL395:
 5173              	.L643:
 5174              	.LBE184:
 5175              	.LBE240:
 5176              	.LBB241:
 5177              	.LBB198:
 5178              		.loc 1 993 0
 5179 04ee 834B     		ldr	r3, .L653+28
 5180 04f0 D4F84821 		ldr	r2, [r4, #328]
 5181 04f4 1A60     		str	r2, [r3]
 5182 04f6 B0E5     		b	.L546
 5183              	.LVL396:
 5184              	.L603:
 5185              	.LBE198:
 5186              	.LBE241:
 5187              	.LBB242:
ARM GAS  C:\Users\CHRIST~1\AppData\Local\Temp\ccCFoZV9.s 			page 92


 5188              		.loc 1 1169 0
 5189 04f8 4FF0FF33 		mov	r3, #-1
 5190 04fc A9E7     		b	.L581
 5191              	.LVL397:
 5192              	.L604:
 5193              	.LBE242:
 5194              	.LBB243:
 5195              		.loc 1 1199 0
 5196 04fe 4FF0FF33 		mov	r3, #-1
 5197 0502 91E7     		b	.L585
 5198              	.LVL398:
 5199              	.L639:
 5200              	.LBE243:
 5201              		.loc 1 1092 0
 5202 0504 FFF7FEFF 		bl	mcpwm_foc_get_abs_motor_current
 5203              	.LVL399:
 5204 0508 B0EE409A 		vmov.f32	s18, s0
 5205              	.LVL400:
 5206              		.loc 1 1093 0
 5207 050c FFF7FEFF 		bl	mcpwm_foc_get_abs_motor_current_filtered
 5208              	.LVL401:
 5209 0510 FFE5     		b	.L552
 5210              	.LVL402:
 5211              	.L624:
 5212              	.LBB244:
 5213              		.loc 1 1127 0
 5214 0512 7C48     		ldr	r0, .L653+36
 5215              		.loc 1 1128 0
 5216 0514 7C49     		ldr	r1, .L653+40
 5217              		.loc 1 1127 0
 5218 0516 90ED007A 		vldr.32	s14, [r0]
 5219 051a 37EE677A 		vsub.f32	s14, s14, s15
 5220 051e 80ED007A 		vstr.32	s14, [r0]
 5221              		.loc 1 1128 0
 5222 0522 91ED007A 		vldr.32	s14, [r1]
 5223 0526 A8EE677A 		vfms.f32	s14, s16, s15
 5224 052a 81ED007A 		vstr.32	s14, [r1]
 5225 052e 4DE6     		b	.L568
 5226              	.LVL403:
 5227              	.L645:
 5228              	.LBE244:
 5229              	.LBB245:
 5230              		.loc 1 1208 0
 5231 0530 3B78     		ldrb	r3, [r7]	@ zero_extendqisi2
 5232              	.LVL404:
 5233 0532 704A     		ldr	r2, .L653+20
 5234 0534 DBB2     		uxtb	r3, r3
 5235 0536 1370     		strb	r3, [r2]
 5236              	.LVL405:
 5237              		.loc 1 1211 0
 5238 0538 3B78     		ldrb	r3, [r7]	@ zero_extendqisi2
 5239 053a 042B     		cmp	r3, #4
 5240 053c 00F0B480 		beq	.L649
 5241              	.LVL406:
 5242              	.L587:
 5243              		.loc 1 1220 0
 5244 0540 674B     		ldr	r3, .L653
ARM GAS  C:\Users\CHRIST~1\AppData\Local\Temp\ccCFoZV9.s 			page 93


 5245 0542 1B78     		ldrb	r3, [r3]	@ zero_extendqisi2
 5246              		.loc 1 1217 0
 5247 0544 4FF00009 		mov	r9, #0
 5248 0548 87F80090 		strb	r9, [r7]
 5249              		.loc 1 1220 0
 5250 054c 002B     		cmp	r3, #0
 5251 054e 3FF4DDAE 		beq	.L542
 5252              	.L588:
 5253 0552 D8F80030 		ldr	r3, [r8]
 5254 0556 002B     		cmp	r3, #0
 5255 0558 BFF6D8AE 		bge	.L542
 5256 055c 8AE7     		b	.L600
 5257              	.LVL407:
 5258              	.L647:
 5259              	.LBE245:
 5260              	.LBB246:
 5261              		.loc 1 1178 0
 5262 055e 3B78     		ldrb	r3, [r7]	@ zero_extendqisi2
 5263              	.LVL408:
 5264 0560 644A     		ldr	r2, .L653+20
 5265 0562 DBB2     		uxtb	r3, r3
 5266 0564 1370     		strb	r3, [r2]
 5267              	.LVL409:
 5268              		.loc 1 1181 0
 5269 0566 3B78     		ldrb	r3, [r7]	@ zero_extendqisi2
 5270 0568 032B     		cmp	r3, #3
 5271 056a 00F09180 		beq	.L650
 5272              	.LVL410:
 5273              	.L583:
 5274              		.loc 1 1187 0
 5275 056e 4FF00009 		mov	r9, #0
 5276 0572 87F80090 		strb	r9, [r7]
 5277              		.loc 1 1190 0
 5278 0576 FFF7FEFF 		bl	mc_interface_get_state
 5279              	.LVL411:
 5280 057a 0228     		cmp	r0, #2
 5281 057c 7FF4C6AE 		bne	.L542
 5282 0580 E7E7     		b	.L588
 5283              	.LVL412:
 5284              	.L642:
 5285              	.LBE246:
 5286              	.LBB247:
 5287              	.LBB192:
 5288              		.loc 1 1253 0
 5289 0582 D5F80080 		ldr	r8, [r5]
 5290 0586 614E     		ldr	r6, .L653+44
 5291 0588 FFF7FEFF 		bl	mcpwm_get_comm_step
 5292              	.LVL413:
 5293 058c 604B     		ldr	r3, .L653+48
 5294 058e 0138     		subs	r0, r0, #1
 5295 0590 03EB8003 		add	r3, r3, r0, lsl #2
 5296 0594 D3ED007A 		vldr.32	s15, [r3]
 5297 0598 FDEEE77A 		vcvt.s32.f32	s15, s15
 5298 059c CDED007A 		vstr.32	s15, [sp]	@ int
 5299 05a0 BDF90030 		ldrsh	r3, [sp]
 5300 05a4 26F81830 		strh	r3, [r6, r8, lsl #1]	@ movhi
 5301              		.loc 1 1254 0
ARM GAS  C:\Users\CHRIST~1\AppData\Local\Temp\ccCFoZV9.s 			page 94


 5302 05a8 D5F80080 		ldr	r8, [r5]
 5303 05ac FFF7FEFF 		bl	mcpwm_get_comm_step
 5304              	.LVL414:
 5305 05b0 584B     		ldr	r3, .L653+52
 5306              		.loc 1 1256 0
 5307 05b2 594A     		ldr	r2, .L653+56
 5308              		.loc 1 1257 0
 5309 05b4 5949     		ldr	r1, .L653+60
 5310              		.loc 1 1254 0
 5311 05b6 0138     		subs	r0, r0, #1
 5312 05b8 03EB8003 		add	r3, r3, r0, lsl #2
 5313 05bc D3ED007A 		vldr.32	s15, [r3]
 5314              		.loc 1 1256 0
 5315 05c0 5748     		ldr	r0, .L653+64
 5316              		.loc 1 1254 0
 5317 05c2 FDEEE77A 		vcvt.s32.f32	s15, s15
 5318 05c6 06EB4806 		add	r6, r6, r8, lsl #1
 5319 05ca CDED007A 		vstr.32	s15, [sp]	@ int
 5320 05ce BDF90030 		ldrsh	r3, [sp]
 5321 05d2 A6F8A03F 		strh	r3, [r6, #4000]	@ movhi
 5322              		.loc 1 1256 0
 5323 05d6 2E68     		ldr	r6, [r5]
 5324 05d8 D2ED007A 		vldr.32	s15, [r2]
 5325              		.loc 1 1258 0
 5326 05dc 514B     		ldr	r3, .L653+68
 5327              		.loc 1 1256 0
 5328 05de FDEEE77A 		vcvt.s32.f32	s15, s15
 5329 05e2 00EB4600 		add	r0, r0, r6, lsl #1
 5330 05e6 CDED007A 		vstr.32	s15, [sp]	@ int
 5331 05ea BDF90060 		ldrsh	r6, [sp]
 5332 05ee A0F8486E 		strh	r6, [r0, #3656]	@ movhi
 5333              		.loc 1 1257 0
 5334 05f2 2868     		ldr	r0, [r5]
 5335 05f4 D2ED017A 		vldr.32	s15, [r2, #4]
 5336 05f8 FDEEE77A 		vcvt.s32.f32	s15, s15
 5337 05fc 01EB4001 		add	r1, r1, r0, lsl #1
 5338 0600 CDED007A 		vstr.32	s15, [sp]	@ int
 5339 0604 BDF90000 		ldrsh	r0, [sp]
 5340 0608 A1F8F00C 		strh	r0, [r1, #3312]	@ movhi
 5341              		.loc 1 1258 0
 5342 060c 2968     		ldr	r1, [r5]
 5343 060e D2ED027A 		vldr.32	s15, [r2, #8]
 5344 0612 FDEEE77A 		vcvt.s32.f32	s15, s15
 5345 0616 03EB4103 		add	r3, r3, r1, lsl #1
 5346 061a CDED007A 		vstr.32	s15, [sp]	@ int
 5347 061e BDF90020 		ldrsh	r2, [sp]
 5348 0622 A3F8982B 		strh	r2, [r3, #2968]	@ movhi
 5349 0626 37E6     		b	.L594
 5350              	.LVL415:
 5351              	.L641:
 5352              		.loc 1 1242 0
 5353 0628 B288     		ldrh	r2, [r6, #4]
 5354 062a 7188     		ldrh	r1, [r6, #2]
 5355 062c 3388     		ldrh	r3, [r6]
 5356 062e 3E4C     		ldr	r4, .L653+72
 5357              		.loc 1 1243 0
 5358 0630 D5F80080 		ldr	r8, [r5]
ARM GAS  C:\Users\CHRIST~1\AppData\Local\Temp\ccCFoZV9.s 			page 95


 5359 0634 3D4F     		ldr	r7, .L653+76
 5360              		.loc 1 1242 0
 5361 0636 89B2     		uxth	r1, r1
 5362 0638 11FA82F2 		uxtah	r2, r1, r2
 5363 063c 12FA83F3 		uxtah	r3, r2, r3
 5364 0640 84FB0324 		smull	r2, r4, r4, r3
 5365 0644 A4EBE374 		sub	r4, r4, r3, asr #31
 5366              		.loc 1 1243 0
 5367 0648 FFF7FEFF 		bl	mcpwm_foc_get_phase
 5368              	.LVL416:
 5369 064c 9FED387A 		vldr.32	s14, .L653+80
 5370 0650 DFED387A 		vldr.32	s15, .L653+84
 5371 0654 80EE070A 		vdiv.f32	s0, s0, s14
 5372 0658 B844     		add	r8, r8, r7
 5373              		.loc 1 1242 0
 5374 065a 24B2     		sxth	r4, r4
 5375              	.LVL417:
 5376              		.loc 1 1243 0
 5377 065c 20EE270A 		vmul.f32	s0, s0, s15
 5378 0660 FCEEC07A 		vcvt.u32.f32	s15, s0
 5379 0664 CDED007A 		vstr.32	s15, [sp]	@ int
 5380 0668 9DF90030 		ldrsb	r3, [sp]
 5381 066c 88F8083E 		strb	r3, [r8, #3592]
 5382 0670 E0E5     		b	.L592
 5383              	.LVL418:
 5384              	.L575:
 5385              	.LBE192:
 5386              	.LBE247:
 5387              		.loc 1 1142 0
 5388 0672 204A     		ldr	r2, .L653+20
 5389              		.loc 1 1141 0
 5390 0674 0024     		movs	r4, #0
 5391              		.loc 1 1142 0
 5392 0676 0121     		movs	r1, #1
 5393              		.loc 1 1141 0
 5394 0678 3C70     		strb	r4, [r7]
 5395              	.LBB248:
 5396              	.LBB249:
 5397              	.LBB250:
 5398              	.LBB251:
 5399              	.LBB252:
 5400              		.loc 3 546 0
 5401 067a 2023     		movs	r3, #32
 5402              	.LBE252:
 5403              	.LBE251:
 5404              	.LBE250:
 5405              	.LBE249:
 5406              	.LBE248:
 5407              		.loc 1 1142 0
 5408 067c 1170     		strb	r1, [r2]
 5409              	.LVL419:
 5410              	.LBB257:
 5411              	.LBB256:
 5412              	.LBB255:
 5413              	.LBB254:
 5414              	.LBB253:
 5415              		.loc 3 546 0
ARM GAS  C:\Users\CHRIST~1\AppData\Local\Temp\ccCFoZV9.s 			page 96


 5416              		.syntax unified
 5417              	@ 546 "ChibiOS_3.0.2/os/ext/CMSIS/include/core_cmFunc.h" 1
 5418 067e 83F31188 		MSR basepri, r3
 5419              	@ 0 "" 2
 5420              	.LVL420:
 5421              		.thumb
 5422              		.syntax unified
 5423              	.LBE253:
 5424              	.LBE254:
 5425              	.LBE255:
 5426              	.LBE256:
 5427              	.LBE257:
 5428              		.loc 1 1144 0
 5429 0682 1D4B     		ldr	r3, .L653+24
 5430 0684 1868     		ldr	r0, [r3]
 5431 0686 FFF7FEFF 		bl	chEvtSignalI
 5432              	.LVL421:
 5433              	.LBB258:
 5434              	.LBB259:
 5435              	.LBB260:
 5436              	.LBB261:
 5437              	.LBB262:
 5438              		.loc 3 546 0
 5439              		.syntax unified
 5440              	@ 546 "ChibiOS_3.0.2/os/ext/CMSIS/include/core_cmFunc.h" 1
 5441 068a 84F31188 		MSR basepri, r4
 5442              	@ 0 "" 2
 5443              	.LVL422:
 5444              		.thumb
 5445              		.syntax unified
 5446 068e 3DE6     		b	.L542
 5447              	.LVL423:
 5448              	.L650:
 5449              	.LBE262:
 5450              	.LBE261:
 5451              	.LBE260:
 5452              	.LBE259:
 5453              	.LBE258:
 5454              	.LBB263:
 5455              	.LBB213:
 5456              	.LBB214:
 5457              	.LBB215:
 5458              	.LBB216:
 5459              	.LBB217:
 5460 0690 2023     		movs	r3, #32
 5461              		.syntax unified
 5462              	@ 546 "ChibiOS_3.0.2/os/ext/CMSIS/include/core_cmFunc.h" 1
 5463 0692 83F31188 		MSR basepri, r3
 5464              	@ 0 "" 2
 5465              	.LVL424:
 5466              		.thumb
 5467              		.syntax unified
 5468              	.LBE217:
 5469              	.LBE216:
 5470              	.LBE215:
 5471              	.LBE214:
 5472              	.LBE213:
ARM GAS  C:\Users\CHRIST~1\AppData\Local\Temp\ccCFoZV9.s 			page 97


 5473              		.loc 1 1183 0
 5474 0696 184B     		ldr	r3, .L653+24
 5475 0698 0121     		movs	r1, #1
 5476 069a 1868     		ldr	r0, [r3]
 5477 069c FFF7FEFF 		bl	chEvtSignalI
 5478              	.LVL425:
 5479              	.LBB218:
 5480              	.LBB219:
 5481              	.LBB220:
 5482              	.LBB221:
 5483              	.LBB222:
 5484              		.loc 3 546 0
 5485 06a0 0023     		movs	r3, #0
 5486              		.syntax unified
 5487              	@ 546 "ChibiOS_3.0.2/os/ext/CMSIS/include/core_cmFunc.h" 1
 5488 06a2 83F31188 		MSR basepri, r3
 5489              	@ 0 "" 2
 5490              	.LVL426:
 5491              		.thumb
 5492              		.syntax unified
 5493 06a6 62E7     		b	.L583
 5494              	.LVL427:
 5495              	.L649:
 5496              	.LBE222:
 5497              	.LBE221:
 5498              	.LBE220:
 5499              	.LBE219:
 5500              	.LBE218:
 5501              	.LBE263:
 5502              	.LBB264:
 5503              	.LBB202:
 5504              	.LBB203:
 5505              	.LBB204:
 5506              	.LBB205:
 5507              	.LBB206:
 5508 06a8 2023     		movs	r3, #32
 5509              		.syntax unified
 5510              	@ 546 "ChibiOS_3.0.2/os/ext/CMSIS/include/core_cmFunc.h" 1
 5511 06aa 83F31188 		MSR basepri, r3
 5512              	@ 0 "" 2
 5513              	.LVL428:
 5514              		.thumb
 5515              		.syntax unified
 5516              	.LBE206:
 5517              	.LBE205:
 5518              	.LBE204:
 5519              	.LBE203:
 5520              	.LBE202:
 5521              		.loc 1 1213 0
 5522 06ae 124B     		ldr	r3, .L653+24
 5523 06b0 0121     		movs	r1, #1
 5524 06b2 1868     		ldr	r0, [r3]
 5525 06b4 FFF7FEFF 		bl	chEvtSignalI
 5526              	.LVL429:
 5527              	.LBB207:
 5528              	.LBB208:
 5529              	.LBB209:
ARM GAS  C:\Users\CHRIST~1\AppData\Local\Temp\ccCFoZV9.s 			page 98


 5530              	.LBB210:
 5531              	.LBB211:
 5532              		.loc 3 546 0
 5533 06b8 0023     		movs	r3, #0
 5534              		.syntax unified
 5535              	@ 546 "ChibiOS_3.0.2/os/ext/CMSIS/include/core_cmFunc.h" 1
 5536 06ba 83F31188 		MSR basepri, r3
 5537              	@ 0 "" 2
 5538              	.LVL430:
 5539              		.thumb
 5540              		.syntax unified
 5541 06be 3FE7     		b	.L587
 5542              	.LVL431:
 5543              	.L646:
 5544              	.LBE211:
 5545              	.LBE210:
 5546              	.LBE209:
 5547              	.LBE208:
 5548              	.LBE207:
 5549              	.LBE264:
 5550              	.LBB265:
 5551              		.loc 1 1173 0
 5552 06c0 03F5FA63 		add	r3, r3, #2000
 5553              	.LVL432:
 5554 06c4 C5E6     		b	.L581
 5555              	.LVL433:
 5556              	.L644:
 5557              	.LBE265:
 5558              	.LBB266:
 5559              		.loc 1 1203 0
 5560 06c6 03F5FA63 		add	r3, r3, #2000
 5561              	.LVL434:
 5562 06ca ADE6     		b	.L585
 5563              	.LVL435:
 5564              	.L648:
 5565              	.LBE266:
 5566              		.loc 1 1156 0
 5567 06cc 074B     		ldr	r3, .L653+12
 5568 06ce 2A68     		ldr	r2, [r5]
 5569 06d0 1B68     		ldr	r3, [r3]
 5570 06d2 9A42     		cmp	r2, r3
 5571 06d4 7FF41AAE 		bne	.L542
 5572              		.loc 1 1136 0
 5573 06d8 4FF00009 		mov	r9, #0
 5574 06dc E3E6     		b	.L595
 5575              	.L654:
 5576 06de 00BF     		.align	2
 5577              	.L653:
 5578 06e0 00000000 		.word	.LANCHOR13
 5579 06e4 00000000 		.word	.LANCHOR15
 5580 06e8 00000000 		.word	.LANCHOR42
 5581 06ec 00000000 		.word	.LANCHOR2
 5582 06f0 00000000 		.word	.LANCHOR35
 5583 06f4 00000000 		.word	.LANCHOR1
 5584 06f8 00000000 		.word	.LANCHOR0
 5585 06fc 00000000 		.word	.LANCHOR14
 5586 0700 00080240 		.word	1073874944
ARM GAS  C:\Users\CHRIST~1\AppData\Local\Temp\ccCFoZV9.s 			page 99


 5587 0704 00000000 		.word	.LANCHOR27
 5588 0708 00000000 		.word	.LANCHOR29
 5589 070c 00000000 		.word	.LANCHOR4
 5590 0710 00000000 		.word	mcpwm_detect_currents
 5591 0714 00000000 		.word	mcpwm_detect_currents_diff
 5592 0718 00000000 		.word	mcpwm_detect_voltages
 5593 071c F0210000 		.word	.LANCHOR6
 5594 0720 F8100000 		.word	.LANCHOR5
 5595 0724 E8320000 		.word	.LANCHOR7
 5596 0728 56555555 		.word	1431655766
 5597 072c C8760000 		.word	.LANCHOR11
 5598 0730 0000B443 		.word	1135869952
 5599 0734 00007A43 		.word	1132068864
 5600 0738 00000000 		.word	.LANCHOR3
 5601              		.cfi_endproc
 5602              	.LFE307:
 5603              		.size	mc_interface_mc_timer_isr, .-mc_interface_mc_timer_isr
 5604              		.section	.text.mc_interface_adc_inj_int_handler,"ax",%progbits
 5605              		.align	1
 5606              		.p2align 4,,15
 5607              		.global	mc_interface_adc_inj_int_handler
 5608              		.syntax unified
 5609              		.thumb
 5610              		.thumb_func
 5611              		.fpu fpv4-sp-d16
 5612              		.type	mc_interface_adc_inj_int_handler, %function
 5613              	mc_interface_adc_inj_int_handler:
 5614              	.LFB308:
 5615              		.loc 1 1280 0
 5616              		.cfi_startproc
 5617              		@ args = 0, pretend = 0, frame = 0
 5618              		@ frame_needed = 0, uses_anonymous_args = 0
 5619              		@ link register save eliminated.
 5620              		.loc 1 1281 0
 5621 0000 034B     		ldr	r3, .L659
 5622 0002 9B78     		ldrb	r3, [r3, #2]	@ zero_extendqisi2
 5623 0004 012B     		cmp	r3, #1
 5624 0006 00D9     		bls	.L658
 5625 0008 7047     		bx	lr
 5626              	.L658:
 5627              		.loc 1 1284 0
 5628 000a FFF7FEBF 		b	mcpwm_adc_inj_int_handler
 5629              	.LVL436:
 5630              	.L660:
 5631 000e 00BF     		.align	2
 5632              	.L659:
 5633 0010 00000000 		.word	.LANCHOR12
 5634              		.cfi_endproc
 5635              	.LFE308:
 5636              		.size	mc_interface_adc_inj_int_handler, .-mc_interface_adc_inj_int_handler
 5637              		.global	ADC_curr_norm_value
 5638              		.global	ADC_Value
 5639              		.section	.bss.ADC_Value,"aw",%nobits
 5640              		.align	2
 5641              		.set	.LANCHOR41,. + 0
 5642              		.type	ADC_Value, %object
 5643              		.size	ADC_Value, 24
ARM GAS  C:\Users\CHRIST~1\AppData\Local\Temp\ccCFoZV9.s 			page 100


 5644              	ADC_Value:
 5645 0000 00000000 		.space	24
 5645      00000000 
 5645      00000000 
 5645      00000000 
 5645      00000000 
 5646              		.section	.bss.ADC_curr_norm_value,"aw",%nobits
 5647              		.align	2
 5648              		.set	.LANCHOR46,. + 0
 5649              		.type	ADC_curr_norm_value, %object
 5650              		.size	ADC_curr_norm_value, 12
 5651              	ADC_curr_norm_value:
 5652 0000 00000000 		.space	12
 5652      00000000 
 5652      00000000 
 5653              		.section	.bss.a.11933,"aw",%nobits
 5654              		.align	2
 5655              		.set	.LANCHOR45,. + 0
 5656              		.type	a.11933, %object
 5657              		.size	a.11933, 4
 5658              	a.11933:
 5659 0000 00000000 		.space	4
 5660              		.section	.bss.curr_diff_samples.11921,"aw",%nobits
 5661              		.align	2
 5662              		.set	.LANCHOR44,. + 0
 5663              		.type	curr_diff_samples.11921, %object
 5664              		.size	curr_diff_samples.11921, 4
 5665              	curr_diff_samples.11921:
 5666 0000 00000000 		.space	4
 5667              		.section	.bss.curr_diff_sum.11920,"aw",%nobits
 5668              		.align	2
 5669              		.set	.LANCHOR43,. + 0
 5670              		.type	curr_diff_sum.11920, %object
 5671              		.size	curr_diff_sum.11920, 4
 5672              	curr_diff_sum.11920:
 5673 0000 00000000 		.space	4
 5674              		.section	.bss.m_amp_seconds,"aw",%nobits
 5675              		.align	2
 5676              		.set	.LANCHOR26,. + 0
 5677              		.type	m_amp_seconds, %object
 5678              		.size	m_amp_seconds, 4
 5679              	m_amp_seconds:
 5680 0000 00000000 		.space	4
 5681              		.section	.bss.m_amp_seconds_charged,"aw",%nobits
 5682              		.align	2
 5683              		.set	.LANCHOR27,. + 0
 5684              		.type	m_amp_seconds_charged, %object
 5685              		.size	m_amp_seconds_charged, 4
 5686              	m_amp_seconds_charged:
 5687 0000 00000000 		.space	4
 5688              		.section	.bss.m_conf,"aw",%nobits
 5689              		.align	2
 5690              		.set	.LANCHOR12,. + 0
 5691              		.type	m_conf, %object
 5692              		.size	m_conf, 368
 5693              	m_conf:
 5694 0000 00000000 		.space	368
ARM GAS  C:\Users\CHRIST~1\AppData\Local\Temp\ccCFoZV9.s 			page 101


 5694      00000000 
 5694      00000000 
 5694      00000000 
 5694      00000000 
 5695              		.section	.bss.m_cycles_running,"aw",%nobits
 5696              		.align	2
 5697              		.set	.LANCHOR15,. + 0
 5698              		.type	m_cycles_running, %object
 5699              		.size	m_cycles_running, 4
 5700              	m_cycles_running:
 5701 0000 00000000 		.space	4
 5702              		.section	.bss.m_fault_now,"aw",%nobits
 5703              		.set	.LANCHOR13,. + 0
 5704              		.type	m_fault_now, %object
 5705              		.size	m_fault_now, 1
 5706              	m_fault_now:
 5707 0000 00       		.space	1
 5708              		.section	.bss.m_ignore_iterations,"aw",%nobits
 5709              		.align	2
 5710              		.set	.LANCHOR14,. + 0
 5711              		.type	m_ignore_iterations, %object
 5712              		.size	m_ignore_iterations, 4
 5713              	m_ignore_iterations:
 5714 0000 00000000 		.space	4
 5715              		.section	.bss.m_input_current_iterations,"aw",%nobits
 5716              		.align	2
 5717              		.set	.LANCHOR21,. + 0
 5718              		.type	m_input_current_iterations, %object
 5719              		.size	m_input_current_iterations, 4
 5720              	m_input_current_iterations:
 5721 0000 00000000 		.space	4
 5722              		.section	.bss.m_input_current_sum,"aw",%nobits
 5723              		.align	2
 5724              		.set	.LANCHOR19,. + 0
 5725              		.type	m_input_current_sum, %object
 5726              		.size	m_input_current_sum, 4
 5727              	m_input_current_sum:
 5728 0000 00000000 		.space	4
 5729              		.section	.bss.m_last_adc_duration_sample,"aw",%nobits
 5730              		.align	2
 5731              		.set	.LANCHOR31,. + 0
 5732              		.type	m_last_adc_duration_sample, %object
 5733              		.size	m_last_adc_duration_sample, 4
 5734              	m_last_adc_duration_sample:
 5735 0000 00000000 		.space	4
 5736              		.section	.bss.m_lock_enabled,"aw",%nobits
 5737              		.set	.LANCHOR16,. + 0
 5738              		.type	m_lock_enabled, %object
 5739              		.size	m_lock_enabled, 1
 5740              	m_lock_enabled:
 5741 0000 00       		.space	1
 5742              		.section	.bss.m_lock_override_once,"aw",%nobits
 5743              		.set	.LANCHOR17,. + 0
 5744              		.type	m_lock_override_once, %object
 5745              		.size	m_lock_override_once, 1
 5746              	m_lock_override_once:
 5747 0000 00       		.space	1
ARM GAS  C:\Users\CHRIST~1\AppData\Local\Temp\ccCFoZV9.s 			page 102


 5748              		.section	.bss.m_motor_current_iterations,"aw",%nobits
 5749              		.align	2
 5750              		.set	.LANCHOR20,. + 0
 5751              		.type	m_motor_current_iterations, %object
 5752              		.size	m_motor_current_iterations, 4
 5753              	m_motor_current_iterations:
 5754 0000 00000000 		.space	4
 5755              		.section	.bss.m_motor_current_sum,"aw",%nobits
 5756              		.align	2
 5757              		.set	.LANCHOR18,. + 0
 5758              		.type	m_motor_current_sum, %object
 5759              		.size	m_motor_current_sum, 4
 5760              	m_motor_current_sum:
 5761 0000 00000000 		.space	4
 5762              		.section	.bss.m_motor_id_iterations,"aw",%nobits
 5763              		.align	2
 5764              		.set	.LANCHOR24,. + 0
 5765              		.type	m_motor_id_iterations, %object
 5766              		.size	m_motor_id_iterations, 4
 5767              	m_motor_id_iterations:
 5768 0000 00000000 		.space	4
 5769              		.section	.bss.m_motor_id_sum,"aw",%nobits
 5770              		.align	2
 5771              		.set	.LANCHOR22,. + 0
 5772              		.type	m_motor_id_sum, %object
 5773              		.size	m_motor_id_sum, 4
 5774              	m_motor_id_sum:
 5775 0000 00000000 		.space	4
 5776              		.section	.bss.m_motor_iq_iterations,"aw",%nobits
 5777              		.align	2
 5778              		.set	.LANCHOR25,. + 0
 5779              		.type	m_motor_iq_iterations, %object
 5780              		.size	m_motor_iq_iterations, 4
 5781              	m_motor_iq_iterations:
 5782 0000 00000000 		.space	4
 5783              		.section	.bss.m_motor_iq_sum,"aw",%nobits
 5784              		.align	2
 5785              		.set	.LANCHOR23,. + 0
 5786              		.type	m_motor_iq_sum, %object
 5787              		.size	m_motor_iq_sum, 4
 5788              	m_motor_iq_sum:
 5789 0000 00000000 		.space	4
 5790              		.section	.bss.m_position_set,"aw",%nobits
 5791              		.align	2
 5792              		.set	.LANCHOR30,. + 0
 5793              		.type	m_position_set, %object
 5794              		.size	m_position_set, 4
 5795              	m_position_set:
 5796 0000 00000000 		.space	4
 5797              		.section	.bss.m_sample_int,"aw",%nobits
 5798              		.align	2
 5799              		.set	.LANCHOR34,. + 0
 5800              		.type	m_sample_int, %object
 5801              		.size	m_sample_int, 4
 5802              	m_sample_int:
 5803 0000 00000000 		.space	4
 5804              		.section	.bss.m_sample_len,"aw",%nobits
ARM GAS  C:\Users\CHRIST~1\AppData\Local\Temp\ccCFoZV9.s 			page 103


 5805              		.align	2
 5806              		.set	.LANCHOR2,. + 0
 5807              		.type	m_sample_len, %object
 5808              		.size	m_sample_len, 4
 5809              	m_sample_len:
 5810 0000 00000000 		.space	4
 5811              		.section	.bss.m_sample_mode,"aw",%nobits
 5812              		.set	.LANCHOR36,. + 0
 5813              		.type	m_sample_mode, %object
 5814              		.size	m_sample_mode, 1
 5815              	m_sample_mode:
 5816 0000 00       		.space	1
 5817              		.section	.bss.m_sample_mode_last,"aw",%nobits
 5818              		.set	.LANCHOR1,. + 0
 5819              		.type	m_sample_mode_last, %object
 5820              		.size	m_sample_mode_last, 1
 5821              	m_sample_mode_last:
 5822 0000 00       		.space	1
 5823              		.section	.bss.m_sample_now,"aw",%nobits
 5824              		.align	2
 5825              		.set	.LANCHOR35,. + 0
 5826              		.type	m_sample_now, %object
 5827              		.size	m_sample_now, 4
 5828              	m_sample_now:
 5829 0000 00000000 		.space	4
 5830              		.section	.bss.m_sample_trigger,"aw",%nobits
 5831              		.align	2
 5832              		.set	.LANCHOR3,. + 0
 5833              		.type	m_sample_trigger, %object
 5834              		.size	m_sample_trigger, 4
 5835              	m_sample_trigger:
 5836 0000 00000000 		.space	4
 5837              		.section	.bss.m_temp_fet,"aw",%nobits
 5838              		.align	2
 5839              		.set	.LANCHOR32,. + 0
 5840              		.type	m_temp_fet, %object
 5841              		.size	m_temp_fet, 4
 5842              	m_temp_fet:
 5843 0000 00000000 		.space	4
 5844              		.section	.bss.m_temp_motor,"aw",%nobits
 5845              		.align	2
 5846              		.set	.LANCHOR33,. + 0
 5847              		.type	m_temp_motor, %object
 5848              		.size	m_temp_motor, 4
 5849              	m_temp_motor:
 5850 0000 00000000 		.space	4
 5851              		.section	.bss.m_watt_seconds,"aw",%nobits
 5852              		.align	2
 5853              		.set	.LANCHOR28,. + 0
 5854              		.type	m_watt_seconds, %object
 5855              		.size	m_watt_seconds, 4
 5856              	m_watt_seconds:
 5857 0000 00000000 		.space	4
 5858              		.section	.bss.m_watt_seconds_charged,"aw",%nobits
 5859              		.align	2
 5860              		.set	.LANCHOR29,. + 0
 5861              		.type	m_watt_seconds_charged, %object
ARM GAS  C:\Users\CHRIST~1\AppData\Local\Temp\ccCFoZV9.s 			page 104


 5862              		.size	m_watt_seconds_charged, 4
 5863              	m_watt_seconds_charged:
 5864 0000 00000000 		.space	4
 5865              		.section	.bss.pwn_done_func,"aw",%nobits
 5866              		.align	2
 5867              		.set	.LANCHOR39,. + 0
 5868              		.type	pwn_done_func, %object
 5869              		.size	pwn_done_func, 4
 5870              	pwn_done_func:
 5871 0000 00000000 		.space	4
 5872              		.section	.bss.sample_send_thread_wa,"aw",%nobits
 5873              		.align	3
 5874              		.set	.LANCHOR38,. + 0
 5875              		.type	sample_send_thread_wa, %object
 5876              		.size	sample_send_thread_wa, 1432
 5877              	sample_send_thread_wa:
 5878 0000 00000000 		.space	1432
 5878      00000000 
 5878      00000000 
 5878      00000000 
 5878      00000000 
 5879              		.section	.bss.sample_send_tp,"aw",%nobits
 5880              		.align	2
 5881              		.set	.LANCHOR0,. + 0
 5882              		.type	sample_send_tp, %object
 5883              		.size	sample_send_tp, 4
 5884              	sample_send_tp:
 5885 0000 00000000 		.space	4
 5886              		.section	.bss.timer_thread_wa,"aw",%nobits
 5887              		.align	3
 5888              		.set	.LANCHOR37,. + 0
 5889              		.type	timer_thread_wa, %object
 5890              		.size	timer_thread_wa, 1432
 5891              	timer_thread_wa:
 5892 0000 00000000 		.space	1432
 5892      00000000 
 5892      00000000 
 5892      00000000 
 5892      00000000 
 5893              		.section	.bss.wrong_voltage_iterations.11914,"aw",%nobits
 5894              		.align	2
 5895              		.set	.LANCHOR42,. + 0
 5896              		.type	wrong_voltage_iterations.11914, %object
 5897              		.size	wrong_voltage_iterations.11914, 4
 5898              	wrong_voltage_iterations.11914:
 5899 0000 00000000 		.space	4
 5900              		.section	.ram4,"aw",%progbits
 5901              		.align	2
 5902              		.set	.LANCHOR4,. + 0
 5903              		.set	.LANCHOR5,. + 4344
 5904              		.set	.LANCHOR6,. + 8688
 5905              		.set	.LANCHOR7,. + 13032
 5906              		.set	.LANCHOR8,. + 17376
 5907              		.set	.LANCHOR9,. + 21720
 5908              		.set	.LANCHOR10,. + 26064
 5909              		.set	.LANCHOR11,. + 30408
 5910              		.type	m_curr0_samples, %object
ARM GAS  C:\Users\CHRIST~1\AppData\Local\Temp\ccCFoZV9.s 			page 105


 5911              		.size	m_curr0_samples, 4000
 5912              	m_curr0_samples:
 5913 0000 00000000 		.space	4000
 5913      00000000 
 5913      00000000 
 5913      00000000 
 5913      00000000 
 5914              		.type	m_curr1_samples, %object
 5915              		.size	m_curr1_samples, 4000
 5916              	m_curr1_samples:
 5917 0fa0 00000000 		.space	4000
 5917      00000000 
 5917      00000000 
 5917      00000000 
 5917      00000000 
 5918              		.type	m_ph1_samples, %object
 5919              		.size	m_ph1_samples, 4000
 5920              	m_ph1_samples:
 5921 1f40 00000000 		.space	4000
 5921      00000000 
 5921      00000000 
 5921      00000000 
 5921      00000000 
 5922              		.type	m_ph2_samples, %object
 5923              		.size	m_ph2_samples, 4000
 5924              	m_ph2_samples:
 5925 2ee0 00000000 		.space	4000
 5925      00000000 
 5925      00000000 
 5925      00000000 
 5925      00000000 
 5926              		.type	m_ph3_samples, %object
 5927              		.size	m_ph3_samples, 4000
 5928              	m_ph3_samples:
 5929 3e80 00000000 		.space	4000
 5929      00000000 
 5929      00000000 
 5929      00000000 
 5929      00000000 
 5930              		.type	m_vzero_samples, %object
 5931              		.size	m_vzero_samples, 4000
 5932              	m_vzero_samples:
 5933 4e20 00000000 		.space	4000
 5933      00000000 
 5933      00000000 
 5933      00000000 
 5933      00000000 
 5934              		.type	m_curr_fir_samples, %object
 5935              		.size	m_curr_fir_samples, 4000
 5936              	m_curr_fir_samples:
 5937 5dc0 00000000 		.space	4000
 5937      00000000 
 5937      00000000 
 5937      00000000 
 5937      00000000 
 5938              		.type	m_f_sw_samples, %object
 5939              		.size	m_f_sw_samples, 4000
ARM GAS  C:\Users\CHRIST~1\AppData\Local\Temp\ccCFoZV9.s 			page 106


 5940              	m_f_sw_samples:
 5941 6d60 00000000 		.space	4000
 5941      00000000 
 5941      00000000 
 5941      00000000 
 5941      00000000 
 5942              		.type	m_status_samples, %object
 5943              		.size	m_status_samples, 2000
 5944              	m_status_samples:
 5945 7d00 00000000 		.space	2000
 5945      00000000 
 5945      00000000 
 5945      00000000 
 5945      00000000 
 5946              		.type	m_phase_samples, %object
 5947              		.size	m_phase_samples, 2000
 5948              	m_phase_samples:
 5949 84d0 00000000 		.space	2000
 5949      00000000 
 5949      00000000 
 5949      00000000 
 5949      00000000 
 5950              		.section	.rodata.CSWTCH.162,"a",%progbits
 5951              		.align	2
 5952              		.set	.LANCHOR40,. + 0
 5953              		.type	CSWTCH.162, %object
 5954              		.size	CSWTCH.162, 28
 5955              	CSWTCH.162:
 5956 0000 00000000 		.word	.LC3
 5957 0004 10000000 		.word	.LC4
 5958 0008 28000000 		.word	.LC5
 5959 000c 44000000 		.word	.LC6
 5960 0010 54000000 		.word	.LC7
 5961 0014 70000000 		.word	.LC8
 5962 0018 8C000000 		.word	.LC9
 5963              		.section	.rodata.mc_interface_fault_to_string.str1.4,"aMS",%progbits,1
 5964              		.align	2
 5965              	.LC1:
 5966 0000 4641554C 		.ascii	"FAULT_UNKNOWN\000"
 5966      545F554E 
 5966      4B4E4F57 
 5966      4E00
 5967              		.section	.rodata.sample_send_thread.str1.4,"aMS",%progbits,1
 5968              		.align	2
 5969              	.LC0:
 5970 0000 53616D70 		.ascii	"SampleSender\000"
 5970      6C655365 
 5970      6E646572 
 5970      00
 5971              		.section	.rodata.str1.4,"aMS",%progbits,1
 5972              		.align	2
 5973              	.LC3:
 5974 0000 4641554C 		.ascii	"FAULT_CODE_NONE\000"
 5974      545F434F 
 5974      44455F4E 
 5974      4F4E4500 
 5975              	.LC4:
ARM GAS  C:\Users\CHRIST~1\AppData\Local\Temp\ccCFoZV9.s 			page 107


 5976 0010 4641554C 		.ascii	"FAULT_CODE_OVER_VOLTAGE\000"
 5976      545F434F 
 5976      44455F4F 
 5976      5645525F 
 5976      564F4C54 
 5977              	.LC5:
 5978 0028 4641554C 		.ascii	"FAULT_CODE_UNDER_VOLTAGE\000"
 5978      545F434F 
 5978      44455F55 
 5978      4E444552 
 5978      5F564F4C 
 5979 0041 000000   		.space	3
 5980              	.LC6:
 5981 0044 4641554C 		.ascii	"FAULT_CODE_DRV\000"
 5981      545F434F 
 5981      44455F44 
 5981      525600
 5982 0053 00       		.space	1
 5983              	.LC7:
 5984 0054 4641554C 		.ascii	"FAULT_CODE_ABS_OVER_CURRENT\000"
 5984      545F434F 
 5984      44455F41 
 5984      42535F4F 
 5984      5645525F 
 5985              	.LC8:
 5986 0070 4641554C 		.ascii	"FAULT_CODE_OVER_TEMP_FET\000"
 5986      545F434F 
 5986      44455F4F 
 5986      5645525F 
 5986      54454D50 
 5987 0089 000000   		.space	3
 5988              	.LC9:
 5989 008c 4641554C 		.ascii	"FAULT_CODE_OVER_TEMP_MOTOR\000"
 5989      545F434F 
 5989      44455F4F 
 5989      5645525F 
 5989      54454D50 
 5990              		.section	.rodata.timer_thread.str1.4,"aMS",%progbits,1
 5991              		.align	2
 5992              	.LC2:
 5993 0000 6D636966 		.ascii	"mcif timer\000"
 5993      2074696D 
 5993      657200
 5994              		.text
 5995              	.Letext0:
 5996              		.file 4 "c:\\program files (x86)\\gnu tools arm embedded\\6 2017-q2-update\\arm-none-eabi\\include
 5997              		.file 5 "c:\\program files (x86)\\gnu tools arm embedded\\6 2017-q2-update\\arm-none-eabi\\include
 5998              		.file 6 "c:\\program files (x86)\\gnu tools arm embedded\\6 2017-q2-update\\lib\\gcc\\arm-none-eab
 5999              		.file 7 "ChibiOS_3.0.2/os/rt/ports/ARMCMx/compilers/GCC/chtypes.h"
 6000              		.file 8 "ChibiOS_3.0.2/os/rt/include/chsystypes.h"
 6001              		.file 9 "ChibiOS_3.0.2/os/rt/include/chschd.h"
 6002              		.file 10 "ChibiOS_3.0.2/os/ext/CMSIS/include/core_cm4.h"
 6003              		.file 11 "ChibiOS_3.0.2/os/ext/CMSIS/ST/system_stm32f4xx.h"
 6004              		.file 12 "ChibiOS_3.0.2/os/ext/CMSIS/ST/stm32f407xx.h"
 6005              		.file 13 "ChibiOS_3.0.2/os/rt/ports/ARMCMx/chcore.h"
 6006              		.file 14 "ChibiOS_3.0.2/os/rt/ports/ARMCMx/chcore_v7m.h"
 6007              		.file 15 "ChibiOS_3.0.2/os/rt/include/chtm.h"
ARM GAS  C:\Users\CHRIST~1\AppData\Local\Temp\ccCFoZV9.s 			page 108


 6008              		.file 16 "ChibiOS_3.0.2/os/rt/include/chsem.h"
 6009              		.file 17 "ChibiOS_3.0.2/os/rt/include/chmtx.h"
 6010              		.file 18 "ChibiOS_3.0.2/os/rt/include/chevents.h"
 6011              		.file 19 "ChibiOS_3.0.2/os/rt/include/chqueues.h"
 6012              		.file 20 "datatypes.h"
 6013              		.file 21 "conf_general.h"
 6014              		.file 22 "mc_interface.h"
 6015              		.file 23 "mcpwm.h"
 6016              		.file 24 "ChibiOS_3.0.2/os/hal/ports/STM32/STM32F4xx/stm32_dma.h"
 6017              		.file 25 "ChibiOS_3.0.2/os/hal/ports/STM32/LLD/GPIOv2/pal_lld.h"
 6018              		.file 26 "ChibiOS_3.0.2/os/hal/include/can.h"
 6019              		.file 27 "ChibiOS_3.0.2/os/hal/ports/STM32/LLD/can_lld.h"
 6020              		.file 28 "ChibiOS_3.0.2/os/hal/include/i2c.h"
 6021              		.file 29 "ChibiOS_3.0.2/os/hal/ports/STM32/LLD/I2Cv1/i2c_lld.h"
 6022              		.file 30 "ChibiOS_3.0.2/os/hal/include/icu.h"
 6023              		.file 31 "ChibiOS_3.0.2/os/hal/ports/STM32/LLD/TIMv1/icu_lld.h"
 6024              		.file 32 "ChibiOS_3.0.2/os/hal/ports/STM32/LLD/TIMv1/stm32_tim.h"
 6025              		.file 33 "ChibiOS_3.0.2/os/hal/include/spi.h"
 6026              		.file 34 "ChibiOS_3.0.2/os/hal/ports/STM32/LLD/SPIv1/spi_lld.h"
 6027              		.file 35 "ChibiOS_3.0.2/os/hal/include/uart.h"
 6028              		.file 36 "ChibiOS_3.0.2/os/hal/ports/STM32/LLD/USARTv1/uart_lld.h"
 6029              		.file 37 "ChibiOS_3.0.2/os/hal/include/usb.h"
 6030              		.file 38 "ChibiOS_3.0.2/os/hal/ports/STM32/LLD/OTGv1/usb_lld.h"
 6031              		.file 39 "ChibiOS_3.0.2/os/hal/ports/STM32/LLD/OTGv1/stm32_otg.h"
 6032              		.file 40 "c:\\program files (x86)\\gnu tools arm embedded\\6 2017-q2-update\\arm-none-eabi\\includ
 6033              		.file 41 "c:\\program files (x86)\\gnu tools arm embedded\\6 2017-q2-update\\arm-none-eabi\\includ
 6034              		.file 42 "c:\\program files (x86)\\gnu tools arm embedded\\6 2017-q2-update\\arm-none-eabi\\includ
 6035              		.file 43 "c:\\program files (x86)\\gnu tools arm embedded\\6 2017-q2-update\\arm-none-eabi\\includ
 6036              		.file 44 "ChibiOS_3.0.2/os/rt/include/chsys.h"
 6037              		.file 45 "buffer.h"
 6038              		.file 46 "commands.h"
 6039              		.file 47 "ChibiOS_3.0.2/os/rt/include/chthreads.h"
 6040              		.file 48 "mcpwm_foc.h"
 6041              		.file 49 "ledpwm.h"
 6042              		.file 50 "encoder.h"
 6043              		.file 51 "utils.h"
 6044              		.file 52 "terminal.h"