ARM GAS  C:\Users\CHRIST~1\AppData\Local\Temp\ccDhfOXE.s 			page 1


   1              		.cpu cortex-m4
   2              		.eabi_attribute 27, 1
   3              		.eabi_attribute 28, 1
   4              		.eabi_attribute 20, 1
   5              		.eabi_attribute 21, 1
   6              		.eabi_attribute 23, 3
   7              		.eabi_attribute 24, 1
   8              		.eabi_attribute 25, 1
   9              		.eabi_attribute 26, 1
  10              		.eabi_attribute 30, 2
  11              		.eabi_attribute 34, 1
  12              		.eabi_attribute 18, 4
  13              		.file	"mcpwm_foc.c"
  14              		.text
  15              	.Ltext0:
  16              		.cfi_sections	.debug_frame
  17              		.section	.text.correct_encoder,"ax",%progbits
  18              		.align	1
  19              		.p2align 4,,15
  20              		.syntax unified
  21              		.thumb
  22              		.thumb_func
  23              		.fpu fpv4-sp-d16
  24              		.type	correct_encoder, %function
  25              	correct_encoder:
  26              	.LFB316:
  27              		.file 1 "mcpwm_foc.c"
  28              		.loc 1 2568 0
  29              		.cfi_startproc
  30              		@ args = 0, pretend = 0, frame = 0
  31              		@ frame_needed = 0, uses_anonymous_args = 0
  32              		@ link register save eliminated.
  33              	.LVL0:
  34              		.loc 1 2569 0
  35 0000 DFED146A 		vldr.32	s13, .L12
  36              		.loc 1 2573 0
  37 0004 144B     		ldr	r3, .L12+4
  38              		.loc 1 2574 0
  39 0006 154A     		ldr	r2, .L12+8
  40              		.loc 1 2573 0
  41 0008 1B68     		ldr	r3, [r3]
  42 000a 9FED157A 		vldr.32	s14, .L12+12
  43 000e D3ED407A 		vldr.32	s15, [r3, #256]
  44              		.loc 1 2574 0
  45 0012 1178     		ldrb	r1, [r2]	@ zero_extendqisi2
  46              		.loc 1 2569 0
  47 0014 81EE261A 		vdiv.f32	s2, s2, s13
  48              	.LVL1:
  49              		.loc 1 2573 0
  50 0018 67EE877A 		vmul.f32	s15, s15, s14
  51              		.loc 1 2569 0
  52 001c B0EEC11A 		vabs.f32	s2, s2
  53              	.LVL2:
  54              		.loc 1 2575 0
  55 0020 93ED407A 		vldr.32	s14, [r3, #256]
  56              		.loc 1 2574 0
  57 0024 49B1     		cbz	r1, .L2
ARM GAS  C:\Users\CHRIST~1\AppData\Local\Temp\ccDhfOXE.s 			page 2


  58              		.loc 1 2575 0
  59 0026 77EE877A 		vadd.f32	s15, s15, s14
  60              	.LVL3:
  61 002a B4EEE71A 		vcmpe.f32	s2, s15
  62 002e F1EE10FA 		vmrs	APSR_nzcv, FPSCR
  63 0032 0CDC     		bgt	.L11
  64              	.L3:
  65              		.loc 1 2584 0
  66 0034 B0EE600A 		vmov.f32	s0, s1
  67              	.LVL4:
  68              	.L1:
  69              		.loc 1 2585 0
  70 0038 7047     		bx	lr
  71              	.LVL5:
  72              	.L2:
  73              		.loc 1 2579 0
  74 003a 77EE677A 		vsub.f32	s15, s14, s15
  75              	.LVL6:
  76 003e B4EEE71A 		vcmpe.f32	s2, s15
  77 0042 F1EE10FA 		vmrs	APSR_nzcv, FPSCR
  78 0046 F7D5     		bpl	.L1
  79              		.loc 1 2580 0
  80 0048 0123     		movs	r3, #1
  81 004a 1370     		strb	r3, [r2]
  82 004c F2E7     		b	.L3
  83              	.L11:
  84              		.loc 1 2576 0
  85 004e 0023     		movs	r3, #0
  86 0050 1370     		strb	r3, [r2]
  87 0052 7047     		bx	lr
  88              	.L13:
  89              		.align	2
  90              	.L12:
  91 0054 5077D63D 		.word	1037465424
  92 0058 00000000 		.word	.LANCHOR0
  93 005c 00000000 		.word	.LANCHOR1
  94 0060 CDCC4C3D 		.word	1028443341
  95              		.cfi_endproc
  96              	.LFE316:
  97              		.size	correct_encoder, .-correct_encoder
  98              		.section	.text.start_pwm_hw,"ax",%progbits
  99              		.align	1
 100              		.p2align 4,,15
 101              		.syntax unified
 102              		.thumb
 103              		.thumb_func
 104              		.fpu fpv4-sp-d16
 105              		.type	start_pwm_hw, %function
 106              	start_pwm_hw:
 107              	.LFB314:
 108              		.loc 1 2528 0
 109              		.cfi_startproc
 110              		@ args = 0, pretend = 0, frame = 0
 111              		@ frame_needed = 0, uses_anonymous_args = 0
 112 0000 10B5     		push	{r4, lr}
 113              		.cfi_def_cfa_offset 8
 114              		.cfi_offset 4, -8
ARM GAS  C:\Users\CHRIST~1\AppData\Local\Temp\ccDhfOXE.s 			page 3


 115              		.cfi_offset 14, -4
 116              		.loc 1 2529 0
 117 0002 194C     		ldr	r4, .L16
 118 0004 6022     		movs	r2, #96
 119 0006 2046     		mov	r0, r4
 120 0008 0021     		movs	r1, #0
 121 000a FFF7FEFF 		bl	TIM_SelectOCxM
 122              	.LVL7:
 123              		.loc 1 2530 0
 124 000e 2046     		mov	r0, r4
 125 0010 0122     		movs	r2, #1
 126 0012 0021     		movs	r1, #0
 127 0014 FFF7FEFF 		bl	TIM_CCxCmd
 128              	.LVL8:
 129              		.loc 1 2531 0
 130 0018 2046     		mov	r0, r4
 131 001a 0422     		movs	r2, #4
 132 001c 0021     		movs	r1, #0
 133 001e FFF7FEFF 		bl	TIM_CCxNCmd
 134              	.LVL9:
 135              		.loc 1 2533 0
 136 0022 2046     		mov	r0, r4
 137 0024 6022     		movs	r2, #96
 138 0026 0421     		movs	r1, #4
 139 0028 FFF7FEFF 		bl	TIM_SelectOCxM
 140              	.LVL10:
 141              		.loc 1 2534 0
 142 002c 2046     		mov	r0, r4
 143 002e 0122     		movs	r2, #1
 144 0030 0421     		movs	r1, #4
 145 0032 FFF7FEFF 		bl	TIM_CCxCmd
 146              	.LVL11:
 147              		.loc 1 2535 0
 148 0036 0422     		movs	r2, #4
 149 0038 1146     		mov	r1, r2
 150 003a 2046     		mov	r0, r4
 151 003c FFF7FEFF 		bl	TIM_CCxNCmd
 152              	.LVL12:
 153              		.loc 1 2537 0
 154 0040 2046     		mov	r0, r4
 155 0042 6022     		movs	r2, #96
 156 0044 0821     		movs	r1, #8
 157 0046 FFF7FEFF 		bl	TIM_SelectOCxM
 158              	.LVL13:
 159              		.loc 1 2538 0
 160 004a 2046     		mov	r0, r4
 161 004c 0122     		movs	r2, #1
 162 004e 0821     		movs	r1, #8
 163 0050 FFF7FEFF 		bl	TIM_CCxCmd
 164              	.LVL14:
 165              		.loc 1 2539 0
 166 0054 0422     		movs	r2, #4
 167 0056 2046     		mov	r0, r4
 168 0058 0821     		movs	r1, #8
 169 005a FFF7FEFF 		bl	TIM_CCxNCmd
 170              	.LVL15:
 171              		.loc 1 2547 0
ARM GAS  C:\Users\CHRIST~1\AppData\Local\Temp\ccDhfOXE.s 			page 4


 172 005e 034B     		ldr	r3, .L16+4
 173 0060 0122     		movs	r2, #1
 174 0062 1A70     		strb	r2, [r3]
 175 0064 10BD     		pop	{r4, pc}
 176              	.L17:
 177 0066 00BF     		.align	2
 178              	.L16:
 179 0068 00000140 		.word	1073807360
 180 006c 00000000 		.word	.LANCHOR2
 181              		.cfi_endproc
 182              	.LFE314:
 183              		.size	start_pwm_hw, .-start_pwm_hw
 184              		.section	.text.stop_pwm_hw,"ax",%progbits
 185              		.align	1
 186              		.p2align 4,,15
 187              		.syntax unified
 188              		.thumb
 189              		.thumb_func
 190              		.fpu fpv4-sp-d16
 191              		.type	stop_pwm_hw, %function
 192              	stop_pwm_hw:
 193              	.LFB313:
 194              		.loc 1 2507 0
 195              		.cfi_startproc
 196              		@ args = 0, pretend = 0, frame = 0
 197              		@ frame_needed = 0, uses_anonymous_args = 0
 198 0000 10B5     		push	{r4, lr}
 199              		.cfi_def_cfa_offset 8
 200              		.cfi_offset 4, -8
 201              		.cfi_offset 14, -4
 202              		.loc 1 2508 0
 203 0002 1B4C     		ldr	r4, .L20
 204 0004 4022     		movs	r2, #64
 205 0006 2046     		mov	r0, r4
 206 0008 0021     		movs	r1, #0
 207 000a FFF7FEFF 		bl	TIM_SelectOCxM
 208              	.LVL16:
 209              		.loc 1 2509 0
 210 000e 2046     		mov	r0, r4
 211 0010 0122     		movs	r2, #1
 212 0012 0021     		movs	r1, #0
 213 0014 FFF7FEFF 		bl	TIM_CCxCmd
 214              	.LVL17:
 215              		.loc 1 2510 0
 216 0018 0022     		movs	r2, #0
 217 001a 1146     		mov	r1, r2
 218 001c 2046     		mov	r0, r4
 219 001e FFF7FEFF 		bl	TIM_CCxNCmd
 220              	.LVL18:
 221              		.loc 1 2512 0
 222 0022 2046     		mov	r0, r4
 223 0024 4022     		movs	r2, #64
 224 0026 0421     		movs	r1, #4
 225 0028 FFF7FEFF 		bl	TIM_SelectOCxM
 226              	.LVL19:
 227              		.loc 1 2513 0
 228 002c 2046     		mov	r0, r4
ARM GAS  C:\Users\CHRIST~1\AppData\Local\Temp\ccDhfOXE.s 			page 5


 229 002e 0122     		movs	r2, #1
 230 0030 0421     		movs	r1, #4
 231 0032 FFF7FEFF 		bl	TIM_CCxCmd
 232              	.LVL20:
 233              		.loc 1 2514 0
 234 0036 2046     		mov	r0, r4
 235 0038 0022     		movs	r2, #0
 236 003a 0421     		movs	r1, #4
 237 003c FFF7FEFF 		bl	TIM_CCxNCmd
 238              	.LVL21:
 239              		.loc 1 2516 0
 240 0040 2046     		mov	r0, r4
 241 0042 4022     		movs	r2, #64
 242 0044 0821     		movs	r1, #8
 243 0046 FFF7FEFF 		bl	TIM_SelectOCxM
 244              	.LVL22:
 245              		.loc 1 2517 0
 246 004a 2046     		mov	r0, r4
 247 004c 0122     		movs	r2, #1
 248 004e 0821     		movs	r1, #8
 249 0050 FFF7FEFF 		bl	TIM_CCxCmd
 250              	.LVL23:
 251              		.loc 1 2518 0
 252 0054 0022     		movs	r2, #0
 253 0056 2046     		mov	r0, r4
 254 0058 0821     		movs	r1, #8
 255 005a FFF7FEFF 		bl	TIM_CCxNCmd
 256              	.LVL24:
 257              		.loc 1 2520 0
 258 005e 2046     		mov	r0, r4
 259 0060 2021     		movs	r1, #32
 260 0062 FFF7FEFF 		bl	TIM_GenerateEvent
 261              	.LVL25:
 262              		.loc 1 2525 0
 263 0066 034B     		ldr	r3, .L20+4
 264 0068 0022     		movs	r2, #0
 265 006a 1A70     		strb	r2, [r3]
 266 006c 10BD     		pop	{r4, pc}
 267              	.L21:
 268 006e 00BF     		.align	2
 269              	.L20:
 270 0070 00000140 		.word	1073807360
 271 0074 00000000 		.word	.LANCHOR2
 272              		.cfi_endproc
 273              	.LFE313:
 274              		.size	stop_pwm_hw, .-stop_pwm_hw
 275              		.section	.text.read_hall,"ax",%progbits
 276              		.align	1
 277              		.p2align 4,,15
 278              		.syntax unified
 279              		.thumb
 280              		.thumb_func
 281              		.fpu fpv4-sp-d16
 282              		.type	read_hall, %function
 283              	read_hall:
 284              	.LFB315:
 285              		.loc 1 2550 0
ARM GAS  C:\Users\CHRIST~1\AppData\Local\Temp\ccDhfOXE.s 			page 6


 286              		.cfi_startproc
 287              		@ args = 0, pretend = 0, frame = 0
 288              		@ frame_needed = 0, uses_anonymous_args = 0
 289 0000 2DE9F047 		push	{r4, r5, r6, r7, r8, r9, r10, lr}
 290              		.cfi_def_cfa_offset 32
 291              		.cfi_offset 4, -32
 292              		.cfi_offset 5, -28
 293              		.cfi_offset 6, -24
 294              		.cfi_offset 7, -20
 295              		.cfi_offset 8, -16
 296              		.cfi_offset 9, -12
 297              		.cfi_offset 10, -8
 298              		.cfi_offset 14, -4
 299              		.loc 1 2551 0
 300 0004 164B     		ldr	r3, .L24
 301              		.loc 1 2553 0
 302 0006 174C     		ldr	r4, .L24+4
 303              		.loc 1 2551 0
 304 0008 1869     		ldr	r0, [r3, #16]
 305              	.LVL26:
 306              		.loc 1 2552 0
 307 000a 1D69     		ldr	r5, [r3, #16]
 308              	.LVL27:
 309              		.loc 1 2553 0
 310 000c 2669     		ldr	r6, [r4, #16]
 311              	.LVL28:
 312              		.loc 1 2555 0
 313 000e 1969     		ldr	r1, [r3, #16]
 314              	.LVL29:
 315              		.loc 1 2556 0
 316 0010 D3F81090 		ldr	r9, [r3, #16]
 317              	.LVL30:
 318              		.loc 1 2557 0
 319 0014 2769     		ldr	r7, [r4, #16]
 320              	.LVL31:
 321              		.loc 1 2559 0
 322 0016 1A69     		ldr	r2, [r3, #16]
 323              	.LVL32:
 324              		.loc 1 2560 0
 325 0018 D3F810A0 		ldr	r10, [r3, #16]
 326              	.LVL33:
 327              		.loc 1 2561 0
 328 001c D4F81080 		ldr	r8, [r4, #16]
 329              	.LVL34:
 330              		.loc 1 2563 0
 331 0020 C1F38011 		ubfx	r1, r1, #6, #1
 332              	.LVL35:
 333 0024 C2F38012 		ubfx	r2, r2, #6, #1
 334              	.LVL36:
 335 0028 C0F38010 		ubfx	r0, r0, #6, #1
 336              	.LVL37:
 337 002c FFF7FEFF 		bl	utils_middle_of_3_int
 338              	.LVL38:
 339              		.loc 1 2564 0
 340 0030 CAF3C012 		ubfx	r2, r10, #7, #1
 341              		.loc 1 2563 0
 342 0034 0446     		mov	r4, r0
ARM GAS  C:\Users\CHRIST~1\AppData\Local\Temp\ccDhfOXE.s 			page 7


 343              		.loc 1 2564 0
 344 0036 C9F3C011 		ubfx	r1, r9, #7, #1
 345 003a C5F3C010 		ubfx	r0, r5, #7, #1
 346 003e FFF7FEFF 		bl	utils_middle_of_3_int
 347              	.LVL39:
 348              		.loc 1 2565 0
 349 0042 C8F3C022 		ubfx	r2, r8, #11, #1
 350              		.loc 1 2564 0
 351 0046 0546     		mov	r5, r0
 352              	.LVL40:
 353              		.loc 1 2565 0
 354 0048 C7F3C021 		ubfx	r1, r7, #11, #1
 355 004c C6F3C020 		ubfx	r0, r6, #11, #1
 356 0050 FFF7FEFF 		bl	utils_middle_of_3_int
 357              	.LVL41:
 358 0054 8000     		lsls	r0, r0, #2
 359              		.loc 1 2564 0
 360 0056 40EA4500 		orr	r0, r0, r5, lsl #1
 361              		.loc 1 2566 0
 362 005a 2043     		orrs	r0, r0, r4
 363 005c BDE8F087 		pop	{r4, r5, r6, r7, r8, r9, r10, pc}
 364              	.LVL42:
 365              	.L25:
 366              		.align	2
 367              	.L24:
 368 0060 00040240 		.word	1073873920
 369 0064 00080240 		.word	1073874944
 370              		.cfi_endproc
 371              	.LFE315:
 372              		.size	read_hall, .-read_hall
 373              		.section	.text.correct_hall,"ax",%progbits
 374              		.align	1
 375              		.p2align 4,,15
 376              		.syntax unified
 377              		.thumb
 378              		.thumb_func
 379              		.fpu fpv4-sp-d16
 380              		.type	correct_hall, %function
 381              	correct_hall:
 382              	.LFB317:
 383              		.loc 1 2587 0
 384              		.cfi_startproc
 385              		@ args = 0, pretend = 0, frame = 0
 386              		@ frame_needed = 0, uses_anonymous_args = 0
 387              	.LVL43:
 388 0000 F8B5     		push	{r3, r4, r5, r6, r7, lr}
 389              		.cfi_def_cfa_offset 24
 390              		.cfi_offset 3, -24
 391              		.cfi_offset 4, -20
 392              		.cfi_offset 5, -16
 393              		.cfi_offset 6, -12
 394              		.cfi_offset 7, -8
 395              		.cfi_offset 14, -4
 396              		.loc 1 2589 0
 397 0002 DFED6B6A 		vldr.32	s13, .L64
 398              		.loc 1 2593 0
 399 0006 6B4A     		ldr	r2, .L64+4
ARM GAS  C:\Users\CHRIST~1\AppData\Local\Temp\ccDhfOXE.s 			page 8


 400              		.loc 1 2594 0
 401 0008 6B4B     		ldr	r3, .L64+8
 402              		.loc 1 2593 0
 403 000a 1568     		ldr	r5, [r2]
 404 000c 9FED6B7A 		vldr.32	s14, .L64+12
 405 0010 D5ED407A 		vldr.32	s15, [r5, #256]
 406              		.loc 1 2594 0
 407 0014 1A78     		ldrb	r2, [r3]	@ zero_extendqisi2
 408              		.loc 1 2587 0
 409 0016 2DED028B 		vpush.64	{d8}
 410              		.cfi_def_cfa_offset 32
 411              		.cfi_offset 80, -32
 412              		.cfi_offset 81, -28
 413              		.loc 1 2589 0
 414 001a 80EEA68A 		vdiv.f32	s16, s1, s13
 415              		.loc 1 2593 0
 416 001e 67EE877A 		vmul.f32	s15, s15, s14
 417              		.loc 1 2589 0
 418 0022 B0EEC88A 		vabs.f32	s16, s16
 419              	.LVL44:
 420              		.loc 1 2595 0
 421 0026 95ED407A 		vldr.32	s14, [r5, #256]
 422              		.loc 1 2594 0
 423 002a 7AB1     		cbz	r2, .L27
 424              		.loc 1 2595 0
 425 002c 77EE877A 		vadd.f32	s15, s15, s14
 426              	.LVL45:
 427 0030 B4EEE78A 		vcmpe.f32	s16, s15
 428 0034 F1EE10FA 		vmrs	APSR_nzcv, FPSCR
 429 0038 11DD     		ble	.L28
 430              		.loc 1 2596 0
 431 003a 0022     		movs	r2, #0
 432 003c 1A70     		strb	r2, [r3]
 433              	.L30:
 434              		.loc 1 2667 0
 435 003e 604B     		ldr	r3, .L64+16
 436 0040 6FF00102 		mvn	r2, #1
 437 0044 1A60     		str	r2, [r3]
 438              	.LVL46:
 439              	.L26:
 440              		.loc 1 2671 0
 441 0046 BDEC028B 		vldm	sp!, {d8}
 442              		.cfi_remember_state
 443              		.cfi_restore 80
 444              		.cfi_restore 81
 445              		.cfi_def_cfa_offset 24
 446              	.LVL47:
 447 004a F8BD     		pop	{r3, r4, r5, r6, r7, pc}
 448              	.LVL48:
 449              	.L27:
 450              		.cfi_restore_state
 451              		.loc 1 2599 0
 452 004c 77EE677A 		vsub.f32	s15, s14, s15
 453              	.LVL49:
 454 0050 B4EEE78A 		vcmpe.f32	s16, s15
 455 0054 F1EE10FA 		vmrs	APSR_nzcv, FPSCR
 456 0058 F1D5     		bpl	.L30
ARM GAS  C:\Users\CHRIST~1\AppData\Local\Temp\ccDhfOXE.s 			page 9


 457              		.loc 1 2600 0
 458 005a 0122     		movs	r2, #1
 459 005c 1A70     		strb	r2, [r3]
 460              	.L28:
 461 005e 11EE107A 		vmov	r7, s2
 462 0062 10EE104A 		vmov	r4, s0
 463 0066 10EE906A 		vmov	r6, s1
 464              	.LBB12:
 465              		.loc 1 2605 0
 466 006a FFF7FEFF 		bl	read_hall
 467              	.LVL50:
 468 006e 2844     		add	r0, r0, r5
 469 0070 90F8F530 		ldrb	r3, [r0, #245]	@ zero_extendqisi2
 470 0074 DBB2     		uxtb	r3, r3
 471              	.LVL51:
 472              		.loc 1 2608 0
 473 0076 C82B     		cmp	r3, #200
 474 0078 50DC     		bgt	.L59
 475              	.LBB13:
 476              		.loc 1 2610 0
 477 007a 07EE903A 		vmov	s15, r3	@ int
 478 007e DFED515A 		vldr.32	s11, .L64+20
 479 0082 9FED516A 		vldr.32	s12, .L64+24
 480              		.loc 1 2612 0
 481 0086 4E49     		ldr	r1, .L64+16
 482              		.loc 1 2610 0
 483 0088 9FED507A 		vldr.32	s14, .L64+28
 484              		.loc 1 2612 0
 485 008c 0A68     		ldr	r2, [r1]
 486              		.loc 1 2610 0
 487 008e DFED506A 		vldr.32	s13, .L64+32
 488 0092 B8EEE75A 		vcvt.f32.s32	s10, s15
 489              		.loc 1 2612 0
 490 0096 002A     		cmp	r2, #0
 491              		.loc 1 2610 0
 492 0098 C5EE257A 		vdiv.f32	s15, s10, s11
 493 009c 67EE867A 		vmul.f32	s15, s15, s12
 494 00a0 67EE877A 		vmul.f32	s15, s15, s14
 495 00a4 C7EEA60A 		vdiv.f32	s1, s15, s13
 496              	.LVL52:
 497              		.loc 1 2612 0
 498 00a8 6EDB     		blt	.L60
 499              		.loc 1 2623 0
 500 00aa 9342     		cmp	r3, r2
 501 00ac 70D0     		beq	.L61
 502              	.LBB14:
 503              		.loc 1 2625 0
 504 00ae 981A     		subs	r0, r3, r2
 505 00b0 0028     		cmp	r0, #0
 506 00b2 B8BF     		it	lt
 507 00b4 4042     		rsblt	r0, r0, #0
 508              	.LVL53:
 509              		.loc 1 2626 0
 510 00b6 6328     		cmp	r0, #99
 511 00b8 40DD     		ble	.L62
 512              		.loc 1 2628 0
 513 00ba 6428     		cmp	r0, #100
ARM GAS  C:\Users\CHRIST~1\AppData\Local\Temp\ccDhfOXE.s 			page 10


 514 00bc 19D0     		beq	.L35
 515              	.LVL54:
 516              		.loc 1 2629 0
 517 00be 1A44     		add	r2, r2, r3
 518              	.LVL55:
 519 00c0 02EBD272 		add	r2, r2, r2, lsr #31
 520 00c4 5210     		asrs	r2, r2, #1
 521 00c6 434C     		ldr	r4, .L64+36
 522              	.LVL56:
 523 00c8 6432     		adds	r2, r2, #100
 524 00ca 84FB0204 		smull	r0, r4, r4, r2
 525 00ce D017     		asrs	r0, r2, #31
 526 00d0 C0EBA410 		rsb	r0, r0, r4, asr #6
 527 00d4 C824     		movs	r4, #200
 528 00d6 04FB1022 		mls	r2, r4, r0, r2
 529              	.LVL57:
 530              	.L57:
 531 00da 07EE902A 		vmov	s15, r2	@ int
 532 00de F8EEE77A 		vcvt.f32.s32	s15, s15
 533 00e2 87EEA55A 		vdiv.f32	s10, s15, s11
 534 00e6 25EE066A 		vmul.f32	s12, s10, s12
 535 00ea 26EE076A 		vmul.f32	s12, s12, s14
 536 00ee 86EE267A 		vdiv.f32	s14, s12, s13
 537              	.L35:
 538              		.loc 1 2632 0
 539 00f2 394C     		ldr	r4, .L64+40
 540 00f4 84ED007A 		vstr.32	s14, [r4]
 541              	.L33:
 542              	.LBE14:
 543              		.loc 1 2637 0
 544 00f8 DFED388A 		vldr.32	s17, .L64+44
 545              		.loc 1 2635 0
 546 00fc 0B60     		str	r3, [r1]
 547              		.loc 1 2637 0
 548 00fe B4EEE88A 		vcmpe.f32	s16, s17
 549 0102 F1EE10FA 		vmrs	APSR_nzcv, FPSCR
 550 0106 27D5     		bpl	.L53
 551              		.loc 1 2639 0
 552 0108 C4ED000A 		vstr.32	s1, [r4]
 553              	.LVL58:
 554              	.L38:
 555              		.loc 1 2652 0
 556 010c 3248     		ldr	r0, .L64+40
 557 010e FFF7FEFF 		bl	utils_norm_angle_rad
 558              	.LVL59:
 559              	.LBE13:
 560              	.LBE12:
 561              		.loc 1 2671 0
 562 0112 BDEC028B 		vldm	sp!, {d8}
 563              		.cfi_remember_state
 564              		.cfi_restore 80
 565              		.cfi_restore 81
 566              		.cfi_def_cfa_offset 24
 567              	.LVL60:
 568              	.LBB21:
 569              	.LBB18:
 570              		.loc 1 2653 0
ARM GAS  C:\Users\CHRIST~1\AppData\Local\Temp\ccDhfOXE.s 			page 11


 571 0116 94ED000A 		vldr.32	s0, [r4]
 572              	.LVL61:
 573              	.LBE18:
 574              	.LBE21:
 575              		.loc 1 2671 0
 576 011a F8BD     		pop	{r3, r4, r5, r6, r7, pc}
 577              	.LVL62:
 578              	.L59:
 579              		.cfi_restore_state
 580              	.LBB22:
 581              		.loc 1 2661 0
 582 011c 304B     		ldr	r3, .L64+48
 583              	.LVL63:
 584              		.loc 1 2656 0
 585 011e 284A     		ldr	r2, .L64+16
 586              		.loc 1 2661 0
 587 0120 1B78     		ldrb	r3, [r3]	@ zero_extendqisi2
 588              		.loc 1 2656 0
 589 0122 4FF0FF31 		mov	r1, #-1
 590 0126 1160     		str	r1, [r2]
 591              		.loc 1 2661 0
 592 0128 1BB1     		cbz	r3, .L46
 593              		.loc 1 2661 0 is_stmt 0 discriminator 1
 594 012a 2E4B     		ldr	r3, .L64+52
 595 012c 1B78     		ldrb	r3, [r3]	@ zero_extendqisi2
 596 012e 022B     		cmp	r3, #2
 597 0130 30D0     		beq	.L63
 598              	.L46:
 599              	.LBE22:
 600              		.loc 1 2671 0 is_stmt 1
 601 0132 BDEC028B 		vldm	sp!, {d8}
 602              		.cfi_remember_state
 603              		.cfi_restore 80
 604              		.cfi_restore 81
 605              		.cfi_def_cfa_offset 24
 606              	.LVL64:
 607              	.LBB23:
 608 0136 00EE104A 		vmov	s0, r4
 609              	.LBE23:
 610 013a F8BD     		pop	{r3, r4, r5, r6, r7, pc}
 611              	.LVL65:
 612              	.L62:
 613              		.cfi_restore_state
 614              	.LBB24:
 615              	.LBB19:
 616              	.LBB15:
 617              		.loc 1 2627 0
 618 013c 1A44     		add	r2, r2, r3
 619              	.LVL66:
 620 013e 02EBD272 		add	r2, r2, r2, lsr #31
 621 0142 2448     		ldr	r0, .L64+36
 622 0144 5410     		asrs	r4, r2, #1
 623              	.LVL67:
 624 0146 80FB0450 		smull	r5, r0, r0, r4
 625 014a D217     		asrs	r2, r2, #31
 626 014c C2EBA012 		rsb	r2, r2, r0, asr #6
 627 0150 C820     		movs	r0, #200
ARM GAS  C:\Users\CHRIST~1\AppData\Local\Temp\ccDhfOXE.s 			page 12


 628 0152 00FB1242 		mls	r2, r0, r2, r4
 629 0156 C0E7     		b	.L57
 630              	.LVL68:
 631              	.L53:
 632              	.LBE15:
 633              	.LBB16:
 634              		.loc 1 2642 0
 635 0158 94ED000A 		vldr.32	s0, [r4]
 636 015c FFF7FEFF 		bl	utils_angle_difference_rad
 637              	.LVL69:
 638              		.loc 1 2643 0
 639 0160 DFED217A 		vldr.32	s15, .L64+56
 640 0164 B0EEC07A 		vabs.f32	s14, s0
 641 0168 B4EEE77A 		vcmpe.f32	s14, s15
 642 016c F1EE10FA 		vmrs	APSR_nzcv, FPSCR
 643 0170 14D5     		bpl	.L54
 644              		.loc 1 2645 0
 645 0172 D4ED007A 		vldr.32	s15, [r4]
 646 0176 07EE106A 		vmov	s14, r6
 647 017a 06EE907A 		vmov	s13, r7
 648 017e E7EE267A 		vfma.f32	s15, s14, s13
 649 0182 C4ED007A 		vstr.32	s15, [r4]
 650 0186 C1E7     		b	.L38
 651              	.LVL70:
 652              	.L60:
 653              	.LBE16:
 654              		.loc 1 2621 0
 655 0188 134C     		ldr	r4, .L64+40
 656              	.LVL71:
 657 018a C4ED000A 		vstr.32	s1, [r4]
 658 018e B3E7     		b	.L33
 659              	.LVL72:
 660              	.L61:
 661 0190 114C     		ldr	r4, .L64+40
 662              	.LVL73:
 663 0192 B1E7     		b	.L33
 664              	.LVL74:
 665              	.L63:
 666              	.LBE19:
 667              		.loc 1 2662 0
 668 0194 154B     		ldr	r3, .L64+60
 669 0196 93ED000A 		vldr.32	s0, [r3]
 670              	.LVL75:
 671 019a 54E7     		b	.L26
 672              	.LVL76:
 673              	.L54:
 674              	.LBB20:
 675              	.LBB17:
 676              		.loc 1 2648 0
 677 019c 80EE287A 		vdiv.f32	s14, s0, s17
 678 01a0 D4ED007A 		vldr.32	s15, [r4]
 679 01a4 77EEC77A 		vsub.f32	s15, s15, s14
 680 01a8 C4ED007A 		vstr.32	s15, [r4]
 681 01ac AEE7     		b	.L38
 682              	.L65:
 683 01ae 00BF     		.align	2
 684              	.L64:
ARM GAS  C:\Users\CHRIST~1\AppData\Local\Temp\ccDhfOXE.s 			page 13


 685 01b0 5077D63D 		.word	1037465424
 686 01b4 00000000 		.word	.LANCHOR0
 687 01b8 00000000 		.word	.LANCHOR3
 688 01bc CDCCCC3D 		.word	1036831949
 689 01c0 00000000 		.word	.LANCHOR4
 690 01c4 00004843 		.word	1128792064
 691 01c8 0000B443 		.word	1135869952
 692 01cc DB0F4940 		.word	1078530011
 693 01d0 00003443 		.word	1127481344
 694 01d4 1F85EB51 		.word	1374389535
 695 01d8 00000000 		.word	.LANCHOR5
 696 01dc 0000C842 		.word	1120403456
 697 01e0 00000000 		.word	.LANCHOR6
 698 01e4 00000000 		.word	.LANCHOR7
 699 01e8 920A063F 		.word	1057360530
 700 01ec 00000000 		.word	.LANCHOR8
 701              	.LBE17:
 702              	.LBE20:
 703              	.LBE24:
 704              		.cfi_endproc
 705              	.LFE317:
 706              		.size	correct_hall, .-correct_hall
 707              		.section	.text.timer_thread,"ax",%progbits
 708              		.align	1
 709              		.p2align 4,,15
 710              		.syntax unified
 711              		.thumb
 712              		.thumb_func
 713              		.fpu fpv4-sp-d16
 714              		.type	timer_thread, %function
 715              	timer_thread:
 716              	.LFB305:
 717              		.loc 1 1951 0
 718              		.cfi_startproc
 719              		@ args = 0, pretend = 0, frame = 32
 720              		@ frame_needed = 0, uses_anonymous_args = 0
 721              	.LVL77:
 722              	.LBB33:
 723              	.LBB34:
 724              		.file 2 "ChibiOS_3.0.2/os/rt/include/chregistry.h"
 725              		.loc 2 135 0
 726 0000 C44B     		ldr	r3, .L140
 727 0002 C549     		ldr	r1, .L140+4
 728 0004 9A69     		ldr	r2, [r3, #24]
 729              	.LBE34:
 730              	.LBE33:
 731              	.LBB36:
 732              		.loc 1 1957 0
 733 0006 C54B     		ldr	r3, .L140+8
 734              	.LBE36:
 735              	.LBB49:
 736              	.LBB35:
 737              		.loc 2 135 0
 738 0008 9161     		str	r1, [r2, #24]
 739              	.LBE35:
 740              	.LBE49:
 741              	.LBB50:
ARM GAS  C:\Users\CHRIST~1\AppData\Local\Temp\ccDhfOXE.s 			page 14


 742              		.loc 1 1957 0
 743 000a 1B78     		ldrb	r3, [r3]	@ zero_extendqisi2
 744 000c 002B     		cmp	r3, #0
 745 000e 40F01F82 		bne	.L125
 746              	.LBE50:
 747              		.loc 1 1951 0
 748 0012 2DE9F04F 		push	{r4, r5, r6, r7, r8, r9, r10, fp, lr}
 749              		.cfi_def_cfa_offset 36
 750              		.cfi_offset 4, -36
 751              		.cfi_offset 5, -32
 752              		.cfi_offset 6, -28
 753              		.cfi_offset 7, -24
 754              		.cfi_offset 8, -20
 755              		.cfi_offset 9, -16
 756              		.cfi_offset 10, -12
 757              		.cfi_offset 11, -8
 758              		.cfi_offset 14, -4
 759 0016 2DED0A8B 		vpush.64	{d8, d9, d10, d11, d12}
 760              		.cfi_def_cfa_offset 76
 761              		.cfi_offset 80, -76
 762              		.cfi_offset 81, -72
 763              		.cfi_offset 82, -68
 764              		.cfi_offset 83, -64
 765              		.cfi_offset 84, -60
 766              		.cfi_offset 85, -56
 767              		.cfi_offset 86, -52
 768              		.cfi_offset 87, -48
 769              		.cfi_offset 88, -44
 770              		.cfi_offset 89, -40
 771 001a C14C     		ldr	r4, .L140+12
 772 001c C14D     		ldr	r5, .L140+16
 773 001e DFF83CA3 		ldr	r10, .L140+72
 774 0022 C14E     		ldr	r6, .L140+20
 775 0024 DFF84C93 		ldr	r9, .L140+96
 776 0028 DFF84CB3 		ldr	fp, .L140+100
 777 002c BF4F     		ldr	r7, .L140+24
 778 002e DFF81883 		ldr	r8, .L140+52
 779              	.LBB51:
 780              		.loc 1 1962 0
 781 0032 9FEDBF8A 		vldr.32	s16, .L140+28
 782              		.loc 1 1969 0
 783 0036 9FEDBFAA 		vldr.32	s20, .L140+32
 784 003a DFEDBF9A 		vldr.32	s19, .L140+36
 785              		.loc 1 1977 0
 786 003e 9FEDBF9A 		vldr.32	s18, .L140+40
 787              		.loc 1 1998 0
 788 0042 DFEDBFAA 		vldr.32	s21, .L140+44
 789              	.LBE51:
 790              		.loc 1 1951 0
 791 0046 89B0     		sub	sp, sp, #36
 792              		.cfi_def_cfa_offset 112
 793 0048 81E0     		b	.L67
 794              	.LVL78:
 795              	.L135:
 796              	.LBB52:
 797              		.loc 1 1992 0
 798 004a 99F80030 		ldrb	r3, [r9]	@ zero_extendqisi2
ARM GAS  C:\Users\CHRIST~1\AppData\Local\Temp\ccDhfOXE.s 			page 15


 799              		.loc 1 1986 0
 800 004e 77EE897A 		vadd.f32	s15, s15, s18
 801              		.loc 1 1992 0
 802 0052 032B     		cmp	r3, #3
 803              		.loc 1 1986 0
 804 0054 C6ED007A 		vstr.32	s15, [r6]
 805              		.loc 1 1992 0
 806 0058 00F0CA80 		beq	.L75
 807              	.L136:
 808              		.loc 1 1992 0 is_stmt 0 discriminator 1
 809 005c D4ED037A 		vldr.32	s15, [r4, #12]
 810 0060 F0EEE77A 		vabs.f32	s15, s15
 811 0064 F4EEC97A 		vcmpe.f32	s15, s18
 812 0068 F1EE10FA 		vmrs	APSR_nzcv, FPSCR
 813 006c 00F1C080 		bmi	.L75
 814 0070 96ED007A 		vldr.32	s14, [r6]
 815              	.L76:
 816              	.LVL79:
 817              		.loc 1 1998 0 is_stmt 1
 818 0074 2B68     		ldr	r3, [r5]
 819 0076 D3ED397A 		vldr.32	s15, [r3, #228]
 820 007a F4EEC77A 		vcmpe.f32	s15, s14
 821 007e F1EE10FA 		vmrs	APSR_nzcv, FPSCR
 822 0082 D7ED007A 		vldr.32	s15, [r7]
 823 0086 40F1BB80 		bpl	.L79
 824              		.loc 1 1998 0 is_stmt 0 discriminator 1
 825 008a F4EEEA7A 		vcmpe.f32	s15, s21
 826 008e F1EE10FA 		vmrs	APSR_nzcv, FPSCR
 827 0092 00F2B580 		bhi	.L79
 828              		.loc 1 1999 0 is_stmt 1
 829 0096 D3ED3A7A 		vldr.32	s15, [r3, #232]
 830              		.loc 1 2003 0
 831 009a F5EEC07A 		vcmpe.f32	s15, #0
 832 009e F1EE10FA 		vmrs	APSR_nzcv, FPSCR
 833              		.loc 1 1999 0
 834 00a2 C7ED007A 		vstr.32	s15, [r7]
 835              	.LVL80:
 836              		.loc 1 2003 0
 837 00a6 40F3B780 		ble	.L82
 838              		.loc 1 2004 0
 839 00aa D8ED007A 		vldr.32	s15, [r8]
 840 00ae 78EEA78A 		vadd.f32	s17, s17, s15
 841              	.LVL81:
 842 00b2 C8ED008A 		vstr.32	s17, [r8]
 843              		.loc 1 2009 0
 844 00b6 D4ED037A 		vldr.32	s15, [r4, #12]
 845 00ba F5EEC07A 		vcmpe.f32	s15, #0
 846 00be F1EE10FA 		vmrs	APSR_nzcv, FPSCR
 847 00c2 40F31581 		ble	.L132
 848              		.loc 1 2010 0
 849 00c6 98ED007A 		vldr.32	s14, [r8]
 850 00ca DFED9E7A 		vldr.32	s15, .L140+48
 851 00ce 77EE277A 		vadd.f32	s15, s14, s15
 852 00d2 C8ED007A 		vstr.32	s15, [r8]
 853              	.LVL82:
 854              	.L83:
 855              		.loc 1 2016 0
ARM GAS  C:\Users\CHRIST~1\AppData\Local\Temp\ccDhfOXE.s 			page 16


 856 00d6 9C48     		ldr	r0, .L140+52
 857 00d8 FFF7FEFF 		bl	utils_norm_angle_rad
 858              	.LVL83:
 859              		.loc 1 2017 0
 860 00dc 0123     		movs	r3, #1
 861              		.loc 1 2026 0
 862 00de 9B4A     		ldr	r2, .L140+56
 863              		.loc 1 2018 0
 864 00e0 D7ED007A 		vldr.32	s15, [r7]
 865              		.loc 1 2017 0
 866 00e4 8BF80030 		strb	r3, [fp]
 867              		.loc 1 2026 0
 868 00e8 1278     		ldrb	r2, [r2]	@ zero_extendqisi2
 869              		.loc 1 2019 0
 870 00ea 86ED008A 		vstr.32	s16, [r6]
 871              		.loc 1 2018 0
 872 00ee 77EEC97A 		vsub.f32	s15, s15, s18
 873              		.loc 1 2026 0
 874 00f2 022A     		cmp	r2, #2
 875              		.loc 1 2018 0
 876 00f4 C7ED007A 		vstr.32	s15, [r7]
 877 00f8 2B68     		ldr	r3, [r5]
 878              		.loc 1 2026 0
 879 00fa 00F09980 		beq	.L133
 880              	.L85:
 881              		.loc 1 2038 0
 882 00fe 94ED030A 		vldr.32	s0, [r4, #12]
 883              		.loc 1 2039 0
 884 0102 D3ED321A 		vldr.32	s3, [r3, #200]
 885 0106 D3ED337A 		vldr.32	s15, [r3, #204]
 886              		.loc 1 2038 0
 887 010a 93ED322A 		vldr.32	s4, [r3, #200]
 888 010e B0EEC00A 		vabs.f32	s0, s0
 889 0112 61EEA71A 		vmul.f32	s3, s3, s15
 890 0116 B7EE001A 		vmov.f32	s2, #1.0e+0
 891 011a F0EE480A 		vmov.f32	s1, s16
 892 011e FFF7FEFF 		bl	utils_map
 893              	.LVL84:
 894 0122 8B4B     		ldr	r3, .L140+60
 895 0124 83ED000A 		vstr.32	s0, [r3]
 896              	.LVL85:
 897              	.LBB37:
 898              	.LBB38:
 899              		.loc 1 2462 0
 900 0128 99F80030 		ldrb	r3, [r9]	@ zero_extendqisi2
 901 012c 012B     		cmp	r3, #1
 902 012e 00F0C080 		beq	.L88
 903              		.loc 1 2463 0
 904 0132 884B     		ldr	r3, .L140+64
 905 0134 83ED008A 		vstr.32	s16, [r3]
 906              		.loc 1 2464 0
 907 0138 874B     		ldr	r3, .L140+68
 908 013a 83ED008A 		vstr.32	s16, [r3]
 909              	.LVL86:
 910              	.L98:
 911              	.LBE38:
 912              	.LBE37:
ARM GAS  C:\Users\CHRIST~1\AppData\Local\Temp\ccDhfOXE.s 			page 17


 913              		.loc 1 2042 0
 914 013e 0A20     		movs	r0, #10
 915 0140 FFF7FEFF 		bl	chThdSleep
 916              	.LVL87:
 917              		.loc 1 1957 0
 918 0144 754B     		ldr	r3, .L140+8
 919 0146 1B78     		ldrb	r3, [r3]	@ zero_extendqisi2
 920 0148 002B     		cmp	r3, #0
 921 014a 40F0DA80 		bne	.L134
 922              	.LVL88:
 923              	.L67:
 924              		.loc 1 1963 0
 925 014e 2B68     		ldr	r3, [r5]
 926              		.loc 1 1962 0
 927 0150 94ED010A 		vldr.32	s0, [r4, #4]
 928 0154 DFED760A 		vldr.32	s1, .L140+28
 929 0158 93ED011A 		vldr.32	s2, [r3, #4]
 930 015c 93ED382A 		vldr.32	s4, [r3, #224]
 931 0160 F0EE481A 		vmov.f32	s3, s16
 932 0164 B0EEC00A 		vabs.f32	s0, s0
 933 0168 FFF7FEFF 		bl	utils_map
 934              	.LVL89:
 935              		.loc 1 1966 0
 936 016c 2B68     		ldr	r3, [r5]
 937              		.loc 1 1962 0
 938 016e 8DED020A 		vstr.32	s0, [sp, #8]
 939              		.loc 1 1966 0
 940 0172 D3ED387A 		vldr.32	s15, [r3, #224]
 941 0176 02A8     		add	r0, sp, #8
 942 0178 B0EE670A 		vmov.f32	s0, s15
 943 017c FFF7FEFF 		bl	utils_truncate_number_abs
 944              	.LVL90:
 945              		.loc 1 1969 0
 946 0180 DDED027A 		vldr.32	s15, [sp, #8]
 947              		.loc 1 1974 0
 948 0184 94ED037A 		vldr.32	s14, [r4, #12]
 949              		.loc 1 1982 0
 950 0188 7448     		ldr	r0, .L140+72
 951              		.loc 1 1969 0
 952 018a 77EEA77A 		vadd.f32	s15, s15, s15
 953              		.loc 1 1974 0
 954 018e B5EEC07A 		vcmpe.f32	s14, #0
 955              		.loc 1 1969 0
 956 0192 67EE8A7A 		vmul.f32	s15, s15, s20
 957              		.loc 1 1974 0
 958 0196 F1EE10FA 		vmrs	APSR_nzcv, FPSCR
 959              		.loc 1 1969 0
 960 019a 87EEA9BA 		vdiv.f32	s22, s15, s19
 961              	.LVL91:
 962              		.loc 1 1981 0
 963 019e DAED007A 		vldr.32	s15, [r10]
 964              		.loc 1 1975 0
 965 01a2 CCBF     		ite	gt
 966 01a4 6BEE098A 		vmulgt.f32	s17, s22, s18
 967              	.LVL92:
 968              		.loc 1 1977 0
 969 01a8 6BEE498A 		vnmulle.f32	s17, s22, s18
ARM GAS  C:\Users\CHRIST~1\AppData\Local\Temp\ccDhfOXE.s 			page 18


 970              	.LVL93:
 971              		.loc 1 1981 0
 972 01ac 78EEA77A 		vadd.f32	s15, s17, s15
 973 01b0 CAED007A 		vstr.32	s15, [r10]
 974              		.loc 1 1982 0
 975 01b4 FFF7FEFF 		bl	utils_norm_angle_rad
 976              	.LVL94:
 977              		.loc 1 1985 0
 978 01b8 694B     		ldr	r3, .L140+76
 979 01ba D3ED007A 		vldr.32	s15, [r3]
 980 01be F0EEE77A 		vabs.f32	s15, s15
 981 01c2 B4EEE7BA 		vcmpe.f32	s22, s15
 982 01c6 F1EE10FA 		vmrs	APSR_nzcv, FPSCR
 983              		.loc 1 1986 0
 984 01ca D6ED007A 		vldr.32	s15, [r6]
 985              		.loc 1 1985 0
 986 01ce 3FF73CAF 		bgt	.L135
 987              		.loc 1 1987 0
 988 01d2 F5EEC07A 		vcmpe.f32	s15, #0
 989 01d6 F1EE10FA 		vmrs	APSR_nzcv, FPSCR
 990              		.loc 1 1988 0
 991 01da C8BF     		it	gt
 992 01dc 77EEC97A 		vsubgt.f32	s15, s15, s18
 993              		.loc 1 1992 0
 994 01e0 99F80030 		ldrb	r3, [r9]	@ zero_extendqisi2
 995              		.loc 1 1988 0
 996 01e4 C8BF     		it	gt
 997 01e6 C6ED007A 		vstrgt.32	s15, [r6]
 998              		.loc 1 1992 0
 999 01ea 032B     		cmp	r3, #3
 1000 01ec 7FF436AF 		bne	.L136
 1001              	.L75:
 1002              		.loc 1 1994 0
 1003 01f0 0023     		movs	r3, #0
 1004 01f2 B0EE487A 		vmov.f32	s14, s16
 1005              		.loc 1 1993 0
 1006 01f6 86ED008A 		vstr.32	s16, [r6]
 1007              		.loc 1 1994 0
 1008 01fa 8BF80030 		strb	r3, [fp]
 1009 01fe 39E7     		b	.L76
 1010              	.LVL95:
 1011              	.L79:
 1012              		.loc 1 2003 0
 1013 0200 F5EEC07A 		vcmpe.f32	s15, #0
 1014 0204 F1EE10FA 		vmrs	APSR_nzcv, FPSCR
 1015 0208 06DD     		ble	.L82
 1016              		.loc 1 2004 0
 1017 020a D8ED007A 		vldr.32	s15, [r8]
 1018 020e 78EEA78A 		vadd.f32	s17, s17, s15
 1019              	.LVL96:
 1020 0212 C8ED008A 		vstr.32	s17, [r8]
 1021 0216 5EE7     		b	.L83
 1022              	.LVL97:
 1023              	.L82:
 1024              		.loc 1 2021 0
 1025 0218 524A     		ldr	r2, .L140+80
 1026 021a 1168     		ldr	r1, [r2]	@ float
ARM GAS  C:\Users\CHRIST~1\AppData\Local\Temp\ccDhfOXE.s 			page 19


 1027 021c C8F80010 		str	r1, [r8]	@ float
 1028              		.loc 1 2022 0
 1029 0220 0022     		movs	r2, #0
 1030 0222 8BF80020 		strb	r2, [fp]
 1031              		.loc 1 2026 0
 1032 0226 494A     		ldr	r2, .L140+56
 1033 0228 1278     		ldrb	r2, [r2]	@ zero_extendqisi2
 1034 022a 022A     		cmp	r2, #2
 1035 022c 7FF467AF 		bne	.L85
 1036              	.LVL98:
 1037              	.L133:
 1038              	.LBB45:
 1039              		.loc 1 2027 0
 1040 0230 E26C     		ldr	r2, [r4, #76]	@ float
 1041 0232 0392     		str	r2, [sp, #12]	@ float
 1042              		.loc 1 2028 0
 1043 0234 226D     		ldr	r2, [r4, #80]	@ float
 1044 0236 0492     		str	r2, [sp, #16]	@ float
 1045              		.loc 1 2029 0
 1046 0238 E26B     		ldr	r2, [r4, #60]	@ float
 1047 023a 0592     		str	r2, [sp, #20]	@ float
 1048              		.loc 1 2030 0
 1049 023c 226C     		ldr	r2, [r4, #64]	@ float
 1050 023e 0692     		str	r2, [sp, #24]	@ float
 1051              		.loc 1 2032 0
 1052 0240 DDED056A 		vldr.32	s13, [sp, #20]
 1053 0244 9DED057A 		vldr.32	s14, [sp, #20]
 1054 0248 DDED067A 		vldr.32	s15, [sp, #24]
 1055 024c 9DED060A 		vldr.32	s0, [sp, #24]
 1056 0250 27EE800A 		vmul.f32	s0, s15, s0
 1057 0254 A6EE870A 		vfma.f32	s0, s13, s14
 1058 0258 B5EE400A 		vcmp.f32	s0, #0
 1059 025c F1EE10FA 		vmrs	APSR_nzcv, FPSCR
 1060 0260 F1EEC08A 		vsqrt.f32	s17, s0
 1061 0264 00F1F880 		bmi	.L137
 1062              	.L86:
 1063 0268 3F4A     		ldr	r2, .L140+84
 1064 026a D2ED017A 		vldr.32	s15, [r2, #4]
 1065 026e 78EEA78A 		vadd.f32	s17, s17, s15
 1066 0272 C2ED018A 		vstr.32	s17, [r2, #4]
 1067              		.loc 1 2033 0
 1068 0276 DDED036A 		vldr.32	s13, [sp, #12]
 1069 027a 9DED037A 		vldr.32	s14, [sp, #12]
 1070 027e DDED047A 		vldr.32	s15, [sp, #16]
 1071 0282 9DED040A 		vldr.32	s0, [sp, #16]
 1072 0286 27EE800A 		vmul.f32	s0, s15, s0
 1073 028a A6EE870A 		vfma.f32	s0, s13, s14
 1074 028e B5EE400A 		vcmp.f32	s0, #0
 1075 0292 F1EE10FA 		vmrs	APSR_nzcv, FPSCR
 1076 0296 F1EEC08A 		vsqrt.f32	s17, s0
 1077 029a 00F1E280 		bmi	.L138
 1078              	.L87:
 1079 029e D2ED027A 		vldr.32	s15, [r2, #8]
 1080 02a2 78EEA78A 		vadd.f32	s17, s17, s15
 1081 02a6 C2ED028A 		vstr.32	s17, [r2, #8]
 1082              		.loc 1 2034 0
 1083 02aa 1168     		ldr	r1, [r2]
ARM GAS  C:\Users\CHRIST~1\AppData\Local\Temp\ccDhfOXE.s 			page 20


 1084 02ac 0131     		adds	r1, r1, #1
 1085 02ae 1160     		str	r1, [r2]
 1086 02b0 25E7     		b	.L85
 1087              	.LVL99:
 1088              	.L88:
 1089              	.LBE45:
 1090              	.LBB46:
 1091              	.LBB43:
 1092              	.LBB39:
 1093              	.LBB40:
 1094              		.loc 1 726 0
 1095 02b2 2B4B     		ldr	r3, .L140+76
 1096 02b4 DFED2D6A 		vldr.32	s13, .L140+88
 1097 02b8 93ED006A 		vldr.32	s12, [r3]
 1098              	.LBE40:
 1099              	.LBE39:
 1100              		.loc 1 2469 0
 1101 02bc 2C4B     		ldr	r3, .L140+92
 1102              		.loc 1 2472 0
 1103 02be 2A68     		ldr	r2, [r5]
 1104              		.loc 1 2469 0
 1105 02c0 D3ED008A 		vldr.32	s17, [r3]
 1106              		.loc 1 2472 0
 1107 02c4 D3ED007A 		vldr.32	s15, [r3]
 1108 02c8 92ED487A 		vldr.32	s14, [r2, #288]
 1109              	.LBB42:
 1110              	.LBB41:
 1111              		.loc 1 726 0
 1112 02cc 86EE26BA 		vdiv.f32	s22, s12, s13
 1113              	.LVL100:
 1114              	.LBE41:
 1115              	.LBE42:
 1116              		.loc 1 2472 0
 1117 02d0 F0EEE77A 		vabs.f32	s15, s15
 1118 02d4 F4EEC77A 		vcmpe.f32	s15, s14
 1119 02d8 F1EE10FA 		vmrs	APSR_nzcv, FPSCR
 1120              		.loc 1 2469 0
 1121 02dc 78EECB8A 		vsub.f32	s17, s17, s22
 1122              	.LVL101:
 1123              		.loc 1 2472 0
 1124 02e0 4CD5     		bpl	.L121
 1125              		.loc 1 2473 0
 1126 02e2 1C4B     		ldr	r3, .L140+64
 1127 02e4 83ED008A 		vstr.32	s16, [r3]
 1128              		.loc 1 2474 0
 1129 02e8 1B4B     		ldr	r3, .L140+68
 1130 02ea C3ED008A 		vstr.32	s17, [r3]
 1131 02ee 26E7     		b	.L98
 1132              	.LVL102:
 1133              	.L132:
 1134              	.LBE43:
 1135              	.LBE46:
 1136              		.loc 1 2012 0
 1137 02f0 98ED007A 		vldr.32	s14, [r8]
 1138 02f4 DFED137A 		vldr.32	s15, .L140+48
 1139 02f8 77EE677A 		vsub.f32	s15, s14, s15
 1140 02fc C8ED007A 		vstr.32	s15, [r8]
ARM GAS  C:\Users\CHRIST~1\AppData\Local\Temp\ccDhfOXE.s 			page 21


 1141 0300 E9E6     		b	.L83
 1142              	.LVL103:
 1143              	.L134:
 1144              		.loc 1 1958 0
 1145 0302 064A     		ldr	r2, .L140+8
 1146 0304 0023     		movs	r3, #0
 1147 0306 1370     		strb	r3, [r2]
 1148              	.LBE52:
 1149              		.loc 1 2045 0
 1150 0308 09B0     		add	sp, sp, #36
 1151              		.cfi_remember_state
 1152              		.cfi_def_cfa_offset 76
 1153              		@ sp needed
 1154 030a BDEC0A8B 		vldm	sp!, {d8-d12}
 1155              		.cfi_restore 88
 1156              		.cfi_restore 89
 1157              		.cfi_restore 86
 1158              		.cfi_restore 87
 1159              		.cfi_restore 84
 1160              		.cfi_restore 85
 1161              		.cfi_restore 82
 1162              		.cfi_restore 83
 1163              		.cfi_restore 80
 1164              		.cfi_restore 81
 1165              		.cfi_def_cfa_offset 36
 1166 030e BDE8F08F 		pop	{r4, r5, r6, r7, r8, r9, r10, fp, pc}
 1167              	.L141:
 1168 0312 00BF     		.align	2
 1169              	.L140:
 1170 0314 00000000 		.word	ch
 1171 0318 00000000 		.word	.LC0
 1172 031c 00000000 		.word	.LANCHOR9
 1173 0320 00000000 		.word	.LANCHOR10
 1174 0324 00000000 		.word	.LANCHOR0
 1175 0328 00000000 		.word	.LANCHOR13
 1176 032c 00000000 		.word	.LANCHOR15
 1177 0330 00000000 		.word	0
 1178 0334 DB0F4940 		.word	1078530011
 1179 0338 00007042 		.word	1114636288
 1180 033c 6F12833A 		.word	981668463
 1181 0340 17B7D138 		.word	953267991
 1182 0344 DB0FC93F 		.word	1070141403
 1183 0348 00000000 		.word	.LANCHOR8
 1184 034c 00000000 		.word	.LANCHOR7
 1185 0350 00000000 		.word	.LANCHOR18
 1186 0354 00000000 		.word	.LANCHOR19
 1187 0358 00000000 		.word	.LANCHOR20
 1188 035c 00000000 		.word	.LANCHOR11
 1189 0360 00000000 		.word	.LANCHOR12
 1190 0364 00000000 		.word	.LANCHOR16
 1191 0368 00000000 		.word	.LANCHOR17
 1192 036c 5077D63D 		.word	1037465424
 1193 0370 00000000 		.word	.LANCHOR21
 1194 0374 00000000 		.word	.LANCHOR14
 1195 0378 00000000 		.word	.LANCHOR6
 1196              	.LVL104:
 1197              	.L121:
ARM GAS  C:\Users\CHRIST~1\AppData\Local\Temp\ccDhfOXE.s 			page 22


 1198              		.cfi_restore_state
 1199              	.LBB53:
 1200              	.LBB47:
 1201              	.LBB44:
 1202              		.loc 1 2479 0
 1203 037c D2ED45CA 		vldr.32	s25, [r2, #276]
 1204              		.loc 1 2480 0
 1205 0380 92ED467A 		vldr.32	s14, [r2, #280]
 1206              		.loc 1 2481 0
 1207 0384 92ED476A 		vldr.32	s12, [r2, #284]
 1208              		.loc 1 2480 0
 1209 0388 394B     		ldr	r3, .L142
 1210 038a 9FED3ACA 		vldr.32	s24, .L142+4
 1211 038e D3ED006A 		vldr.32	s13, [r3]
 1212              		.loc 1 2481 0
 1213 0392 394B     		ldr	r3, .L142+8
 1214              		.loc 1 2484 0
 1215 0394 3648     		ldr	r0, .L142
 1216              		.loc 1 2481 0
 1217 0396 D3ED00BA 		vldr.32	s23, [r3]
 1218 039a C6EE097A 		vdiv.f32	s15, s12, s18
 1219              		.loc 1 2480 0
 1220 039e 0346     		mov	r3, r0
 1221 03a0 27EE097A 		vmul.f32	s14, s14, s18
 1222              		.loc 1 2481 0
 1223 03a4 78EEEBBA 		vsub.f32	s23, s17, s23
 1224              		.loc 1 2480 0
 1225 03a8 27EE287A 		vmul.f32	s14, s14, s17
 1226              		.loc 1 2484 0
 1227 03ac F7EE000A 		vmov.f32	s1, #1.0e+0
 1228              		.loc 1 2480 0
 1229 03b0 E7EE0C6A 		vfma.f32	s13, s14, s24
 1230              		.loc 1 2484 0
 1231 03b4 BFEE000A 		vmov.f32	s0, #-1.0e+0
 1232              		.loc 1 2480 0
 1233 03b8 C3ED006A 		vstr.32	s13, [r3]
 1234              		.loc 1 2481 0
 1235 03bc 6BEEA7BA 		vmul.f32	s23, s23, s15
 1236              		.loc 1 2484 0
 1237 03c0 FFF7FEFF 		bl	utils_truncate_number
 1238              	.LVL105:
 1239              		.loc 1 2490 0
 1240 03c4 2A4B     		ldr	r3, .L142
 1241              		.loc 1 2479 0
 1242 03c6 68EEACCA 		vmul.f32	s25, s17, s25
 1243              	.LVL106:
 1244              		.loc 1 2490 0
 1245 03ca D3ED007A 		vldr.32	s15, [r3]
 1246              		.loc 1 2487 0
 1247 03ce 2A4B     		ldr	r3, .L142+8
 1248              		.loc 1 2490 0
 1249 03d0 ECEE8C7A 		vfma.f32	s15, s25, s24
 1250 03d4 08A8     		add	r0, sp, #32
 1251              		.loc 1 2491 0
 1252 03d6 F7EE000A 		vmov.f32	s1, #1.0e+0
 1253              		.loc 1 2490 0
 1254 03da EBEE8C7A 		vfma.f32	s15, s23, s24
ARM GAS  C:\Users\CHRIST~1\AppData\Local\Temp\ccDhfOXE.s 			page 23


 1255              		.loc 1 2491 0
 1256 03de BFEE000A 		vmov.f32	s0, #-1.0e+0
 1257              		.loc 1 2490 0
 1258 03e2 60ED017A 		vstmdb.32	r0!, {s15}
 1259              		.loc 1 2487 0
 1260 03e6 C3ED008A 		vstr.32	s17, [r3]
 1261              		.loc 1 2491 0
 1262 03ea FFF7FEFF 		bl	utils_truncate_number
 1263              	.LVL107:
 1264              		.loc 1 2494 0
 1265 03ee 2B68     		ldr	r3, [r5]
 1266 03f0 93F82421 		ldrb	r2, [r3, #292]	@ zero_extendqisi2
 1267 03f4 FAB9     		cbnz	r2, .L139
 1268              		.loc 1 2495 0
 1269 03f6 B5EEC0BA 		vcmpe.f32	s22, #0
 1270 03fa F1EE10FA 		vmrs	APSR_nzcv, FPSCR
 1271 03fe DDED077A 		vldr.32	s15, [sp, #28]
 1272 0402 04DD     		ble	.L96
 1273 0404 F5EEC07A 		vcmpe.f32	s15, #0
 1274 0408 F1EE10FA 		vmrs	APSR_nzcv, FPSCR
 1275 040c 1DD4     		bmi	.L128
 1276              	.L96:
 1277              		.loc 1 2499 0
 1278 040e B5EEC0BA 		vcmpe.f32	s22, #0
 1279 0412 F1EE10FA 		vmrs	APSR_nzcv, FPSCR
 1280 0416 06D5     		bpl	.L93
 1281 0418 F5EE407A 		vcmp.f32	s15, #0
 1282 041c F1EE10FA 		vmrs	APSR_nzcv, FPSCR
 1283 0420 C8BF     		it	gt
 1284 0422 F0EE487A 		vmovgt.f32	s15, s16
 1285              	.L93:
 1286              		.loc 1 2504 0
 1287 0426 93ED187A 		vldr.32	s14, [r3, #96]
 1288 042a 144B     		ldr	r3, .L142+12
 1289 042c 67EE277A 		vmul.f32	s15, s14, s15
 1290 0430 C3ED007A 		vstr.32	s15, [r3]
 1291 0434 83E6     		b	.L98
 1292              	.L139:
 1293 0436 93ED187A 		vldr.32	s14, [r3, #96]
 1294 043a DDED077A 		vldr.32	s15, [sp, #28]
 1295 043e 0F4B     		ldr	r3, .L142+12
 1296 0440 67EE277A 		vmul.f32	s15, s14, s15
 1297 0444 C3ED007A 		vstr.32	s15, [r3]
 1298 0448 79E6     		b	.L98
 1299              	.L128:
 1300              		.loc 1 2495 0
 1301 044a DFED0D7A 		vldr.32	s15, .L142+16
 1302 044e EAE7     		b	.L93
 1303              	.LVL108:
 1304              	.L125:
 1305              		.cfi_def_cfa_offset 0
 1306              		.cfi_restore 4
 1307              		.cfi_restore 5
 1308              		.cfi_restore 6
 1309              		.cfi_restore 7
 1310              		.cfi_restore 8
 1311              		.cfi_restore 9
ARM GAS  C:\Users\CHRIST~1\AppData\Local\Temp\ccDhfOXE.s 			page 24


 1312              		.cfi_restore 10
 1313              		.cfi_restore 11
 1314              		.cfi_restore 14
 1315              		.cfi_restore 80
 1316              		.cfi_restore 81
 1317              		.cfi_restore 82
 1318              		.cfi_restore 83
 1319              		.cfi_restore 84
 1320              		.cfi_restore 85
 1321              		.cfi_restore 86
 1322              		.cfi_restore 87
 1323              		.cfi_restore 88
 1324              		.cfi_restore 89
 1325              	.LBE44:
 1326              	.LBE47:
 1327              		.loc 1 1958 0
 1328 0450 0C4A     		ldr	r2, .L142+20
 1329 0452 0023     		movs	r3, #0
 1330 0454 1370     		strb	r3, [r2]
 1331 0456 7047     		bx	lr
 1332              	.LVL109:
 1333              	.L137:
 1334              		.cfi_def_cfa_offset 112
 1335              		.cfi_offset 4, -36
 1336              		.cfi_offset 5, -32
 1337              		.cfi_offset 6, -28
 1338              		.cfi_offset 7, -24
 1339              		.cfi_offset 8, -20
 1340              		.cfi_offset 9, -16
 1341              		.cfi_offset 10, -12
 1342              		.cfi_offset 11, -8
 1343              		.cfi_offset 14, -4
 1344              		.cfi_offset 80, -76
 1345              		.cfi_offset 81, -72
 1346              		.cfi_offset 82, -68
 1347              		.cfi_offset 83, -64
 1348              		.cfi_offset 84, -60
 1349              		.cfi_offset 85, -56
 1350              		.cfi_offset 86, -52
 1351              		.cfi_offset 87, -48
 1352              		.cfi_offset 88, -44
 1353              		.cfi_offset 89, -40
 1354 0458 0093     		str	r3, [sp]
 1355              	.LBB48:
 1356              		.loc 1 2032 0
 1357 045a FFF7FEFF 		bl	sqrtf
 1358              	.LVL110:
 1359 045e 009B     		ldr	r3, [sp]
 1360 0460 02E7     		b	.L86
 1361              	.L138:
 1362 0462 0192     		str	r2, [sp, #4]
 1363 0464 0093     		str	r3, [sp]
 1364              		.loc 1 2033 0
 1365 0466 FFF7FEFF 		bl	sqrtf
 1366              	.LVL111:
 1367 046a 019A     		ldr	r2, [sp, #4]
 1368 046c 009B     		ldr	r3, [sp]
ARM GAS  C:\Users\CHRIST~1\AppData\Local\Temp\ccDhfOXE.s 			page 25


 1369 046e 16E7     		b	.L87
 1370              	.L143:
 1371              		.align	2
 1372              	.L142:
 1373 0470 00000000 		.word	.LANCHOR19
 1374 0474 CDCC4C3D 		.word	1028443341
 1375 0478 00000000 		.word	.LANCHOR20
 1376 047c 00000000 		.word	.LANCHOR22
 1377 0480 00000000 		.word	0
 1378 0484 00000000 		.word	.LANCHOR9
 1379              	.LBE48:
 1380              	.LBE53:
 1381              		.cfi_endproc
 1382              	.LFE305:
 1383              		.size	timer_thread, .-timer_thread
 1384              		.section	.text.mcpwm_foc_init,"ax",%progbits
 1385              		.align	1
 1386              		.p2align 4,,15
 1387              		.global	mcpwm_foc_init
 1388              		.syntax unified
 1389              		.thumb
 1390              		.thumb_func
 1391              		.fpu fpv4-sp-d16
 1392              		.type	mcpwm_foc_init, %function
 1393              	mcpwm_foc_init:
 1394              	.LFB256:
 1395              		.loc 1 190 0
 1396              		.cfi_startproc
 1397              		@ args = 0, pretend = 0, frame = 152
 1398              		@ frame_needed = 0, uses_anonymous_args = 0
 1399              	.LVL112:
 1400 0000 2DE9F04F 		push	{r4, r5, r6, r7, r8, r9, r10, fp, lr}
 1401              		.cfi_def_cfa_offset 36
 1402              		.cfi_offset 4, -36
 1403              		.cfi_offset 5, -32
 1404              		.cfi_offset 6, -28
 1405              		.cfi_offset 7, -24
 1406              		.cfi_offset 8, -20
 1407              		.cfi_offset 9, -16
 1408              		.cfi_offset 10, -12
 1409              		.cfi_offset 11, -8
 1410              		.cfi_offset 14, -4
 1411 0004 A9B0     		sub	sp, sp, #164
 1412              		.cfi_def_cfa_offset 200
 1413              		.loc 1 190 0
 1414 0006 8146     		mov	r9, r0
 1415              		.loc 1 191 0
 1416 0008 FFF7FEFF 		bl	utils_sys_lock_cnt
 1417              	.LVL113:
 1418              		.loc 1 199 0
 1419 000c D14B     		ldr	r3, .L152
 1420              		.loc 1 203 0
 1421 000e DFF8CCA3 		ldr	r10, .L152+136
 1422              		.loc 1 199 0
 1423 0012 C3F80090 		str	r9, [r3]
 1424              		.loc 1 193 0
 1425 0016 D04B     		ldr	r3, .L152+4
ARM GAS  C:\Users\CHRIST~1\AppData\Local\Temp\ccDhfOXE.s 			page 26


 1426              		.loc 1 204 0
 1427 0018 D048     		ldr	r0, .L152+8
 1428              		.loc 1 207 0
 1429 001a DFF8C4B3 		ldr	fp, .L152+140
 1430              		.loc 1 210 0
 1431 001e DFEDD07A 		vldr.32	s15, .L152+12
 1432              		.loc 1 209 0
 1433 0022 DFF8C083 		ldr	r8, .L152+144
 1434              		.loc 1 210 0
 1435 0026 DFF8C0C3 		ldr	ip, .L152+148
 1436              		.loc 1 211 0
 1437 002a DFF8C0E3 		ldr	lr, .L152+152
 1438              		.loc 1 212 0
 1439 002e CD4F     		ldr	r7, .L152+16
 1440              		.loc 1 213 0
 1441 0030 CD49     		ldr	r1, .L152+20
 1442              		.loc 1 214 0
 1443 0032 CE4A     		ldr	r2, .L152+24
 1444              		.loc 1 239 0
 1445 0034 CE4D     		ldr	r5, .L152+28
 1446              		.loc 1 240 0
 1447 0036 CF4E     		ldr	r6, .L152+32
 1448              		.loc 1 193 0
 1449 0038 0024     		movs	r4, #0
 1450 003a 1C70     		strb	r4, [r3]
 1451              		.loc 1 205 0
 1452 003c CE4B     		ldr	r3, .L152+36
 1453              		.loc 1 203 0
 1454 003e 8AF80040 		strb	r4, [r10]
 1455              		.loc 1 204 0
 1456 0042 4FF00709 		mov	r9, #7
 1457              	.LVL114:
 1458 0046 80F80090 		strb	r9, [r0]
 1459              		.loc 1 205 0
 1460 004a 1C60     		str	r4, [r3]
 1461              		.loc 1 206 0
 1462 004c CB4B     		ldr	r3, .L152+40
 1463              		.loc 1 221 0
 1464 004e CC48     		ldr	r0, .L152+44
 1465              		.loc 1 206 0
 1466 0050 1C60     		str	r4, [r3]
 1467              		.loc 1 208 0
 1468 0052 CC4B     		ldr	r3, .L152+48
 1469              		.loc 1 207 0
 1470 0054 CBF80040 		str	r4, [fp]
 1471              		.loc 1 208 0
 1472 0058 1C70     		strb	r4, [r3]
 1473              		.loc 1 215 0
 1474 005a CB4B     		ldr	r3, .L152+52
 1475              		.loc 1 209 0
 1476 005c 88F80040 		strb	r4, [r8]
 1477              		.loc 1 210 0
 1478 0060 CCED007A 		vstr.32	s15, [ip]
 1479              		.loc 1 211 0
 1480 0064 CEED007A 		vstr.32	s15, [lr]
 1481              		.loc 1 212 0
 1482 0068 C7ED007A 		vstr.32	s15, [r7]
ARM GAS  C:\Users\CHRIST~1\AppData\Local\Temp\ccDhfOXE.s 			page 27


 1483              		.loc 1 213 0
 1484 006c C1ED007A 		vstr.32	s15, [r1]
 1485              		.loc 1 214 0
 1486 0070 C2ED007A 		vstr.32	s15, [r2]
 1487              		.loc 1 215 0
 1488 0074 1C70     		strb	r4, [r3]
 1489              		.loc 1 216 0
 1490 0076 C54B     		ldr	r3, .L152+56
 1491              		.loc 1 218 0
 1492 0078 C54A     		ldr	r2, .L152+60
 1493              		.loc 1 216 0
 1494 007a C3ED007A 		vstr.32	s15, [r3]
 1495              		.loc 1 217 0
 1496 007e C54B     		ldr	r3, .L152+64
 1497              		.loc 1 228 0
 1498 0080 DFF86CC3 		ldr	ip, .L152+156
 1499              		.loc 1 217 0
 1500 0084 C3ED007A 		vstr.32	s15, [r3]
 1501              		.loc 1 218 0
 1502 0088 C2ED007A 		vstr.32	s15, [r2]
 1503              		.loc 1 219 0
 1504 008c C24A     		ldr	r2, .L152+68
 1505              		.loc 1 222 0
 1506 008e C34B     		ldr	r3, .L152+72
 1507              		.loc 1 219 0
 1508 0090 C2ED007A 		vstr.32	s15, [r2]
 1509              		.loc 1 220 0
 1510 0094 C24A     		ldr	r2, .L152+76
 1511              		.loc 1 229 0
 1512 0096 DFF85CE3 		ldr	lr, .L152+160
 1513              		.loc 1 220 0
 1514 009a 1470     		strb	r4, [r2]
 1515              		.loc 1 221 0
 1516 009c C0ED007A 		vstr.32	s15, [r0]
 1517              		.loc 1 222 0
 1518 00a0 C3ED007A 		vstr.32	s15, [r3]
 1519              		.loc 1 223 0
 1520 00a4 BF4B     		ldr	r3, .L152+80
 1521              		.loc 1 225 0
 1522 00a6 DFF850A3 		ldr	r10, .L152+164
 1523              		.loc 1 223 0
 1524 00aa C3ED007A 		vstr.32	s15, [r3]
 1525              		.loc 1 224 0
 1526 00ae BE4B     		ldr	r3, .L152+84
 1527              		.loc 1 226 0
 1528 00b0 DFF84893 		ldr	r9, .L152+168
 1529              		.loc 1 224 0
 1530 00b4 C3ED007A 		vstr.32	s15, [r3]
 1531              		.loc 1 227 0
 1532 00b8 DFF84483 		ldr	r8, .L152+172
 1533              		.loc 1 231 0
 1534 00bc BB4B     		ldr	r3, .L152+88
 1535              		.loc 1 230 0
 1536 00be BC4F     		ldr	r7, .L152+92
 1537              		.loc 1 232 0
 1538 00c0 BC48     		ldr	r0, .L152+96
 1539              		.loc 1 225 0
ARM GAS  C:\Users\CHRIST~1\AppData\Local\Temp\ccDhfOXE.s 			page 28


 1540 00c2 CAED007A 		vstr.32	s15, [r10]
 1541              		.loc 1 232 0
 1542 00c6 2146     		mov	r1, r4
 1543 00c8 6022     		movs	r2, #96
 1544              		.loc 1 226 0
 1545 00ca C9ED007A 		vstr.32	s15, [r9]
 1546              		.loc 1 227 0
 1547 00ce C8F80040 		str	r4, [r8]
 1548              		.loc 1 228 0
 1549 00d2 CCF80040 		str	r4, [ip]
 1550              		.loc 1 229 0
 1551 00d6 CEED007A 		vstr.32	s15, [lr]
 1552              		.loc 1 230 0
 1553 00da C7ED007A 		vstr.32	s15, [r7]
 1554              		.loc 1 231 0
 1555 00de C3ED007A 		vstr.32	s15, [r3]
 1556              		.loc 1 232 0
 1557 00e2 FFF7FEFF 		bl	memset
 1558              	.LVL115:
 1559              		.loc 1 233 0
 1560 00e6 B44B     		ldr	r3, .L152+100
 1561              		.loc 1 239 0
 1562 00e8 2846     		mov	r0, r5
 1563              		.loc 1 233 0
 1564 00ea 1C60     		str	r4, [r3]
 1565 00ec 5C60     		str	r4, [r3, #4]
 1566 00ee 9C60     		str	r4, [r3, #8]
 1567 00f0 DC60     		str	r4, [r3, #12]
 1568 00f2 1C61     		str	r4, [r3, #16]
 1569              		.loc 1 239 0
 1570 00f4 FFF7FEFF 		bl	TIM_DeInit
 1571              	.LVL116:
 1572              		.loc 1 240 0
 1573 00f8 3046     		mov	r0, r6
 1574 00fa FFF7FEFF 		bl	TIM_DeInit
 1575              	.LVL117:
 1576              		.loc 1 245 0
 1577 00fe 0121     		movs	r1, #1
 1578              		.loc 1 241 0
 1579 0100 6C62     		str	r4, [r5, #36]
 1580              		.loc 1 245 0
 1581 0102 0846     		mov	r0, r1
 1582              		.loc 1 242 0
 1583 0104 7462     		str	r4, [r6, #36]
 1584              		.loc 1 245 0
 1585 0106 FFF7FEFF 		bl	RCC_APB2PeriphClockCmd
 1586              	.LVL118:
 1587              		.loc 1 250 0
 1588 010a 924B     		ldr	r3, .L152
 1589 010c AB4A     		ldr	r2, .L152+104
 1590 010e 1B68     		ldr	r3, [r3]
 1591              		.loc 1 248 0
 1592 0110 ADF80C40 		strh	r4, [sp, #12]	@ movhi
 1593              		.loc 1 250 0
 1594 0114 D3ED2A7A 		vldr.32	s15, [r3, #168]
 1595              		.loc 1 251 0
 1596 0118 ADF81440 		strh	r4, [sp, #20]	@ movhi
ARM GAS  C:\Users\CHRIST~1\AppData\Local\Temp\ccDhfOXE.s 			page 29


 1597              		.loc 1 250 0
 1598 011c FDEEE77A 		vcvt.s32.f32	s15, s15
 1599              		.loc 1 254 0
 1600 0120 2846     		mov	r0, r5
 1601              		.loc 1 250 0
 1602 0122 17EE903A 		vmov	r3, s15	@ int
 1603              		.loc 1 254 0
 1604 0126 03A9     		add	r1, sp, #12
 1605              		.loc 1 249 0
 1606 0128 4FF02007 		mov	r7, #32	@ movhi
 1607              		.loc 1 250 0
 1608 012c 92FBF3F3 		sdiv	r3, r2, r3
 1609              		.loc 1 252 0
 1610 0130 8DF81640 		strb	r4, [sp, #22]
 1611              		.loc 1 249 0
 1612 0134 ADF80E70 		strh	r7, [sp, #14]	@ movhi
 1613              		.loc 1 250 0
 1614 0138 0493     		str	r3, [sp, #16]
 1615              		.loc 1 254 0
 1616 013a FFF7FEFF 		bl	TIM_TimeBaseInit
 1617              	.LVL119:
 1618              		.loc 1 260 0
 1619 013e EB6A     		ldr	r3, [r5, #44]
 1620              		.loc 1 261 0
 1621 0140 ADF84440 		strh	r4, [sp, #68]	@ movhi
 1622              		.loc 1 260 0
 1623 0144 5B08     		lsrs	r3, r3, #1
 1624              		.loc 1 258 0
 1625 0146 0127     		movs	r7, #1
 1626              		.loc 1 257 0
 1627 0148 4FF06002 		mov	r2, #96	@ movhi
 1628              		.loc 1 266 0
 1629 014c 2846     		mov	r0, r5
 1630              		.loc 1 259 0
 1631 014e 4FF00409 		mov	r9, #4
 1632              		.loc 1 263 0
 1633 0152 4FF4807A 		mov	r10, #256
 1634              		.loc 1 266 0
 1635 0156 0EA9     		add	r1, sp, #56
 1636              		.loc 1 260 0
 1637 0158 1093     		str	r3, [sp, #64]
 1638              		.loc 1 264 0
 1639 015a 4FF40073 		mov	r3, #512	@ movhi
 1640              		.loc 1 257 0
 1641 015e ADF83820 		strh	r2, [sp, #56]	@ movhi
 1642              		.loc 1 264 0
 1643 0162 ADF84A30 		strh	r3, [sp, #74]	@ movhi
 1644              		.loc 1 262 0
 1645 0166 ADF84640 		strh	r4, [sp, #70]	@ movhi
 1646              		.loc 1 258 0
 1647 016a ADF83A70 		strh	r7, [sp, #58]	@ movhi
 1648              		.loc 1 259 0
 1649 016e ADF83C90 		strh	r9, [sp, #60]	@ movhi
 1650              		.loc 1 263 0
 1651 0172 ADF848A0 		strh	r10, [sp, #72]	@ movhi
 1652              		.loc 1 266 0
 1653 0176 FFF7FEFF 		bl	TIM_OC1Init
ARM GAS  C:\Users\CHRIST~1\AppData\Local\Temp\ccDhfOXE.s 			page 30


 1654              	.LVL120:
 1655              		.loc 1 267 0
 1656 017a 2846     		mov	r0, r5
 1657 017c 0EA9     		add	r1, sp, #56
 1658 017e FFF7FEFF 		bl	TIM_OC2Init
 1659              	.LVL121:
 1660              		.loc 1 268 0
 1661 0182 2846     		mov	r0, r5
 1662 0184 0EA9     		add	r1, sp, #56
 1663 0186 FFF7FEFF 		bl	TIM_OC3Init
 1664              	.LVL122:
 1665              		.loc 1 269 0
 1666 018a 2846     		mov	r0, r5
 1667 018c 0EA9     		add	r1, sp, #56
 1668 018e FFF7FEFF 		bl	TIM_OC4Init
 1669              	.LVL123:
 1670              		.loc 1 271 0
 1671 0192 2846     		mov	r0, r5
 1672 0194 0821     		movs	r1, #8
 1673 0196 FFF7FEFF 		bl	TIM_OC1PreloadConfig
 1674              	.LVL124:
 1675              		.loc 1 272 0
 1676 019a 2846     		mov	r0, r5
 1677 019c 0821     		movs	r1, #8
 1678 019e FFF7FEFF 		bl	TIM_OC2PreloadConfig
 1679              	.LVL125:
 1680              		.loc 1 273 0
 1681 01a2 2846     		mov	r0, r5
 1682 01a4 0821     		movs	r1, #8
 1683 01a6 FFF7FEFF 		bl	TIM_OC3PreloadConfig
 1684              	.LVL126:
 1685              		.loc 1 274 0
 1686 01aa 2846     		mov	r0, r5
 1687 01ac 0821     		movs	r1, #8
 1688 01ae FFF7FEFF 		bl	TIM_OC4PreloadConfig
 1689              	.LVL127:
 1690              		.loc 1 280 0
 1691 01b2 3C23     		movs	r3, #60
 1692              		.loc 1 277 0
 1693 01b4 4FF40062 		mov	r2, #2048	@ movhi
 1694              		.loc 1 285 0
 1695 01b8 2846     		mov	r0, r5
 1696              		.loc 1 278 0
 1697 01ba 4FF48068 		mov	r8, #1024
 1698              		.loc 1 285 0
 1699 01be 06A9     		add	r1, sp, #24
 1700              		.loc 1 280 0
 1701 01c0 ADF81E30 		strh	r3, [sp, #30]	@ movhi
 1702              		.loc 1 282 0
 1703 01c4 4FF40053 		mov	r3, #8192	@ movhi
 1704              		.loc 1 277 0
 1705 01c8 ADF81820 		strh	r2, [sp, #24]	@ movhi
 1706              		.loc 1 282 0
 1707 01cc ADF82230 		strh	r3, [sp, #34]	@ movhi
 1708              		.loc 1 279 0
 1709 01d0 ADF81C40 		strh	r4, [sp, #28]	@ movhi
 1710              		.loc 1 281 0
ARM GAS  C:\Users\CHRIST~1\AppData\Local\Temp\ccDhfOXE.s 			page 31


 1711 01d4 ADF82040 		strh	r4, [sp, #32]	@ movhi
 1712              		.loc 1 283 0
 1713 01d8 ADF82440 		strh	r4, [sp, #36]	@ movhi
 1714              		.loc 1 278 0
 1715 01dc ADF81A80 		strh	r8, [sp, #26]	@ movhi
 1716              		.loc 1 285 0
 1717 01e0 FFF7FEFF 		bl	TIM_BDTRConfig
 1718              	.LVL128:
 1719              		.loc 1 286 0
 1720 01e4 2846     		mov	r0, r5
 1721 01e6 3946     		mov	r1, r7
 1722 01e8 FFF7FEFF 		bl	TIM_CCPreloadControl
 1723              	.LVL129:
 1724              		.loc 1 287 0
 1725 01ec 2846     		mov	r0, r5
 1726 01ee 3946     		mov	r1, r7
 1727 01f0 FFF7FEFF 		bl	TIM_ARRPreloadConfig
 1728              	.LVL130:
 1729              		.loc 1 297 0
 1730 01f4 3946     		mov	r1, r7
 1731 01f6 7248     		ldr	r0, .L152+108
 1732 01f8 FFF7FEFF 		bl	RCC_AHB1PeriphClockCmd
 1733              	.LVL131:
 1734              		.loc 1 298 0
 1735 01fc 3946     		mov	r1, r7
 1736 01fe 4FF4E060 		mov	r0, #1792
 1737 0202 FFF7FEFF 		bl	RCC_APB2PeriphClockCmd
 1738              	.LVL132:
 1739              		.loc 1 300 0
 1740 0206 2346     		mov	r3, r4
 1741 0208 6E4A     		ldr	r2, .L152+112
 1742 020a 6F48     		ldr	r0, .L152+116
 1743 020c 0321     		movs	r1, #3
 1744 020e FFF7FEFF 		bl	dmaStreamAllocate
 1745              	.LVL133:
 1746              		.loc 1 313 0
 1747 0212 4FF40063 		mov	r3, #2048
 1748 0216 2093     		str	r3, [sp, #128]
 1749              		.loc 1 314 0
 1750 0218 4FF40053 		mov	r3, #8192
 1751              		.loc 1 307 0
 1752 021c DFF8E4C1 		ldr	ip, .L152+176
 1753              		.loc 1 308 0
 1754 0220 DFF8E4E1 		ldr	lr, .L152+180
 1755              		.loc 1 321 0
 1756 0224 6948     		ldr	r0, .L152+120
 1757              		.loc 1 314 0
 1758 0226 2193     		str	r3, [sp, #132]
 1759              		.loc 1 310 0
 1760 0228 0C22     		movs	r2, #12
 1761              		.loc 1 316 0
 1762 022a 4FF40033 		mov	r3, #131072
 1763              		.loc 1 321 0
 1764 022e 19A9     		add	r1, sp, #100
 1765              		.loc 1 307 0
 1766 0230 CDF86CC0 		str	ip, [sp, #108]
 1767              		.loc 1 308 0
ARM GAS  C:\Users\CHRIST~1\AppData\Local\Temp\ccDhfOXE.s 			page 32


 1768 0234 CDF868E0 		str	lr, [sp, #104]
 1769              		.loc 1 316 0
 1770 0238 2393     		str	r3, [sp, #140]
 1771              		.loc 1 310 0
 1772 023a 1D92     		str	r2, [sp, #116]
 1773              		.loc 1 306 0
 1774 023c 1994     		str	r4, [sp, #100]
 1775              		.loc 1 309 0
 1776 023e 1C94     		str	r4, [sp, #112]
 1777              		.loc 1 311 0
 1778 0240 1E94     		str	r4, [sp, #120]
 1779              		.loc 1 317 0
 1780 0242 2494     		str	r4, [sp, #144]
 1781              		.loc 1 318 0
 1782 0244 2594     		str	r4, [sp, #148]
 1783              		.loc 1 319 0
 1784 0246 2694     		str	r4, [sp, #152]
 1785              		.loc 1 320 0
 1786 0248 2794     		str	r4, [sp, #156]
 1787              		.loc 1 312 0
 1788 024a CDF87C80 		str	r8, [sp, #124]
 1789              		.loc 1 315 0
 1790 024e CDF888A0 		str	r10, [sp, #136]
 1791              		.loc 1 321 0
 1792 0252 FFF7FEFF 		bl	DMA_Init
 1793              	.LVL134:
 1794              		.loc 1 324 0
 1795 0256 3946     		mov	r1, r7
 1796 0258 5C48     		ldr	r0, .L152+120
 1797 025a FFF7FEFF 		bl	DMA_Cmd
 1798              	.LVL135:
 1799              		.loc 1 327 0
 1800 025e 1021     		movs	r1, #16
 1801 0260 3A46     		mov	r2, r7
 1802 0262 5A48     		ldr	r0, .L152+120
 1803 0264 FFF7FEFF 		bl	DMA_ITConfig
 1804              	.LVL136:
 1805              		.loc 1 332 0
 1806 0268 1622     		movs	r2, #22
 1807              		.loc 1 334 0
 1808 026a 4FF48043 		mov	r3, #16384
 1809              		.loc 1 336 0
 1810 026e 0AA8     		add	r0, sp, #40
 1811              		.loc 1 333 0
 1812 0270 0B94     		str	r4, [sp, #44]
 1813              		.loc 1 335 0
 1814 0272 0D94     		str	r4, [sp, #52]
 1815              		.loc 1 332 0
 1816 0274 0A92     		str	r2, [sp, #40]
 1817              		.loc 1 334 0
 1818 0276 0C93     		str	r3, [sp, #48]
 1819              		.loc 1 336 0
 1820 0278 FFF7FEFF 		bl	ADC_CommonInit
 1821              	.LVL137:
 1822              		.loc 1 342 0
 1823 027c 4FF00052 		mov	r2, #536870912
 1824              		.loc 1 343 0
ARM GAS  C:\Users\CHRIST~1\AppData\Local\Temp\ccDhfOXE.s 			page 33


 1825 0280 4FF05063 		mov	r3, #218103808
 1826              		.loc 1 347 0
 1827 0284 13A9     		add	r1, sp, #76
 1828 0286 5248     		ldr	r0, .L152+124
 1829              		.loc 1 342 0
 1830 0288 1592     		str	r2, [sp, #84]
 1831              		.loc 1 343 0
 1832 028a 1693     		str	r3, [sp, #88]
 1833              		.loc 1 339 0
 1834 028c 1394     		str	r4, [sp, #76]
 1835              		.loc 1 341 0
 1836 028e 8DF85140 		strb	r4, [sp, #81]
 1837              		.loc 1 344 0
 1838 0292 1794     		str	r4, [sp, #92]
 1839              		.loc 1 340 0
 1840 0294 8DF85070 		strb	r7, [sp, #80]
 1841              		.loc 1 345 0
 1842 0298 8DF86090 		strb	r9, [sp, #96]
 1843              		.loc 1 347 0
 1844 029c FFF7FEFF 		bl	ADC_Init
 1845              	.LVL138:
 1846              		.loc 1 350 0
 1847 02a0 13A9     		add	r1, sp, #76
 1848 02a2 4C48     		ldr	r0, .L152+128
 1849              		.loc 1 348 0
 1850 02a4 1594     		str	r4, [sp, #84]
 1851              		.loc 1 349 0
 1852 02a6 1694     		str	r4, [sp, #88]
 1853              		.loc 1 350 0
 1854 02a8 FFF7FEFF 		bl	ADC_Init
 1855              	.LVL139:
 1856              		.loc 1 351 0
 1857 02ac 13A9     		add	r1, sp, #76
 1858 02ae 4A48     		ldr	r0, .L152+132
 1859 02b0 FFF7FEFF 		bl	ADC_Init
 1860              	.LVL140:
 1861              		.loc 1 354 0
 1862 02b4 3846     		mov	r0, r7
 1863 02b6 FFF7FEFF 		bl	ADC_TempSensorVrefintCmd
 1864              	.LVL141:
 1865              		.loc 1 357 0
 1866 02ba 3846     		mov	r0, r7
 1867 02bc FFF7FEFF 		bl	ADC_MultiModeDMARequestAfterLastTransferCmd
 1868              	.LVL142:
 1869              		.loc 1 359 0
 1870 02c0 FFF7FEFF 		bl	hw_setup_adc_channels
 1871              	.LVL143:
 1872              		.loc 1 362 0
 1873 02c4 3946     		mov	r1, r7
 1874 02c6 4248     		ldr	r0, .L152+124
 1875 02c8 FFF7FEFF 		bl	ADC_Cmd
 1876              	.LVL144:
 1877              		.loc 1 365 0
 1878 02cc 3946     		mov	r1, r7
 1879 02ce 4148     		ldr	r0, .L152+128
 1880 02d0 FFF7FEFF 		bl	ADC_Cmd
 1881              	.LVL145:
ARM GAS  C:\Users\CHRIST~1\AppData\Local\Temp\ccDhfOXE.s 			page 34


 1882              		.loc 1 368 0
 1883 02d4 3946     		mov	r1, r7
 1884 02d6 4048     		ldr	r0, .L152+132
 1885 02d8 FFF7FEFF 		bl	ADC_Cmd
 1886              	.LVL146:
 1887              		.loc 1 372 0
 1888 02dc 3946     		mov	r1, r7
 1889 02de 0220     		movs	r0, #2
 1890 02e0 FFF7FEFF 		bl	RCC_APB2PeriphClockCmd
 1891              	.LVL147:
 1892              		.loc 1 376 0
 1893 02e4 4FF6FF73 		movw	r3, #65535
 1894              		.loc 1 379 0
 1895 02e8 03A9     		add	r1, sp, #12
 1896 02ea 3046     		mov	r0, r6
 1897              		.loc 1 374 0
 1898 02ec ADF80C40 		strh	r4, [sp, #12]	@ movhi
 1899              		.loc 1 375 0
 1900 02f0 ADF80E40 		strh	r4, [sp, #14]	@ movhi
 1901              		.loc 1 377 0
 1902 02f4 ADF81440 		strh	r4, [sp, #20]	@ movhi
 1903              		.loc 1 378 0
 1904 02f8 8DF81640 		strb	r4, [sp, #22]
 1905              		.loc 1 376 0
 1906 02fc 0493     		str	r3, [sp, #16]
 1907              		.loc 1 379 0
 1908 02fe FFF7FEFF 		bl	TIM_TimeBaseInit
 1909              	.LVL148:
 1910              		.loc 1 381 0
 1911 0302 4FF06002 		mov	r2, #96	@ movhi
 1912              		.loc 1 383 0
 1913 0306 4FF4FA73 		mov	r3, #500
 1914              		.loc 1 388 0
 1915 030a 0EA9     		add	r1, sp, #56
 1916 030c 3046     		mov	r0, r6
 1917              		.loc 1 381 0
 1918 030e ADF83820 		strh	r2, [sp, #56]	@ movhi
 1919              		.loc 1 387 0
 1920 0312 4FF40072 		mov	r2, #512	@ movhi
 1921              		.loc 1 383 0
 1922 0316 1093     		str	r3, [sp, #64]
 1923              		.loc 1 387 0
 1924 0318 ADF84A20 		strh	r2, [sp, #74]	@ movhi
 1925              		.loc 1 384 0
 1926 031c ADF84440 		strh	r4, [sp, #68]	@ movhi
 1927              		.loc 1 385 0
 1928 0320 ADF84640 		strh	r4, [sp, #70]	@ movhi
 1929              		.loc 1 382 0
 1930 0324 ADF83A70 		strh	r7, [sp, #58]	@ movhi
 1931              		.loc 1 386 0
 1932 0328 ADF848A0 		strh	r10, [sp, #72]	@ movhi
 1933              		.loc 1 388 0
 1934 032c FFF7FEFF 		bl	TIM_OC1Init
 1935              	.LVL149:
 1936              		.loc 1 389 0
 1937 0330 3046     		mov	r0, r6
 1938 0332 0821     		movs	r1, #8
ARM GAS  C:\Users\CHRIST~1\AppData\Local\Temp\ccDhfOXE.s 			page 35


 1939 0334 FFF7FEFF 		bl	TIM_OC1PreloadConfig
 1940              	.LVL150:
 1941              		.loc 1 390 0
 1942 0338 0EA9     		add	r1, sp, #56
 1943 033a 3046     		mov	r0, r6
 1944 033c FFF7FEFF 		bl	TIM_OC2Init
 1945              	.LVL151:
 1946              		.loc 1 391 0
 1947 0340 3046     		mov	r0, r6
 1948 0342 0821     		movs	r1, #8
 1949 0344 FFF7FEFF 		bl	TIM_OC2PreloadConfig
 1950              	.LVL152:
 1951              		.loc 1 392 0
 1952 0348 0EA9     		add	r1, sp, #56
 1953 034a 3046     		mov	r0, r6
 1954 034c FFF7FEFF 		bl	TIM_OC3Init
 1955              	.LVL153:
 1956 0350 5CE0     		b	.L153
 1957              	.L154:
 1958 0352 00BF     		.align	2
 1959              	.L152:
 1960 0354 00000000 		.word	.LANCHOR0
 1961 0358 00000000 		.word	.LANCHOR23
 1962 035c 00000000 		.word	.LANCHOR14
 1963 0360 00000000 		.word	0
 1964 0364 00000000 		.word	.LANCHOR31
 1965 0368 00000000 		.word	.LANCHOR22
 1966 036c 00000000 		.word	.LANCHOR32
 1967 0370 00000140 		.word	1073807360
 1968 0374 00040140 		.word	1073808384
 1969 0378 00000000 		.word	.LANCHOR24
 1970 037c 00000000 		.word	.LANCHOR25
 1971 0380 00000000 		.word	.LANCHOR34
 1972 0384 00000000 		.word	.LANCHOR27
 1973 0388 00000000 		.word	.LANCHOR2
 1974 038c 00000000 		.word	.LANCHOR33
 1975 0390 00000000 		.word	.LANCHOR16
 1976 0394 00000000 		.word	.LANCHOR21
 1977 0398 00000000 		.word	.LANCHOR8
 1978 039c 00000000 		.word	.LANCHOR11
 1979 03a0 00000000 		.word	.LANCHOR6
 1980 03a4 00000000 		.word	.LANCHOR35
 1981 03a8 00000000 		.word	.LANCHOR36
 1982 03ac 00000000 		.word	.LANCHOR18
 1983 03b0 00000000 		.word	.LANCHOR41
 1984 03b4 00000000 		.word	.LANCHOR10
 1985 03b8 00000000 		.word	.LANCHOR17
 1986 03bc 007A030A 		.word	168000000
 1987 03c0 05004000 		.word	4194309
 1988 03c4 00000000 		.word	mcpwm_foc_adc_int_handler
 1989 03c8 90000000 		.word	_stm32_dma_streams+144
 1990 03cc 70640240 		.word	1073898608
 1991 03d0 00200140 		.word	1073815552
 1992 03d4 00210140 		.word	1073815808
 1993 03d8 00220140 		.word	1073816064
 1994 03dc 00000000 		.word	.LANCHOR7
 1995 03e0 00000000 		.word	.LANCHOR26
ARM GAS  C:\Users\CHRIST~1\AppData\Local\Temp\ccDhfOXE.s 			page 36


 1996 03e4 00000000 		.word	.LANCHOR28
 1997 03e8 00000000 		.word	.LANCHOR29
 1998 03ec 00000000 		.word	.LANCHOR30
 1999 03f0 00000000 		.word	.LANCHOR39
 2000 03f4 00000000 		.word	.LANCHOR40
 2001 03f8 00000000 		.word	.LANCHOR37
 2002 03fc 00000000 		.word	.LANCHOR12
 2003 0400 00000000 		.word	.LANCHOR38
 2004 0404 00000000 		.word	ADC_Value
 2005 0408 08230140 		.word	1073816328
 2006              	.L153:
 2007              		.loc 1 393 0
 2008 040c 3046     		mov	r0, r6
 2009 040e 0821     		movs	r1, #8
 2010 0410 FFF7FEFF 		bl	TIM_OC3PreloadConfig
 2011              	.LVL154:
 2012              		.loc 1 395 0
 2013 0414 3946     		mov	r1, r7
 2014 0416 3046     		mov	r0, r6
 2015 0418 FFF7FEFF 		bl	TIM_ARRPreloadConfig
 2016              	.LVL155:
 2017              		.loc 1 396 0
 2018 041c 3946     		mov	r1, r7
 2019 041e 3046     		mov	r0, r6
 2020 0420 FFF7FEFF 		bl	TIM_CCPreloadControl
 2021              	.LVL156:
 2022              		.loc 1 399 0
 2023 0424 3946     		mov	r1, r7
 2024 0426 3046     		mov	r0, r6
 2025 0428 FFF7FEFF 		bl	TIM_CtrlPWMOutputs
 2026              	.LVL157:
 2027              		.loc 1 402 0
 2028 042c 2846     		mov	r0, r5
 2029 042e 2021     		movs	r1, #32
 2030 0430 FFF7FEFF 		bl	TIM_SelectOutputTrigger
 2031              	.LVL158:
 2032              		.loc 1 403 0
 2033 0434 2846     		mov	r0, r5
 2034 0436 8021     		movs	r1, #128
 2035 0438 FFF7FEFF 		bl	TIM_SelectMasterSlaveMode
 2036              	.LVL159:
 2037              		.loc 1 404 0
 2038 043c 2146     		mov	r1, r4
 2039 043e 3046     		mov	r0, r6
 2040 0440 FFF7FEFF 		bl	TIM_SelectInputTrigger
 2041              	.LVL160:
 2042              		.loc 1 405 0
 2043 0444 4946     		mov	r1, r9
 2044 0446 3046     		mov	r0, r6
 2045 0448 FFF7FEFF 		bl	TIM_SelectSlaveMode
 2046              	.LVL161:
 2047              		.loc 1 408 0
 2048 044c 2846     		mov	r0, r5
 2049 044e 3946     		mov	r1, r7
 2050 0450 FFF7FEFF 		bl	TIM_Cmd
 2051              	.LVL162:
 2052              		.loc 1 409 0
ARM GAS  C:\Users\CHRIST~1\AppData\Local\Temp\ccDhfOXE.s 			page 37


 2053 0454 3946     		mov	r1, r7
 2054 0456 3046     		mov	r0, r6
 2055 0458 FFF7FEFF 		bl	TIM_Cmd
 2056              	.LVL163:
 2057              		.loc 1 412 0
 2058 045c 2846     		mov	r0, r5
 2059 045e 3946     		mov	r1, r7
 2060 0460 FFF7FEFF 		bl	TIM_CtrlPWMOutputs
 2061              	.LVL164:
 2062              		.loc 1 415 0
 2063 0464 FFF7FEFF 		bl	stop_pwm_hw
 2064              	.LVL165:
 2065              		.loc 1 419 0
 2066 0468 0221     		movs	r1, #2
 2067              		.loc 1 422 0
 2068 046a 3A46     		mov	r2, r7
 2069              		.loc 1 419 0
 2070 046c 7163     		str	r1, [r6, #52]
 2071              		.loc 1 422 0
 2072 046e 3046     		mov	r0, r6
 2073 0470 FFF7FEFF 		bl	TIM_ITConfig
 2074              	.LVL166:
 2075              		.loc 1 423 0
 2076 0474 0621     		movs	r1, #6
 2077 0476 2E20     		movs	r0, #46
 2078 0478 FFF7FEFF 		bl	nvicEnableVector
 2079              	.LVL167:
 2080              		.loc 1 428 0
 2081 047c 05F58435 		add	r5, r5, #67584
 2082              		.loc 1 425 0
 2083 0480 FFF7FEFF 		bl	utils_sys_unlock_cnt
 2084              	.LVL168:
 2085              		.loc 1 429 0
 2086 0484 364B     		ldr	r3, .L155
 2087              		.loc 1 428 0
 2088 0486 A5F81880 		strh	r8, [r5, #24]	@ movhi
 2089              		.loc 1 429 0
 2090 048a 4FF48052 		mov	r2, #4096
 2091 048e 5A83     		strh	r2, [r3, #26]	@ movhi
 2092              	.LBB56:
 2093              	.LBB57:
 2094              		.loc 1 2048 0
 2095 0490 41F28934 		movw	r4, #5001
 2096 0494 1A83     		strh	r2, [r3, #24]	@ movhi
 2097              	.LVL169:
 2098 0496 03E0     		b	.L145
 2099              	.LVL170:
 2100              	.L147:
 2101              		.loc 1 2053 0
 2102 0498 FFF7FEFF 		bl	chThdSleep
 2103              	.LVL171:
 2104              		.loc 1 2055 0
 2105 049c 013C     		subs	r4, r4, #1
 2106              	.LVL172:
 2107 049e 04D0     		beq	.L148
 2108              	.LVL173:
 2109              	.L145:
ARM GAS  C:\Users\CHRIST~1\AppData\Local\Temp\ccDhfOXE.s 			page 38


 2110              		.loc 1 2052 0
 2111 04a0 2B69     		ldr	r3, [r5, #16]
 2112 04a2 DB04     		lsls	r3, r3, #19
 2113              		.loc 1 2053 0
 2114 04a4 4FF00A00 		mov	r0, #10
 2115              		.loc 1 2052 0
 2116 04a8 F6D5     		bpl	.L147
 2117              	.LVL174:
 2118              	.L148:
 2119              		.loc 1 2060 0
 2120 04aa 42F21070 		movw	r0, #10000
 2121 04ae FFF7FEFF 		bl	chThdSleep
 2122              	.LVL175:
 2123              		.loc 1 2061 0
 2124 04b2 2C4A     		ldr	r2, .L155+4
 2125 04b4 0023     		movs	r3, #0
 2126 04b6 1360     		str	r3, [r2]
 2127              		.loc 1 2062 0
 2128 04b8 2B4A     		ldr	r2, .L155+8
 2129 04ba 1360     		str	r3, [r2]
 2130              		.loc 1 2066 0
 2131 04bc CBF80030 		str	r3, [fp]
 2132              	.L146:
 2133              		.loc 1 2067 0
 2134 04c0 DBF80030 		ldr	r3, [fp]
 2135 04c4 B3F57A6F 		cmp	r3, #4000
 2136 04c8 FADB     		blt	.L146
 2137              		.loc 1 2068 0
 2138 04ca 284A     		ldr	r2, .L155+12
 2139 04cc 254B     		ldr	r3, .L155+4
 2140 04ce 1B68     		ldr	r3, [r3]
 2141 04d0 DBF80010 		ldr	r1, [fp]
 2142 04d4 93FBF1F3 		sdiv	r3, r3, r1
 2143              		.loc 1 2069 0
 2144 04d8 2549     		ldr	r1, .L155+16
 2145              		.loc 1 2068 0
 2146 04da 1360     		str	r3, [r2]
 2147              		.loc 1 2069 0
 2148 04dc 224B     		ldr	r3, .L155+8
 2149              		.loc 1 2073 0
 2150 04de 204A     		ldr	r2, .L155
 2151              		.loc 1 2069 0
 2152 04e0 1B68     		ldr	r3, [r3]
 2153 04e2 DBF80000 		ldr	r0, [fp]
 2154 04e6 93FBF0F3 		sdiv	r3, r3, r0
 2155              		.loc 1 2074 0
 2156 04ea 0124     		movs	r4, #1
 2157              		.loc 1 2069 0
 2158 04ec 0B60     		str	r3, [r1]
 2159              		.loc 1 2073 0
 2160 04ee 4FF48050 		mov	r0, #4096
 2161              		.loc 1 2074 0
 2162 04f2 204B     		ldr	r3, .L155+20
 2163              		.loc 1 2073 0
 2164 04f4 5083     		strh	r0, [r2, #26]	@ movhi
 2165              	.LBE57:
 2166              	.LBE56:
ARM GAS  C:\Users\CHRIST~1\AppData\Local\Temp\ccDhfOXE.s 			page 39


 2167              		.loc 1 433 0
 2168 04f6 2146     		mov	r1, r4
 2169 04f8 4020     		movs	r0, #64
 2170              		.loc 1 438 0
 2171 04fa 0025     		movs	r5, #0
 2172              	.LBB59:
 2173              	.LBB58:
 2174              		.loc 1 2074 0
 2175 04fc 1C70     		strb	r4, [r3]
 2176              	.LBE58:
 2177              	.LBE59:
 2178              		.loc 1 433 0
 2179 04fe FFF7FEFF 		bl	RCC_APB1PeriphClockCmd
 2180              	.LVL176:
 2181              		.loc 1 436 0
 2182 0502 4FF0FF32 		mov	r2, #-1
 2183              		.loc 1 437 0
 2184 0506 0723     		movs	r3, #7
 2185              		.loc 1 440 0
 2186 0508 03A9     		add	r1, sp, #12
 2187 050a 1B48     		ldr	r0, .L155+24
 2188              		.loc 1 436 0
 2189 050c 0492     		str	r2, [sp, #16]
 2190              		.loc 1 437 0
 2191 050e ADF80C30 		strh	r3, [sp, #12]	@ movhi
 2192              		.loc 1 438 0
 2193 0512 ADF81450 		strh	r5, [sp, #20]	@ movhi
 2194              		.loc 1 439 0
 2195 0516 ADF80E50 		strh	r5, [sp, #14]	@ movhi
 2196              		.loc 1 440 0
 2197 051a FFF7FEFF 		bl	TIM_TimeBaseInit
 2198              	.LVL177:
 2199              		.loc 1 442 0
 2200 051e 2146     		mov	r1, r4
 2201 0520 1548     		ldr	r0, .L155+24
 2202 0522 FFF7FEFF 		bl	TIM_Cmd
 2203              	.LVL178:
 2204              		.loc 1 445 0
 2205 0526 154A     		ldr	r2, .L155+28
 2206              		.loc 1 446 0
 2207 0528 154B     		ldr	r3, .L155+32
 2208 052a 0095     		str	r5, [sp]
 2209 052c 40F69811 		movw	r1, #2456
 2210              		.loc 1 445 0
 2211 0530 1570     		strb	r5, [r2]
 2212              		.loc 1 446 0
 2213 0532 1448     		ldr	r0, .L155+36
 2214 0534 4022     		movs	r2, #64
 2215 0536 FFF7FEFF 		bl	chThdCreateStatic
 2216              	.LVL179:
 2217              		.loc 1 449 0
 2218 053a 2146     		mov	r1, r4
 2219 053c 4FF40060 		mov	r0, #2048
 2220 0540 FFF7FEFF 		bl	RCC_APB1PeriphClockCmd
 2221              	.LVL180:
 2222              		.loc 1 450 0
 2223 0544 2846     		mov	r0, r5
ARM GAS  C:\Users\CHRIST~1\AppData\Local\Temp\ccDhfOXE.s 			page 40


 2224 0546 FFF7FEFF 		bl	WWDG_SetPrescaler
 2225              	.LVL181:
 2226              		.loc 1 451 0
 2227 054a FF20     		movs	r0, #255
 2228 054c FFF7FEFF 		bl	WWDG_SetWindowValue
 2229              	.LVL182:
 2230              		.loc 1 452 0
 2231 0550 6420     		movs	r0, #100
 2232 0552 FFF7FEFF 		bl	WWDG_Enable
 2233              	.LVL183:
 2234              		.loc 1 454 0
 2235 0556 0C4B     		ldr	r3, .L155+40
 2236 0558 1C70     		strb	r4, [r3]
 2237              		.loc 1 455 0
 2238 055a 29B0     		add	sp, sp, #164
 2239              		.cfi_def_cfa_offset 36
 2240              		@ sp needed
 2241 055c BDE8F08F 		pop	{r4, r5, r6, r7, r8, r9, r10, fp, pc}
 2242              	.L156:
 2243              		.align	2
 2244              	.L155:
 2245 0560 00040240 		.word	1073873920
 2246 0564 00000000 		.word	.LANCHOR24
 2247 0568 00000000 		.word	.LANCHOR25
 2248 056c 00000000 		.word	.LANCHOR42
 2249 0570 00000000 		.word	.LANCHOR43
 2250 0574 00000000 		.word	.LANCHOR27
 2251 0578 00180040 		.word	1073747968
 2252 057c 00000000 		.word	.LANCHOR9
 2253 0580 00000000 		.word	timer_thread
 2254 0584 00000000 		.word	.LANCHOR44
 2255 0588 00000000 		.word	.LANCHOR23
 2256              		.cfi_endproc
 2257              	.LFE256:
 2258              		.size	mcpwm_foc_init, .-mcpwm_foc_init
 2259              		.section	.text.mcpwm_foc_deinit,"ax",%progbits
 2260              		.align	1
 2261              		.p2align 4,,15
 2262              		.global	mcpwm_foc_deinit
 2263              		.syntax unified
 2264              		.thumb
 2265              		.thumb_func
 2266              		.fpu fpv4-sp-d16
 2267              		.type	mcpwm_foc_deinit, %function
 2268              	mcpwm_foc_deinit:
 2269              	.LFB257:
 2270              		.loc 1 457 0
 2271              		.cfi_startproc
 2272              		@ args = 0, pretend = 0, frame = 0
 2273              		@ frame_needed = 0, uses_anonymous_args = 0
 2274              		.loc 1 458 0
 2275 0000 134B     		ldr	r3, .L163
 2276              		.loc 1 457 0
 2277 0002 10B5     		push	{r4, lr}
 2278              		.cfi_def_cfa_offset 8
 2279              		.cfi_offset 4, -8
 2280              		.cfi_offset 14, -4
ARM GAS  C:\Users\CHRIST~1\AppData\Local\Temp\ccDhfOXE.s 			page 41


 2281              		.loc 1 458 0
 2282 0004 0022     		movs	r2, #0
 2283              		.loc 1 462 0
 2284 0006 134C     		ldr	r4, .L163+4
 2285              		.loc 1 458 0
 2286 0008 1A70     		strb	r2, [r3]
 2287              		.loc 1 460 0
 2288 000a FFF7FEFF 		bl	WWDG_DeInit
 2289              	.LVL184:
 2290              		.loc 1 462 0
 2291 000e 0123     		movs	r3, #1
 2292 0010 2370     		strb	r3, [r4]
 2293              		.loc 1 464 0
 2294 0012 2378     		ldrb	r3, [r4]	@ zero_extendqisi2
 2295 0014 2BB1     		cbz	r3, .L159
 2296              	.L160:
 2297              		.loc 1 465 0
 2298 0016 0A20     		movs	r0, #10
 2299 0018 FFF7FEFF 		bl	chThdSleep
 2300              	.LVL185:
 2301              		.loc 1 464 0
 2302 001c 2378     		ldrb	r3, [r4]	@ zero_extendqisi2
 2303 001e 002B     		cmp	r3, #0
 2304 0020 F9D1     		bne	.L160
 2305              	.L159:
 2306              		.loc 1 468 0
 2307 0022 0D48     		ldr	r0, .L163+8
 2308 0024 FFF7FEFF 		bl	TIM_DeInit
 2309              	.LVL186:
 2310              		.loc 1 469 0
 2311 0028 0C48     		ldr	r0, .L163+12
 2312 002a FFF7FEFF 		bl	TIM_DeInit
 2313              	.LVL187:
 2314              		.loc 1 470 0
 2315 002e 0C48     		ldr	r0, .L163+16
 2316 0030 FFF7FEFF 		bl	TIM_DeInit
 2317              	.LVL188:
 2318              		.loc 1 471 0
 2319 0034 FFF7FEFF 		bl	ADC_DeInit
 2320              	.LVL189:
 2321              		.loc 1 472 0
 2322 0038 0A48     		ldr	r0, .L163+20
 2323 003a FFF7FEFF 		bl	DMA_DeInit
 2324              	.LVL190:
 2325              		.loc 1 473 0
 2326 003e 1220     		movs	r0, #18
 2327 0040 FFF7FEFF 		bl	nvicDisableVector
 2328              	.LVL191:
 2329              		.loc 1 474 0
 2330 0044 0848     		ldr	r0, .L163+24
 2331              		.loc 1 475 0
 2332 0046 BDE81040 		pop	{r4, lr}
 2333              		.cfi_restore 14
 2334              		.cfi_restore 4
 2335              		.cfi_def_cfa_offset 0
 2336              		.loc 1 474 0
 2337 004a FFF7FEBF 		b	dmaStreamRelease
ARM GAS  C:\Users\CHRIST~1\AppData\Local\Temp\ccDhfOXE.s 			page 42


 2338              	.LVL192:
 2339              	.L164:
 2340 004e 00BF     		.align	2
 2341              	.L163:
 2342 0050 00000000 		.word	.LANCHOR23
 2343 0054 00000000 		.word	.LANCHOR9
 2344 0058 00000140 		.word	1073807360
 2345 005c 00040140 		.word	1073808384
 2346 0060 00180040 		.word	1073747968
 2347 0064 70640240 		.word	1073898608
 2348 0068 90000000 		.word	_stm32_dma_streams+144
 2349              		.cfi_endproc
 2350              	.LFE257:
 2351              		.size	mcpwm_foc_deinit, .-mcpwm_foc_deinit
 2352              		.section	.text.mcpwm_foc_init_done,"ax",%progbits
 2353              		.align	1
 2354              		.p2align 4,,15
 2355              		.global	mcpwm_foc_init_done
 2356              		.syntax unified
 2357              		.thumb
 2358              		.thumb_func
 2359              		.fpu fpv4-sp-d16
 2360              		.type	mcpwm_foc_init_done, %function
 2361              	mcpwm_foc_init_done:
 2362              	.LFB258:
 2363              		.loc 1 477 0
 2364              		.cfi_startproc
 2365              		@ args = 0, pretend = 0, frame = 0
 2366              		@ frame_needed = 0, uses_anonymous_args = 0
 2367              		@ link register save eliminated.
 2368              		.loc 1 478 0
 2369 0000 014B     		ldr	r3, .L166
 2370 0002 1878     		ldrb	r0, [r3]	@ zero_extendqisi2
 2371              		.loc 1 479 0
 2372 0004 7047     		bx	lr
 2373              	.L167:
 2374 0006 00BF     		.align	2
 2375              	.L166:
 2376 0008 00000000 		.word	.LANCHOR23
 2377              		.cfi_endproc
 2378              	.LFE258:
 2379              		.size	mcpwm_foc_init_done, .-mcpwm_foc_init_done
 2380              		.section	.text.mcpwm_foc_set_configuration,"ax",%progbits
 2381              		.align	1
 2382              		.p2align 4,,15
 2383              		.global	mcpwm_foc_set_configuration
 2384              		.syntax unified
 2385              		.thumb
 2386              		.thumb_func
 2387              		.fpu fpv4-sp-d16
 2388              		.type	mcpwm_foc_set_configuration, %function
 2389              	mcpwm_foc_set_configuration:
 2390              	.LFB259:
 2391              		.loc 1 481 0
 2392              		.cfi_startproc
 2393              		@ args = 0, pretend = 0, frame = 0
 2394              		@ frame_needed = 0, uses_anonymous_args = 0
ARM GAS  C:\Users\CHRIST~1\AppData\Local\Temp\ccDhfOXE.s 			page 43


 2395              	.LVL193:
 2396 0000 10B5     		push	{r4, lr}
 2397              		.cfi_def_cfa_offset 8
 2398              		.cfi_offset 4, -8
 2399              		.cfi_offset 14, -4
 2400              		.loc 1 482 0
 2401 0002 144C     		ldr	r4, .L170
 2402              		.loc 1 484 0
 2403 0004 1449     		ldr	r1, .L170+4
 2404              		.loc 1 485 0
 2405 0006 154B     		ldr	r3, .L170+8
 2406              		.loc 1 482 0
 2407 0008 2060     		str	r0, [r4]
 2408              		.loc 1 485 0
 2409 000a 0022     		movs	r2, #0
 2410              		.loc 1 484 0
 2411 000c 0720     		movs	r0, #7
 2412              	.LVL194:
 2413 000e 0870     		strb	r0, [r1]
 2414              		.loc 1 485 0
 2415 0010 1A70     		strb	r2, [r3]
 2416              		.loc 1 486 0
 2417 0012 FFF7FEFF 		bl	stop_pwm_hw
 2418              	.LVL195:
 2419              		.loc 1 487 0
 2420 0016 2368     		ldr	r3, [r4]
 2421              		.loc 1 488 0
 2422 0018 114A     		ldr	r2, .L170+12
 2423              		.loc 1 487 0
 2424 001a D3ED2A7A 		vldr.32	s15, [r3, #168]
 2425              		.loc 1 488 0
 2426 001e 1168     		ldr	r1, [r2]
 2427 0020 104B     		ldr	r3, .L170+16
 2428              		.loc 1 487 0
 2429 0022 1148     		ldr	r0, .L170+20
 2430              		.loc 1 488 0
 2431 0024 41F00201 		orr	r1, r1, #2
 2432 0028 1160     		str	r1, [r2]
 2433 002a 1968     		ldr	r1, [r3]
 2434 002c 0224     		movs	r4, #2
 2435              		.loc 1 487 0
 2436 002e FDEEE77A 		vcvt.s32.f32	s15, s15
 2437              		.loc 1 488 0
 2438 0032 2143     		orrs	r1, r1, r4
 2439 0034 1960     		str	r1, [r3]
 2440              		.loc 1 487 0
 2441 0036 17EE901A 		vmov	r1, s15	@ int
 2442 003a 90FBF1F1 		sdiv	r1, r0, r1
 2443              	.LVL196:
 2444              		.loc 1 488 0
 2445 003e D162     		str	r1, [r2, #44]
 2446 0040 5C63     		str	r4, [r3, #52]
 2447 0042 1168     		ldr	r1, [r2]
 2448              	.LVL197:
 2449 0044 21F00201 		bic	r1, r1, #2
 2450 0048 1160     		str	r1, [r2]
 2451 004a 1A68     		ldr	r2, [r3]
ARM GAS  C:\Users\CHRIST~1\AppData\Local\Temp\ccDhfOXE.s 			page 44


 2452 004c 22F00202 		bic	r2, r2, #2
 2453 0050 1A60     		str	r2, [r3]
 2454 0052 10BD     		pop	{r4, pc}
 2455              	.L171:
 2456              		.align	2
 2457              	.L170:
 2458 0054 00000000 		.word	.LANCHOR0
 2459 0058 00000000 		.word	.LANCHOR14
 2460 005c 00000000 		.word	.LANCHOR7
 2461 0060 00000140 		.word	1073807360
 2462 0064 00040140 		.word	1073808384
 2463 0068 007A030A 		.word	168000000
 2464              		.cfi_endproc
 2465              	.LFE259:
 2466              		.size	mcpwm_foc_set_configuration, .-mcpwm_foc_set_configuration
 2467              		.section	.text.mcpwm_foc_get_state,"ax",%progbits
 2468              		.align	1
 2469              		.p2align 4,,15
 2470              		.global	mcpwm_foc_get_state
 2471              		.syntax unified
 2472              		.thumb
 2473              		.thumb_func
 2474              		.fpu fpv4-sp-d16
 2475              		.type	mcpwm_foc_get_state, %function
 2476              	mcpwm_foc_get_state:
 2477              	.LFB260:
 2478              		.loc 1 491 0
 2479              		.cfi_startproc
 2480              		@ args = 0, pretend = 0, frame = 0
 2481              		@ frame_needed = 0, uses_anonymous_args = 0
 2482              		@ link register save eliminated.
 2483              		.loc 1 492 0
 2484 0000 014B     		ldr	r3, .L173
 2485 0002 1878     		ldrb	r0, [r3]	@ zero_extendqisi2
 2486              		.loc 1 493 0
 2487 0004 7047     		bx	lr
 2488              	.L174:
 2489 0006 00BF     		.align	2
 2490              	.L173:
 2491 0008 00000000 		.word	.LANCHOR7
 2492              		.cfi_endproc
 2493              	.LFE260:
 2494              		.size	mcpwm_foc_get_state, .-mcpwm_foc_get_state
 2495              		.section	.text.mcpwm_foc_is_dccal_done,"ax",%progbits
 2496              		.align	1
 2497              		.p2align 4,,15
 2498              		.global	mcpwm_foc_is_dccal_done
 2499              		.syntax unified
 2500              		.thumb
 2501              		.thumb_func
 2502              		.fpu fpv4-sp-d16
 2503              		.type	mcpwm_foc_is_dccal_done, %function
 2504              	mcpwm_foc_is_dccal_done:
 2505              	.LFB261:
 2506              		.loc 1 495 0
 2507              		.cfi_startproc
 2508              		@ args = 0, pretend = 0, frame = 0
ARM GAS  C:\Users\CHRIST~1\AppData\Local\Temp\ccDhfOXE.s 			page 45


 2509              		@ frame_needed = 0, uses_anonymous_args = 0
 2510              		@ link register save eliminated.
 2511              		.loc 1 496 0
 2512 0000 014B     		ldr	r3, .L176
 2513 0002 1878     		ldrb	r0, [r3]	@ zero_extendqisi2
 2514              		.loc 1 497 0
 2515 0004 7047     		bx	lr
 2516              	.L177:
 2517 0006 00BF     		.align	2
 2518              	.L176:
 2519 0008 00000000 		.word	.LANCHOR27
 2520              		.cfi_endproc
 2521              	.LFE261:
 2522              		.size	mcpwm_foc_is_dccal_done, .-mcpwm_foc_is_dccal_done
 2523              		.section	.text.mcpwm_foc_set_duty,"ax",%progbits
 2524              		.align	1
 2525              		.p2align 4,,15
 2526              		.global	mcpwm_foc_set_duty
 2527              		.syntax unified
 2528              		.thumb
 2529              		.thumb_func
 2530              		.fpu fpv4-sp-d16
 2531              		.type	mcpwm_foc_set_duty, %function
 2532              	mcpwm_foc_set_duty:
 2533              	.LFB263:
 2534              		.loc 1 513 0
 2535              		.cfi_startproc
 2536              		@ args = 0, pretend = 0, frame = 0
 2537              		@ frame_needed = 0, uses_anonymous_args = 0
 2538              		@ link register save eliminated.
 2539              	.LVL198:
 2540              		.loc 1 515 0
 2541 0000 064A     		ldr	r2, .L183
 2542              		.loc 1 514 0
 2543 0002 0749     		ldr	r1, .L183+4
 2544              		.loc 1 517 0
 2545 0004 074B     		ldr	r3, .L183+8
 2546              		.loc 1 514 0
 2547 0006 0020     		movs	r0, #0
 2548 0008 0870     		strb	r0, [r1]
 2549              		.loc 1 515 0
 2550 000a 82ED000A 		vstr.32	s0, [r2]
 2551              		.loc 1 517 0
 2552 000e 1A78     		ldrb	r2, [r3]	@ zero_extendqisi2
 2553 0010 022A     		cmp	r2, #2
 2554              		.loc 1 518 0
 2555 0012 1CBF     		itt	ne
 2556 0014 0222     		movne	r2, #2
 2557 0016 1A70     		strbne	r2, [r3]
 2558 0018 7047     		bx	lr
 2559              	.L184:
 2560 001a 00BF     		.align	2
 2561              	.L183:
 2562 001c 00000000 		.word	.LANCHOR30
 2563 0020 00000000 		.word	.LANCHOR14
 2564 0024 00000000 		.word	.LANCHOR7
 2565              		.cfi_endproc
ARM GAS  C:\Users\CHRIST~1\AppData\Local\Temp\ccDhfOXE.s 			page 46


 2566              	.LFE263:
 2567              		.size	mcpwm_foc_set_duty, .-mcpwm_foc_set_duty
 2568              		.section	.text.mcpwm_foc_set_duty_noramp,"ax",%progbits
 2569              		.align	1
 2570              		.p2align 4,,15
 2571              		.global	mcpwm_foc_set_duty_noramp
 2572              		.syntax unified
 2573              		.thumb
 2574              		.thumb_func
 2575              		.fpu fpv4-sp-d16
 2576              		.type	mcpwm_foc_set_duty_noramp, %function
 2577              	mcpwm_foc_set_duty_noramp:
 2578              	.LFB264:
 2579              		.loc 1 532 0
 2580              		.cfi_startproc
 2581              		@ args = 0, pretend = 0, frame = 0
 2582              		@ frame_needed = 0, uses_anonymous_args = 0
 2583              		@ link register save eliminated.
 2584              	.LVL199:
 2585              	.LBB60:
 2586              	.LBB61:
 2587              		.loc 1 515 0
 2588 0000 064A     		ldr	r2, .L190
 2589              		.loc 1 514 0
 2590 0002 0749     		ldr	r1, .L190+4
 2591              		.loc 1 517 0
 2592 0004 074B     		ldr	r3, .L190+8
 2593              		.loc 1 514 0
 2594 0006 0020     		movs	r0, #0
 2595 0008 0870     		strb	r0, [r1]
 2596              		.loc 1 515 0
 2597 000a 82ED000A 		vstr.32	s0, [r2]
 2598              		.loc 1 517 0
 2599 000e 1A78     		ldrb	r2, [r3]	@ zero_extendqisi2
 2600 0010 022A     		cmp	r2, #2
 2601              		.loc 1 518 0
 2602 0012 1CBF     		itt	ne
 2603 0014 0222     		movne	r2, #2
 2604 0016 1A70     		strbne	r2, [r3]
 2605              	.LVL200:
 2606 0018 7047     		bx	lr
 2607              	.L191:
 2608 001a 00BF     		.align	2
 2609              	.L190:
 2610 001c 00000000 		.word	.LANCHOR30
 2611 0020 00000000 		.word	.LANCHOR14
 2612 0024 00000000 		.word	.LANCHOR7
 2613              	.LBE61:
 2614              	.LBE60:
 2615              		.cfi_endproc
 2616              	.LFE264:
 2617              		.size	mcpwm_foc_set_duty_noramp, .-mcpwm_foc_set_duty_noramp
 2618              		.section	.text.mcpwm_foc_set_pid_speed,"ax",%progbits
 2619              		.align	1
 2620              		.p2align 4,,15
 2621              		.global	mcpwm_foc_set_pid_speed
 2622              		.syntax unified
ARM GAS  C:\Users\CHRIST~1\AppData\Local\Temp\ccDhfOXE.s 			page 47


 2623              		.thumb
 2624              		.thumb_func
 2625              		.fpu fpv4-sp-d16
 2626              		.type	mcpwm_foc_set_pid_speed, %function
 2627              	mcpwm_foc_set_pid_speed:
 2628              	.LFB265:
 2629              		.loc 1 544 0
 2630              		.cfi_startproc
 2631              		@ args = 0, pretend = 0, frame = 0
 2632              		@ frame_needed = 0, uses_anonymous_args = 0
 2633              		@ link register save eliminated.
 2634              	.LVL201:
 2635              		.loc 1 546 0
 2636 0000 064A     		ldr	r2, .L197
 2637              		.loc 1 545 0
 2638 0002 0749     		ldr	r1, .L197+4
 2639              		.loc 1 548 0
 2640 0004 074B     		ldr	r3, .L197+8
 2641              		.loc 1 545 0
 2642 0006 0120     		movs	r0, #1
 2643 0008 0870     		strb	r0, [r1]
 2644              		.loc 1 546 0
 2645 000a 82ED000A 		vstr.32	s0, [r2]
 2646              		.loc 1 548 0
 2647 000e 1A78     		ldrb	r2, [r3]	@ zero_extendqisi2
 2648 0010 022A     		cmp	r2, #2
 2649              		.loc 1 549 0
 2650 0012 1CBF     		itt	ne
 2651 0014 0222     		movne	r2, #2
 2652 0016 1A70     		strbne	r2, [r3]
 2653 0018 7047     		bx	lr
 2654              	.L198:
 2655 001a 00BF     		.align	2
 2656              	.L197:
 2657 001c 00000000 		.word	.LANCHOR21
 2658 0020 00000000 		.word	.LANCHOR14
 2659 0024 00000000 		.word	.LANCHOR7
 2660              		.cfi_endproc
 2661              	.LFE265:
 2662              		.size	mcpwm_foc_set_pid_speed, .-mcpwm_foc_set_pid_speed
 2663              		.section	.text.mcpwm_foc_set_pid_pos,"ax",%progbits
 2664              		.align	1
 2665              		.p2align 4,,15
 2666              		.global	mcpwm_foc_set_pid_pos
 2667              		.syntax unified
 2668              		.thumb
 2669              		.thumb_func
 2670              		.fpu fpv4-sp-d16
 2671              		.type	mcpwm_foc_set_pid_pos, %function
 2672              	mcpwm_foc_set_pid_pos:
 2673              	.LFB266:
 2674              		.loc 1 560 0
 2675              		.cfi_startproc
 2676              		@ args = 0, pretend = 0, frame = 0
 2677              		@ frame_needed = 0, uses_anonymous_args = 0
 2678              		@ link register save eliminated.
 2679              	.LVL202:
ARM GAS  C:\Users\CHRIST~1\AppData\Local\Temp\ccDhfOXE.s 			page 48


 2680              		.loc 1 562 0
 2681 0000 064A     		ldr	r2, .L204
 2682              		.loc 1 561 0
 2683 0002 0749     		ldr	r1, .L204+4
 2684              		.loc 1 564 0
 2685 0004 074B     		ldr	r3, .L204+8
 2686              		.loc 1 561 0
 2687 0006 0420     		movs	r0, #4
 2688 0008 0870     		strb	r0, [r1]
 2689              		.loc 1 562 0
 2690 000a 82ED000A 		vstr.32	s0, [r2]
 2691              		.loc 1 564 0
 2692 000e 1A78     		ldrb	r2, [r3]	@ zero_extendqisi2
 2693 0010 022A     		cmp	r2, #2
 2694              		.loc 1 565 0
 2695 0012 1CBF     		itt	ne
 2696 0014 0222     		movne	r2, #2
 2697 0016 1A70     		strbne	r2, [r3]
 2698 0018 7047     		bx	lr
 2699              	.L205:
 2700 001a 00BF     		.align	2
 2701              	.L204:
 2702 001c 00000000 		.word	.LANCHOR33
 2703 0020 00000000 		.word	.LANCHOR14
 2704 0024 00000000 		.word	.LANCHOR7
 2705              		.cfi_endproc
 2706              	.LFE266:
 2707              		.size	mcpwm_foc_set_pid_pos, .-mcpwm_foc_set_pid_pos
 2708              		.section	.text.mcpwm_foc_set_current,"ax",%progbits
 2709              		.align	1
 2710              		.p2align 4,,15
 2711              		.global	mcpwm_foc_set_current
 2712              		.syntax unified
 2713              		.thumb
 2714              		.thumb_func
 2715              		.fpu fpv4-sp-d16
 2716              		.type	mcpwm_foc_set_current, %function
 2717              	mcpwm_foc_set_current:
 2718              	.LFB267:
 2719              		.loc 1 577 0
 2720              		.cfi_startproc
 2721              		@ args = 0, pretend = 0, frame = 8
 2722              		@ frame_needed = 0, uses_anonymous_args = 0
 2723              	.LVL203:
 2724              		.loc 1 578 0
 2725 0000 174B     		ldr	r3, .L217
 2726              		.loc 1 577 0
 2727 0002 10B5     		push	{r4, lr}
 2728              		.cfi_def_cfa_offset 8
 2729              		.cfi_offset 4, -8
 2730              		.cfi_offset 14, -4
 2731              		.loc 1 578 0
 2732 0004 1B68     		ldr	r3, [r3]
 2733 0006 D3ED4F7A 		vldr.32	s15, [r3, #316]
 2734 000a B0EEC07A 		vabs.f32	s14, s0
 2735 000e B4EEE77A 		vcmpe.f32	s14, s15
 2736              		.loc 1 577 0
ARM GAS  C:\Users\CHRIST~1\AppData\Local\Temp\ccDhfOXE.s 			page 49


 2737 0012 82B0     		sub	sp, sp, #8
 2738              		.cfi_def_cfa_offset 16
 2739              		.loc 1 578 0
 2740 0014 F1EE10FA 		vmrs	APSR_nzcv, FPSCR
 2741              		.loc 1 577 0
 2742 0018 8DED010A 		vstr.32	s0, [sp, #4]
 2743              		.loc 1 578 0
 2744 001c 15D4     		bmi	.L216
 2745              		.loc 1 585 0
 2746 001e 93ED010A 		vldr.32	s0, [r3, #4]
 2747              	.LVL204:
 2748 0022 D3ED010A 		vldr.32	s1, [r3, #4]
 2749              		.loc 1 587 0
 2750 0026 0F4C     		ldr	r4, .L217+4
 2751              		.loc 1 585 0
 2752 0028 B1EE400A 		vneg.f32	s0, s0
 2753 002c 01A8     		add	r0, sp, #4
 2754              	.LVL205:
 2755 002e FFF7FEFF 		bl	utils_truncate_number
 2756              	.LVL206:
 2757              		.loc 1 588 0
 2758 0032 0D49     		ldr	r1, .L217+8
 2759              		.loc 1 590 0
 2760 0034 0D4B     		ldr	r3, .L217+12
 2761              		.loc 1 588 0
 2762 0036 0198     		ldr	r0, [sp, #4]	@ float
 2763              		.loc 1 587 0
 2764 0038 0222     		movs	r2, #2
 2765 003a 2270     		strb	r2, [r4]
 2766              		.loc 1 588 0
 2767 003c 0860     		str	r0, [r1]	@ float
 2768              		.loc 1 590 0
 2769 003e 1978     		ldrb	r1, [r3]	@ zero_extendqisi2
 2770 0040 9142     		cmp	r1, r2
 2771              		.loc 1 591 0
 2772 0042 18BF     		it	ne
 2773 0044 1A70     		strbne	r2, [r3]
 2774              		.loc 1 593 0
 2775 0046 02B0     		add	sp, sp, #8
 2776              		.cfi_remember_state
 2777              		.cfi_def_cfa_offset 8
 2778              		@ sp needed
 2779 0048 10BD     		pop	{r4, pc}
 2780              	.LVL207:
 2781              	.L216:
 2782              		.cfi_restore_state
 2783              	.LBB64:
 2784              	.LBB65:
 2785              		.loc 1 579 0
 2786 004a 0649     		ldr	r1, .L217+4
 2787              		.loc 1 580 0
 2788 004c 074B     		ldr	r3, .L217+12
 2789              		.loc 1 579 0
 2790 004e 0720     		movs	r0, #7
 2791              		.loc 1 580 0
 2792 0050 0022     		movs	r2, #0
 2793              		.loc 1 579 0
ARM GAS  C:\Users\CHRIST~1\AppData\Local\Temp\ccDhfOXE.s 			page 50


 2794 0052 0870     		strb	r0, [r1]
 2795              		.loc 1 580 0
 2796 0054 1A70     		strb	r2, [r3]
 2797              		.loc 1 581 0
 2798 0056 FFF7FEFF 		bl	stop_pwm_hw
 2799              	.LVL208:
 2800              	.LBE65:
 2801              	.LBE64:
 2802              		.loc 1 593 0
 2803 005a 02B0     		add	sp, sp, #8
 2804              		.cfi_def_cfa_offset 8
 2805              		@ sp needed
 2806 005c 10BD     		pop	{r4, pc}
 2807              	.L218:
 2808 005e 00BF     		.align	2
 2809              	.L217:
 2810 0060 00000000 		.word	.LANCHOR0
 2811 0064 00000000 		.word	.LANCHOR14
 2812 0068 00000000 		.word	.LANCHOR22
 2813 006c 00000000 		.word	.LANCHOR7
 2814              		.cfi_endproc
 2815              	.LFE267:
 2816              		.size	mcpwm_foc_set_current, .-mcpwm_foc_set_current
 2817              		.section	.text.mcpwm_foc_stop_pwm,"ax",%progbits
 2818              		.align	1
 2819              		.p2align 4,,15
 2820              		.global	mcpwm_foc_stop_pwm
 2821              		.syntax unified
 2822              		.thumb
 2823              		.thumb_func
 2824              		.fpu fpv4-sp-d16
 2825              		.type	mcpwm_foc_stop_pwm, %function
 2826              	mcpwm_foc_stop_pwm:
 2827              	.LFB262:
 2828              		.loc 1 502 0
 2829              		.cfi_startproc
 2830              		@ args = 0, pretend = 0, frame = 0
 2831              		@ frame_needed = 0, uses_anonymous_args = 0
 2832              		@ link register save eliminated.
 2833              		.loc 1 503 0
 2834 0000 9FED010A 		vldr.32	s0, .L220
 2835 0004 FFF7FEBF 		b	mcpwm_foc_set_current
 2836              	.LVL209:
 2837              	.L221:
 2838              		.align	2
 2839              	.L220:
 2840 0008 00000000 		.word	0
 2841              		.cfi_endproc
 2842              	.LFE262:
 2843              		.size	mcpwm_foc_stop_pwm, .-mcpwm_foc_stop_pwm
 2844              		.section	.text.mcpwm_foc_set_brake_current,"ax",%progbits
 2845              		.align	1
 2846              		.p2align 4,,15
 2847              		.global	mcpwm_foc_set_brake_current
 2848              		.syntax unified
 2849              		.thumb
 2850              		.thumb_func
ARM GAS  C:\Users\CHRIST~1\AppData\Local\Temp\ccDhfOXE.s 			page 51


 2851              		.fpu fpv4-sp-d16
 2852              		.type	mcpwm_foc_set_brake_current, %function
 2853              	mcpwm_foc_set_brake_current:
 2854              	.LFB268:
 2855              		.loc 1 602 0
 2856              		.cfi_startproc
 2857              		@ args = 0, pretend = 0, frame = 8
 2858              		@ frame_needed = 0, uses_anonymous_args = 0
 2859              	.LVL210:
 2860              		.loc 1 603 0
 2861 0000 174B     		ldr	r3, .L233
 2862              		.loc 1 602 0
 2863 0002 10B5     		push	{r4, lr}
 2864              		.cfi_def_cfa_offset 8
 2865              		.cfi_offset 4, -8
 2866              		.cfi_offset 14, -4
 2867              		.loc 1 603 0
 2868 0004 1B68     		ldr	r3, [r3]
 2869 0006 D3ED4F7A 		vldr.32	s15, [r3, #316]
 2870 000a B0EEC07A 		vabs.f32	s14, s0
 2871 000e B4EEE77A 		vcmpe.f32	s14, s15
 2872              		.loc 1 602 0
 2873 0012 82B0     		sub	sp, sp, #8
 2874              		.cfi_def_cfa_offset 16
 2875              		.loc 1 603 0
 2876 0014 F1EE10FA 		vmrs	APSR_nzcv, FPSCR
 2877              		.loc 1 602 0
 2878 0018 8DED010A 		vstr.32	s0, [sp, #4]
 2879              		.loc 1 603 0
 2880 001c 16D4     		bmi	.L232
 2881              		.loc 1 610 0
 2882 001e 93ED010A 		vldr.32	s0, [r3, #4]
 2883              	.LVL211:
 2884 0022 D3ED010A 		vldr.32	s1, [r3, #4]
 2885 0026 B1EE400A 		vneg.f32	s0, s0
 2886 002a 01A8     		add	r0, sp, #4
 2887              	.LVL212:
 2888 002c FFF7FEFF 		bl	utils_truncate_number
 2889              	.LVL213:
 2890              		.loc 1 612 0
 2891 0030 0C48     		ldr	r0, .L233+4
 2892              		.loc 1 613 0
 2893 0032 0D4A     		ldr	r2, .L233+8
 2894              		.loc 1 615 0
 2895 0034 0D4B     		ldr	r3, .L233+12
 2896              		.loc 1 613 0
 2897 0036 0199     		ldr	r1, [sp, #4]	@ float
 2898              		.loc 1 612 0
 2899 0038 0324     		movs	r4, #3
 2900 003a 0470     		strb	r4, [r0]
 2901              		.loc 1 613 0
 2902 003c 1160     		str	r1, [r2]	@ float
 2903              		.loc 1 615 0
 2904 003e 1A78     		ldrb	r2, [r3]	@ zero_extendqisi2
 2905 0040 022A     		cmp	r2, #2
 2906              		.loc 1 616 0
 2907 0042 1CBF     		itt	ne
ARM GAS  C:\Users\CHRIST~1\AppData\Local\Temp\ccDhfOXE.s 			page 52


 2908 0044 0222     		movne	r2, #2
 2909 0046 1A70     		strbne	r2, [r3]
 2910              		.loc 1 618 0
 2911 0048 02B0     		add	sp, sp, #8
 2912              		.cfi_remember_state
 2913              		.cfi_def_cfa_offset 8
 2914              		@ sp needed
 2915 004a 10BD     		pop	{r4, pc}
 2916              	.LVL214:
 2917              	.L232:
 2918              		.cfi_restore_state
 2919              		.loc 1 604 0
 2920 004c 0549     		ldr	r1, .L233+4
 2921              		.loc 1 605 0
 2922 004e 074B     		ldr	r3, .L233+12
 2923              		.loc 1 604 0
 2924 0050 0720     		movs	r0, #7
 2925              		.loc 1 605 0
 2926 0052 0022     		movs	r2, #0
 2927              		.loc 1 604 0
 2928 0054 0870     		strb	r0, [r1]
 2929              		.loc 1 605 0
 2930 0056 1A70     		strb	r2, [r3]
 2931              		.loc 1 606 0
 2932 0058 FFF7FEFF 		bl	stop_pwm_hw
 2933              	.LVL215:
 2934              		.loc 1 618 0
 2935 005c 02B0     		add	sp, sp, #8
 2936              		.cfi_def_cfa_offset 8
 2937              		@ sp needed
 2938 005e 10BD     		pop	{r4, pc}
 2939              	.L234:
 2940              		.align	2
 2941              	.L233:
 2942 0060 00000000 		.word	.LANCHOR0
 2943 0064 00000000 		.word	.LANCHOR14
 2944 0068 00000000 		.word	.LANCHOR22
 2945 006c 00000000 		.word	.LANCHOR7
 2946              		.cfi_endproc
 2947              	.LFE268:
 2948              		.size	mcpwm_foc_set_brake_current, .-mcpwm_foc_set_brake_current
 2949              		.section	.text.mcpwm_foc_set_handbrake,"ax",%progbits
 2950              		.align	1
 2951              		.p2align 4,,15
 2952              		.global	mcpwm_foc_set_handbrake
 2953              		.syntax unified
 2954              		.thumb
 2955              		.thumb_func
 2956              		.fpu fpv4-sp-d16
 2957              		.type	mcpwm_foc_set_handbrake, %function
 2958              	mcpwm_foc_set_handbrake:
 2959              	.LFB269:
 2960              		.loc 1 627 0
 2961              		.cfi_startproc
 2962              		@ args = 0, pretend = 0, frame = 8
 2963              		@ frame_needed = 0, uses_anonymous_args = 0
 2964              	.LVL216:
ARM GAS  C:\Users\CHRIST~1\AppData\Local\Temp\ccDhfOXE.s 			page 53


 2965              		.loc 1 628 0
 2966 0000 174B     		ldr	r3, .L246
 2967              		.loc 1 627 0
 2968 0002 10B5     		push	{r4, lr}
 2969              		.cfi_def_cfa_offset 8
 2970              		.cfi_offset 4, -8
 2971              		.cfi_offset 14, -4
 2972              		.loc 1 628 0
 2973 0004 1B68     		ldr	r3, [r3]
 2974 0006 D3ED4F7A 		vldr.32	s15, [r3, #316]
 2975 000a B0EEC07A 		vabs.f32	s14, s0
 2976 000e B4EEE77A 		vcmpe.f32	s14, s15
 2977              		.loc 1 627 0
 2978 0012 82B0     		sub	sp, sp, #8
 2979              		.cfi_def_cfa_offset 16
 2980              		.loc 1 628 0
 2981 0014 F1EE10FA 		vmrs	APSR_nzcv, FPSCR
 2982              		.loc 1 627 0
 2983 0018 8DED010A 		vstr.32	s0, [sp, #4]
 2984              		.loc 1 628 0
 2985 001c 16D4     		bmi	.L245
 2986              		.loc 1 635 0
 2987 001e 93ED010A 		vldr.32	s0, [r3, #4]
 2988              	.LVL217:
 2989 0022 D3ED010A 		vldr.32	s1, [r3, #4]
 2990 0026 B1EE400A 		vneg.f32	s0, s0
 2991 002a 01A8     		add	r0, sp, #4
 2992              	.LVL218:
 2993 002c FFF7FEFF 		bl	utils_truncate_number
 2994              	.LVL219:
 2995              		.loc 1 637 0
 2996 0030 0C48     		ldr	r0, .L246+4
 2997              		.loc 1 638 0
 2998 0032 0D4A     		ldr	r2, .L246+8
 2999              		.loc 1 640 0
 3000 0034 0D4B     		ldr	r3, .L246+12
 3001              		.loc 1 638 0
 3002 0036 0199     		ldr	r1, [sp, #4]	@ float
 3003              		.loc 1 637 0
 3004 0038 0524     		movs	r4, #5
 3005 003a 0470     		strb	r4, [r0]
 3006              		.loc 1 638 0
 3007 003c 1160     		str	r1, [r2]	@ float
 3008              		.loc 1 640 0
 3009 003e 1A78     		ldrb	r2, [r3]	@ zero_extendqisi2
 3010 0040 022A     		cmp	r2, #2
 3011              		.loc 1 641 0
 3012 0042 1CBF     		itt	ne
 3013 0044 0222     		movne	r2, #2
 3014 0046 1A70     		strbne	r2, [r3]
 3015              		.loc 1 643 0
 3016 0048 02B0     		add	sp, sp, #8
 3017              		.cfi_remember_state
 3018              		.cfi_def_cfa_offset 8
 3019              		@ sp needed
 3020 004a 10BD     		pop	{r4, pc}
 3021              	.LVL220:
ARM GAS  C:\Users\CHRIST~1\AppData\Local\Temp\ccDhfOXE.s 			page 54


 3022              	.L245:
 3023              		.cfi_restore_state
 3024              		.loc 1 629 0
 3025 004c 0549     		ldr	r1, .L246+4
 3026              		.loc 1 630 0
 3027 004e 074B     		ldr	r3, .L246+12
 3028              		.loc 1 629 0
 3029 0050 0720     		movs	r0, #7
 3030              		.loc 1 630 0
 3031 0052 0022     		movs	r2, #0
 3032              		.loc 1 629 0
 3033 0054 0870     		strb	r0, [r1]
 3034              		.loc 1 630 0
 3035 0056 1A70     		strb	r2, [r3]
 3036              		.loc 1 631 0
 3037 0058 FFF7FEFF 		bl	stop_pwm_hw
 3038              	.LVL221:
 3039              		.loc 1 643 0
 3040 005c 02B0     		add	sp, sp, #8
 3041              		.cfi_def_cfa_offset 8
 3042              		@ sp needed
 3043 005e 10BD     		pop	{r4, pc}
 3044              	.L247:
 3045              		.align	2
 3046              	.L246:
 3047 0060 00000000 		.word	.LANCHOR0
 3048 0064 00000000 		.word	.LANCHOR14
 3049 0068 00000000 		.word	.LANCHOR22
 3050 006c 00000000 		.word	.LANCHOR7
 3051              		.cfi_endproc
 3052              	.LFE269:
 3053              		.size	mcpwm_foc_set_handbrake, .-mcpwm_foc_set_handbrake
 3054              		.section	.text.mcpwm_foc_set_openloop,"ax",%progbits
 3055              		.align	1
 3056              		.p2align 4,,15
 3057              		.global	mcpwm_foc_set_openloop
 3058              		.syntax unified
 3059              		.thumb
 3060              		.thumb_func
 3061              		.fpu fpv4-sp-d16
 3062              		.type	mcpwm_foc_set_openloop, %function
 3063              	mcpwm_foc_set_openloop:
 3064              	.LFB270:
 3065              		.loc 1 654 0
 3066              		.cfi_startproc
 3067              		@ args = 0, pretend = 0, frame = 8
 3068              		@ frame_needed = 0, uses_anonymous_args = 0
 3069              	.LVL222:
 3070 0000 30B5     		push	{r4, r5, lr}
 3071              		.cfi_def_cfa_offset 12
 3072              		.cfi_offset 4, -12
 3073              		.cfi_offset 5, -8
 3074              		.cfi_offset 14, -4
 3075              		.loc 1 655 0
 3076 0002 1F4B     		ldr	r3, .L259
 3077 0004 1B68     		ldr	r3, [r3]
 3078              		.loc 1 654 0
ARM GAS  C:\Users\CHRIST~1\AppData\Local\Temp\ccDhfOXE.s 			page 55


 3079 0006 2DED028B 		vpush.64	{d8}
 3080              		.cfi_def_cfa_offset 20
 3081              		.cfi_offset 80, -20
 3082              		.cfi_offset 81, -16
 3083              		.loc 1 655 0
 3084 000a D3ED4F7A 		vldr.32	s15, [r3, #316]
 3085 000e B0EEC07A 		vabs.f32	s14, s0
 3086 0012 B4EEE77A 		vcmpe.f32	s14, s15
 3087              		.loc 1 654 0
 3088 0016 83B0     		sub	sp, sp, #12
 3089              		.cfi_def_cfa_offset 32
 3090              		.loc 1 655 0
 3091 0018 F1EE10FA 		vmrs	APSR_nzcv, FPSCR
 3092              		.loc 1 654 0
 3093 001c 8DED010A 		vstr.32	s0, [sp, #4]
 3094              		.loc 1 655 0
 3095 0020 21D4     		bmi	.L258
 3096              		.loc 1 662 0
 3097 0022 93ED010A 		vldr.32	s0, [r3, #4]
 3098              	.LVL223:
 3099              		.loc 1 664 0
 3100 0026 174C     		ldr	r4, .L259+4
 3101 0028 B0EE608A 		vmov.f32	s16, s1
 3102              		.loc 1 662 0
 3103 002c B1EE400A 		vneg.f32	s0, s0
 3104 0030 D3ED010A 		vldr.32	s1, [r3, #4]
 3105              	.LVL224:
 3106 0034 01A8     		add	r0, sp, #4
 3107              	.LVL225:
 3108 0036 FFF7FEFF 		bl	utils_truncate_number
 3109              	.LVL226:
 3110              		.loc 1 666 0
 3111 003a DFED137A 		vldr.32	s15, .L259+8
 3112              		.loc 1 665 0
 3113 003e 1349     		ldr	r1, .L259+12
 3114              		.loc 1 666 0
 3115 0040 134A     		ldr	r2, .L259+16
 3116              		.loc 1 668 0
 3117 0042 144B     		ldr	r3, .L259+20
 3118              		.loc 1 665 0
 3119 0044 0198     		ldr	r0, [sp, #4]	@ float
 3120              		.loc 1 666 0
 3121 0046 28EE278A 		vmul.f32	s16, s16, s15
 3122              	.LVL227:
 3123              		.loc 1 664 0
 3124 004a 0625     		movs	r5, #6
 3125 004c 2570     		strb	r5, [r4]
 3126              		.loc 1 665 0
 3127 004e 0860     		str	r0, [r1]	@ float
 3128              		.loc 1 666 0
 3129 0050 82ED008A 		vstr.32	s16, [r2]
 3130              		.loc 1 668 0
 3131 0054 1A78     		ldrb	r2, [r3]	@ zero_extendqisi2
 3132 0056 022A     		cmp	r2, #2
 3133              		.loc 1 669 0
 3134 0058 1CBF     		itt	ne
 3135 005a 0222     		movne	r2, #2
ARM GAS  C:\Users\CHRIST~1\AppData\Local\Temp\ccDhfOXE.s 			page 56


 3136 005c 1A70     		strbne	r2, [r3]
 3137              		.loc 1 671 0
 3138 005e 03B0     		add	sp, sp, #12
 3139              		.cfi_remember_state
 3140              		.cfi_def_cfa_offset 20
 3141              		@ sp needed
 3142 0060 BDEC028B 		vldm	sp!, {d8}
 3143              		.cfi_restore 80
 3144              		.cfi_restore 81
 3145              		.cfi_def_cfa_offset 12
 3146 0064 30BD     		pop	{r4, r5, pc}
 3147              	.LVL228:
 3148              	.L258:
 3149              		.cfi_restore_state
 3150              		.loc 1 656 0
 3151 0066 0749     		ldr	r1, .L259+4
 3152              		.loc 1 657 0
 3153 0068 0A4B     		ldr	r3, .L259+20
 3154              		.loc 1 656 0
 3155 006a 0720     		movs	r0, #7
 3156              		.loc 1 657 0
 3157 006c 0022     		movs	r2, #0
 3158              		.loc 1 656 0
 3159 006e 0870     		strb	r0, [r1]
 3160              		.loc 1 657 0
 3161 0070 1A70     		strb	r2, [r3]
 3162              		.loc 1 658 0
 3163 0072 FFF7FEFF 		bl	stop_pwm_hw
 3164              	.LVL229:
 3165              		.loc 1 671 0
 3166 0076 03B0     		add	sp, sp, #12
 3167              		.cfi_def_cfa_offset 20
 3168              		@ sp needed
 3169 0078 BDEC028B 		vldm	sp!, {d8}
 3170              		.cfi_restore 80
 3171              		.cfi_restore 81
 3172              		.cfi_def_cfa_offset 12
 3173 007c 30BD     		pop	{r4, r5, pc}
 3174              	.L260:
 3175 007e 00BF     		.align	2
 3176              	.L259:
 3177 0080 00000000 		.word	.LANCHOR0
 3178 0084 00000000 		.word	.LANCHOR14
 3179 0088 5077D63D 		.word	1037465424
 3180 008c 00000000 		.word	.LANCHOR22
 3181 0090 00000000 		.word	.LANCHOR32
 3182 0094 00000000 		.word	.LANCHOR7
 3183              		.cfi_endproc
 3184              	.LFE270:
 3185              		.size	mcpwm_foc_set_openloop, .-mcpwm_foc_set_openloop
 3186              		.section	.text.mcpwm_foc_get_duty_cycle_set,"ax",%progbits
 3187              		.align	1
 3188              		.p2align 4,,15
 3189              		.global	mcpwm_foc_get_duty_cycle_set
 3190              		.syntax unified
 3191              		.thumb
 3192              		.thumb_func
ARM GAS  C:\Users\CHRIST~1\AppData\Local\Temp\ccDhfOXE.s 			page 57


 3193              		.fpu fpv4-sp-d16
 3194              		.type	mcpwm_foc_get_duty_cycle_set, %function
 3195              	mcpwm_foc_get_duty_cycle_set:
 3196              	.LFB271:
 3197              		.loc 1 673 0
 3198              		.cfi_startproc
 3199              		@ args = 0, pretend = 0, frame = 0
 3200              		@ frame_needed = 0, uses_anonymous_args = 0
 3201              		@ link register save eliminated.
 3202              		.loc 1 674 0
 3203 0000 014B     		ldr	r3, .L262
 3204 0002 93ED000A 		vldr.32	s0, [r3]
 3205              		.loc 1 675 0
 3206 0006 7047     		bx	lr
 3207              	.L263:
 3208              		.align	2
 3209              	.L262:
 3210 0008 00000000 		.word	.LANCHOR30
 3211              		.cfi_endproc
 3212              	.LFE271:
 3213              		.size	mcpwm_foc_get_duty_cycle_set, .-mcpwm_foc_get_duty_cycle_set
 3214              		.section	.text.mcpwm_foc_get_duty_cycle_now,"ax",%progbits
 3215              		.align	1
 3216              		.p2align 4,,15
 3217              		.global	mcpwm_foc_get_duty_cycle_now
 3218              		.syntax unified
 3219              		.thumb
 3220              		.thumb_func
 3221              		.fpu fpv4-sp-d16
 3222              		.type	mcpwm_foc_get_duty_cycle_now, %function
 3223              	mcpwm_foc_get_duty_cycle_now:
 3224              	.LFB272:
 3225              		.loc 1 677 0
 3226              		.cfi_startproc
 3227              		@ args = 0, pretend = 0, frame = 0
 3228              		@ frame_needed = 0, uses_anonymous_args = 0
 3229              		@ link register save eliminated.
 3230              		.loc 1 678 0
 3231 0000 014B     		ldr	r3, .L265
 3232 0002 93ED030A 		vldr.32	s0, [r3, #12]
 3233              		.loc 1 679 0
 3234 0006 7047     		bx	lr
 3235              	.L266:
 3236              		.align	2
 3237              	.L265:
 3238 0008 00000000 		.word	.LANCHOR10
 3239              		.cfi_endproc
 3240              	.LFE272:
 3241              		.size	mcpwm_foc_get_duty_cycle_now, .-mcpwm_foc_get_duty_cycle_now
 3242              		.section	.text.mcpwm_foc_get_pid_pos_set,"ax",%progbits
 3243              		.align	1
 3244              		.p2align 4,,15
 3245              		.global	mcpwm_foc_get_pid_pos_set
 3246              		.syntax unified
 3247              		.thumb
 3248              		.thumb_func
 3249              		.fpu fpv4-sp-d16
ARM GAS  C:\Users\CHRIST~1\AppData\Local\Temp\ccDhfOXE.s 			page 58


 3250              		.type	mcpwm_foc_get_pid_pos_set, %function
 3251              	mcpwm_foc_get_pid_pos_set:
 3252              	.LFB273:
 3253              		.loc 1 681 0
 3254              		.cfi_startproc
 3255              		@ args = 0, pretend = 0, frame = 0
 3256              		@ frame_needed = 0, uses_anonymous_args = 0
 3257              		@ link register save eliminated.
 3258              		.loc 1 682 0
 3259 0000 014B     		ldr	r3, .L268
 3260 0002 93ED000A 		vldr.32	s0, [r3]
 3261              		.loc 1 683 0
 3262 0006 7047     		bx	lr
 3263              	.L269:
 3264              		.align	2
 3265              	.L268:
 3266 0008 00000000 		.word	.LANCHOR33
 3267              		.cfi_endproc
 3268              	.LFE273:
 3269              		.size	mcpwm_foc_get_pid_pos_set, .-mcpwm_foc_get_pid_pos_set
 3270              		.section	.text.mcpwm_foc_get_pid_pos_now,"ax",%progbits
 3271              		.align	1
 3272              		.p2align 4,,15
 3273              		.global	mcpwm_foc_get_pid_pos_now
 3274              		.syntax unified
 3275              		.thumb
 3276              		.thumb_func
 3277              		.fpu fpv4-sp-d16
 3278              		.type	mcpwm_foc_get_pid_pos_now, %function
 3279              	mcpwm_foc_get_pid_pos_now:
 3280              	.LFB274:
 3281              		.loc 1 685 0
 3282              		.cfi_startproc
 3283              		@ args = 0, pretend = 0, frame = 0
 3284              		@ frame_needed = 0, uses_anonymous_args = 0
 3285              		@ link register save eliminated.
 3286              		.loc 1 686 0
 3287 0000 014B     		ldr	r3, .L271
 3288 0002 93ED000A 		vldr.32	s0, [r3]
 3289              		.loc 1 687 0
 3290 0006 7047     		bx	lr
 3291              	.L272:
 3292              		.align	2
 3293              	.L271:
 3294 0008 00000000 		.word	.LANCHOR41
 3295              		.cfi_endproc
 3296              	.LFE274:
 3297              		.size	mcpwm_foc_get_pid_pos_now, .-mcpwm_foc_get_pid_pos_now
 3298              		.section	.text.mcpwm_foc_get_switching_frequency_now,"ax",%progbits
 3299              		.align	1
 3300              		.p2align 4,,15
 3301              		.global	mcpwm_foc_get_switching_frequency_now
 3302              		.syntax unified
 3303              		.thumb
 3304              		.thumb_func
 3305              		.fpu fpv4-sp-d16
 3306              		.type	mcpwm_foc_get_switching_frequency_now, %function
ARM GAS  C:\Users\CHRIST~1\AppData\Local\Temp\ccDhfOXE.s 			page 59


 3307              	mcpwm_foc_get_switching_frequency_now:
 3308              	.LFB275:
 3309              		.loc 1 695 0
 3310              		.cfi_startproc
 3311              		@ args = 0, pretend = 0, frame = 0
 3312              		@ frame_needed = 0, uses_anonymous_args = 0
 3313              		@ link register save eliminated.
 3314              		.loc 1 696 0
 3315 0000 024B     		ldr	r3, .L274
 3316 0002 1B68     		ldr	r3, [r3]
 3317 0004 93ED2A0A 		vldr.32	s0, [r3, #168]
 3318              		.loc 1 697 0
 3319 0008 7047     		bx	lr
 3320              	.L275:
 3321 000a 00BF     		.align	2
 3322              	.L274:
 3323 000c 00000000 		.word	.LANCHOR0
 3324              		.cfi_endproc
 3325              	.LFE275:
 3326              		.size	mcpwm_foc_get_switching_frequency_now, .-mcpwm_foc_get_switching_frequency_now
 3327              		.section	.text.mcpwm_foc_get_sampling_frequency_now,"ax",%progbits
 3328              		.align	1
 3329              		.p2align 4,,15
 3330              		.global	mcpwm_foc_get_sampling_frequency_now
 3331              		.syntax unified
 3332              		.thumb
 3333              		.thumb_func
 3334              		.fpu fpv4-sp-d16
 3335              		.type	mcpwm_foc_get_sampling_frequency_now, %function
 3336              	mcpwm_foc_get_sampling_frequency_now:
 3337              	.LFB276:
 3338              		.loc 1 705 0
 3339              		.cfi_startproc
 3340              		@ args = 0, pretend = 0, frame = 0
 3341              		@ frame_needed = 0, uses_anonymous_args = 0
 3342              		@ link register save eliminated.
 3343              		.loc 1 713 0
 3344 0000 044B     		ldr	r3, .L277
 3345 0002 1B68     		ldr	r3, [r3]
 3346 0004 93ED2A0A 		vldr.32	s0, [r3, #168]
 3347 0008 F6EE007A 		vmov.f32	s15, #5.0e-1
 3348              		.loc 1 715 0
 3349 000c 20EE270A 		vmul.f32	s0, s0, s15
 3350 0010 7047     		bx	lr
 3351              	.L278:
 3352 0012 00BF     		.align	2
 3353              	.L277:
 3354 0014 00000000 		.word	.LANCHOR0
 3355              		.cfi_endproc
 3356              	.LFE276:
 3357              		.size	mcpwm_foc_get_sampling_frequency_now, .-mcpwm_foc_get_sampling_frequency_now
 3358              		.section	.text.mcpwm_foc_get_rpm,"ax",%progbits
 3359              		.align	1
 3360              		.p2align 4,,15
 3361              		.global	mcpwm_foc_get_rpm
 3362              		.syntax unified
 3363              		.thumb
ARM GAS  C:\Users\CHRIST~1\AppData\Local\Temp\ccDhfOXE.s 			page 60


 3364              		.thumb_func
 3365              		.fpu fpv4-sp-d16
 3366              		.type	mcpwm_foc_get_rpm, %function
 3367              	mcpwm_foc_get_rpm:
 3368              	.LFB277:
 3369              		.loc 1 725 0
 3370              		.cfi_startproc
 3371              		@ args = 0, pretend = 0, frame = 0
 3372              		@ frame_needed = 0, uses_anonymous_args = 0
 3373              		@ link register save eliminated.
 3374              		.loc 1 726 0
 3375 0000 034B     		ldr	r3, .L280
 3376 0002 DFED047A 		vldr.32	s15, .L280+4
 3377 0006 93ED000A 		vldr.32	s0, [r3]
 3378              		.loc 1 727 0
 3379 000a 80EE270A 		vdiv.f32	s0, s0, s15
 3380 000e 7047     		bx	lr
 3381              	.L281:
 3382              		.align	2
 3383              	.L280:
 3384 0010 00000000 		.word	.LANCHOR12
 3385 0014 5077D63D 		.word	1037465424
 3386              		.cfi_endproc
 3387              	.LFE277:
 3388              		.size	mcpwm_foc_get_rpm, .-mcpwm_foc_get_rpm
 3389              		.section	.text.mcpwm_foc_get_tot_current,"ax",%progbits
 3390              		.align	1
 3391              		.p2align 4,,15
 3392              		.global	mcpwm_foc_get_tot_current
 3393              		.syntax unified
 3394              		.thumb
 3395              		.thumb_func
 3396              		.fpu fpv4-sp-d16
 3397              		.type	mcpwm_foc_get_tot_current, %function
 3398              	mcpwm_foc_get_tot_current:
 3399              	.LFB278:
 3400              		.loc 1 737 0
 3401              		.cfi_startproc
 3402              		@ args = 0, pretend = 0, frame = 0
 3403              		@ frame_needed = 0, uses_anonymous_args = 0
 3404              		@ link register save eliminated.
 3405              		.loc 1 738 0
 3406 0000 094B     		ldr	r3, .L285
 3407 0002 D3ED147A 		vldr.32	s15, [r3, #80]
 3408 0006 93ED100A 		vldr.32	s0, [r3, #64]
 3409 000a F5EEC07A 		vcmpe.f32	s15, #0
 3410 000e F1EE10FA 		vmrs	APSR_nzcv, FPSCR
 3411 0012 B7EE007A 		vmov.f32	s14, #1.0e+0
 3412 0016 FFEE007A 		vmov.f32	s15, #-1.0e+0
 3413 001a 58BF     		it	pl
 3414 001c F0EE477A 		vmovpl.f32	s15, s14
 3415              		.loc 1 739 0
 3416 0020 27EE800A 		vmul.f32	s0, s15, s0
 3417 0024 7047     		bx	lr
 3418              	.L286:
 3419 0026 00BF     		.align	2
 3420              	.L285:
ARM GAS  C:\Users\CHRIST~1\AppData\Local\Temp\ccDhfOXE.s 			page 61


 3421 0028 00000000 		.word	.LANCHOR10
 3422              		.cfi_endproc
 3423              	.LFE278:
 3424              		.size	mcpwm_foc_get_tot_current, .-mcpwm_foc_get_tot_current
 3425              		.section	.text.mcpwm_foc_get_tot_current_filtered,"ax",%progbits
 3426              		.align	1
 3427              		.p2align 4,,15
 3428              		.global	mcpwm_foc_get_tot_current_filtered
 3429              		.syntax unified
 3430              		.thumb
 3431              		.thumb_func
 3432              		.fpu fpv4-sp-d16
 3433              		.type	mcpwm_foc_get_tot_current_filtered, %function
 3434              	mcpwm_foc_get_tot_current_filtered:
 3435              	.LFB279:
 3436              		.loc 1 749 0
 3437              		.cfi_startproc
 3438              		@ args = 0, pretend = 0, frame = 0
 3439              		@ frame_needed = 0, uses_anonymous_args = 0
 3440              		@ link register save eliminated.
 3441              		.loc 1 750 0
 3442 0000 094B     		ldr	r3, .L290
 3443 0002 D3ED147A 		vldr.32	s15, [r3, #80]
 3444 0006 93ED120A 		vldr.32	s0, [r3, #72]
 3445 000a F5EEC07A 		vcmpe.f32	s15, #0
 3446 000e F1EE10FA 		vmrs	APSR_nzcv, FPSCR
 3447 0012 B7EE007A 		vmov.f32	s14, #1.0e+0
 3448 0016 FFEE007A 		vmov.f32	s15, #-1.0e+0
 3449 001a 58BF     		it	pl
 3450 001c F0EE477A 		vmovpl.f32	s15, s14
 3451              		.loc 1 751 0
 3452 0020 27EE800A 		vmul.f32	s0, s15, s0
 3453 0024 7047     		bx	lr
 3454              	.L291:
 3455 0026 00BF     		.align	2
 3456              	.L290:
 3457 0028 00000000 		.word	.LANCHOR10
 3458              		.cfi_endproc
 3459              	.LFE279:
 3460              		.size	mcpwm_foc_get_tot_current_filtered, .-mcpwm_foc_get_tot_current_filtered
 3461              		.section	.text.mcpwm_foc_get_abs_motor_current,"ax",%progbits
 3462              		.align	1
 3463              		.p2align 4,,15
 3464              		.global	mcpwm_foc_get_abs_motor_current
 3465              		.syntax unified
 3466              		.thumb
 3467              		.thumb_func
 3468              		.fpu fpv4-sp-d16
 3469              		.type	mcpwm_foc_get_abs_motor_current, %function
 3470              	mcpwm_foc_get_abs_motor_current:
 3471              	.LFB280:
 3472              		.loc 1 760 0
 3473              		.cfi_startproc
 3474              		@ args = 0, pretend = 0, frame = 0
 3475              		@ frame_needed = 0, uses_anonymous_args = 0
 3476              		@ link register save eliminated.
 3477              		.loc 1 761 0
ARM GAS  C:\Users\CHRIST~1\AppData\Local\Temp\ccDhfOXE.s 			page 62


 3478 0000 014B     		ldr	r3, .L293
 3479 0002 93ED070A 		vldr.32	s0, [r3, #28]
 3480              		.loc 1 762 0
 3481 0006 7047     		bx	lr
 3482              	.L294:
 3483              		.align	2
 3484              	.L293:
 3485 0008 00000000 		.word	.LANCHOR10
 3486              		.cfi_endproc
 3487              	.LFE280:
 3488              		.size	mcpwm_foc_get_abs_motor_current, .-mcpwm_foc_get_abs_motor_current
 3489              		.section	.text.mcpwm_foc_get_abs_motor_voltage,"ax",%progbits
 3490              		.align	1
 3491              		.p2align 4,,15
 3492              		.global	mcpwm_foc_get_abs_motor_voltage
 3493              		.syntax unified
 3494              		.thumb
 3495              		.thumb_func
 3496              		.fpu fpv4-sp-d16
 3497              		.type	mcpwm_foc_get_abs_motor_voltage, %function
 3498              	mcpwm_foc_get_abs_motor_voltage:
 3499              	.LFB281:
 3500              		.loc 1 770 0
 3501              		.cfi_startproc
 3502              		@ args = 0, pretend = 0, frame = 0
 3503              		@ frame_needed = 0, uses_anonymous_args = 0
 3504 0000 08B5     		push	{r3, lr}
 3505              		.cfi_def_cfa_offset 8
 3506              		.cfi_offset 3, -8
 3507              		.cfi_offset 14, -4
 3508              		.loc 1 771 0
 3509 0002 0D4B     		ldr	r3, .L299
 3510 0004 D3ED137A 		vldr.32	s15, [r3, #76]
 3511              	.LVL230:
 3512              		.loc 1 772 0
 3513 0008 93ED140A 		vldr.32	s0, [r3, #80]
 3514              	.LVL231:
 3515              		.loc 1 773 0
 3516 000c 20EE000A 		vmul.f32	s0, s0, s0
 3517              	.LVL232:
 3518              		.loc 1 770 0
 3519 0010 2DED028B 		vpush.64	{d8}
 3520              		.cfi_def_cfa_offset 16
 3521              		.cfi_offset 80, -16
 3522              		.cfi_offset 81, -12
 3523              		.loc 1 773 0
 3524 0014 A7EEA70A 		vfma.f32	s0, s15, s15
 3525 0018 B5EE400A 		vcmp.f32	s0, #0
 3526 001c F1EE10FA 		vmrs	APSR_nzcv, FPSCR
 3527 0020 B1EEC08A 		vsqrt.f32	s16, s0
 3528 0024 04D4     		bmi	.L298
 3529              	.LVL233:
 3530              	.L295:
 3531              		.loc 1 774 0
 3532 0026 B0EE480A 		vmov.f32	s0, s16
 3533 002a BDEC028B 		vldm	sp!, {d8}
 3534              		.cfi_remember_state
ARM GAS  C:\Users\CHRIST~1\AppData\Local\Temp\ccDhfOXE.s 			page 63


 3535              		.cfi_restore 80
 3536              		.cfi_restore 81
 3537              		.cfi_def_cfa_offset 8
 3538 002e 08BD     		pop	{r3, pc}
 3539              	.LVL234:
 3540              	.L298:
 3541              		.cfi_restore_state
 3542              		.loc 1 773 0
 3543 0030 FFF7FEFF 		bl	sqrtf
 3544              	.LVL235:
 3545 0034 F7E7     		b	.L295
 3546              	.L300:
 3547 0036 00BF     		.align	2
 3548              	.L299:
 3549 0038 00000000 		.word	.LANCHOR10
 3550              		.cfi_endproc
 3551              	.LFE281:
 3552              		.size	mcpwm_foc_get_abs_motor_voltage, .-mcpwm_foc_get_abs_motor_voltage
 3553              		.section	.text.mcpwm_foc_get_abs_motor_current_filtered,"ax",%progbits
 3554              		.align	1
 3555              		.p2align 4,,15
 3556              		.global	mcpwm_foc_get_abs_motor_current_filtered
 3557              		.syntax unified
 3558              		.thumb
 3559              		.thumb_func
 3560              		.fpu fpv4-sp-d16
 3561              		.type	mcpwm_foc_get_abs_motor_current_filtered, %function
 3562              	mcpwm_foc_get_abs_motor_current_filtered:
 3563              	.LFB282:
 3564              		.loc 1 783 0
 3565              		.cfi_startproc
 3566              		@ args = 0, pretend = 0, frame = 0
 3567              		@ frame_needed = 0, uses_anonymous_args = 0
 3568              		@ link register save eliminated.
 3569              		.loc 1 784 0
 3570 0000 014B     		ldr	r3, .L302
 3571 0002 93ED080A 		vldr.32	s0, [r3, #32]
 3572              		.loc 1 785 0
 3573 0006 7047     		bx	lr
 3574              	.L303:
 3575              		.align	2
 3576              	.L302:
 3577 0008 00000000 		.word	.LANCHOR10
 3578              		.cfi_endproc
 3579              	.LFE282:
 3580              		.size	mcpwm_foc_get_abs_motor_current_filtered, .-mcpwm_foc_get_abs_motor_current_filtered
 3581              		.section	.text.mcpwm_foc_get_tot_current_directional,"ax",%progbits
 3582              		.align	1
 3583              		.p2align 4,,15
 3584              		.global	mcpwm_foc_get_tot_current_directional
 3585              		.syntax unified
 3586              		.thumb
 3587              		.thumb_func
 3588              		.fpu fpv4-sp-d16
 3589              		.type	mcpwm_foc_get_tot_current_directional, %function
 3590              	mcpwm_foc_get_tot_current_directional:
 3591              	.LFB322:
ARM GAS  C:\Users\CHRIST~1\AppData\Local\Temp\ccDhfOXE.s 			page 64


 3592              		.cfi_startproc
 3593              		@ args = 0, pretend = 0, frame = 0
 3594              		@ frame_needed = 0, uses_anonymous_args = 0
 3595              		@ link register save eliminated.
 3596 0000 014B     		ldr	r3, .L305
 3597 0002 93ED100A 		vldr.32	s0, [r3, #64]
 3598 0006 7047     		bx	lr
 3599              	.L306:
 3600              		.align	2
 3601              	.L305:
 3602 0008 00000000 		.word	.LANCHOR10
 3603              		.cfi_endproc
 3604              	.LFE322:
 3605              		.size	mcpwm_foc_get_tot_current_directional, .-mcpwm_foc_get_tot_current_directional
 3606              		.section	.text.mcpwm_foc_get_tot_current_directional_filtered,"ax",%progbits
 3607              		.align	1
 3608              		.p2align 4,,15
 3609              		.global	mcpwm_foc_get_tot_current_directional_filtered
 3610              		.syntax unified
 3611              		.thumb
 3612              		.thumb_func
 3613              		.fpu fpv4-sp-d16
 3614              		.type	mcpwm_foc_get_tot_current_directional_filtered, %function
 3615              	mcpwm_foc_get_tot_current_directional_filtered:
 3616              	.LFB284:
 3617              		.loc 1 805 0
 3618              		.cfi_startproc
 3619              		@ args = 0, pretend = 0, frame = 0
 3620              		@ frame_needed = 0, uses_anonymous_args = 0
 3621              		@ link register save eliminated.
 3622              		.loc 1 806 0
 3623 0000 014B     		ldr	r3, .L308
 3624 0002 93ED120A 		vldr.32	s0, [r3, #72]
 3625              		.loc 1 807 0
 3626 0006 7047     		bx	lr
 3627              	.L309:
 3628              		.align	2
 3629              	.L308:
 3630 0008 00000000 		.word	.LANCHOR10
 3631              		.cfi_endproc
 3632              	.LFE284:
 3633              		.size	mcpwm_foc_get_tot_current_directional_filtered, .-mcpwm_foc_get_tot_current_directional_filt
 3634              		.section	.text.mcpwm_foc_get_id,"ax",%progbits
 3635              		.align	1
 3636              		.p2align 4,,15
 3637              		.global	mcpwm_foc_get_id
 3638              		.syntax unified
 3639              		.thumb
 3640              		.thumb_func
 3641              		.fpu fpv4-sp-d16
 3642              		.type	mcpwm_foc_get_id, %function
 3643              	mcpwm_foc_get_id:
 3644              	.LFB285:
 3645              		.loc 1 815 0
 3646              		.cfi_startproc
 3647              		@ args = 0, pretend = 0, frame = 0
 3648              		@ frame_needed = 0, uses_anonymous_args = 0
ARM GAS  C:\Users\CHRIST~1\AppData\Local\Temp\ccDhfOXE.s 			page 65


 3649              		@ link register save eliminated.
 3650              		.loc 1 816 0
 3651 0000 014B     		ldr	r3, .L311
 3652 0002 93ED0F0A 		vldr.32	s0, [r3, #60]
 3653              		.loc 1 817 0
 3654 0006 7047     		bx	lr
 3655              	.L312:
 3656              		.align	2
 3657              	.L311:
 3658 0008 00000000 		.word	.LANCHOR10
 3659              		.cfi_endproc
 3660              	.LFE285:
 3661              		.size	mcpwm_foc_get_id, .-mcpwm_foc_get_id
 3662              		.section	.text.mcpwm_foc_get_iq,"ax",%progbits
 3663              		.align	1
 3664              		.p2align 4,,15
 3665              		.global	mcpwm_foc_get_iq
 3666              		.syntax unified
 3667              		.thumb
 3668              		.thumb_func
 3669              		.fpu fpv4-sp-d16
 3670              		.type	mcpwm_foc_get_iq, %function
 3671              	mcpwm_foc_get_iq:
 3672              	.LFB286:
 3673              		.loc 1 825 0
 3674              		.cfi_startproc
 3675              		@ args = 0, pretend = 0, frame = 0
 3676              		@ frame_needed = 0, uses_anonymous_args = 0
 3677              		@ link register save eliminated.
 3678              		.loc 1 826 0
 3679 0000 014B     		ldr	r3, .L314
 3680 0002 93ED100A 		vldr.32	s0, [r3, #64]
 3681              		.loc 1 827 0
 3682 0006 7047     		bx	lr
 3683              	.L315:
 3684              		.align	2
 3685              	.L314:
 3686 0008 00000000 		.word	.LANCHOR10
 3687              		.cfi_endproc
 3688              	.LFE286:
 3689              		.size	mcpwm_foc_get_iq, .-mcpwm_foc_get_iq
 3690              		.section	.text.mcpwm_foc_get_tot_current_in,"ax",%progbits
 3691              		.align	1
 3692              		.p2align 4,,15
 3693              		.global	mcpwm_foc_get_tot_current_in
 3694              		.syntax unified
 3695              		.thumb
 3696              		.thumb_func
 3697              		.fpu fpv4-sp-d16
 3698              		.type	mcpwm_foc_get_tot_current_in, %function
 3699              	mcpwm_foc_get_tot_current_in:
 3700              	.LFB320:
 3701              		.cfi_startproc
 3702              		@ args = 0, pretend = 0, frame = 0
 3703              		@ frame_needed = 0, uses_anonymous_args = 0
 3704              		@ link register save eliminated.
 3705 0000 014B     		ldr	r3, .L317
ARM GAS  C:\Users\CHRIST~1\AppData\Local\Temp\ccDhfOXE.s 			page 66


 3706 0002 93ED090A 		vldr.32	s0, [r3, #36]
 3707 0006 7047     		bx	lr
 3708              	.L318:
 3709              		.align	2
 3710              	.L317:
 3711 0008 00000000 		.word	.LANCHOR10
 3712              		.cfi_endproc
 3713              	.LFE320:
 3714              		.size	mcpwm_foc_get_tot_current_in, .-mcpwm_foc_get_tot_current_in
 3715              		.section	.text.mcpwm_foc_get_tot_current_in_filtered,"ax",%progbits
 3716              		.align	1
 3717              		.p2align 4,,15
 3718              		.global	mcpwm_foc_get_tot_current_in_filtered
 3719              		.syntax unified
 3720              		.thumb
 3721              		.thumb_func
 3722              		.fpu fpv4-sp-d16
 3723              		.type	mcpwm_foc_get_tot_current_in_filtered, %function
 3724              	mcpwm_foc_get_tot_current_in_filtered:
 3725              	.LFB288:
 3726              		.loc 1 845 0
 3727              		.cfi_startproc
 3728              		@ args = 0, pretend = 0, frame = 0
 3729              		@ frame_needed = 0, uses_anonymous_args = 0
 3730              		@ link register save eliminated.
 3731              		.loc 1 846 0
 3732 0000 014B     		ldr	r3, .L320
 3733 0002 93ED090A 		vldr.32	s0, [r3, #36]
 3734              		.loc 1 847 0
 3735 0006 7047     		bx	lr
 3736              	.L321:
 3737              		.align	2
 3738              	.L320:
 3739 0008 00000000 		.word	.LANCHOR10
 3740              		.cfi_endproc
 3741              	.LFE288:
 3742              		.size	mcpwm_foc_get_tot_current_in_filtered, .-mcpwm_foc_get_tot_current_in_filtered
 3743              		.section	.text.mcpwm_foc_get_tachometer_value,"ax",%progbits
 3744              		.align	1
 3745              		.p2align 4,,15
 3746              		.global	mcpwm_foc_get_tachometer_value
 3747              		.syntax unified
 3748              		.thumb
 3749              		.thumb_func
 3750              		.fpu fpv4-sp-d16
 3751              		.type	mcpwm_foc_get_tachometer_value, %function
 3752              	mcpwm_foc_get_tachometer_value:
 3753              	.LFB289:
 3754              		.loc 1 860 0
 3755              		.cfi_startproc
 3756              		@ args = 0, pretend = 0, frame = 0
 3757              		@ frame_needed = 0, uses_anonymous_args = 0
 3758              		@ link register save eliminated.
 3759              	.LVL236:
 3760              		.loc 1 861 0
 3761 0000 034B     		ldr	r3, .L327
 3762 0002 1A68     		ldr	r2, [r3]
ARM GAS  C:\Users\CHRIST~1\AppData\Local\Temp\ccDhfOXE.s 			page 67


 3763              	.LVL237:
 3764              		.loc 1 863 0
 3765 0004 08B1     		cbz	r0, .L322
 3766              		.loc 1 864 0
 3767 0006 0021     		movs	r1, #0
 3768 0008 1960     		str	r1, [r3]
 3769              	.L322:
 3770              		.loc 1 868 0
 3771 000a 1046     		mov	r0, r2
 3772              	.LVL238:
 3773 000c 7047     		bx	lr
 3774              	.L328:
 3775 000e 00BF     		.align	2
 3776              	.L327:
 3777 0010 00000000 		.word	.LANCHOR38
 3778              		.cfi_endproc
 3779              	.LFE289:
 3780              		.size	mcpwm_foc_get_tachometer_value, .-mcpwm_foc_get_tachometer_value
 3781              		.section	.text.mcpwm_foc_get_tachometer_abs_value,"ax",%progbits
 3782              		.align	1
 3783              		.p2align 4,,15
 3784              		.global	mcpwm_foc_get_tachometer_abs_value
 3785              		.syntax unified
 3786              		.thumb
 3787              		.thumb_func
 3788              		.fpu fpv4-sp-d16
 3789              		.type	mcpwm_foc_get_tachometer_abs_value, %function
 3790              	mcpwm_foc_get_tachometer_abs_value:
 3791              	.LFB290:
 3792              		.loc 1 880 0
 3793              		.cfi_startproc
 3794              		@ args = 0, pretend = 0, frame = 0
 3795              		@ frame_needed = 0, uses_anonymous_args = 0
 3796              		@ link register save eliminated.
 3797              	.LVL239:
 3798              		.loc 1 881 0
 3799 0000 034B     		ldr	r3, .L334
 3800 0002 1A68     		ldr	r2, [r3]
 3801              	.LVL240:
 3802              		.loc 1 883 0
 3803 0004 08B1     		cbz	r0, .L329
 3804              		.loc 1 884 0
 3805 0006 0021     		movs	r1, #0
 3806 0008 1960     		str	r1, [r3]
 3807              	.L329:
 3808              		.loc 1 888 0
 3809 000a 1046     		mov	r0, r2
 3810              	.LVL241:
 3811 000c 7047     		bx	lr
 3812              	.L335:
 3813 000e 00BF     		.align	2
 3814              	.L334:
 3815 0010 00000000 		.word	.LANCHOR39
 3816              		.cfi_endproc
 3817              	.LFE290:
 3818              		.size	mcpwm_foc_get_tachometer_abs_value, .-mcpwm_foc_get_tachometer_abs_value
 3819              		.section	.text.mcpwm_foc_get_phase,"ax",%progbits
ARM GAS  C:\Users\CHRIST~1\AppData\Local\Temp\ccDhfOXE.s 			page 68


 3820              		.align	1
 3821              		.p2align 4,,15
 3822              		.global	mcpwm_foc_get_phase
 3823              		.syntax unified
 3824              		.thumb
 3825              		.thumb_func
 3826              		.fpu fpv4-sp-d16
 3827              		.type	mcpwm_foc_get_phase, %function
 3828              	mcpwm_foc_get_phase:
 3829              	.LFB291:
 3830              		.loc 1 896 0
 3831              		.cfi_startproc
 3832              		@ args = 0, pretend = 0, frame = 8
 3833              		@ frame_needed = 0, uses_anonymous_args = 0
 3834 0000 00B5     		push	{lr}
 3835              		.cfi_def_cfa_offset 4
 3836              		.cfi_offset 14, -4
 3837              		.loc 1 897 0
 3838 0002 094B     		ldr	r3, .L338
 3839 0004 9FED097A 		vldr.32	s14, .L338+4
 3840 0008 D3ED047A 		vldr.32	s15, [r3, #16]
 3841              		.loc 1 896 0
 3842 000c 83B0     		sub	sp, sp, #12
 3843              		.cfi_def_cfa_offset 16
 3844              		.loc 1 897 0
 3845 000e 67EE877A 		vmul.f32	s15, s15, s14
 3846 0012 02A8     		add	r0, sp, #8
 3847 0014 60ED017A 		vstmdb.32	r0!, {s15}
 3848              		.loc 1 898 0
 3849 0018 FFF7FEFF 		bl	utils_norm_angle
 3850              	.LVL242:
 3851              		.loc 1 900 0
 3852 001c 9DED010A 		vldr.32	s0, [sp, #4]
 3853 0020 03B0     		add	sp, sp, #12
 3854              		.cfi_def_cfa_offset 4
 3855              		@ sp needed
 3856 0022 5DF804FB 		ldr	pc, [sp], #4
 3857              	.L339:
 3858 0026 00BF     		.align	2
 3859              	.L338:
 3860 0028 00000000 		.word	.LANCHOR10
 3861 002c E02E6542 		.word	1113927392
 3862              		.cfi_endproc
 3863              	.LFE291:
 3864              		.size	mcpwm_foc_get_phase, .-mcpwm_foc_get_phase
 3865              		.section	.text.mcpwm_foc_get_phase_observer,"ax",%progbits
 3866              		.align	1
 3867              		.p2align 4,,15
 3868              		.global	mcpwm_foc_get_phase_observer
 3869              		.syntax unified
 3870              		.thumb
 3871              		.thumb_func
 3872              		.fpu fpv4-sp-d16
 3873              		.type	mcpwm_foc_get_phase_observer, %function
 3874              	mcpwm_foc_get_phase_observer:
 3875              	.LFB292:
 3876              		.loc 1 908 0
ARM GAS  C:\Users\CHRIST~1\AppData\Local\Temp\ccDhfOXE.s 			page 69


 3877              		.cfi_startproc
 3878              		@ args = 0, pretend = 0, frame = 8
 3879              		@ frame_needed = 0, uses_anonymous_args = 0
 3880 0000 00B5     		push	{lr}
 3881              		.cfi_def_cfa_offset 4
 3882              		.cfi_offset 14, -4
 3883              		.loc 1 909 0
 3884 0002 094B     		ldr	r3, .L342
 3885 0004 9FED097A 		vldr.32	s14, .L342+4
 3886 0008 D3ED007A 		vldr.32	s15, [r3]
 3887              		.loc 1 908 0
 3888 000c 83B0     		sub	sp, sp, #12
 3889              		.cfi_def_cfa_offset 16
 3890              		.loc 1 909 0
 3891 000e 67EE877A 		vmul.f32	s15, s15, s14
 3892 0012 02A8     		add	r0, sp, #8
 3893 0014 60ED017A 		vstmdb.32	r0!, {s15}
 3894              		.loc 1 910 0
 3895 0018 FFF7FEFF 		bl	utils_norm_angle
 3896              	.LVL243:
 3897              		.loc 1 912 0
 3898 001c 9DED010A 		vldr.32	s0, [sp, #4]
 3899 0020 03B0     		add	sp, sp, #12
 3900              		.cfi_def_cfa_offset 4
 3901              		@ sp needed
 3902 0022 5DF804FB 		ldr	pc, [sp], #4
 3903              	.L343:
 3904 0026 00BF     		.align	2
 3905              	.L342:
 3906 0028 00000000 		.word	.LANCHOR16
 3907 002c E02E6542 		.word	1113927392
 3908              		.cfi_endproc
 3909              	.LFE292:
 3910              		.size	mcpwm_foc_get_phase_observer, .-mcpwm_foc_get_phase_observer
 3911              		.section	.text.mcpwm_foc_get_phase_encoder,"ax",%progbits
 3912              		.align	1
 3913              		.p2align 4,,15
 3914              		.global	mcpwm_foc_get_phase_encoder
 3915              		.syntax unified
 3916              		.thumb
 3917              		.thumb_func
 3918              		.fpu fpv4-sp-d16
 3919              		.type	mcpwm_foc_get_phase_encoder, %function
 3920              	mcpwm_foc_get_phase_encoder:
 3921              	.LFB293:
 3922              		.loc 1 920 0
 3923              		.cfi_startproc
 3924              		@ args = 0, pretend = 0, frame = 8
 3925              		@ frame_needed = 0, uses_anonymous_args = 0
 3926 0000 00B5     		push	{lr}
 3927              		.cfi_def_cfa_offset 4
 3928              		.cfi_offset 14, -4
 3929              		.loc 1 921 0
 3930 0002 094B     		ldr	r3, .L346
 3931 0004 9FED097A 		vldr.32	s14, .L346+4
 3932 0008 D3ED007A 		vldr.32	s15, [r3]
 3933              		.loc 1 920 0
ARM GAS  C:\Users\CHRIST~1\AppData\Local\Temp\ccDhfOXE.s 			page 70


 3934 000c 83B0     		sub	sp, sp, #12
 3935              		.cfi_def_cfa_offset 16
 3936              		.loc 1 921 0
 3937 000e 67EE877A 		vmul.f32	s15, s15, s14
 3938 0012 02A8     		add	r0, sp, #8
 3939 0014 60ED017A 		vstmdb.32	r0!, {s15}
 3940              		.loc 1 922 0
 3941 0018 FFF7FEFF 		bl	utils_norm_angle
 3942              	.LVL244:
 3943              		.loc 1 924 0
 3944 001c 9DED010A 		vldr.32	s0, [sp, #4]
 3945 0020 03B0     		add	sp, sp, #12
 3946              		.cfi_def_cfa_offset 4
 3947              		@ sp needed
 3948 0022 5DF804FB 		ldr	pc, [sp], #4
 3949              	.L347:
 3950 0026 00BF     		.align	2
 3951              	.L346:
 3952 0028 00000000 		.word	.LANCHOR34
 3953 002c E02E6542 		.word	1113927392
 3954              		.cfi_endproc
 3955              	.LFE293:
 3956              		.size	mcpwm_foc_get_phase_encoder, .-mcpwm_foc_get_phase_encoder
 3957              		.section	.text.mcpwm_foc_get_vd,"ax",%progbits
 3958              		.align	1
 3959              		.p2align 4,,15
 3960              		.global	mcpwm_foc_get_vd
 3961              		.syntax unified
 3962              		.thumb
 3963              		.thumb_func
 3964              		.fpu fpv4-sp-d16
 3965              		.type	mcpwm_foc_get_vd, %function
 3966              	mcpwm_foc_get_vd:
 3967              	.LFB294:
 3968              		.loc 1 926 0
 3969              		.cfi_startproc
 3970              		@ args = 0, pretend = 0, frame = 0
 3971              		@ frame_needed = 0, uses_anonymous_args = 0
 3972              		@ link register save eliminated.
 3973              		.loc 1 927 0
 3974 0000 014B     		ldr	r3, .L349
 3975 0002 93ED130A 		vldr.32	s0, [r3, #76]
 3976              		.loc 1 928 0
 3977 0006 7047     		bx	lr
 3978              	.L350:
 3979              		.align	2
 3980              	.L349:
 3981 0008 00000000 		.word	.LANCHOR10
 3982              		.cfi_endproc
 3983              	.LFE294:
 3984              		.size	mcpwm_foc_get_vd, .-mcpwm_foc_get_vd
 3985              		.section	.text.mcpwm_foc_get_vq,"ax",%progbits
 3986              		.align	1
 3987              		.p2align 4,,15
 3988              		.global	mcpwm_foc_get_vq
 3989              		.syntax unified
 3990              		.thumb
ARM GAS  C:\Users\CHRIST~1\AppData\Local\Temp\ccDhfOXE.s 			page 71


 3991              		.thumb_func
 3992              		.fpu fpv4-sp-d16
 3993              		.type	mcpwm_foc_get_vq, %function
 3994              	mcpwm_foc_get_vq:
 3995              	.LFB295:
 3996              		.loc 1 930 0
 3997              		.cfi_startproc
 3998              		@ args = 0, pretend = 0, frame = 0
 3999              		@ frame_needed = 0, uses_anonymous_args = 0
 4000              		@ link register save eliminated.
 4001              		.loc 1 931 0
 4002 0000 014B     		ldr	r3, .L352
 4003 0002 93ED140A 		vldr.32	s0, [r3, #80]
 4004              		.loc 1 932 0
 4005 0006 7047     		bx	lr
 4006              	.L353:
 4007              		.align	2
 4008              	.L352:
 4009 0008 00000000 		.word	.LANCHOR10
 4010              		.cfi_endproc
 4011              	.LFE295:
 4012              		.size	mcpwm_foc_get_vq, .-mcpwm_foc_get_vq
 4013              		.global	__aeabi_f2d
 4014              		.section	.text.mcpwm_foc_encoder_detect,"ax",%progbits
 4015              		.align	1
 4016              		.p2align 4,,15
 4017              		.global	mcpwm_foc_encoder_detect
 4018              		.syntax unified
 4019              		.thumb
 4020              		.thumb_func
 4021              		.fpu fpv4-sp-d16
 4022              		.type	mcpwm_foc_encoder_detect, %function
 4023              	mcpwm_foc_encoder_detect:
 4024              	.LFB296:
 4025              		.loc 1 949 0
 4026              		.cfi_startproc
 4027              		@ args = 0, pretend = 0, frame = 24
 4028              		@ frame_needed = 0, uses_anonymous_args = 0
 4029              	.LVL245:
 4030 0000 2DE9F04F 		push	{r4, r5, r6, r7, r8, r9, r10, fp, lr}
 4031              		.cfi_def_cfa_offset 36
 4032              		.cfi_offset 4, -36
 4033              		.cfi_offset 5, -32
 4034              		.cfi_offset 6, -28
 4035              		.cfi_offset 7, -24
 4036              		.cfi_offset 8, -20
 4037              		.cfi_offset 9, -16
 4038              		.cfi_offset 10, -12
 4039              		.cfi_offset 11, -8
 4040              		.cfi_offset 14, -4
 4041 0004 2DED0E8B 		vpush.64	{d8, d9, d10, d11, d12, d13, d14}
 4042              		.cfi_def_cfa_offset 92
 4043              		.cfi_offset 80, -92
 4044              		.cfi_offset 81, -88
 4045              		.cfi_offset 82, -84
 4046              		.cfi_offset 83, -80
 4047              		.cfi_offset 84, -76
ARM GAS  C:\Users\CHRIST~1\AppData\Local\Temp\ccDhfOXE.s 			page 72


 4048              		.cfi_offset 85, -72
 4049              		.cfi_offset 86, -68
 4050              		.cfi_offset 87, -64
 4051              		.cfi_offset 88, -60
 4052              		.cfi_offset 89, -56
 4053              		.cfi_offset 90, -52
 4054              		.cfi_offset 91, -48
 4055              		.cfi_offset 92, -44
 4056              		.cfi_offset 93, -40
 4057 0008 87B0     		sub	sp, sp, #28
 4058              		.cfi_def_cfa_offset 120
 4059              		.loc 1 949 0
 4060 000a B0EE409A 		vmov.f32	s18, s0
 4061 000e 0746     		mov	r7, r0
 4062 0010 8946     		mov	r9, r1
 4063 0012 0292     		str	r2, [sp, #8]
 4064 0014 0393     		str	r3, [sp, #12]
 4065              		.loc 1 950 0
 4066 0016 FFF7FEFF 		bl	mc_interface_lock
 4067              	.LVL246:
 4068              		.loc 1 952 0
 4069 001a C449     		ldr	r1, .L441
 4070              		.loc 1 954 0
 4071 001c 9FEDC48A 		vldr.32	s16, .L441+4
 4072              		.loc 1 965 0
 4073 0020 DFF83C83 		ldr	r8, .L441+52
 4074              	.LBB66:
 4075              		.loc 1 976 0
 4076 0024 DFEDC38A 		vldr.32	s17, .L441+8
 4077 0028 C34C     		ldr	r4, .L441+12
 4078              	.LBE66:
 4079              		.loc 1 952 0
 4080 002a 0122     		movs	r2, #1
 4081 002c 0A70     		strb	r2, [r1]
 4082              		.loc 1 953 0
 4083 002e C34A     		ldr	r2, .L441+16
 4084 0030 82ED009A 		vstr.32	s18, [r2]
 4085              		.loc 1 954 0
 4086 0034 C24A     		ldr	r2, .L441+20
 4087 0036 82ED008A 		vstr.32	s16, [r2]
 4088              		.loc 1 955 0
 4089 003a C24A     		ldr	r2, .L441+24
 4090 003c 0223     		movs	r3, #2
 4091 003e 1370     		strb	r3, [r2]
 4092              		.loc 1 956 0
 4093 0040 C14A     		ldr	r2, .L441+28
 4094 0042 1370     		strb	r3, [r2]
 4095              		.loc 1 959 0
 4096 0044 FFF7FEFF 		bl	timeout_get_timeout_msec
 4097              	.LVL247:
 4098 0048 0190     		str	r0, [sp, #4]
 4099              	.LVL248:
 4100              		.loc 1 960 0
 4101 004a FFF7FEFF 		bl	timeout_get_brake_current
 4102              	.LVL249:
 4103 004e B0EE40AA 		vmov.f32	s20, s0
 4104              	.LVL250:
ARM GAS  C:\Users\CHRIST~1\AppData\Local\Temp\ccDhfOXE.s 			page 73


 4105              		.loc 1 961 0
 4106 0052 FFF7FEFF 		bl	timeout_reset
 4107              	.LVL251:
 4108              		.loc 1 962 0
 4109 0056 B0EE480A 		vmov.f32	s0, s16
 4110 005a BC48     		ldr	r0, .L441+32
 4111 005c FFF7FEFF 		bl	timeout_configure
 4112              	.LVL252:
 4113              		.loc 1 965 0
 4114 0060 D8F80030 		ldr	r3, [r8]
 4115 0064 D3ED2CAA 		vldr.32	s21, [r3, #176]
 4116              	.LVL253:
 4117              		.loc 1 966 0
 4118 0068 93F8B420 		ldrb	r2, [r3, #180]	@ zero_extendqisi2
 4119              		.loc 1 967 0
 4120 006c 93ED2EBA 		vldr.32	s22, [r3, #184]
 4121              		.loc 1 969 0
 4122 0070 83ED2C8A 		vstr.32	s16, [r3, #176]
 4123              		.loc 1 966 0
 4124 0074 09EE902A 		vmov	s19, r2	@ int
 4125              		.loc 1 970 0
 4126 0078 0022     		movs	r2, #0
 4127 007a 83F8B420 		strb	r2, [r3, #180]
 4128              		.loc 1 966 0
 4129 007e F8EE699A 		vcvt.f32.u32	s19, s19
 4130              	.LVL254:
 4131              		.loc 1 971 0
 4132 0082 4FF07E52 		mov	r2, #1065353216
 4133 0086 C3F8B820 		str	r2, [r3, #184]	@ float
 4134              		.loc 1 975 0
 4135 008a 1F25     		movs	r5, #31
 4136              	.LVL255:
 4137              	.L355:
 4138 008c FFF7FEFF 		bl	encoder_index_found
 4139              	.LVL256:
 4140 0090 70B9     		cbnz	r0, .L359
 4141 0092 9FEDA78A 		vldr.32	s16, .L441+4
 4142 0096 4FF4FA76 		mov	r6, #500
 4143              	.L356:
 4144              	.LVL257:
 4145              	.LBB67:
 4146              		.loc 1 978 0 discriminator 3
 4147 009a 0A20     		movs	r0, #10
 4148              		.loc 1 977 0 discriminator 3
 4149 009c 84ED008A 		vstr.32	s16, [r4]
 4150              		.loc 1 978 0 discriminator 3
 4151 00a0 FFF7FEFF 		bl	chThdSleep
 4152              	.LVL258:
 4153              		.loc 1 976 0 discriminator 3
 4154 00a4 013E     		subs	r6, r6, #1
 4155 00a6 38EE288A 		vadd.f32	s16, s16, s17
 4156              	.LVL259:
 4157 00aa F6D1     		bne	.L356
 4158              	.LVL260:
 4159              	.LBE67:
 4160              		.loc 1 982 0
 4161 00ac 013D     		subs	r5, r5, #1
ARM GAS  C:\Users\CHRIST~1\AppData\Local\Temp\ccDhfOXE.s 			page 74


 4162              	.LVL261:
 4163 00ae EDD1     		bne	.L355
 4164              	.LVL262:
 4165              	.L359:
 4166              		.loc 1 988 0
 4167 00b0 002F     		cmp	r7, #0
 4168 00b2 40F07E82 		bne	.L433
 4169              	.L358:
 4170              	.LVL263:
 4171              		.loc 1 975 0 discriminator 1
 4172 00b6 9FED9E8A 		vldr.32	s16, .L441+4
 4173              	.LBB68:
 4174              		.loc 1 993 0 discriminator 1
 4175 00ba DFED9E8A 		vldr.32	s17, .L441+8
 4176              	.LBE68:
 4177              		.loc 1 975 0 discriminator 1
 4178 00be 4FF4FA75 		mov	r5, #500
 4179              	.LVL264:
 4180              	.L361:
 4181              	.LBB69:
 4182              		.loc 1 995 0 discriminator 3
 4183 00c2 0A20     		movs	r0, #10
 4184              		.loc 1 994 0 discriminator 3
 4185 00c4 84ED008A 		vstr.32	s16, [r4]
 4186              		.loc 1 995 0 discriminator 3
 4187 00c8 FFF7FEFF 		bl	chThdSleep
 4188              	.LVL265:
 4189              		.loc 1 993 0 discriminator 3
 4190 00cc 013D     		subs	r5, r5, #1
 4191 00ce 38EE288A 		vadd.f32	s16, s16, s17
 4192              	.LVL266:
 4193 00d2 F6D1     		bne	.L361
 4194              	.LBE69:
 4195              		.loc 1 998 0
 4196 00d4 002F     		cmp	r7, #0
 4197 00d6 40F06882 		bne	.L434
 4198              	.L362:
 4199              		.loc 1 1008 0
 4200 00da 9D4D     		ldr	r5, .L441+36
 4201              		.loc 1 1007 0
 4202 00dc DFED94BA 		vldr.32	s23, .L441+4
 4203              	.LBB70:
 4204              	.LBB71:
 4205              	.LBB72:
 4206              		.loc 1 1013 0
 4207 00e0 DFED9CCA 		vldr.32	s25, .L441+40
 4208              		.loc 1 1014 0
 4209 00e4 9FED939A 		vldr.32	s18, .L441+8
 4210              	.LVL267:
 4211              	.LBE72:
 4212              		.loc 1 1018 0
 4213 00e8 DFF84CA2 		ldr	r10, .L441+12
 4214              		.loc 1 1028 0
 4215 00ec 9FED9FEA 		vldr.32	s28, .L441+64
 4216 00f0 DFED9DDA 		vldr.32	s27, .L441+60
 4217 00f4 DFF86CB2 		ldr	fp, .L441+56
 4218              	.LBE71:
ARM GAS  C:\Users\CHRIST~1\AppData\Local\Temp\ccDhfOXE.s 			page 75


 4219              	.LBE70:
 4220              		.loc 1 1003 0
 4221 00f8 42F21070 		movw	r0, #10000
 4222 00fc FFF7FEFF 		bl	chThdSleep
 4223              	.LVL268:
 4224              		.loc 1 1008 0
 4225 0100 95ED00DA 		vldr.32	s26, [r5]
 4226              	.LVL269:
 4227              		.loc 1 1006 0
 4228 0104 B0EE6BCA 		vmov.f32	s24, s23
 4229              	.LBB76:
 4230              		.loc 1 1010 0
 4231 0108 0026     		movs	r6, #0
 4232              	.LVL270:
 4233              	.L369:
 4234              	.LBB74:
 4235              		.loc 1 1011 0
 4236 010a D5ED00EA 		vldr.32	s29, [r5]
 4237              	.LVL271:
 4238              		.loc 1 1012 0
 4239 010e 94ED008A 		vldr.32	s16, [r4]
 4240              	.LVL272:
 4241              	.LBB73:
 4242              		.loc 1 1013 0
 4243 0112 78EE2C8A 		vadd.f32	s17, s16, s25
 4244 0116 F4EEC88A 		vcmpe.f32	s17, s16
 4245 011a F1EE10FA 		vmrs	APSR_nzcv, FPSCR
 4246 011e 0BDD     		ble	.L367
 4247              	.LVL273:
 4248              	.L366:
 4249              		.loc 1 1016 0
 4250 0120 0A20     		movs	r0, #10
 4251              		.loc 1 1015 0
 4252 0122 84ED008A 		vstr.32	s16, [r4]
 4253              		.loc 1 1016 0
 4254 0126 FFF7FEFF 		bl	chThdSleep
 4255              	.LVL274:
 4256              		.loc 1 1014 0
 4257 012a 38EE098A 		vadd.f32	s16, s16, s18
 4258              	.LVL275:
 4259              		.loc 1 1013 0
 4260 012e F4EEC88A 		vcmpe.f32	s17, s16
 4261 0132 F1EE10FA 		vmrs	APSR_nzcv, FPSCR
 4262 0136 F3DC     		bgt	.L366
 4263              	.L367:
 4264              	.LBE73:
 4265              		.loc 1 1018 0
 4266 0138 5046     		mov	r0, r10
 4267 013a FFF7FEFF 		bl	utils_norm_angle_rad
 4268              	.LVL276:
 4269              		.loc 1 1019 0
 4270 013e 40F6B830 		movw	r0, #3000
 4271 0142 FFF7FEFF 		bl	chThdSleep
 4272              	.LVL277:
 4273              		.loc 1 1020 0
 4274 0146 F0EE6E0A 		vmov.f32	s1, s29
 4275 014a 95ED000A 		vldr.32	s0, [r5]
ARM GAS  C:\Users\CHRIST~1\AppData\Local\Temp\ccDhfOXE.s 			page 76


 4276 014e FFF7FEFF 		bl	utils_angle_difference_rad
 4277              	.LVL278:
 4278              		.loc 1 1023 0
 4279 0152 05A9     		add	r1, sp, #20
 4280 0154 04A8     		add	r0, sp, #16
 4281              		.loc 1 1020 0
 4282 0156 B0EE408A 		vmov.f32	s16, s0
 4283              	.LVL279:
 4284              		.loc 1 1023 0
 4285 015a FFF7FEFF 		bl	sincosf
 4286              	.LVL280:
 4287              		.loc 1 1024 0
 4288 015e 9DED047A 		vldr.32	s14, [sp, #16]
 4289              		.loc 1 1025 0
 4290 0162 DDED057A 		vldr.32	s15, [sp, #20]
 4291              		.loc 1 1024 0
 4292 0166 3CEE07CA 		vadd.f32	s24, s24, s14
 4293              	.LVL281:
 4294              		.loc 1 1025 0
 4295 016a 7BEEA7BA 		vadd.f32	s23, s23, s15
 4296              	.LVL282:
 4297              		.loc 1 1027 0
 4298 016e 002F     		cmp	r7, #0
 4299 0170 40F0BF81 		bne	.L435
 4300              	.L365:
 4301              		.loc 1 1031 0
 4302 0174 032E     		cmp	r6, #3
 4303 0176 12DD     		ble	.L371
 4304              		.loc 1 1031 0 is_stmt 0 discriminator 1
 4305 0178 95ED000A 		vldr.32	s0, [r5]
 4306 017c F0EE4D0A 		vmov.f32	s1, s26
 4307 0180 FFF7FEFF 		bl	utils_angle_difference_rad
 4308              	.LVL283:
 4309 0184 F6EE007A 		vmov.f32	s15, #5.0e-1
 4310 0188 28EE278A 		vmul.f32	s16, s16, s15
 4311              	.LVL284:
 4312 018c B0EEC00A 		vabs.f32	s0, s0
 4313 0190 B0EEC88A 		vabs.f32	s16, s16
 4314 0194 B4EEC80A 		vcmpe.f32	s0, s16
 4315 0198 F1EE10FA 		vmrs	APSR_nzcv, FPSCR
 4316 019c 02D4     		bmi	.L370
 4317              	.L371:
 4318              	.LBE74:
 4319              		.loc 1 1010 0 is_stmt 1
 4320 019e 0136     		adds	r6, r6, #1
 4321              	.LVL285:
 4322 01a0 142E     		cmp	r6, #20
 4323 01a2 B2D1     		bne	.L369
 4324              	.L370:
 4325              	.LBE76:
 4326              		.loc 1 1036 0
 4327 01a4 95ED00DA 		vldr.32	s26, [r5]
 4328              	.LVL286:
 4329              	.LBB77:
 4330              	.LBB78:
 4331              	.LBB79:
 4332              		.loc 1 1041 0
ARM GAS  C:\Users\CHRIST~1\AppData\Local\Temp\ccDhfOXE.s 			page 77


 4333 01a8 DFED6ACA 		vldr.32	s25, .L441+40
 4334              		.loc 1 1042 0
 4335 01ac 9FED619A 		vldr.32	s18, .L441+8
 4336              	.LBE79:
 4337              		.loc 1 1046 0
 4338 01b0 DFF884A1 		ldr	r10, .L441+12
 4339              		.loc 1 1056 0
 4340 01b4 9FED6DEA 		vldr.32	s28, .L441+64
 4341 01b8 DFED6BDA 		vldr.32	s27, .L441+60
 4342 01bc DFF8A4B1 		ldr	fp, .L441+56
 4343              	.LBE78:
 4344              		.loc 1 1038 0
 4345 01c0 0026     		movs	r6, #0
 4346              	.LVL287:
 4347              	.L379:
 4348              	.LBB81:
 4349              		.loc 1 1039 0
 4350 01c2 D5ED00EA 		vldr.32	s29, [r5]
 4351              	.LVL288:
 4352              		.loc 1 1040 0
 4353 01c6 94ED008A 		vldr.32	s16, [r4]
 4354              	.LVL289:
 4355              	.LBB80:
 4356              		.loc 1 1041 0
 4357 01ca 78EE6C8A 		vsub.f32	s17, s16, s25
 4358 01ce B4EEE88A 		vcmpe.f32	s16, s17
 4359 01d2 F1EE10FA 		vmrs	APSR_nzcv, FPSCR
 4360 01d6 0BDD     		ble	.L377
 4361              	.LVL290:
 4362              	.L376:
 4363              		.loc 1 1044 0
 4364 01d8 0A20     		movs	r0, #10
 4365              		.loc 1 1043 0
 4366 01da 84ED008A 		vstr.32	s16, [r4]
 4367              		.loc 1 1044 0
 4368 01de FFF7FEFF 		bl	chThdSleep
 4369              	.LVL291:
 4370              		.loc 1 1042 0
 4371 01e2 38EE498A 		vsub.f32	s16, s16, s18
 4372              	.LVL292:
 4373              		.loc 1 1041 0
 4374 01e6 B4EEE88A 		vcmpe.f32	s16, s17
 4375 01ea F1EE10FA 		vmrs	APSR_nzcv, FPSCR
 4376 01ee F3DC     		bgt	.L376
 4377              	.L377:
 4378              	.LBE80:
 4379              		.loc 1 1046 0
 4380 01f0 5046     		mov	r0, r10
 4381 01f2 FFF7FEFF 		bl	utils_norm_angle_rad
 4382              	.LVL293:
 4383              		.loc 1 1047 0
 4384 01f6 40F6B830 		movw	r0, #3000
 4385 01fa FFF7FEFF 		bl	chThdSleep
 4386              	.LVL294:
 4387              		.loc 1 1048 0
 4388 01fe D5ED000A 		vldr.32	s1, [r5]
 4389 0202 B0EE6E0A 		vmov.f32	s0, s29
ARM GAS  C:\Users\CHRIST~1\AppData\Local\Temp\ccDhfOXE.s 			page 78


 4390 0206 FFF7FEFF 		bl	utils_angle_difference_rad
 4391              	.LVL295:
 4392              		.loc 1 1051 0
 4393 020a 05A9     		add	r1, sp, #20
 4394 020c 04A8     		add	r0, sp, #16
 4395              		.loc 1 1048 0
 4396 020e B0EE408A 		vmov.f32	s16, s0
 4397              	.LVL296:
 4398              		.loc 1 1051 0
 4399 0212 FFF7FEFF 		bl	sincosf
 4400              	.LVL297:
 4401              		.loc 1 1052 0
 4402 0216 9DED047A 		vldr.32	s14, [sp, #16]
 4403              		.loc 1 1053 0
 4404 021a DDED057A 		vldr.32	s15, [sp, #20]
 4405              		.loc 1 1052 0
 4406 021e 3CEE07CA 		vadd.f32	s24, s24, s14
 4407              	.LVL298:
 4408              		.loc 1 1053 0
 4409 0222 7BEEA7BA 		vadd.f32	s23, s23, s15
 4410              	.LVL299:
 4411              		.loc 1 1055 0
 4412 0226 002F     		cmp	r7, #0
 4413 0228 40F07181 		bne	.L436
 4414              	.L375:
 4415              		.loc 1 1059 0
 4416 022c 032E     		cmp	r6, #3
 4417 022e 12DD     		ble	.L381
 4418              		.loc 1 1059 0 is_stmt 0 discriminator 1
 4419 0230 95ED000A 		vldr.32	s0, [r5]
 4420 0234 F0EE4D0A 		vmov.f32	s1, s26
 4421 0238 FFF7FEFF 		bl	utils_angle_difference_rad
 4422              	.LVL300:
 4423 023c F6EE007A 		vmov.f32	s15, #5.0e-1
 4424 0240 28EE278A 		vmul.f32	s16, s16, s15
 4425              	.LVL301:
 4426 0244 B0EEC00A 		vabs.f32	s0, s0
 4427 0248 B0EEC88A 		vabs.f32	s16, s16
 4428 024c B4EEC80A 		vcmpe.f32	s0, s16
 4429 0250 F1EE10FA 		vmrs	APSR_nzcv, FPSCR
 4430 0254 02D4     		bmi	.L380
 4431              	.L381:
 4432              	.LBE81:
 4433              		.loc 1 1038 0 is_stmt 1
 4434 0256 0136     		adds	r6, r6, #1
 4435              	.LVL302:
 4436 0258 142E     		cmp	r6, #20
 4437 025a B2D1     		bne	.L379
 4438              	.L380:
 4439              	.LBE77:
 4440              		.loc 1 1064 0
 4441 025c F0EE6B0A 		vmov.f32	s1, s23
 4442 0260 B0EE4C0A 		vmov.f32	s0, s24
 4443 0264 FFF7FEFF 		bl	atan2f
 4444              	.LVL303:
 4445 0268 DFED407A 		vldr.32	s15, .L441+64
 4446 026c DFED3E6A 		vldr.32	s13, .L441+60
ARM GAS  C:\Users\CHRIST~1\AppData\Local\Temp\ccDhfOXE.s 			page 79


 4447              		.loc 1 1065 0
 4448 0270 039B     		ldr	r3, [sp, #12]
 4449              		.loc 1 1066 0
 4450 0272 9FED397A 		vldr.32	s14, .L441+44
 4451              		.loc 1 1064 0
 4452 0276 20EE270A 		vmul.f32	s0, s0, s15
 4453 027a C0EE267A 		vdiv.f32	s15, s0, s13
 4454              	.LVL304:
 4455              		.loc 1 1065 0
 4456 027e F5EEC07A 		vcmpe.f32	s15, #0
 4457 0282 F1EE10FA 		vmrs	APSR_nzcv, FPSCR
 4458 0286 4CBF     		ite	mi
 4459 0288 0126     		movmi	r6, #1
 4460              	.LVL305:
 4461 028a 0026     		movpl	r6, #0
 4462              		.loc 1 1067 0
 4463 028c F0EEE77A 		vabs.f32	s15, s15
 4464              	.LVL306:
 4465              		.loc 1 1065 0
 4466 0290 1E70     		strb	r6, [r3]
 4467              		.loc 1 1066 0
 4468 0292 87EE270A 		vdiv.f32	s0, s14, s15
 4469              	.LVL307:
 4470 0296 FFF7FEFF 		bl	roundf
 4471              	.LVL308:
 4472              		.loc 1 1069 0
 4473 029a D8F80030 		ldr	r3, [r8]
 4474              		.loc 1 1066 0
 4475 029e 029A     		ldr	r2, [sp, #8]
 4476 02a0 82ED000A 		vstr.32	s0, [r2]
 4477              		.loc 1 1069 0
 4478 02a4 83F8B460 		strb	r6, [r3, #180]
 4479              		.loc 1 1070 0
 4480 02a8 83ED2E0A 		vstr.32	s0, [r3, #184]
 4481              		.loc 1 1072 0
 4482 02ac 002F     		cmp	r7, #0
 4483 02ae 40F04C81 		bne	.L437
 4484              	.LBB83:
 4485              		.loc 1 1077 0
 4486 02b2 94ED008A 		vldr.32	s16, [r4]
 4487              	.LVL309:
 4488 02b6 DFED297A 		vldr.32	s15, .L441+48
 4489 02ba B4EEE78A 		vcmpe.f32	s16, s15
 4490 02be F1EE10FA 		vmrs	APSR_nzcv, FPSCR
 4491 02c2 40F15D81 		bpl	.L385
 4492              	.L384:
 4493              		.loc 1 1077 0 is_stmt 0 discriminator 3
 4494 02c6 9FED1B9A 		vldr.32	s18, .L441+8
 4495 02ca DFED248A 		vldr.32	s17, .L441+48
 4496              	.L388:
 4497              		.loc 1 1078 0 is_stmt 1 discriminator 3
 4498 02ce 84ED008A 		vstr.32	s16, [r4]
 4499              		.loc 1 1079 0 discriminator 3
 4500 02d2 1420     		movs	r0, #20
 4501 02d4 FFF7FEFF 		bl	chThdSleep
 4502              	.LVL310:
 4503              		.loc 1 1077 0 discriminator 3
ARM GAS  C:\Users\CHRIST~1\AppData\Local\Temp\ccDhfOXE.s 			page 80


 4504 02d8 38EE098A 		vadd.f32	s16, s16, s18
 4505              	.LVL311:
 4506 02dc B4EEE88A 		vcmpe.f32	s16, s17
 4507 02e0 F1EE10FA 		vmrs	APSR_nzcv, FPSCR
 4508 02e4 F3D4     		bmi	.L388
 4509              	.LBE83:
 4510              		.loc 1 1082 0
 4511 02e6 002F     		cmp	r7, #0
 4512 02e8 40F03C81 		bne	.L386
 4513              		.loc 1 1087 0
 4514 02ec D8F80030 		ldr	r3, [r8]
 4515 02f0 D3ED2E7A 		vldr.32	s15, [r3, #184]
 4516 02f4 B0EE087A 		vmov.f32	s14, #3.0e+0
 4517 02f8 67EE877A 		vmul.f32	s15, s15, s14
 4518 02fc FDEEE77A 		vcvt.s32.f32	s15, s15
 4519 0300 17EE90AA 		vmov	r10, s15	@ int
 4520              	.LVL312:
 4521              	.LBB84:
 4522              		.loc 1 1091 0
 4523 0304 BAF1000F 		cmp	r10, #0
 4524 0308 40F35781 		ble	.L438
 4525              	.L398:
 4526              	.LBE84:
 4527              	.LBB88:
 4528              		.loc 1 1038 0
 4529 030c 9FED088A 		vldr.32	s16, .L441+4
 4530              	.LVL313:
 4531              	.LBE88:
 4532              	.LBB89:
 4533              	.LBB85:
 4534              		.loc 1 1092 0
 4535 0310 DFED15BA 		vldr.32	s23, .L441+60
 4536              		.loc 1 1102 0
 4537 0314 9FED15CA 		vldr.32	s24, .L441+64
 4538 0318 DFF848B0 		ldr	fp, .L441+56
 4539 031c 07EE90AA 		vmov	s15, r10	@ int
 4540              	.LBE85:
 4541              	.LBE89:
 4542              	.LBB90:
 4543              		.loc 1 1038 0
 4544 0320 F0EE488A 		vmov.f32	s17, s16
 4545 0324 B8EEE79A 		vcvt.f32.s32	s18, s15
 4546 0328 0026     		movs	r6, #0
 4547 032a 25E0     		b	.L393
 4548              	.L442:
 4549              		.align	2
 4550              	.L441:
 4551 032c 00000000 		.word	.LANCHOR28
 4552 0330 00000000 		.word	0
 4553 0334 2EE34D3C 		.word	1011737390
 4554 0338 00000000 		.word	.LANCHOR29
 4555 033c 00000000 		.word	.LANCHOR31
 4556 0340 00000000 		.word	.LANCHOR22
 4557 0344 00000000 		.word	.LANCHOR14
 4558 0348 00000000 		.word	.LANCHOR7
 4559 034c C0270900 		.word	600000
 4560 0350 00000000 		.word	.LANCHOR34
ARM GAS  C:\Users\CHRIST~1\AppData\Local\Temp\ccDhfOXE.s 			page 81


 4561 0354 920A0640 		.word	1074137746
 4562 0358 0000F042 		.word	1123024896
 4563 035c DB0FC940 		.word	1086918619
 4564 0360 00000000 		.word	.LANCHOR0
 4565 0364 20000000 		.word	.LC3
 4566 0368 DB0F4940 		.word	1078530011
 4567 036c 00003443 		.word	1127481344
 4568              	.LVL314:
 4569              	.L391:
 4570              	.LBE90:
 4571              	.LBB91:
 4572              		.loc 1 1091 0 discriminator 2
 4573 0370 B245     		cmp	r10, r6
 4574 0372 3BD0     		beq	.L392
 4575              	.LVL315:
 4576              	.L439:
 4577 0374 D8F80030 		ldr	r3, [r8]
 4578              	.LVL316:
 4579              	.L393:
 4580              	.LBB86:
 4581              		.loc 1 1092 0
 4582 0378 93ED2E7A 		vldr.32	s14, [r3, #184]
 4583 037c 07EE906A 		vmov	s15, r6	@ int
 4584 0380 F8EEE77A 		vcvt.f32.s32	s15, s15
 4585              		.loc 1 1093 0
 4586 0384 41F28830 		movw	r0, #5000
 4587              		.loc 1 1092 0
 4588 0388 77EEA77A 		vadd.f32	s15, s15, s15
 4589              	.LBE86:
 4590              		.loc 1 1091 0
 4591 038c 0136     		adds	r6, r6, #1
 4592              	.LVL317:
 4593              	.LBB87:
 4594              		.loc 1 1092 0
 4595 038e 67EEAB7A 		vmul.f32	s15, s15, s23
 4596 0392 67EE877A 		vmul.f32	s15, s15, s14
 4597 0396 87EE897A 		vdiv.f32	s14, s15, s18
 4598 039a 84ED007A 		vstr.32	s14, [r4]
 4599              		.loc 1 1093 0
 4600 039e FFF7FEFF 		bl	chThdSleep
 4601              	.LVL318:
 4602              		.loc 1 1095 0
 4603 03a2 95ED000A 		vldr.32	s0, [r5]
 4604 03a6 D4ED000A 		vldr.32	s1, [r4]
 4605 03aa FFF7FEFF 		bl	utils_angle_difference_rad
 4606              	.LVL319:
 4607              		.loc 1 1097 0
 4608 03ae 05A9     		add	r1, sp, #20
 4609 03b0 04A8     		add	r0, sp, #16
 4610              		.loc 1 1095 0
 4611 03b2 F0EE40CA 		vmov.f32	s25, s0
 4612              	.LVL320:
 4613              		.loc 1 1097 0
 4614 03b6 FFF7FEFF 		bl	sincosf
 4615              	.LVL321:
 4616              		.loc 1 1098 0
 4617 03ba 9DED047A 		vldr.32	s14, [sp, #16]
ARM GAS  C:\Users\CHRIST~1\AppData\Local\Temp\ccDhfOXE.s 			page 82


 4618              		.loc 1 1099 0
 4619 03be DDED057A 		vldr.32	s15, [sp, #20]
 4620              		.loc 1 1098 0
 4621 03c2 78EE878A 		vadd.f32	s17, s17, s14
 4622              	.LVL322:
 4623              		.loc 1 1099 0
 4624 03c6 38EE278A 		vadd.f32	s16, s16, s15
 4625              	.LVL323:
 4626              		.loc 1 1101 0
 4627 03ca 002F     		cmp	r7, #0
 4628 03cc D0D0     		beq	.L391
 4629              		.loc 1 1102 0
 4630 03ce 6CEE8CCA 		vmul.f32	s25, s25, s24
 4631              	.LVL324:
 4632 03d2 CCEEAB7A 		vdiv.f32	s15, s25, s23
 4633 03d6 17EE900A 		vmov	r0, s15
 4634 03da FFF7FEFF 		bl	__aeabi_f2d
 4635              	.LVL325:
 4636 03de 0246     		mov	r2, r0
 4637 03e0 0B46     		mov	r3, r1
 4638 03e2 5846     		mov	r0, fp
 4639 03e4 FFF7FEFF 		bl	commands_printf
 4640              	.LVL326:
 4641              	.LBE87:
 4642              		.loc 1 1091 0
 4643 03e8 B245     		cmp	r10, r6
 4644 03ea C3D1     		bne	.L439
 4645              	.L392:
 4646              	.LBE91:
 4647              	.LBB92:
 4648              	.LBB93:
 4649              		.loc 1 1107 0
 4650 03ec 5FED22BA 		vldr.32	s23, .L441+60
 4651              		.loc 1 1117 0
 4652 03f0 1FED22CA 		vldr.32	s24, .L441+64
 4653 03f4 DFF808A2 		ldr	r10, .L443+60
 4654              	.LVL327:
 4655 03f8 01E0     		b	.L395
 4656              	.LVL328:
 4657              	.L394:
 4658              	.LBE93:
 4659              		.loc 1 1106 0 discriminator 2
 4660 03fa 013E     		subs	r6, r6, #1
 4661              	.LVL329:
 4662 03fc 3AD0     		beq	.L390
 4663              	.LVL330:
 4664              	.L395:
 4665              	.LBB94:
 4666              		.loc 1 1107 0
 4667 03fe 07EE906A 		vmov	s15, r6	@ int
 4668 0402 F8EEE77A 		vcvt.f32.s32	s15, s15
 4669 0406 D8F80030 		ldr	r3, [r8]
 4670 040a 77EEA77A 		vadd.f32	s15, s15, s15
 4671 040e 93ED2E7A 		vldr.32	s14, [r3, #184]
 4672 0412 67EEAB7A 		vmul.f32	s15, s15, s23
 4673              		.loc 1 1108 0
 4674 0416 41F28830 		movw	r0, #5000
ARM GAS  C:\Users\CHRIST~1\AppData\Local\Temp\ccDhfOXE.s 			page 83


 4675              		.loc 1 1107 0
 4676 041a 67EE877A 		vmul.f32	s15, s15, s14
 4677 041e 87EE897A 		vdiv.f32	s14, s15, s18
 4678 0422 84ED007A 		vstr.32	s14, [r4]
 4679              		.loc 1 1108 0
 4680 0426 FFF7FEFF 		bl	chThdSleep
 4681              	.LVL331:
 4682              		.loc 1 1110 0
 4683 042a 95ED000A 		vldr.32	s0, [r5]
 4684 042e D4ED000A 		vldr.32	s1, [r4]
 4685 0432 FFF7FEFF 		bl	utils_angle_difference_rad
 4686              	.LVL332:
 4687              		.loc 1 1112 0
 4688 0436 05A9     		add	r1, sp, #20
 4689 0438 04A8     		add	r0, sp, #16
 4690              		.loc 1 1110 0
 4691 043a F0EE40CA 		vmov.f32	s25, s0
 4692              	.LVL333:
 4693              		.loc 1 1112 0
 4694 043e FFF7FEFF 		bl	sincosf
 4695              	.LVL334:
 4696              		.loc 1 1113 0
 4697 0442 9DED047A 		vldr.32	s14, [sp, #16]
 4698              		.loc 1 1114 0
 4699 0446 DDED057A 		vldr.32	s15, [sp, #20]
 4700              		.loc 1 1113 0
 4701 044a 78EE878A 		vadd.f32	s17, s17, s14
 4702              	.LVL335:
 4703              		.loc 1 1114 0
 4704 044e 38EE278A 		vadd.f32	s16, s16, s15
 4705              	.LVL336:
 4706              		.loc 1 1116 0
 4707 0452 002F     		cmp	r7, #0
 4708 0454 D1D0     		beq	.L394
 4709              		.loc 1 1117 0
 4710 0456 6CEE8CCA 		vmul.f32	s25, s25, s24
 4711              	.LVL337:
 4712 045a CCEEAB7A 		vdiv.f32	s15, s25, s23
 4713 045e 17EE900A 		vmov	r0, s15
 4714 0462 FFF7FEFF 		bl	__aeabi_f2d
 4715              	.LVL338:
 4716 0466 0246     		mov	r2, r0
 4717 0468 0B46     		mov	r3, r1
 4718 046a 5046     		mov	r0, r10
 4719 046c FFF7FEFF 		bl	commands_printf
 4720              	.LVL339:
 4721              	.LBE94:
 4722              		.loc 1 1106 0
 4723 0470 013E     		subs	r6, r6, #1
 4724              	.LVL340:
 4725 0472 C4D1     		bne	.L395
 4726              	.LVL341:
 4727              	.L390:
 4728              	.LBE92:
 4729              		.loc 1 1121 0
 4730 0474 F0EE480A 		vmov.f32	s1, s16
 4731 0478 B0EE680A 		vmov.f32	s0, s17
ARM GAS  C:\Users\CHRIST~1\AppData\Local\Temp\ccDhfOXE.s 			page 84


 4732 047c FFF7FEFF 		bl	atan2f
 4733              	.LVL342:
 4734 0480 DFED507A 		vldr.32	s15, .L443
 4735 0484 DFED506A 		vldr.32	s13, .L443+4
 4736 0488 60EE277A 		vmul.f32	s15, s0, s15
 4737 048c 87EEA67A 		vdiv.f32	s14, s15, s13
 4738 0490 89ED007A 		vstr.32	s14, [r9]
 4739              		.loc 1 1123 0
 4740 0494 002F     		cmp	r7, #0
 4741 0496 48D1     		bne	.L440
 4742              	.L396:
 4743              		.loc 1 1127 0
 4744 0498 4846     		mov	r0, r9
 4745 049a FFF7FEFF 		bl	utils_norm_angle
 4746              	.LVL343:
 4747              	.L397:
 4748              		.loc 1 1134 0
 4749 049e 4B48     		ldr	r0, .L443+8
 4750              		.loc 1 1133 0
 4751 04a0 4B49     		ldr	r1, .L443+12
 4752 04a2 0022     		movs	r2, #0
 4753 04a4 0A60     		str	r2, [r1]	@ float
 4754              		.loc 1 1134 0
 4755 04a6 0260     		str	r2, [r0]	@ float
 4756              		.loc 1 1135 0
 4757 04a8 4A4A     		ldr	r2, .L443+16
 4758 04aa 0023     		movs	r3, #0
 4759 04ac 1370     		strb	r3, [r2]
 4760              		.loc 1 1136 0
 4761 04ae 4A4A     		ldr	r2, .L443+20
 4762 04b0 0721     		movs	r1, #7
 4763 04b2 1170     		strb	r1, [r2]
 4764              		.loc 1 1137 0
 4765 04b4 494A     		ldr	r2, .L443+24
 4766 04b6 1370     		strb	r3, [r2]
 4767              		.loc 1 1138 0
 4768 04b8 FFF7FEFF 		bl	stop_pwm_hw
 4769              	.LVL344:
 4770              		.loc 1 1141 0
 4771 04bc F5EE409A 		vcmp.f32	s19, #0
 4772 04c0 D8F80030 		ldr	r3, [r8]
 4773              		.loc 1 1146 0
 4774 04c4 0198     		ldr	r0, [sp, #4]
 4775              		.loc 1 1141 0
 4776 04c6 F1EE10FA 		vmrs	APSR_nzcv, FPSCR
 4777 04ca 14BF     		ite	ne
 4778 04cc 0122     		movne	r2, #1
 4779 04ce 0022     		moveq	r2, #0
 4780 04d0 83F8B420 		strb	r2, [r3, #180]
 4781              		.loc 1 1146 0
 4782 04d4 B0EE4A0A 		vmov.f32	s0, s20
 4783              		.loc 1 1142 0
 4784 04d8 C3ED2CAA 		vstr.32	s21, [r3, #176]
 4785              		.loc 1 1143 0
 4786 04dc 83ED2EBA 		vstr.32	s22, [r3, #184]
 4787              		.loc 1 1146 0
 4788 04e0 FFF7FEFF 		bl	timeout_configure
ARM GAS  C:\Users\CHRIST~1\AppData\Local\Temp\ccDhfOXE.s 			page 85


 4789              	.LVL345:
 4790              		.loc 1 1149 0
 4791 04e4 07B0     		add	sp, sp, #28
 4792              		.cfi_remember_state
 4793              		.cfi_def_cfa_offset 92
 4794              		@ sp needed
 4795 04e6 BDEC0E8B 		vldm	sp!, {d8-d14}
 4796              		.cfi_restore 92
 4797              		.cfi_restore 93
 4798              		.cfi_restore 90
 4799              		.cfi_restore 91
 4800              		.cfi_restore 88
 4801              		.cfi_restore 89
 4802              		.cfi_restore 86
 4803              		.cfi_restore 87
 4804              		.cfi_restore 84
 4805              		.cfi_restore 85
 4806              		.cfi_restore 82
 4807              		.cfi_restore 83
 4808              		.cfi_restore 80
 4809              		.cfi_restore 81
 4810              		.cfi_def_cfa_offset 36
 4811              	.LVL346:
 4812 04ea BDE8F04F 		pop	{r4, r5, r6, r7, r8, r9, r10, fp, lr}
 4813              		.cfi_restore 14
 4814              		.cfi_restore 11
 4815              		.cfi_restore 10
 4816              		.cfi_restore 9
 4817              		.cfi_restore 8
 4818              		.cfi_restore 7
 4819              		.cfi_restore 6
 4820              		.cfi_restore 5
 4821              		.cfi_restore 4
 4822              		.cfi_def_cfa_offset 0
 4823              	.LVL347:
 4824              		.loc 1 1148 0
 4825 04ee FFF7FEBF 		b	mc_interface_unlock
 4826              	.LVL348:
 4827              	.L435:
 4828              		.cfi_restore_state
 4829              	.LBB95:
 4830              	.LBB75:
 4831              		.loc 1 1028 0
 4832 04f2 68EE0E7A 		vmul.f32	s15, s16, s28
 4833 04f6 87EEAD7A 		vdiv.f32	s14, s15, s27
 4834 04fa 17EE100A 		vmov	r0, s14
 4835 04fe FFF7FEFF 		bl	__aeabi_f2d
 4836              	.LVL349:
 4837 0502 0246     		mov	r2, r0
 4838 0504 0B46     		mov	r3, r1
 4839 0506 5846     		mov	r0, fp
 4840 0508 FFF7FEFF 		bl	commands_printf
 4841              	.LVL350:
 4842 050c 32E6     		b	.L365
 4843              	.LVL351:
 4844              	.L436:
 4845              	.LBE75:
ARM GAS  C:\Users\CHRIST~1\AppData\Local\Temp\ccDhfOXE.s 			page 86


 4846              	.LBE95:
 4847              	.LBB96:
 4848              	.LBB82:
 4849              		.loc 1 1056 0
 4850 050e 68EE0E7A 		vmul.f32	s15, s16, s28
 4851 0512 87EEAD7A 		vdiv.f32	s14, s15, s27
 4852 0516 17EE100A 		vmov	r0, s14
 4853 051a FFF7FEFF 		bl	__aeabi_f2d
 4854              	.LVL352:
 4855 051e 0246     		mov	r2, r0
 4856 0520 0B46     		mov	r3, r1
 4857 0522 5846     		mov	r0, fp
 4858 0524 FFF7FEFF 		bl	commands_printf
 4859              	.LVL353:
 4860 0528 80E6     		b	.L375
 4861              	.LVL354:
 4862              	.L440:
 4863              	.LBE82:
 4864              	.LBE96:
 4865              		.loc 1 1124 0
 4866 052a 17EE100A 		vmov	r0, s14
 4867 052e FFF7FEFF 		bl	__aeabi_f2d
 4868              	.LVL355:
 4869 0532 0246     		mov	r2, r0
 4870 0534 0B46     		mov	r3, r1
 4871 0536 2A48     		ldr	r0, .L443+28
 4872 0538 FFF7FEFF 		bl	commands_printf
 4873              	.LVL356:
 4874              		.loc 1 1127 0
 4875 053c 4846     		mov	r0, r9
 4876 053e FFF7FEFF 		bl	utils_norm_angle
 4877              	.LVL357:
 4878              		.loc 1 1130 0
 4879 0542 2848     		ldr	r0, .L443+32
 4880 0544 FFF7FEFF 		bl	commands_printf
 4881              	.LVL358:
 4882 0548 A9E7     		b	.L397
 4883              	.LVL359:
 4884              	.L437:
 4885              		.loc 1 1073 0
 4886 054a 2748     		ldr	r0, .L443+36
 4887 054c FFF7FEFF 		bl	commands_printf
 4888              	.LVL360:
 4889              	.LBB97:
 4890              		.loc 1 1077 0
 4891 0550 94ED008A 		vldr.32	s16, [r4]
 4892              	.LVL361:
 4893 0554 DFED257A 		vldr.32	s15, .L443+40
 4894 0558 B4EEE78A 		vcmpe.f32	s16, s15
 4895 055c F1EE10FA 		vmrs	APSR_nzcv, FPSCR
 4896 0560 3FF5B1AE 		bmi	.L384
 4897              	.L386:
 4898              	.LBE97:
 4899              		.loc 1 1083 0
 4900 0564 2248     		ldr	r0, .L443+44
 4901 0566 FFF7FEFF 		bl	commands_printf
 4902              	.LVL362:
ARM GAS  C:\Users\CHRIST~1\AppData\Local\Temp\ccDhfOXE.s 			page 87


 4903              		.loc 1 1084 0
 4904 056a FFF7FEFF 		bl	encoder_read_deg
 4905              	.LVL363:
 4906 056e 10EE100A 		vmov	r0, s0
 4907 0572 FFF7FEFF 		bl	__aeabi_f2d
 4908              	.LVL364:
 4909 0576 0246     		mov	r2, r0
 4910 0578 0B46     		mov	r3, r1
 4911 057a 1E48     		ldr	r0, .L443+48
 4912 057c FFF7FEFF 		bl	commands_printf
 4913              	.LVL365:
 4914              	.L385:
 4915              		.loc 1 1087 0
 4916 0580 D8F80030 		ldr	r3, [r8]
 4917 0584 D3ED2E7A 		vldr.32	s15, [r3, #184]
 4918 0588 B0EE087A 		vmov.f32	s14, #3.0e+0
 4919 058c 67EE877A 		vmul.f32	s15, s15, s14
 4920 0590 FDEEE77A 		vcvt.s32.f32	s15, s15
 4921 0594 17EE90AA 		vmov	r10, s15	@ int
 4922              	.LVL366:
 4923              	.LBB98:
 4924              		.loc 1 1091 0
 4925 0598 BAF1000F 		cmp	r10, #0
 4926 059c 3FF7B6AE 		bgt	.L398
 4927              	.LBE98:
 4928              		.loc 1 1089 0
 4929 05a0 9FED158A 		vldr.32	s16, .L443+52
 4930              	.LVL367:
 4931              		.loc 1 1088 0
 4932 05a4 F0EE488A 		vmov.f32	s17, s16
 4933 05a8 64E7     		b	.L390
 4934              	.LVL368:
 4935              	.L434:
 4936              		.loc 1 999 0
 4937 05aa 1148     		ldr	r0, .L443+44
 4938 05ac FFF7FEFF 		bl	commands_printf
 4939              	.LVL369:
 4940 05b0 93E5     		b	.L362
 4941              	.LVL370:
 4942              	.L433:
 4943              		.loc 1 989 0
 4944 05b2 1248     		ldr	r0, .L443+56
 4945 05b4 FFF7FEFF 		bl	commands_printf
 4946              	.LVL371:
 4947 05b8 7DE5     		b	.L358
 4948              	.LVL372:
 4949              	.L438:
 4950              		.loc 1 1121 0
 4951 05ba 0023     		movs	r3, #0
 4952 05bc C9F80030 		str	r3, [r9]	@ float
 4953 05c0 6AE7     		b	.L396
 4954              	.L444:
 4955 05c2 00BF     		.align	2
 4956              	.L443:
 4957 05c4 00003443 		.word	1127481344
 4958 05c8 DB0F4940 		.word	1078530011
 4959 05cc 00000000 		.word	.LANCHOR22
ARM GAS  C:\Users\CHRIST~1\AppData\Local\Temp\ccDhfOXE.s 			page 88


 4960 05d0 00000000 		.word	.LANCHOR31
 4961 05d4 00000000 		.word	.LANCHOR28
 4962 05d8 00000000 		.word	.LANCHOR14
 4963 05dc 00000000 		.word	.LANCHOR7
 4964 05e0 54000000 		.word	.LC6
 4965 05e4 60000000 		.word	.LC7
 4966 05e8 28000000 		.word	.LC4
 4967 05ec DB0FC940 		.word	1086918619
 4968 05f0 0C000000 		.word	.LC2
 4969 05f4 48000000 		.word	.LC5
 4970 05f8 00000000 		.word	0
 4971 05fc 00000000 		.word	.LC1
 4972 0600 20000000 		.word	.LC3
 4973              		.cfi_endproc
 4974              	.LFE296:
 4975              		.size	mcpwm_foc_encoder_detect, .-mcpwm_foc_encoder_detect
 4976              		.section	.text.mcpwm_foc_measure_resistance,"ax",%progbits
 4977              		.align	1
 4978              		.p2align 4,,15
 4979              		.global	mcpwm_foc_measure_resistance
 4980              		.syntax unified
 4981              		.thumb
 4982              		.thumb_func
 4983              		.fpu fpv4-sp-d16
 4984              		.type	mcpwm_foc_measure_resistance, %function
 4985              	mcpwm_foc_measure_resistance:
 4986              	.LFB297:
 4987              		.loc 1 1164 0
 4988              		.cfi_startproc
 4989              		@ args = 0, pretend = 0, frame = 8
 4990              		@ frame_needed = 0, uses_anonymous_args = 0
 4991              	.LVL373:
 4992 0000 2DE9F04F 		push	{r4, r5, r6, r7, r8, r9, r10, fp, lr}
 4993              		.cfi_def_cfa_offset 36
 4994              		.cfi_offset 4, -36
 4995              		.cfi_offset 5, -32
 4996              		.cfi_offset 6, -28
 4997              		.cfi_offset 7, -24
 4998              		.cfi_offset 8, -20
 4999              		.cfi_offset 9, -16
 5000              		.cfi_offset 10, -12
 5001              		.cfi_offset 11, -8
 5002              		.cfi_offset 14, -4
 5003 0004 2DED048B 		vpush.64	{d8, d9}
 5004              		.cfi_def_cfa_offset 52
 5005              		.cfi_offset 80, -52
 5006              		.cfi_offset 81, -48
 5007              		.cfi_offset 82, -44
 5008              		.cfi_offset 83, -40
 5009 0008 83B0     		sub	sp, sp, #12
 5010              		.cfi_def_cfa_offset 64
 5011              		.loc 1 1164 0
 5012 000a F0EE408A 		vmov.f32	s17, s0
 5013              		.loc 1 1168 0
 5014 000e 9FED388A 		vldr.32	s16, .L452
 5015              		.loc 1 1167 0
 5016 0012 DFF8F490 		ldr	r9, .L452+24
ARM GAS  C:\Users\CHRIST~1\AppData\Local\Temp\ccDhfOXE.s 			page 89


 5017              		.loc 1 1169 0
 5018 0016 DFF8F4A0 		ldr	r10, .L452+28
 5019              		.loc 1 1170 0
 5020 001a DFF8F480 		ldr	r8, .L452+32
 5021              		.loc 1 1171 0
 5022 001e 354E     		ldr	r6, .L452+4
 5023              		.loc 1 1172 0
 5024 0020 354F     		ldr	r7, .L452+8
 5025              		.loc 1 1184 0
 5026 0022 364C     		ldr	r4, .L452+12
 5027              		.loc 1 1164 0
 5028 0024 0546     		mov	r5, r0
 5029              		.loc 1 1165 0
 5030 0026 FFF7FEFF 		bl	mc_interface_lock
 5031              	.LVL374:
 5032              		.loc 1 1168 0
 5033 002a 354A     		ldr	r2, .L452+16
 5034              		.loc 1 1171 0
 5035 002c 0223     		movs	r3, #2
 5036              		.loc 1 1167 0
 5037 002e 0121     		movs	r1, #1
 5038 0030 89F80010 		strb	r1, [r9]
 5039              		.loc 1 1168 0
 5040 0034 82ED008A 		vstr.32	s16, [r2]
 5041              		.loc 1 1169 0
 5042 0038 8AED008A 		vstr.32	s16, [r10]
 5043              		.loc 1 1170 0
 5044 003c C8ED008A 		vstr.32	s17, [r8]
 5045              		.loc 1 1171 0
 5046 0040 3370     		strb	r3, [r6]
 5047              		.loc 1 1172 0
 5048 0042 3B70     		strb	r3, [r7]
 5049              		.loc 1 1175 0
 5050 0044 FFF7FEFF 		bl	timeout_get_timeout_msec
 5051              	.LVL375:
 5052 0048 0190     		str	r0, [sp, #4]
 5053              	.LVL376:
 5054              		.loc 1 1176 0
 5055 004a FFF7FEFF 		bl	timeout_get_brake_current
 5056              	.LVL377:
 5057 004e F0EE408A 		vmov.f32	s17, s0
 5058              	.LVL378:
 5059              		.loc 1 1177 0
 5060 0052 FFF7FEFF 		bl	timeout_reset
 5061              	.LVL379:
 5062              		.loc 1 1178 0
 5063 0056 B0EE480A 		vmov.f32	s0, s16
 5064 005a 4EF66020 		movw	r0, #60000
 5065 005e FFF7FEFF 		bl	timeout_configure
 5066              	.LVL380:
 5067              		.loc 1 1181 0
 5068 0062 41F28830 		movw	r0, #5000
 5069 0066 FFF7FEFF 		bl	chThdSleep
 5070              	.LVL381:
 5071              		.loc 1 1186 0
 5072 006a 0023     		movs	r3, #0
 5073              		.loc 1 1184 0
ARM GAS  C:\Users\CHRIST~1\AppData\Local\Temp\ccDhfOXE.s 			page 90


 5074 006c 84ED018A 		vstr.32	s16, [r4, #4]
 5075              		.loc 1 1189 0
 5076 0070 42F2117B 		movw	fp, #10001
 5077              		.loc 1 1185 0
 5078 0074 84ED028A 		vstr.32	s16, [r4, #8]
 5079              		.loc 1 1186 0
 5080 0078 2360     		str	r3, [r4]
 5081              	.LVL382:
 5082              		.loc 1 1189 0
 5083 007a 04E0     		b	.L446
 5084              	.LVL383:
 5085              	.L447:
 5086              		.loc 1 1190 0
 5087 007c FFF7FEFF 		bl	chThdSleep
 5088              	.LVL384:
 5089              		.loc 1 1193 0
 5090 0080 BBF1010B 		subs	fp, fp, #1
 5091              	.LVL385:
 5092 0084 04D0     		beq	.L448
 5093              	.LVL386:
 5094              	.L446:
 5095              		.loc 1 1189 0
 5096 0086 2268     		ldr	r2, [r4]
 5097 0088 AA42     		cmp	r2, r5
 5098              		.loc 1 1190 0
 5099 008a 4FF00A00 		mov	r0, #10
 5100              		.loc 1 1189 0
 5101 008e F5DB     		blt	.L447
 5102              	.LVL387:
 5103              	.L448:
 5104              		.loc 1 1198 0
 5105 0090 94ED016A 		vldr.32	s12, [r4, #4]
 5106 0094 94ED007A 		vldr.32	s14, [r4]	@ int
 5107              		.loc 1 1199 0
 5108 0098 D4ED026A 		vldr.32	s13, [r4, #8]
 5109 009c D4ED007A 		vldr.32	s15, [r4]	@ int
 5110              		.loc 1 1198 0
 5111 00a0 B8EEC77A 		vcvt.f32.s32	s14, s14
 5112              		.loc 1 1199 0
 5113 00a4 F8EEE77A 		vcvt.f32.s32	s15, s15
 5114              		.loc 1 1198 0
 5115 00a8 86EE078A 		vdiv.f32	s16, s12, s14
 5116              	.LVL388:
 5117              		.loc 1 1202 0
 5118 00ac 0022     		movs	r2, #0
 5119              		.loc 1 1204 0
 5120 00ae 0023     		movs	r3, #0
 5121              		.loc 1 1205 0
 5122 00b0 0721     		movs	r1, #7
 5123              		.loc 1 1202 0
 5124 00b2 CAF80020 		str	r2, [r10]	@ float
 5125              		.loc 1 1203 0
 5126 00b6 C8F80020 		str	r2, [r8]	@ float
 5127              		.loc 1 1204 0
 5128 00ba 89F80030 		strb	r3, [r9]
 5129              		.loc 1 1205 0
 5130 00be 3170     		strb	r1, [r6]
ARM GAS  C:\Users\CHRIST~1\AppData\Local\Temp\ccDhfOXE.s 			page 91


 5131              		.loc 1 1206 0
 5132 00c0 3B70     		strb	r3, [r7]
 5133              		.loc 1 1199 0
 5134 00c2 86EEA79A 		vdiv.f32	s18, s13, s15
 5135              	.LVL389:
 5136              		.loc 1 1207 0
 5137 00c6 FFF7FEFF 		bl	stop_pwm_hw
 5138              	.LVL390:
 5139              		.loc 1 1210 0
 5140 00ca 0198     		ldr	r0, [sp, #4]
 5141 00cc B0EE680A 		vmov.f32	s0, s17
 5142 00d0 FFF7FEFF 		bl	timeout_configure
 5143              	.LVL391:
 5144              		.loc 1 1212 0
 5145 00d4 FFF7FEFF 		bl	mc_interface_unlock
 5146              	.LVL392:
 5147              		.loc 1 1214 0
 5148 00d8 89EE080A 		vdiv.f32	s0, s18, s16
 5149 00dc DFED097A 		vldr.32	s15, .L452+20
 5150 00e0 20EE270A 		vmul.f32	s0, s0, s15
 5151              		.loc 1 1215 0
 5152 00e4 03B0     		add	sp, sp, #12
 5153              		.cfi_def_cfa_offset 52
 5154              		@ sp needed
 5155 00e6 BDEC048B 		vldm	sp!, {d8-d9}
 5156              		.cfi_restore 82
 5157              		.cfi_restore 83
 5158              		.cfi_restore 80
 5159              		.cfi_restore 81
 5160              		.cfi_def_cfa_offset 36
 5161              	.LVL393:
 5162 00ea BDE8F08F 		pop	{r4, r5, r6, r7, r8, r9, r10, fp, pc}
 5163              	.LVL394:
 5164              	.L453:
 5165 00ee 00BF     		.align	2
 5166              	.L452:
 5167 00f0 00000000 		.word	0
 5168 00f4 00000000 		.word	.LANCHOR14
 5169 00f8 00000000 		.word	.LANCHOR7
 5170 00fc 00000000 		.word	.LANCHOR17
 5171 0100 00000000 		.word	.LANCHOR29
 5172 0104 ABAA2A3F 		.word	1059760811
 5173 0108 00000000 		.word	.LANCHOR28
 5174 010c 00000000 		.word	.LANCHOR31
 5175 0110 00000000 		.word	.LANCHOR22
 5176              		.cfi_endproc
 5177              	.LFE297:
 5178              		.size	mcpwm_foc_measure_resistance, .-mcpwm_foc_measure_resistance
 5179              		.section	.text.mcpwm_foc_measure_inductance,"ax",%progbits
 5180              		.align	1
 5181              		.p2align 4,,15
 5182              		.global	mcpwm_foc_measure_inductance
 5183              		.syntax unified
 5184              		.thumb
 5185              		.thumb_func
 5186              		.fpu fpv4-sp-d16
 5187              		.type	mcpwm_foc_measure_inductance, %function
ARM GAS  C:\Users\CHRIST~1\AppData\Local\Temp\ccDhfOXE.s 			page 92


 5188              	mcpwm_foc_measure_inductance:
 5189              	.LFB298:
 5190              		.loc 1 1232 0
 5191              		.cfi_startproc
 5192              		@ args = 0, pretend = 0, frame = 0
 5193              		@ frame_needed = 0, uses_anonymous_args = 0
 5194              	.LVL395:
 5195 0000 2DE9F84F 		push	{r3, r4, r5, r6, r7, r8, r9, r10, fp, lr}
 5196              		.cfi_def_cfa_offset 40
 5197              		.cfi_offset 3, -40
 5198              		.cfi_offset 4, -36
 5199              		.cfi_offset 5, -32
 5200              		.cfi_offset 6, -28
 5201              		.cfi_offset 7, -24
 5202              		.cfi_offset 8, -20
 5203              		.cfi_offset 9, -16
 5204              		.cfi_offset 10, -12
 5205              		.cfi_offset 11, -8
 5206              		.cfi_offset 14, -4
 5207              		.loc 1 1233 0
 5208 0004 394D     		ldr	r5, .L471
 5209              		.loc 1 1232 0
 5210 0006 2DED028B 		vpush.64	{d8}
 5211              		.cfi_def_cfa_offset 48
 5212              		.cfi_offset 80, -48
 5213              		.cfi_offset 81, -44
 5214              		.loc 1 1233 0
 5215 000a DFED398A 		vldr.32	s17, .L471+4
 5216              		.loc 1 1235 0
 5217 000e 0027     		movs	r7, #0
 5218              		.loc 1 1232 0
 5219 0010 8A46     		mov	r10, r1
 5220              		.loc 1 1233 0
 5221 0012 C5ED018A 		vstr.32	s17, [r5, #4]
 5222              		.loc 1 1232 0
 5223 0016 8046     		mov	r8, r0
 5224              		.loc 1 1234 0
 5225 0018 C5ED028A 		vstr.32	s17, [r5, #8]
 5226              		.loc 1 1235 0
 5227 001c 2F60     		str	r7, [r5]
 5228              		.loc 1 1236 0
 5229 001e 85ED040A 		vstr.32	s0, [r5, #16]
 5230              		.loc 1 1239 0
 5231 0022 FFF7FEFF 		bl	timeout_get_timeout_msec
 5232              	.LVL396:
 5233 0026 8346     		mov	fp, r0
 5234              	.LVL397:
 5235              		.loc 1 1240 0
 5236 0028 FFF7FEFF 		bl	timeout_get_brake_current
 5237              	.LVL398:
 5238 002c B0EE408A 		vmov.f32	s16, s0
 5239              	.LVL399:
 5240              		.loc 1 1241 0
 5241 0030 FFF7FEFF 		bl	timeout_reset
 5242              	.LVL400:
 5243              		.loc 1 1242 0
 5244 0034 B0EE680A 		vmov.f32	s0, s17
ARM GAS  C:\Users\CHRIST~1\AppData\Local\Temp\ccDhfOXE.s 			page 93


 5245 0038 4EF66020 		movw	r0, #60000
 5246 003c FFF7FEFF 		bl	timeout_configure
 5247              	.LVL401:
 5248              		.loc 1 1244 0
 5249 0040 FFF7FEFF 		bl	mc_interface_lock
 5250              	.LVL402:
 5251              	.LBB99:
 5252              		.loc 1 1247 0
 5253 0044 B845     		cmp	r8, r7
 5254 0046 10DD     		ble	.L455
 5255 0048 3C46     		mov	r4, r7
 5256              		.loc 1 1248 0
 5257 004a 4FF00109 		mov	r9, #1
 5258              		.loc 1 1253 0
 5259 004e 4CF25036 		movw	r6, #50000
 5260              	.LVL403:
 5261              	.L459:
 5262              		.loc 1 1248 0
 5263 0052 85F80C90 		strb	r9, [r5, #12]
 5264 0056 02E0     		b	.L456
 5265              	.L470:
 5266              		.loc 1 1256 0
 5267 0058 2B7B     		ldrb	r3, [r5, #12]	@ zero_extendqisi2
 5268 005a 002B     		cmp	r3, #0
 5269 005c 42D0     		beq	.L469
 5270              	.L456:
 5271              		.loc 1 1252 0
 5272 005e 0134     		adds	r4, r4, #1
 5273              	.LVL404:
 5274              		.loc 1 1251 0
 5275 0060 0120     		movs	r0, #1
 5276 0062 FFF7FEFF 		bl	chThdSleep
 5277              	.LVL405:
 5278              		.loc 1 1253 0
 5279 0066 B442     		cmp	r4, r6
 5280 0068 F6DD     		ble	.L470
 5281              	.LVL406:
 5282              	.L455:
 5283              	.LBE99:
 5284              		.loc 1 1264 0
 5285 006a B0EE480A 		vmov.f32	s0, s16
 5286 006e 5846     		mov	r0, fp
 5287 0070 FFF7FEFF 		bl	timeout_configure
 5288              	.LVL407:
 5289              		.loc 1 1266 0
 5290 0074 FFF7FEFF 		bl	mc_interface_unlock
 5291              	.LVL408:
 5292              		.loc 1 1270 0
 5293 0078 1E4B     		ldr	r3, .L471+8
 5294              		.loc 1 1268 0
 5295 007a D5ED014A 		vldr.32	s9, [r5, #4]
 5296 007e D5ED006A 		vldr.32	s13, [r5]	@ int
 5297              		.loc 1 1269 0
 5298 0082 95ED025A 		vldr.32	s10, [r5, #8]
 5299 0086 95ED007A 		vldr.32	s14, [r5]	@ int
 5300              		.loc 1 1270 0
 5301 008a D3ED0B7A 		vldr.32	s15, [r3, #44]	@ int
ARM GAS  C:\Users\CHRIST~1\AppData\Local\Temp\ccDhfOXE.s 			page 94


 5302 008e 95ED046A 		vldr.32	s12, [r5, #16]
 5303 0092 9FED194A 		vldr.32	s8, .L471+12
 5304 0096 DFED195A 		vldr.32	s11, .L471+16
 5305 009a F8EE677A 		vcvt.f32.u32	s15, s15
 5306              		.loc 1 1268 0
 5307 009e F8EEE66A 		vcvt.f32.s32	s13, s13
 5308              		.loc 1 1270 0
 5309 00a2 67EE867A 		vmul.f32	s15, s15, s12
 5310              		.loc 1 1269 0
 5311 00a6 B8EEC77A 		vcvt.f32.s32	s14, s14
 5312              		.loc 1 1270 0
 5313 00aa 87EE846A 		vdiv.f32	s12, s15, s8
 5314              		.loc 1 1268 0
 5315 00ae 84EEA64A 		vdiv.f32	s8, s9, s13
 5316              	.LVL409:
 5317              		.loc 1 1269 0
 5318 00b2 C5EE077A 		vdiv.f32	s15, s10, s14
 5319              	.LVL410:
 5320              		.loc 1 1270 0
 5321 00b6 36EE656A 		vsub.f32	s12, s12, s11
 5322              	.LVL411:
 5323              		.loc 1 1273 0
 5324 00ba BAF1000F 		cmp	r10, #0
 5325 00be 01D0     		beq	.L458
 5326              		.loc 1 1274 0
 5327 00c0 8AED004A 		vstr.32	s8, [r10]
 5328              	.L458:
 5329              		.loc 1 1277 0
 5330 00c4 27EE866A 		vmul.f32	s12, s15, s12
 5331              	.LVL412:
 5332              		.loc 1 1278 0
 5333 00c8 BDEC028B 		vldm	sp!, {d8}
 5334              		.cfi_remember_state
 5335              		.cfi_restore 80
 5336              		.cfi_restore 81
 5337              		.cfi_def_cfa_offset 40
 5338              	.LVL413:
 5339              		.loc 1 1277 0
 5340 00cc 86EE040A 		vdiv.f32	s0, s12, s8
 5341 00d0 9FED0B7A 		vldr.32	s14, .L471+20
 5342 00d4 DFED0B7A 		vldr.32	s15, .L471+24
 5343              	.LVL414:
 5344 00d8 20EE070A 		vmul.f32	s0, s0, s14
 5345 00dc 20EE270A 		vmul.f32	s0, s0, s15
 5346              		.loc 1 1278 0
 5347 00e0 BDE8F88F 		pop	{r3, r4, r5, r6, r7, r8, r9, r10, fp, pc}
 5348              	.LVL415:
 5349              	.L469:
 5350              		.cfi_restore_state
 5351              	.LBB100:
 5352              		.loc 1 1247 0
 5353 00e4 0137     		adds	r7, r7, #1
 5354              	.LVL416:
 5355 00e6 B845     		cmp	r8, r7
 5356 00e8 B3D1     		bne	.L459
 5357 00ea BEE7     		b	.L455
 5358              	.L472:
ARM GAS  C:\Users\CHRIST~1\AppData\Local\Temp\ccDhfOXE.s 			page 95


 5359              		.align	2
 5360              	.L471:
 5361 00ec 00000000 		.word	.LANCHOR17
 5362 00f0 00000000 		.word	0
 5363 00f4 00000140 		.word	1073807360
 5364 00f8 A037204D 		.word	1293957024
 5365 00fc 57BDBF34 		.word	884981079
 5366 0100 00247449 		.word	1232348160
 5367 0104 ABAA2A3F 		.word	1059760811
 5368              	.LBE100:
 5369              		.cfi_endproc
 5370              	.LFE298:
 5371              		.size	mcpwm_foc_measure_inductance, .-mcpwm_foc_measure_inductance
 5372              		.section	.text.mcpwm_foc_measure_res_ind,"ax",%progbits
 5373              		.align	1
 5374              		.p2align 4,,15
 5375              		.global	mcpwm_foc_measure_res_ind
 5376              		.syntax unified
 5377              		.thumb
 5378              		.thumb_func
 5379              		.fpu fpv4-sp-d16
 5380              		.type	mcpwm_foc_measure_res_ind, %function
 5381              	mcpwm_foc_measure_res_ind:
 5382              	.LFB299:
 5383              		.loc 1 1292 0
 5384              		.cfi_startproc
 5385              		@ args = 0, pretend = 0, frame = 8
 5386              		@ frame_needed = 0, uses_anonymous_args = 0
 5387              	.LVL417:
 5388 0000 2DE9F043 		push	{r4, r5, r6, r7, r8, r9, lr}
 5389              		.cfi_def_cfa_offset 28
 5390              		.cfi_offset 4, -28
 5391              		.cfi_offset 5, -24
 5392              		.cfi_offset 6, -20
 5393              		.cfi_offset 7, -16
 5394              		.cfi_offset 8, -12
 5395              		.cfi_offset 9, -8
 5396              		.cfi_offset 14, -4
 5397              		.loc 1 1293 0
 5398 0004 734D     		ldr	r5, .L490
 5399              		.loc 1 1297 0
 5400 0006 744A     		ldr	r2, .L490+4
 5401              		.loc 1 1293 0
 5402 0008 2B68     		ldr	r3, [r5]
 5403              		.loc 1 1302 0
 5404 000a 744C     		ldr	r4, .L490+8
 5405              		.loc 1 1293 0
 5406 000c D3F8A890 		ldr	r9, [r3, #168]	@ float
 5407              	.LVL418:
 5408              		.loc 1 1298 0
 5409 0010 734E     		ldr	r6, .L490+12
 5410              		.loc 1 1294 0
 5411 0012 D3F8A080 		ldr	r8, [r3, #160]	@ float
 5412              	.LVL419:
 5413              		.loc 1 1295 0
 5414 0016 D3F8A470 		ldr	r7, [r3, #164]	@ float
 5415              	.LVL420:
ARM GAS  C:\Users\CHRIST~1\AppData\Local\Temp\ccDhfOXE.s 			page 96


 5416              		.loc 1 1292 0
 5417 001a 2DED048B 		vpush.64	{d8, d9}
 5418              		.cfi_def_cfa_offset 44
 5419              		.cfi_offset 80, -44
 5420              		.cfi_offset 81, -40
 5421              		.cfi_offset 82, -36
 5422              		.cfi_offset 83, -32
 5423              		.loc 1 1297 0
 5424 001e C3F8A820 		str	r2, [r3, #168]	@ float
 5425              		.loc 1 1299 0
 5426 0022 704A     		ldr	r2, .L490+16
 5427              		.loc 1 1298 0
 5428 0024 C3F8A060 		str	r6, [r3, #160]	@ float
 5429              		.loc 1 1299 0
 5430 0028 C3F8A420 		str	r2, [r3, #164]	@ float
 5431              		.loc 1 1301 0
 5432 002c D3ED2A7A 		vldr.32	s15, [r3, #168]
 5433              		.loc 1 1302 0
 5434 0030 D4F800E0 		ldr	lr, [r4]
 5435 0034 6C4A     		ldr	r2, .L490+20
 5436              		.loc 1 1301 0
 5437 0036 6D4E     		ldr	r6, .L490+24
 5438              		.loc 1 1302 0
 5439 0038 4EF0020E 		orr	lr, lr, #2
 5440 003c C4F800E0 		str	lr, [r4]
 5441 0040 D2F800E0 		ldr	lr, [r2]
 5442              		.loc 1 1301 0
 5443 0044 FDEEE77A 		vcvt.s32.f32	s15, s15
 5444              		.loc 1 1302 0
 5445 0048 4EF0020E 		orr	lr, lr, #2
 5446 004c C2F800E0 		str	lr, [r2]
 5447              		.loc 1 1301 0
 5448 0050 17EE90EA 		vmov	lr, s15	@ int
 5449              		.loc 1 1302 0
 5450 0054 4FF0020C 		mov	ip, #2
 5451              		.loc 1 1301 0
 5452 0058 96FBFEF6 		sdiv	r6, r6, lr
 5453              	.LVL421:
 5454              		.loc 1 1302 0
 5455 005c E662     		str	r6, [r4, #44]
 5456 005e C2F834C0 		str	ip, [r2, #52]
 5457 0062 2668     		ldr	r6, [r4]
 5458              	.LVL422:
 5459 0064 26F00206 		bic	r6, r6, #2
 5460 0068 2660     		str	r6, [r4]
 5461 006a 1468     		ldr	r4, [r2]
 5462 006c 24F00204 		bic	r4, r4, #2
 5463 0070 1460     		str	r4, [r2]
 5464              	.LVL423:
 5465              	.LBB101:
 5466              		.loc 1 1306 0
 5467 0072 D3ED017A 		vldr.32	s15, [r3, #4]
 5468 0076 B6EE007A 		vmov.f32	s14, #5.0e-1
 5469 007a 67EE877A 		vmul.f32	s15, s15, s14
 5470 007e B0EE008A 		vmov.f32	s16, #2.0e+0
 5471 0082 F4EEC87A 		vcmpe.f32	s15, s16
 5472 0086 F1EE10FA 		vmrs	APSR_nzcv, FPSCR
ARM GAS  C:\Users\CHRIST~1\AppData\Local\Temp\ccDhfOXE.s 			page 97


 5473              	.LBE101:
 5474              		.loc 1 1292 0
 5475 008a 83B0     		sub	sp, sp, #12
 5476              		.cfi_def_cfa_offset 56
 5477              		.loc 1 1292 0
 5478 008c 0446     		mov	r4, r0
 5479 008e 0E46     		mov	r6, r1
 5480              	.LBB102:
 5481              		.loc 1 1306 0
 5482 0090 26DD     		ble	.L483
 5483              		.loc 1 1309 0
 5484 0092 F7EE008A 		vmov.f32	s17, #1.0e+0
 5485              		.loc 1 1306 0
 5486 0096 B7EE089A 		vmov.f32	s18, #1.5e+0
 5487 009a 0BE0     		b	.L477
 5488              	.LVL424:
 5489              	.L489:
 5490              		.loc 1 1306 0 is_stmt 0 discriminator 2
 5491 009c 2B68     		ldr	r3, [r5]
 5492 009e D3ED017A 		vldr.32	s15, [r3, #4]
 5493 00a2 28EE098A 		vmul.f32	s16, s16, s18
 5494              	.LVL425:
 5495 00a6 67EE877A 		vmul.f32	s15, s15, s14
 5496 00aa F4EEC87A 		vcmpe.f32	s15, s16
 5497 00ae F1EE10FA 		vmrs	APSR_nzcv, FPSCR
 5498 00b2 15DD     		ble	.L483
 5499              	.LVL426:
 5500              	.L477:
 5501              		.loc 1 1307 0 is_stmt 1
 5502 00b4 1420     		movs	r0, #20
 5503 00b6 B0EE480A 		vmov.f32	s0, s16
 5504 00ba FFF7FEFF 		bl	mcpwm_foc_measure_resistance
 5505              	.LVL427:
 5506              		.loc 1 1309 0
 5507 00be 88EE800A 		vdiv.f32	s0, s17, s0
 5508              	.LVL428:
 5509              		.loc 1 1306 0
 5510 00c2 B6EE007A 		vmov.f32	s14, #5.0e-1
 5511              		.loc 1 1309 0
 5512 00c6 B4EEC80A 		vcmpe.f32	s0, s16
 5513 00ca F1EE10FA 		vmrs	APSR_nzcv, FPSCR
 5514 00ce E5D5     		bpl	.L489
 5515              	.LVL429:
 5516              	.LBE102:
 5517              		.loc 1 1315 0
 5518 00d0 DFED477A 		vldr.32	s15, .L490+28
 5519 00d4 B4EEE78A 		vcmpe.f32	s16, s15
 5520 00d8 F1EE10FA 		vmrs	APSR_nzcv, FPSCR
 5521 00dc 06D5     		bpl	.L478
 5522 00de 2B68     		ldr	r3, [r5]
 5523              	.LVL430:
 5524              	.L483:
 5525              		.loc 1 1316 0
 5526 00e0 93ED018A 		vldr.32	s16, [r3, #4]
 5527 00e4 F6EE007A 		vmov.f32	s15, #5.0e-1
 5528 00e8 28EE278A 		vmul.f32	s16, s16, s15
 5529              	.LVL431:
ARM GAS  C:\Users\CHRIST~1\AppData\Local\Temp\ccDhfOXE.s 			page 98


 5530              	.L478:
 5531              		.loc 1 1319 0
 5532 00ec C820     		movs	r0, #200
 5533 00ee B0EE480A 		vmov.f32	s0, s16
 5534 00f2 FFF7FEFF 		bl	mcpwm_foc_measure_resistance
 5535              	.LVL432:
 5536              		.loc 1 1321 0
 5537 00f6 2B68     		ldr	r3, [r5]
 5538              		.loc 1 1323 0
 5539 00f8 384A     		ldr	r2, .L490+8
 5540              		.loc 1 1321 0
 5541 00fa 3E49     		ldr	r1, .L490+32
 5542              		.loc 1 1319 0
 5543 00fc 84ED000A 		vstr.32	s0, [r4]
 5544              		.loc 1 1321 0
 5545 0100 C3F8A810 		str	r1, [r3, #168]	@ float
 5546              		.loc 1 1322 0
 5547 0104 D3ED2A7A 		vldr.32	s15, [r3, #168]
 5548              		.loc 1 1323 0
 5549 0108 1168     		ldr	r1, [r2]
 5550 010a 374B     		ldr	r3, .L490+20
 5551              		.loc 1 1322 0
 5552 010c 3748     		ldr	r0, .L490+24
 5553              	.LBB103:
 5554              		.loc 1 1326 0
 5555 010e DFED3A8A 		vldr.32	s17, .L490+36
 5556              	.LBE103:
 5557              		.loc 1 1323 0
 5558 0112 41F00201 		orr	r1, r1, #2
 5559 0116 1160     		str	r1, [r2]
 5560 0118 1968     		ldr	r1, [r3]
 5561              		.loc 1 1322 0
 5562 011a FDEEE77A 		vcvt.s32.f32	s15, s15
 5563              		.loc 1 1323 0
 5564 011e 41F00201 		orr	r1, r1, #2
 5565 0122 1960     		str	r1, [r3]
 5566              		.loc 1 1322 0
 5567 0124 17EE901A 		vmov	r1, s15	@ int
 5568              		.loc 1 1323 0
 5569 0128 0224     		movs	r4, #2
 5570              	.LVL433:
 5571              		.loc 1 1322 0
 5572 012a 90FBF1F1 		sdiv	r1, r0, r1
 5573              	.LVL434:
 5574              		.loc 1 1323 0
 5575 012e D162     		str	r1, [r2, #44]
 5576 0130 5C63     		str	r4, [r3, #52]
 5577 0132 1168     		ldr	r1, [r2]
 5578              	.LVL435:
 5579 0134 21F00201 		bic	r1, r1, #2
 5580 0138 1160     		str	r1, [r2]
 5581 013a 1A68     		ldr	r2, [r3]
 5582 013c 22F00202 		bic	r2, r2, #2
 5583 0140 1A60     		str	r2, [r3]
 5584              	.LVL436:
 5585 0142 0824     		movs	r4, #8
 5586              	.LBB105:
ARM GAS  C:\Users\CHRIST~1\AppData\Local\Temp\ccDhfOXE.s 			page 99


 5587              		.loc 1 1326 0
 5588 0144 B7EE089A 		vmov.f32	s18, #1.5e+0
 5589 0148 01E0     		b	.L481
 5590              	.LVL437:
 5591              	.L484:
 5592 014a F0EE678A 		vmov.f32	s17, s15
 5593              	.LVL438:
 5594              	.L481:
 5595              	.LBB104:
 5596              		.loc 1 1328 0
 5597 014e 01A9     		add	r1, sp, #4
 5598 0150 1420     		movs	r0, #20
 5599 0152 B0EE680A 		vmov.f32	s0, s17
 5600 0156 FFF7FEFF 		bl	mcpwm_foc_measure_inductance
 5601              	.LVL439:
 5602              		.loc 1 1331 0
 5603 015a DDED017A 		vldr.32	s15, [sp, #4]
 5604 015e B4EEE78A 		vcmpe.f32	s16, s15
 5605 0162 F1EE10FA 		vmrs	APSR_nzcv, FPSCR
 5606 0166 03D9     		bls	.L482
 5607              	.LBE104:
 5608              		.loc 1 1326 0
 5609 0168 013C     		subs	r4, r4, #1
 5610 016a 68EE897A 		vmul.f32	s15, s17, s18
 5611              	.LVL440:
 5612 016e ECD1     		bne	.L484
 5613              	.LVL441:
 5614              	.L482:
 5615              	.LBE105:
 5616              		.loc 1 1336 0
 5617 0170 B0EE680A 		vmov.f32	s0, s17
 5618 0174 0021     		movs	r1, #0
 5619 0176 C820     		movs	r0, #200
 5620 0178 FFF7FEFF 		bl	mcpwm_foc_measure_inductance
 5621              	.LVL442:
 5622              		.loc 1 1338 0
 5623 017c 2B68     		ldr	r3, [r5]
 5624              		.loc 1 1343 0
 5625 017e 174A     		ldr	r2, .L490+8
 5626              		.loc 1 1336 0
 5627 0180 86ED000A 		vstr.32	s0, [r6]
 5628              		.loc 1 1338 0
 5629 0184 C3F8A890 		str	r9, [r3, #168]	@ float
 5630              		.loc 1 1339 0
 5631 0188 C3F8A080 		str	r8, [r3, #160]	@ float
 5632              		.loc 1 1340 0
 5633 018c C3F8A470 		str	r7, [r3, #164]	@ float
 5634              		.loc 1 1342 0
 5635 0190 D3ED2A7A 		vldr.32	s15, [r3, #168]
 5636              		.loc 1 1343 0
 5637 0194 1168     		ldr	r1, [r2]
 5638 0196 144B     		ldr	r3, .L490+20
 5639              		.loc 1 1342 0
 5640 0198 1448     		ldr	r0, .L490+24
 5641              		.loc 1 1343 0
 5642 019a 41F00201 		orr	r1, r1, #2
 5643 019e 1160     		str	r1, [r2]
ARM GAS  C:\Users\CHRIST~1\AppData\Local\Temp\ccDhfOXE.s 			page 100


 5644 01a0 1968     		ldr	r1, [r3]
 5645 01a2 0224     		movs	r4, #2
 5646              		.loc 1 1342 0
 5647 01a4 FDEEE77A 		vcvt.s32.f32	s15, s15
 5648              		.loc 1 1343 0
 5649 01a8 2143     		orrs	r1, r1, r4
 5650 01aa 1960     		str	r1, [r3]
 5651              		.loc 1 1342 0
 5652 01ac 17EE901A 		vmov	r1, s15	@ int
 5653 01b0 90FBF1F1 		sdiv	r1, r0, r1
 5654              	.LVL443:
 5655              		.loc 1 1343 0
 5656 01b4 D162     		str	r1, [r2, #44]
 5657 01b6 5C63     		str	r4, [r3, #52]
 5658 01b8 1168     		ldr	r1, [r2]
 5659              	.LVL444:
 5660 01ba 21F00201 		bic	r1, r1, #2
 5661 01be 1160     		str	r1, [r2]
 5662 01c0 1A68     		ldr	r2, [r3]
 5663              		.loc 1 1346 0
 5664 01c2 0120     		movs	r0, #1
 5665              	.LVL445:
 5666              		.loc 1 1343 0
 5667 01c4 22F00202 		bic	r2, r2, #2
 5668 01c8 1A60     		str	r2, [r3]
 5669              		.loc 1 1346 0
 5670 01ca 03B0     		add	sp, sp, #12
 5671              		.cfi_def_cfa_offset 44
 5672              		@ sp needed
 5673 01cc BDEC048B 		vldm	sp!, {d8-d9}
 5674              		.cfi_restore 82
 5675              		.cfi_restore 83
 5676              		.cfi_restore 80
 5677              		.cfi_restore 81
 5678              		.cfi_def_cfa_offset 28
 5679              	.LVL446:
 5680 01d0 BDE8F083 		pop	{r4, r5, r6, r7, r8, r9, pc}
 5681              	.LVL447:
 5682              	.L491:
 5683              		.align	2
 5684              	.L490:
 5685 01d4 00000000 		.word	.LANCHOR0
 5686 01d8 00401C46 		.word	1176256512
 5687 01dc 00000140 		.word	1073807360
 5688 01e0 0AD7233C 		.word	1008981770
 5689 01e4 00002041 		.word	1092616192
 5690 01e8 00040140 		.word	1073808384
 5691 01ec 007A030A 		.word	168000000
 5692 01f0 0AD7233C 		.word	1008981770
 5693 01f4 00803B45 		.word	1161527296
 5694 01f8 0AD7A33C 		.word	1017370378
 5695              		.cfi_endproc
 5696              	.LFE299:
 5697              		.size	mcpwm_foc_measure_res_ind, .-mcpwm_foc_measure_res_ind
 5698              		.section	.text.mcpwm_foc_hall_detect,"ax",%progbits
 5699              		.align	1
 5700              		.p2align 4,,15
ARM GAS  C:\Users\CHRIST~1\AppData\Local\Temp\ccDhfOXE.s 			page 101


 5701              		.global	mcpwm_foc_hall_detect
 5702              		.syntax unified
 5703              		.thumb
 5704              		.thumb_func
 5705              		.fpu fpv4-sp-d16
 5706              		.type	mcpwm_foc_hall_detect, %function
 5707              	mcpwm_foc_hall_detect:
 5708              	.LFB300:
 5709              		.loc 1 1361 0
 5710              		.cfi_startproc
 5711              		@ args = 0, pretend = 0, frame = 112
 5712              		@ frame_needed = 0, uses_anonymous_args = 0
 5713              	.LVL448:
 5714 0000 2DE9F04F 		push	{r4, r5, r6, r7, r8, r9, r10, fp, lr}
 5715              		.cfi_def_cfa_offset 36
 5716              		.cfi_offset 4, -36
 5717              		.cfi_offset 5, -32
 5718              		.cfi_offset 6, -28
 5719              		.cfi_offset 7, -24
 5720              		.cfi_offset 8, -20
 5721              		.cfi_offset 9, -16
 5722              		.cfi_offset 10, -12
 5723              		.cfi_offset 11, -8
 5724              		.cfi_offset 14, -4
 5725 0004 2DED048B 		vpush.64	{d8, d9}
 5726              		.cfi_def_cfa_offset 52
 5727              		.cfi_offset 80, -52
 5728              		.cfi_offset 81, -48
 5729              		.cfi_offset 82, -44
 5730              		.cfi_offset 83, -40
 5731 0008 9DB0     		sub	sp, sp, #116
 5732              		.cfi_def_cfa_offset 168
 5733              		.loc 1 1361 0
 5734 000a B0EE408A 		vmov.f32	s16, s0
 5735 000e 0190     		str	r0, [sp, #4]
 5736              		.loc 1 1362 0
 5737 0010 FFF7FEFF 		bl	mc_interface_lock
 5738              	.LVL449:
 5739              		.loc 1 1364 0
 5740 0014 8649     		ldr	r1, .L510
 5741              		.loc 1 1366 0
 5742 0016 DFED879A 		vldr.32	s19, .L510+4
 5743              		.loc 1 1365 0
 5744 001a DFF838B2 		ldr	fp, .L510+36
 5745              		.loc 1 1366 0
 5746 001e DFF838A2 		ldr	r10, .L510+40
 5747              		.loc 1 1368 0
 5748 0022 854F     		ldr	r7, .L510+8
 5749              		.loc 1 1377 0
 5750 0024 854C     		ldr	r4, .L510+12
 5751              	.LBB106:
 5752              	.LBB107:
 5753              	.LBB108:
 5754              		.loc 1 1390 0
 5755 0026 9FED869A 		vldr.32	s18, .L510+16
 5756 002a DFED868A 		vldr.32	s17, .L510+20
 5757              	.LBE108:
ARM GAS  C:\Users\CHRIST~1\AppData\Local\Temp\ccDhfOXE.s 			page 102


 5758              	.LBE107:
 5759              	.LBE106:
 5760              		.loc 1 1364 0
 5761 002e 0122     		movs	r2, #1
 5762 0030 0A70     		strb	r2, [r1]
 5763              		.loc 1 1367 0
 5764 0032 854A     		ldr	r2, .L510+24
 5765              		.loc 1 1365 0
 5766 0034 8BED008A 		vstr.32	s16, [fp]
 5767              		.loc 1 1367 0
 5768 0038 0223     		movs	r3, #2
 5769              		.loc 1 1366 0
 5770 003a CAED009A 		vstr.32	s19, [r10]
 5771              		.loc 1 1367 0
 5772 003e 1370     		strb	r3, [r2]
 5773              		.loc 1 1368 0
 5774 0040 3B70     		strb	r3, [r7]
 5775              		.loc 1 1371 0
 5776 0042 FFF7FEFF 		bl	timeout_get_timeout_msec
 5777              	.LVL450:
 5778 0046 0090     		str	r0, [sp]
 5779              	.LVL451:
 5780              		.loc 1 1372 0
 5781 0048 FFF7FEFF 		bl	timeout_get_brake_current
 5782              	.LVL452:
 5783 004c B0EE408A 		vmov.f32	s16, s0
 5784              	.LVL453:
 5785              		.loc 1 1373 0
 5786 0050 FFF7FEFF 		bl	timeout_reset
 5787              	.LVL454:
 5788              		.loc 1 1374 0
 5789 0054 B0EE690A 		vmov.f32	s0, s19
 5790 0058 4EF66020 		movw	r0, #60000
 5791 005c FFF7FEFF 		bl	timeout_configure
 5792              	.LVL455:
 5793              		.loc 1 1378 0
 5794 0060 42F21070 		movw	r0, #10000
 5795              		.loc 1 1377 0
 5796 0064 C4ED009A 		vstr.32	s19, [r4]
 5797              		.loc 1 1384 0
 5798 0068 0CAE     		add	r6, sp, #48
 5799              		.loc 1 1378 0
 5800 006a FFF7FEFF 		bl	chThdSleep
 5801              	.LVL456:
 5802              		.loc 1 1383 0
 5803 006e 2022     		movs	r2, #32
 5804 0070 0021     		movs	r1, #0
 5805 0072 04A8     		add	r0, sp, #16
 5806 0074 FFF7FEFF 		bl	memset
 5807              	.LVL457:
 5808              		.loc 1 1384 0
 5809 0078 2022     		movs	r2, #32
 5810 007a 0021     		movs	r1, #0
 5811 007c 3046     		mov	r0, r6
 5812 007e FFF7FEFF 		bl	memset
 5813              	.LVL458:
 5814              		.loc 1 1385 0
ARM GAS  C:\Users\CHRIST~1\AppData\Local\Temp\ccDhfOXE.s 			page 103


 5815 0082 2022     		movs	r2, #32
 5816 0084 0021     		movs	r1, #0
 5817 0086 14A8     		add	r0, sp, #80
 5818 0088 FFF7FEFF 		bl	memset
 5819              	.LVL459:
 5820 008c 0325     		movs	r5, #3
 5821              	.LVL460:
 5822              	.L493:
 5823              		.loc 1 1361 0
 5824 008e 4FF00009 		mov	r9, #0
 5825              	.LVL461:
 5826              	.L494:
 5827              	.LBB113:
 5828              	.LBB112:
 5829              	.LBB109:
 5830              		.loc 1 1390 0 discriminator 3
 5831 0092 07EE909A 		vmov	s15, r9	@ int
 5832 0096 F8EEE77A 		vcvt.f32.s32	s15, s15
 5833              		.loc 1 1391 0 discriminator 3
 5834 009a 3220     		movs	r0, #50
 5835              		.loc 1 1390 0 discriminator 3
 5836 009c 67EE897A 		vmul.f32	s15, s15, s18
 5837              	.LBE109:
 5838              		.loc 1 1389 0 discriminator 3
 5839 00a0 09F10109 		add	r9, r9, #1
 5840              	.LVL462:
 5841              	.LBB110:
 5842              		.loc 1 1390 0 discriminator 3
 5843 00a4 87EEA87A 		vdiv.f32	s14, s15, s17
 5844 00a8 84ED007A 		vstr.32	s14, [r4]
 5845              		.loc 1 1391 0 discriminator 3
 5846 00ac FFF7FEFF 		bl	chThdSleep
 5847              	.LVL463:
 5848              		.loc 1 1393 0 discriminator 3
 5849 00b0 FFF7FEFF 		bl	read_hall
 5850              	.LVL464:
 5851              		.loc 1 1395 0 discriminator 3
 5852 00b4 94ED000A 		vldr.32	s0, [r4]
 5853              		.loc 1 1393 0 discriminator 3
 5854 00b8 8046     		mov	r8, r0
 5855              	.LVL465:
 5856              		.loc 1 1395 0 discriminator 3
 5857 00ba 03A9     		add	r1, sp, #12
 5858 00bc 02A8     		add	r0, sp, #8
 5859              	.LVL466:
 5860 00be FFF7FEFF 		bl	sincosf
 5861              	.LVL467:
 5862              		.loc 1 1396 0 discriminator 3
 5863 00c2 1CAB     		add	r3, sp, #112
 5864 00c4 03EB8800 		add	r0, r3, r8, lsl #2
 5865 00c8 10ED186A 		vldr.32	s12, [r0, #-96]
 5866              		.loc 1 1397 0 discriminator 3
 5867 00cc 10ED107A 		vldr.32	s14, [r0, #-64]
 5868              		.loc 1 1396 0 discriminator 3
 5869 00d0 DDED026A 		vldr.32	s13, [sp, #8]
 5870              		.loc 1 1397 0 discriminator 3
 5871 00d4 DDED037A 		vldr.32	s15, [sp, #12]
ARM GAS  C:\Users\CHRIST~1\AppData\Local\Temp\ccDhfOXE.s 			page 104


 5872              		.loc 1 1398 0 discriminator 3
 5873 00d8 50F8203C 		ldr	r3, [r0, #-32]
 5874              		.loc 1 1396 0 discriminator 3
 5875 00dc 76EE266A 		vadd.f32	s13, s12, s13
 5876              		.loc 1 1397 0 discriminator 3
 5877 00e0 77EE277A 		vadd.f32	s15, s14, s15
 5878              		.loc 1 1398 0 discriminator 3
 5879 00e4 0133     		adds	r3, r3, #1
 5880              	.LBE110:
 5881              		.loc 1 1389 0 discriminator 3
 5882 00e6 B9F5B47F 		cmp	r9, #360
 5883              	.LBB111:
 5884              		.loc 1 1396 0 discriminator 3
 5885 00ea 40ED186A 		vstr.32	s13, [r0, #-96]
 5886              		.loc 1 1397 0 discriminator 3
 5887 00ee 40ED107A 		vstr.32	s15, [r0, #-64]
 5888              		.loc 1 1398 0 discriminator 3
 5889 00f2 40F8203C 		str	r3, [r0, #-32]
 5890              	.LBE111:
 5891              		.loc 1 1389 0 discriminator 3
 5892 00f6 CCD1     		bne	.L494
 5893              	.LVL468:
 5894              	.LBE112:
 5895              		.loc 1 1388 0 discriminator 2
 5896 00f8 013D     		subs	r5, r5, #1
 5897              	.LVL469:
 5898 00fa C8D1     		bne	.L493
 5899              	.LBE113:
 5900              	.LBB114:
 5901              	.LBB115:
 5902              	.LBB116:
 5903              		.loc 1 1405 0
 5904 00fc 9FED509A 		vldr.32	s18, .L510+16
 5905 0100 DFED508A 		vldr.32	s17, .L510+20
 5906              	.LBE116:
 5907              	.LBE115:
 5908              	.LBE114:
 5909              	.LBB121:
 5910 0104 0325     		movs	r5, #3
 5911              	.LVL470:
 5912              	.L497:
 5913              	.LBE121:
 5914              		.loc 1 1385 0
 5915 0106 4FF4B479 		mov	r9, #360
 5916              	.LVL471:
 5917              	.L496:
 5918              	.LBB122:
 5919              	.LBB120:
 5920              	.LBB117:
 5921              		.loc 1 1405 0 discriminator 3
 5922 010a 07EE909A 		vmov	s15, r9	@ int
 5923 010e F8EEE77A 		vcvt.f32.s32	s15, s15
 5924              		.loc 1 1406 0 discriminator 3
 5925 0112 3220     		movs	r0, #50
 5926              		.loc 1 1405 0 discriminator 3
 5927 0114 67EE897A 		vmul.f32	s15, s15, s18
 5928              	.LBE117:
ARM GAS  C:\Users\CHRIST~1\AppData\Local\Temp\ccDhfOXE.s 			page 105


 5929              		.loc 1 1404 0 discriminator 3
 5930 0118 09F1FF39 		add	r9, r9, #-1
 5931              	.LVL472:
 5932              	.LBB118:
 5933              		.loc 1 1405 0 discriminator 3
 5934 011c 87EEA87A 		vdiv.f32	s14, s15, s17
 5935 0120 84ED007A 		vstr.32	s14, [r4]
 5936              		.loc 1 1406 0 discriminator 3
 5937 0124 FFF7FEFF 		bl	chThdSleep
 5938              	.LVL473:
 5939              		.loc 1 1408 0 discriminator 3
 5940 0128 FFF7FEFF 		bl	read_hall
 5941              	.LVL474:
 5942              		.loc 1 1410 0 discriminator 3
 5943 012c 94ED000A 		vldr.32	s0, [r4]
 5944              		.loc 1 1408 0 discriminator 3
 5945 0130 8046     		mov	r8, r0
 5946              	.LVL475:
 5947              		.loc 1 1410 0 discriminator 3
 5948 0132 03A9     		add	r1, sp, #12
 5949 0134 02A8     		add	r0, sp, #8
 5950              	.LVL476:
 5951 0136 FFF7FEFF 		bl	sincosf
 5952              	.LVL477:
 5953              		.loc 1 1411 0 discriminator 3
 5954 013a 1CAB     		add	r3, sp, #112
 5955 013c 03EB8800 		add	r0, r3, r8, lsl #2
 5956 0140 10ED186A 		vldr.32	s12, [r0, #-96]
 5957              		.loc 1 1412 0 discriminator 3
 5958 0144 10ED107A 		vldr.32	s14, [r0, #-64]
 5959              		.loc 1 1411 0 discriminator 3
 5960 0148 DDED026A 		vldr.32	s13, [sp, #8]
 5961              		.loc 1 1412 0 discriminator 3
 5962 014c DDED037A 		vldr.32	s15, [sp, #12]
 5963              		.loc 1 1413 0 discriminator 3
 5964 0150 50F8203C 		ldr	r3, [r0, #-32]
 5965              		.loc 1 1411 0 discriminator 3
 5966 0154 76EE266A 		vadd.f32	s13, s12, s13
 5967              		.loc 1 1412 0 discriminator 3
 5968 0158 77EE277A 		vadd.f32	s15, s14, s15
 5969              		.loc 1 1413 0 discriminator 3
 5970 015c 0133     		adds	r3, r3, #1
 5971              	.LBE118:
 5972              		.loc 1 1404 0 discriminator 3
 5973 015e B9F1FF3F 		cmp	r9, #-1
 5974              	.LBB119:
 5975              		.loc 1 1411 0 discriminator 3
 5976 0162 40ED186A 		vstr.32	s13, [r0, #-96]
 5977              		.loc 1 1412 0 discriminator 3
 5978 0166 40ED107A 		vstr.32	s15, [r0, #-64]
 5979              		.loc 1 1413 0 discriminator 3
 5980 016a 40F8203C 		str	r3, [r0, #-32]
 5981              	.LBE119:
 5982              		.loc 1 1404 0 discriminator 3
 5983 016e CCD1     		bne	.L496
 5984              	.LVL478:
 5985              	.LBE120:
ARM GAS  C:\Users\CHRIST~1\AppData\Local\Temp\ccDhfOXE.s 			page 106


 5986              		.loc 1 1403 0 discriminator 2
 5987 0170 013D     		subs	r5, r5, #1
 5988              	.LVL479:
 5989 0172 C8D1     		bne	.L497
 5990              	.LBE122:
 5991              		.loc 1 1417 0
 5992 0174 0023     		movs	r3, #0
 5993 0176 CBF80030 		str	r3, [fp]	@ float
 5994              		.loc 1 1418 0
 5995 017a CAF80030 		str	r3, [r10]	@ float
 5996              		.loc 1 1419 0
 5997 017e 2C4B     		ldr	r3, .L510
 5998              	.LBB123:
 5999              	.LBB124:
 6000              		.loc 1 1430 0
 6001 0180 DFED309A 		vldr.32	s19, .L510+20
 6002              	.LBE124:
 6003              	.LBE123:
 6004              		.loc 1 1419 0
 6005 0184 1D70     		strb	r5, [r3]
 6006              		.loc 1 1420 0
 6007 0186 304B     		ldr	r3, .L510+24
 6008              	.LBB129:
 6009              	.LBB125:
 6010              		.loc 1 1430 0
 6011 0188 9FED2D9A 		vldr.32	s18, .L510+16
 6012              		.loc 1 1432 0
 6013 018c DFED2F8A 		vldr.32	s17, .L510+28
 6014              	.LBE125:
 6015              	.LBE129:
 6016              		.loc 1 1420 0
 6017 0190 0722     		movs	r2, #7
 6018 0192 1A70     		strb	r2, [r3]
 6019              		.loc 1 1421 0
 6020 0194 3D70     		strb	r5, [r7]
 6021              		.loc 1 1422 0
 6022 0196 FFF7FEFF 		bl	stop_pwm_hw
 6023              	.LVL480:
 6024              		.loc 1 1425 0
 6025 019a B0EE480A 		vmov.f32	s0, s16
 6026 019e 0098     		ldr	r0, [sp]
 6027              	.LBB130:
 6028              	.LBB126:
 6029              		.loc 1 1432 0
 6030 01a0 9FED2B8A 		vldr.32	s16, .L510+32
 6031              	.LVL481:
 6032              	.LBE126:
 6033              	.LBE130:
 6034              		.loc 1 1425 0
 6035 01a4 FFF7FEFF 		bl	timeout_configure
 6036              	.LVL482:
 6037 01a8 04AC     		add	r4, sp, #16
 6038 01aa 019F     		ldr	r7, [sp, #4]
 6039 01ac 0DF14C09 		add	r9, sp, #76
 6040              	.LVL483:
 6041 01b0 B046     		mov	r8, r6
 6042              	.LVL484:
ARM GAS  C:\Users\CHRIST~1\AppData\Local\Temp\ccDhfOXE.s 			page 107


 6043              	.LBB131:
 6044              		.loc 1 1434 0
 6045 01b2 4FF0FF0A 		mov	r10, #255
 6046 01b6 0AE0     		b	.L501
 6047              	.LVL485:
 6048              	.L499:
 6049 01b8 0434     		adds	r4, r4, #4
 6050              		.loc 1 1428 0
 6051 01ba B442     		cmp	r4, r6
 6052              		.loc 1 1434 0
 6053 01bc 87F800A0 		strb	r10, [r7]
 6054              		.loc 1 1435 0
 6055 01c0 05F10105 		add	r5, r5, #1
 6056              	.LVL486:
 6057 01c4 08F10408 		add	r8, r8, #4
 6058 01c8 07F10107 		add	r7, r7, #1
 6059              	.LVL487:
 6060              		.loc 1 1428 0
 6061 01cc 24D0     		beq	.L509
 6062              	.LVL488:
 6063              	.L501:
 6064              		.loc 1 1429 0
 6065 01ce 59F8043F 		ldr	r3, [r9, #4]!
 6066 01d2 1E2B     		cmp	r3, #30
 6067 01d4 F0DD     		ble	.L499
 6068              	.LBB127:
 6069              		.loc 1 1430 0
 6070 01d6 D8ED000A 		vldr.32	s1, [r8]
 6071 01da 94ED000A 		vldr.32	s0, [r4]
 6072 01de FFF7FEFF 		bl	atan2f
 6073              	.LVL489:
 6074 01e2 20EE290A 		vmul.f32	s0, s0, s19
 6075              		.loc 1 1431 0
 6076 01e6 03A8     		add	r0, sp, #12
 6077              		.loc 1 1430 0
 6078 01e8 C0EE097A 		vdiv.f32	s15, s0, s18
 6079 01ec 0434     		adds	r4, r4, #4
 6080 01ee 08F10408 		add	r8, r8, #4
 6081 01f2 0137     		adds	r7, r7, #1
 6082              	.LVL490:
 6083 01f4 CDED037A 		vstr.32	s15, [sp, #12]
 6084              		.loc 1 1431 0
 6085 01f8 FFF7FEFF 		bl	utils_norm_angle
 6086              	.LVL491:
 6087              		.loc 1 1432 0
 6088 01fc 9DED037A 		vldr.32	s14, [sp, #12]
 6089 0200 27EE287A 		vmul.f32	s14, s14, s17
 6090              	.LBE127:
 6091              		.loc 1 1428 0
 6092 0204 B442     		cmp	r4, r6
 6093              	.LBB128:
 6094              		.loc 1 1432 0
 6095 0206 C7EE087A 		vdiv.f32	s15, s14, s16
 6096 020a FCEEE77A 		vcvt.u32.f32	s15, s15
 6097 020e 17EE903A 		vmov	r3, s15	@ int
 6098 0212 07F8013C 		strb	r3, [r7, #-1]
 6099              	.LVL492:
ARM GAS  C:\Users\CHRIST~1\AppData\Local\Temp\ccDhfOXE.s 			page 108


 6100              	.LBE128:
 6101              		.loc 1 1428 0
 6102 0216 DAD1     		bne	.L501
 6103              	.L509:
 6104              	.LBE131:
 6105              		.loc 1 1439 0
 6106 0218 FFF7FEFF 		bl	mc_interface_unlock
 6107              	.LVL493:
 6108              		.loc 1 1442 0
 6109 021c A5F10200 		sub	r0, r5, #2
 6110 0220 B0FA80F0 		clz	r0, r0
 6111 0224 4009     		lsrs	r0, r0, #5
 6112 0226 1DB0     		add	sp, sp, #116
 6113              		.cfi_def_cfa_offset 52
 6114              	.LVL494:
 6115              		@ sp needed
 6116 0228 BDEC048B 		vldm	sp!, {d8-d9}
 6117              		.cfi_restore 82
 6118              		.cfi_restore 83
 6119              		.cfi_restore 80
 6120              		.cfi_restore 81
 6121              		.cfi_def_cfa_offset 36
 6122 022c BDE8F08F 		pop	{r4, r5, r6, r7, r8, r9, r10, fp, pc}
 6123              	.LVL495:
 6124              	.L511:
 6125              		.align	2
 6126              	.L510:
 6127 0230 00000000 		.word	.LANCHOR28
 6128 0234 00000000 		.word	0
 6129 0238 00000000 		.word	.LANCHOR7
 6130 023c 00000000 		.word	.LANCHOR29
 6131 0240 DB0F4940 		.word	1078530011
 6132 0244 00003443 		.word	1127481344
 6133 0248 00000000 		.word	.LANCHOR14
 6134 024c 00004843 		.word	1128792064
 6135 0250 0000B443 		.word	1135869952
 6136 0254 00000000 		.word	.LANCHOR31
 6137 0258 00000000 		.word	.LANCHOR22
 6138              		.cfi_endproc
 6139              	.LFE300:
 6140              		.size	mcpwm_foc_hall_detect, .-mcpwm_foc_hall_detect
 6141              		.section	.text.mcpwm_foc_print_state,"ax",%progbits
 6142              		.align	1
 6143              		.p2align 4,,15
 6144              		.global	mcpwm_foc_print_state
 6145              		.syntax unified
 6146              		.thumb
 6147              		.thumb_func
 6148              		.fpu fpv4-sp-d16
 6149              		.type	mcpwm_foc_print_state, %function
 6150              	mcpwm_foc_print_state:
 6151              	.LFB301:
 6152              		.loc 1 1444 0
 6153              		.cfi_startproc
 6154              		@ args = 0, pretend = 0, frame = 0
 6155              		@ frame_needed = 0, uses_anonymous_args = 0
 6156 0000 10B5     		push	{r4, lr}
ARM GAS  C:\Users\CHRIST~1\AppData\Local\Temp\ccDhfOXE.s 			page 109


 6157              		.cfi_def_cfa_offset 8
 6158              		.cfi_offset 4, -8
 6159              		.cfi_offset 14, -4
 6160              		.loc 1 1445 0
 6161 0002 4A4C     		ldr	r4, .L514
 6162 0004 606B     		ldr	r0, [r4, #52]	@ float
 6163 0006 FFF7FEFF 		bl	__aeabi_f2d
 6164              	.LVL496:
 6165 000a 0246     		mov	r2, r0
 6166 000c 0B46     		mov	r3, r1
 6167 000e 4848     		ldr	r0, .L514+4
 6168 0010 FFF7FEFF 		bl	commands_printf
 6169              	.LVL497:
 6170              		.loc 1 1446 0
 6171 0014 A06B     		ldr	r0, [r4, #56]	@ float
 6172 0016 FFF7FEFF 		bl	__aeabi_f2d
 6173              	.LVL498:
 6174 001a 0246     		mov	r2, r0
 6175 001c 0B46     		mov	r3, r1
 6176 001e 4548     		ldr	r0, .L514+8
 6177 0020 FFF7FEFF 		bl	commands_printf
 6178              	.LVL499:
 6179              		.loc 1 1447 0
 6180 0024 E068     		ldr	r0, [r4, #12]	@ float
 6181 0026 FFF7FEFF 		bl	__aeabi_f2d
 6182              	.LVL500:
 6183 002a 0246     		mov	r2, r0
 6184 002c 0B46     		mov	r3, r1
 6185 002e 4248     		ldr	r0, .L514+12
 6186 0030 FFF7FEFF 		bl	commands_printf
 6187              	.LVL501:
 6188              		.loc 1 1448 0
 6189 0034 E06C     		ldr	r0, [r4, #76]	@ float
 6190 0036 FFF7FEFF 		bl	__aeabi_f2d
 6191              	.LVL502:
 6192 003a 0246     		mov	r2, r0
 6193 003c 0B46     		mov	r3, r1
 6194 003e 3F48     		ldr	r0, .L514+16
 6195 0040 FFF7FEFF 		bl	commands_printf
 6196              	.LVL503:
 6197              		.loc 1 1449 0
 6198 0044 206D     		ldr	r0, [r4, #80]	@ float
 6199 0046 FFF7FEFF 		bl	__aeabi_f2d
 6200              	.LVL504:
 6201 004a 0246     		mov	r2, r0
 6202 004c 0B46     		mov	r3, r1
 6203 004e 3C48     		ldr	r0, .L514+20
 6204 0050 FFF7FEFF 		bl	commands_printf
 6205              	.LVL505:
 6206              		.loc 1 1450 0
 6207 0054 2069     		ldr	r0, [r4, #16]	@ float
 6208 0056 FFF7FEFF 		bl	__aeabi_f2d
 6209              	.LVL506:
 6210 005a 0246     		mov	r2, r0
 6211 005c 0B46     		mov	r3, r1
 6212 005e 3948     		ldr	r0, .L514+24
 6213 0060 FFF7FEFF 		bl	commands_printf
ARM GAS  C:\Users\CHRIST~1\AppData\Local\Temp\ccDhfOXE.s 			page 110


 6214              	.LVL507:
 6215              		.loc 1 1451 0
 6216 0064 E06A     		ldr	r0, [r4, #44]	@ float
 6217 0066 FFF7FEFF 		bl	__aeabi_f2d
 6218              	.LVL508:
 6219 006a 0246     		mov	r2, r0
 6220 006c 0B46     		mov	r3, r1
 6221 006e 3648     		ldr	r0, .L514+28
 6222 0070 FFF7FEFF 		bl	commands_printf
 6223              	.LVL509:
 6224              		.loc 1 1452 0
 6225 0074 206B     		ldr	r0, [r4, #48]	@ float
 6226 0076 FFF7FEFF 		bl	__aeabi_f2d
 6227              	.LVL510:
 6228 007a 0246     		mov	r2, r0
 6229 007c 0B46     		mov	r3, r1
 6230 007e 3348     		ldr	r0, .L514+32
 6231 0080 FFF7FEFF 		bl	commands_printf
 6232              	.LVL511:
 6233              		.loc 1 1453 0
 6234 0084 E06B     		ldr	r0, [r4, #60]	@ float
 6235 0086 FFF7FEFF 		bl	__aeabi_f2d
 6236              	.LVL512:
 6237 008a 0246     		mov	r2, r0
 6238 008c 0B46     		mov	r3, r1
 6239 008e 3048     		ldr	r0, .L514+36
 6240 0090 FFF7FEFF 		bl	commands_printf
 6241              	.LVL513:
 6242              		.loc 1 1454 0
 6243 0094 206C     		ldr	r0, [r4, #64]	@ float
 6244 0096 FFF7FEFF 		bl	__aeabi_f2d
 6245              	.LVL514:
 6246 009a 0246     		mov	r2, r0
 6247 009c 0B46     		mov	r3, r1
 6248 009e 2D48     		ldr	r0, .L514+40
 6249 00a0 FFF7FEFF 		bl	commands_printf
 6250              	.LVL515:
 6251              		.loc 1 1455 0
 6252 00a4 606C     		ldr	r0, [r4, #68]	@ float
 6253 00a6 FFF7FEFF 		bl	__aeabi_f2d
 6254              	.LVL516:
 6255 00aa 0246     		mov	r2, r0
 6256 00ac 0B46     		mov	r3, r1
 6257 00ae 2A48     		ldr	r0, .L514+44
 6258 00b0 FFF7FEFF 		bl	commands_printf
 6259              	.LVL517:
 6260              		.loc 1 1456 0
 6261 00b4 A06C     		ldr	r0, [r4, #72]	@ float
 6262 00b6 FFF7FEFF 		bl	__aeabi_f2d
 6263              	.LVL518:
 6264 00ba 0246     		mov	r2, r0
 6265 00bc 0B46     		mov	r3, r1
 6266 00be 2748     		ldr	r0, .L514+48
 6267 00c0 FFF7FEFF 		bl	commands_printf
 6268              	.LVL519:
 6269              		.loc 1 1457 0
 6270 00c4 2068     		ldr	r0, [r4]	@ float
ARM GAS  C:\Users\CHRIST~1\AppData\Local\Temp\ccDhfOXE.s 			page 111


 6271 00c6 FFF7FEFF 		bl	__aeabi_f2d
 6272              	.LVL520:
 6273 00ca 0246     		mov	r2, r0
 6274 00cc 0B46     		mov	r3, r1
 6275 00ce 2448     		ldr	r0, .L514+52
 6276 00d0 FFF7FEFF 		bl	commands_printf
 6277              	.LVL521:
 6278              		.loc 1 1458 0
 6279 00d4 6068     		ldr	r0, [r4, #4]	@ float
 6280 00d6 FFF7FEFF 		bl	__aeabi_f2d
 6281              	.LVL522:
 6282 00da 0246     		mov	r2, r0
 6283 00dc 0B46     		mov	r3, r1
 6284 00de 2148     		ldr	r0, .L514+56
 6285 00e0 FFF7FEFF 		bl	commands_printf
 6286              	.LVL523:
 6287              		.loc 1 1459 0
 6288 00e4 E069     		ldr	r0, [r4, #28]	@ float
 6289 00e6 FFF7FEFF 		bl	__aeabi_f2d
 6290              	.LVL524:
 6291 00ea 0246     		mov	r2, r0
 6292 00ec 0B46     		mov	r3, r1
 6293 00ee 1E48     		ldr	r0, .L514+60
 6294 00f0 FFF7FEFF 		bl	commands_printf
 6295              	.LVL525:
 6296              		.loc 1 1460 0
 6297 00f4 206A     		ldr	r0, [r4, #32]	@ float
 6298 00f6 FFF7FEFF 		bl	__aeabi_f2d
 6299              	.LVL526:
 6300 00fa 0246     		mov	r2, r0
 6301 00fc 0B46     		mov	r3, r1
 6302 00fe 1B48     		ldr	r0, .L514+64
 6303 0100 FFF7FEFF 		bl	commands_printf
 6304              	.LVL527:
 6305              		.loc 1 1461 0
 6306 0104 1A4B     		ldr	r3, .L514+68
 6307 0106 1868     		ldr	r0, [r3]	@ float
 6308 0108 FFF7FEFF 		bl	__aeabi_f2d
 6309              	.LVL528:
 6310 010c 0246     		mov	r2, r0
 6311 010e 0B46     		mov	r3, r1
 6312 0110 1848     		ldr	r0, .L514+72
 6313 0112 FFF7FEFF 		bl	commands_printf
 6314              	.LVL529:
 6315              		.loc 1 1462 0
 6316 0116 184B     		ldr	r3, .L514+76
 6317 0118 1868     		ldr	r0, [r3]	@ float
 6318 011a FFF7FEFF 		bl	__aeabi_f2d
 6319              	.LVL530:
 6320              		.loc 1 1463 0
 6321 011e BDE81040 		pop	{r4, lr}
 6322              		.cfi_restore 14
 6323              		.cfi_restore 4
 6324              		.cfi_def_cfa_offset 0
 6325              		.loc 1 1462 0
 6326 0122 0246     		mov	r2, r0
 6327 0124 0B46     		mov	r3, r1
ARM GAS  C:\Users\CHRIST~1\AppData\Local\Temp\ccDhfOXE.s 			page 112


 6328 0126 1548     		ldr	r0, .L514+80
 6329 0128 FFF7FEBF 		b	commands_printf
 6330              	.LVL531:
 6331              	.L515:
 6332              		.align	2
 6333              	.L514:
 6334 012c 00000000 		.word	.LANCHOR10
 6335 0130 00000000 		.word	.LC8
 6336 0134 14000000 		.word	.LC9
 6337 0138 28000000 		.word	.LC10
 6338 013c 3C000000 		.word	.LC11
 6339 0140 50000000 		.word	.LC12
 6340 0144 64000000 		.word	.LC13
 6341 0148 78000000 		.word	.LC14
 6342 014c 8C000000 		.word	.LC15
 6343 0150 A0000000 		.word	.LC16
 6344 0154 B4000000 		.word	.LC17
 6345 0158 C8000000 		.word	.LC18
 6346 015c DC000000 		.word	.LC19
 6347 0160 F0000000 		.word	.LC20
 6348 0164 04010000 		.word	.LC21
 6349 0168 18010000 		.word	.LC22
 6350 016c 2C010000 		.word	.LC23
 6351 0170 00000000 		.word	.LANCHOR35
 6352 0174 40010000 		.word	.LC24
 6353 0178 00000000 		.word	.LANCHOR36
 6354 017c 54010000 		.word	.LC25
 6355              		.cfi_endproc
 6356              	.LFE301:
 6357              		.size	mcpwm_foc_print_state, .-mcpwm_foc_print_state
 6358              		.section	.text.mcpwm_foc_get_last_inj_adc_isr_duration,"ax",%progbits
 6359              		.align	1
 6360              		.p2align 4,,15
 6361              		.global	mcpwm_foc_get_last_inj_adc_isr_duration
 6362              		.syntax unified
 6363              		.thumb
 6364              		.thumb_func
 6365              		.fpu fpv4-sp-d16
 6366              		.type	mcpwm_foc_get_last_inj_adc_isr_duration, %function
 6367              	mcpwm_foc_get_last_inj_adc_isr_duration:
 6368              	.LFB302:
 6369              		.loc 1 1465 0
 6370              		.cfi_startproc
 6371              		@ args = 0, pretend = 0, frame = 0
 6372              		@ frame_needed = 0, uses_anonymous_args = 0
 6373              		@ link register save eliminated.
 6374              		.loc 1 1466 0
 6375 0000 014B     		ldr	r3, .L517
 6376 0002 93ED000A 		vldr.32	s0, [r3]
 6377              		.loc 1 1467 0
 6378 0006 7047     		bx	lr
 6379              	.L518:
 6380              		.align	2
 6381              	.L517:
 6382 0008 00000000 		.word	.LANCHOR40
 6383              		.cfi_endproc
 6384              	.LFE302:
ARM GAS  C:\Users\CHRIST~1\AppData\Local\Temp\ccDhfOXE.s 			page 113


 6385              		.size	mcpwm_foc_get_last_inj_adc_isr_duration, .-mcpwm_foc_get_last_inj_adc_isr_duration
 6386              		.section	.text.mcpwm_foc_tim_sample_int_handler,"ax",%progbits
 6387              		.align	1
 6388              		.p2align 4,,15
 6389              		.global	mcpwm_foc_tim_sample_int_handler
 6390              		.syntax unified
 6391              		.thumb
 6392              		.thumb_func
 6393              		.fpu fpv4-sp-d16
 6394              		.type	mcpwm_foc_tim_sample_int_handler, %function
 6395              	mcpwm_foc_tim_sample_int_handler:
 6396              	.LFB303:
 6397              		.loc 1 1469 0
 6398              		.cfi_startproc
 6399              		@ args = 0, pretend = 0, frame = 0
 6400              		@ frame_needed = 0, uses_anonymous_args = 0
 6401              		@ link register save eliminated.
 6402              		.loc 1 1470 0
 6403 0000 034B     		ldr	r3, .L522
 6404 0002 1B78     		ldrb	r3, [r3]	@ zero_extendqisi2
 6405 0004 03B9     		cbnz	r3, .L521
 6406 0006 7047     		bx	lr
 6407              	.L521:
 6408              		.loc 1 1472 0
 6409 0008 2021     		movs	r1, #32
 6410 000a 0248     		ldr	r0, .L522+4
 6411 000c FFF7FEBF 		b	TIM_GenerateEvent
 6412              	.LVL532:
 6413              	.L523:
 6414              		.align	2
 6415              	.L522:
 6416 0010 00000000 		.word	.LANCHOR23
 6417 0014 00000140 		.word	1073807360
 6418              		.cfi_endproc
 6419              	.LFE303:
 6420              		.size	mcpwm_foc_tim_sample_int_handler, .-mcpwm_foc_tim_sample_int_handler
 6421              		.section	.text.observer_update,"ax",%progbits
 6422              		.align	1
 6423              		.p2align 4,,15
 6424              		.global	observer_update
 6425              		.syntax unified
 6426              		.thumb
 6427              		.thumb_func
 6428              		.fpu fpv4-sp-d16
 6429              		.type	observer_update, %function
 6430              	observer_update:
 6431              	.LFB307:
 6432              		.loc 1 2079 0
 6433              		.cfi_startproc
 6434              		@ args = 0, pretend = 0, frame = 0
 6435              		@ frame_needed = 0, uses_anonymous_args = 0
 6436              	.LVL533:
 6437 0000 F8B5     		push	{r3, r4, r5, r6, r7, lr}
 6438              		.cfi_def_cfa_offset 24
 6439              		.cfi_offset 3, -24
 6440              		.cfi_offset 4, -20
 6441              		.cfi_offset 5, -16
ARM GAS  C:\Users\CHRIST~1\AppData\Local\Temp\ccDhfOXE.s 			page 114


 6442              		.cfi_offset 6, -12
 6443              		.cfi_offset 7, -8
 6444              		.cfi_offset 14, -4
 6445              		.loc 1 2081 0
 6446 0002 604E     		ldr	r6, .L536
 6447              		.loc 1 2086 0
 6448 0004 604C     		ldr	r4, .L536+4
 6449              		.loc 1 2081 0
 6450 0006 3368     		ldr	r3, [r6]
 6451              		.loc 1 2079 0
 6452 0008 2DED088B 		vpush.64	{d8, d9, d10, d11}
 6453              		.cfi_def_cfa_offset 56
 6454              		.cfi_offset 80, -56
 6455              		.cfi_offset 81, -52
 6456              		.cfi_offset 82, -48
 6457              		.cfi_offset 83, -44
 6458              		.cfi_offset 84, -40
 6459              		.cfi_offset 85, -36
 6460              		.cfi_offset 86, -32
 6461              		.cfi_offset 87, -28
 6462              		.loc 1 2081 0
