ARM GAS  C:\Users\CHRIST~1\AppData\Local\Temp\ccVm3NB4.s 			page 1


   1              		.cpu cortex-m4
   2              		.eabi_attribute 27, 1
   3              		.eabi_attribute 28, 1
   4              		.eabi_attribute 20, 1
   5              		.eabi_attribute 21, 1
   6              		.eabi_attribute 23, 3
   7              		.eabi_attribute 24, 1
   8              		.eabi_attribute 25, 1
   9              		.eabi_attribute 26, 1
  10              		.eabi_attribute 30, 2
  11              		.eabi_attribute 34, 1
  12              		.eabi_attribute 18, 4
  13              		.file	"terminal.c"
  14              		.text
  15              	.Ltext0:
  16              		.cfi_sections	.debug_frame
  17              		.global	__aeabi_f2d
  18              		.section	.text.terminal_process_string,"ax",%progbits
  19              		.align	1
  20              		.p2align 4,,15
  21              		.global	terminal_process_string
  22              		.syntax unified
  23              		.thumb
  24              		.thumb_func
  25              		.fpu fpv4-sp-d16
  26              		.type	terminal_process_string, %function
  27              	terminal_process_string:
  28              	.LFB257:
  29              		.file 1 "terminal.c"
  30              		.loc 1 57 0
  31              		.cfi_startproc
  32              		@ args = 0, pretend = 0, frame = 312
  33              		@ frame_needed = 0, uses_anonymous_args = 0
  34              	.LVL0:
  35 0000 2DE9F047 		push	{r4, r5, r6, r7, r8, r9, r10, lr}
  36              		.cfi_def_cfa_offset 32
  37              		.cfi_offset 4, -32
  38              		.cfi_offset 5, -28
  39              		.cfi_offset 6, -24
  40              		.cfi_offset 7, -20
  41              		.cfi_offset 8, -16
  42              		.cfi_offset 9, -12
  43              		.cfi_offset 10, -8
  44              		.cfi_offset 14, -4
  45 0004 2DED088B 		vpush.64	{d8, d9, d10, d11}
  46              		.cfi_def_cfa_offset 64
  47              		.cfi_offset 80, -64
  48              		.cfi_offset 81, -60
  49              		.cfi_offset 82, -56
  50              		.cfi_offset 83, -52
  51              		.cfi_offset 84, -48
  52              		.cfi_offset 85, -44
  53              		.cfi_offset 86, -40
  54              		.cfi_offset 87, -36
  55              		.loc 1 62 0
  56 0008 9049     		ldr	r1, .L182
  57              		.loc 1 57 0
ARM GAS  C:\Users\CHRIST~1\AppData\Local\Temp\ccVm3NB4.s 			page 2


  58 000a D8B0     		sub	sp, sp, #352
  59              		.cfi_def_cfa_offset 416
  60              		.loc 1 62 0
  61 000c FFF7FEFF 		bl	strtok
  62              	.LVL1:
  63              		.loc 1 63 0
  64 0010 0028     		cmp	r0, #0
  65 0012 7DD0     		beq	.L155
  66 0014 0346     		mov	r3, r0
  67              		.loc 1 65 0
  68 0016 8D4E     		ldr	r6, .L182
  69 0018 17AD     		add	r5, sp, #92
  70              		.loc 1 63 0
  71 001a 0024     		movs	r4, #0
  72 001c 01E0     		b	.L5
  73              	.LVL2:
  74              	.L156:
  75              		.loc 1 63 0 is_stmt 0 discriminator 1
  76 001e 402C     		cmp	r4, #64
  77 0020 09D0     		beq	.L4
  78              	.LVL3:
  79              	.L5:
  80              		.loc 1 64 0 is_stmt 1
  81 0022 45F8043F 		str	r3, [r5, #4]!
  82              		.loc 1 65 0
  83 0026 3146     		mov	r1, r6
  84 0028 0020     		movs	r0, #0
  85              	.LVL4:
  86 002a FFF7FEFF 		bl	strtok
  87              	.LVL5:
  88              		.loc 1 64 0
  89 002e 0134     		adds	r4, r4, #1
  90              	.LVL6:
  91              		.loc 1 63 0
  92 0030 0346     		mov	r3, r0
  93 0032 0028     		cmp	r0, #0
  94 0034 F3D1     		bne	.L156
  95              	.L4:
  96              		.loc 1 75 0
  97 0036 FFF7FEFF 		bl	mc_interface_get_configuration
  98              	.LVL7:
  99 003a 4FF4B872 		mov	r2, #368
 100 003e 0146     		mov	r1, r0
 101 0040 8348     		ldr	r0, .L182+4
 102 0042 FFF7FEFF 		bl	memcpy
 103              	.LVL8:
 104              		.loc 1 76 0
 105 0046 8249     		ldr	r1, .L182+4
 106 0048 8248     		ldr	r0, .L182+8
 107 004a 4FF4B872 		mov	r2, #368
 108 004e FFF7FEFF 		bl	memcpy
 109              	.LVL9:
 110              		.loc 1 78 0
 111 0052 189D     		ldr	r5, [sp, #96]
 112 0054 8049     		ldr	r1, .L182+12
 113 0056 2846     		mov	r0, r5
 114 0058 FFF7FEFF 		bl	strcmp
ARM GAS  C:\Users\CHRIST~1\AppData\Local\Temp\ccVm3NB4.s 			page 3


 115              	.LVL10:
 116 005c 0028     		cmp	r0, #0
 117 005e 5FD0     		beq	.L157
 118              		.loc 1 80 0
 119 0060 7E49     		ldr	r1, .L182+16
 120 0062 2846     		mov	r0, r5
 121 0064 FFF7FEFF 		bl	strcmp
 122              	.LVL11:
 123 0068 0028     		cmp	r0, #0
 124 006a 6DD0     		beq	.L158
 125              		.loc 1 83 0
 126 006c 7C49     		ldr	r1, .L182+20
 127 006e 2846     		mov	r0, r5
 128 0070 FFF7FEFF 		bl	strcmp
 129              	.LVL12:
 130 0074 0028     		cmp	r0, #0
 131 0076 73D0     		beq	.L159
 132              		.loc 1 87 0
 133 0078 7A49     		ldr	r1, .L182+24
 134 007a 2846     		mov	r0, r5
 135 007c FFF7FEFF 		bl	strcmp
 136              	.LVL13:
 137 0080 0028     		cmp	r0, #0
 138 0082 55D0     		beq	.L160
 139              		.loc 1 89 0
 140 0084 7849     		ldr	r1, .L182+28
 141 0086 2846     		mov	r0, r5
 142 0088 FFF7FEFF 		bl	strcmp
 143              	.LVL14:
 144 008c 0028     		cmp	r0, #0
 145 008e 00F09A80 		beq	.L161
 146              		.loc 1 95 0
 147 0092 7649     		ldr	r1, .L182+32
 148 0094 2846     		mov	r0, r5
 149 0096 FFF7FEFF 		bl	strcmp
 150              	.LVL15:
 151 009a 0028     		cmp	r0, #0
 152 009c 00F0A680 		beq	.L162
 153              		.loc 1 109 0
 154 00a0 7349     		ldr	r1, .L182+36
 155 00a2 2846     		mov	r0, r5
 156 00a4 FFF7FEFF 		bl	strcmp
 157              	.LVL16:
 158 00a8 0028     		cmp	r0, #0
 159 00aa 00F0C580 		beq	.L163
 160              		.loc 1 111 0
 161 00ae 7149     		ldr	r1, .L182+40
 162 00b0 2846     		mov	r0, r5
 163 00b2 FFF7FEFF 		bl	strcmp
 164              	.LVL17:
 165 00b6 0646     		mov	r6, r0
 166 00b8 0028     		cmp	r0, #0
 167 00ba 7BD0     		beq	.L164
 168              		.loc 1 139 0
 169 00bc 6E49     		ldr	r1, .L182+44
 170 00be 2846     		mov	r0, r5
 171 00c0 FFF7FEFF 		bl	strcmp
ARM GAS  C:\Users\CHRIST~1\AppData\Local\Temp\ccVm3NB4.s 			page 4


 172              	.LVL18:
 173 00c4 0028     		cmp	r0, #0
 174 00c6 00F08481 		beq	.L165
 175              		.loc 1 141 0
 176 00ca 6C49     		ldr	r1, .L182+48
 177 00cc 2846     		mov	r0, r5
 178 00ce FFF7FEFF 		bl	strcmp
 179              	.LVL19:
 180 00d2 0028     		cmp	r0, #0
 181 00d4 00F08981 		beq	.L166
 182              		.loc 1 143 0
 183 00d8 6949     		ldr	r1, .L182+52
 184 00da 2846     		mov	r0, r5
 185 00dc FFF7FEFF 		bl	strcmp
 186              	.LVL20:
 187 00e0 0028     		cmp	r0, #0
 188 00e2 00F0BF81 		beq	.L167
 189              		.loc 1 168 0
 190 00e6 6749     		ldr	r1, .L182+56
 191 00e8 2846     		mov	r0, r5
 192 00ea FFF7FEFF 		bl	strcmp
 193              	.LVL21:
 194 00ee 0028     		cmp	r0, #0
 195 00f0 00F09F81 		beq	.L168
 196              		.loc 1 170 0
 197 00f4 6449     		ldr	r1, .L182+60
 198 00f6 2846     		mov	r0, r5
 199 00f8 FFF7FEFF 		bl	strcmp
 200              	.LVL22:
 201 00fc 0028     		cmp	r0, #0
 202 00fe 40F07B81 		bne	.L23
 203              		.loc 1 172 0
 204 0102 042C     		cmp	r4, #4
 205 0104 00F0F881 		beq	.L169
 206              		.loc 1 214 0
 207 0108 6048     		ldr	r0, .L182+64
 208 010a FFF7FEFF 		bl	commands_printf
 209              	.LVL23:
 210 010e 02E0     		b	.L1
 211              	.LVL24:
 212              	.L155:
 213              		.loc 1 69 0
 214 0110 5F48     		ldr	r0, .L182+68
 215              	.LVL25:
 216 0112 FFF7FEFF 		bl	commands_printf
 217              	.LVL26:
 218              	.L1:
 219              		.loc 1 696 0
 220 0116 58B0     		add	sp, sp, #352
 221              		.cfi_remember_state
 222              		.cfi_def_cfa_offset 64
 223              		@ sp needed
 224 0118 BDEC088B 		vldm	sp!, {d8-d11}
 225              		.cfi_restore 86
 226              		.cfi_restore 87
 227              		.cfi_restore 84
 228              		.cfi_restore 85
ARM GAS  C:\Users\CHRIST~1\AppData\Local\Temp\ccVm3NB4.s 			page 5


 229              		.cfi_restore 82
 230              		.cfi_restore 83
 231              		.cfi_restore 80
 232              		.cfi_restore 81
 233              		.cfi_def_cfa_offset 32
 234 011c BDE8F087 		pop	{r4, r5, r6, r7, r8, r9, r10, pc}
 235              	.LVL27:
 236              	.L157:
 237              		.cfi_restore_state
 238              		.loc 1 79 0
 239 0120 5C48     		ldr	r0, .L182+72
 240 0122 FFF7FEFF 		bl	commands_printf
 241              	.LVL28:
 242              		.loc 1 696 0
 243 0126 58B0     		add	sp, sp, #352
 244              		.cfi_remember_state
 245              		.cfi_def_cfa_offset 64
 246              		@ sp needed
 247 0128 BDEC088B 		vldm	sp!, {d8-d11}
 248              		.cfi_restore 80
 249              		.cfi_restore 81
 250              		.cfi_restore 82
 251              		.cfi_restore 83
 252              		.cfi_restore 84
 253              		.cfi_restore 85
 254              		.cfi_restore 86
 255              		.cfi_restore 87
 256              		.cfi_def_cfa_offset 32
 257 012c BDE8F087 		pop	{r4, r5, r6, r7, r8, r9, r10, pc}
 258              	.LVL29:
 259              	.L160:
 260              		.cfi_restore_state
 261              		.loc 1 88 0
 262 0130 FFF7FEFF 		bl	mcpwm_get_kv_filtered
 263              	.LVL30:
 264 0134 10EE100A 		vmov	r0, s0
 265 0138 FFF7FEFF 		bl	__aeabi_f2d
 266              	.LVL31:
 267 013c 0246     		mov	r2, r0
 268 013e 0B46     		mov	r3, r1
 269 0140 5548     		ldr	r0, .L182+76
 270 0142 FFF7FEFF 		bl	commands_printf
 271              	.LVL32:
 272 0146 E6E7     		b	.L1
 273              	.L158:
 274              		.loc 1 81 0
 275 0148 9FED540A 		vldr.32	s0, .L182+80
 276 014c FFF7FEFF 		bl	mc_interface_set_duty
 277              	.LVL33:
 278              		.loc 1 82 0
 279 0150 5348     		ldr	r0, .L182+84
 280 0152 FFF7FEFF 		bl	commands_printf
 281              	.LVL34:
 282              		.loc 1 696 0
 283 0156 58B0     		add	sp, sp, #352
 284              		.cfi_remember_state
 285              		.cfi_def_cfa_offset 64
ARM GAS  C:\Users\CHRIST~1\AppData\Local\Temp\ccVm3NB4.s 			page 6


 286              		@ sp needed
 287 0158 BDEC088B 		vldm	sp!, {d8-d11}
 288              		.cfi_restore 80
 289              		.cfi_restore 81
 290              		.cfi_restore 82
 291              		.cfi_restore 83
 292              		.cfi_restore 84
 293              		.cfi_restore 85
 294              		.cfi_restore 86
 295              		.cfi_restore 87
 296              		.cfi_def_cfa_offset 32
 297 015c BDE8F087 		pop	{r4, r5, r6, r7, r8, r9, r10, pc}
 298              	.LVL35:
 299              	.L159:
 300              		.cfi_restore_state
 301              		.loc 1 84 0
 302 0160 FFF7FEFF 		bl	mcpwm_get_last_adc_isr_duration
 303              	.LVL36:
 304 0164 9FED4F8A 		vldr.32	s16, .L182+88
 305 0168 60EE087A 		vmul.f32	s15, s0, s16
 306 016c 17EE900A 		vmov	r0, s15
 307 0170 FFF7FEFF 		bl	__aeabi_f2d
 308              	.LVL37:
 309 0174 0246     		mov	r2, r0
 310 0176 0B46     		mov	r3, r1
 311 0178 4B48     		ldr	r0, .L182+92
 312 017a FFF7FEFF 		bl	commands_printf
 313              	.LVL38:
 314              		.loc 1 85 0
 315 017e FFF7FEFF 		bl	mc_interface_get_last_inj_adc_isr_duration
 316              	.LVL39:
 317 0182 60EE087A 		vmul.f32	s15, s0, s16
 318 0186 17EE900A 		vmov	r0, s15
 319 018a FFF7FEFF 		bl	__aeabi_f2d
 320              	.LVL40:
 321 018e 0246     		mov	r2, r0
 322 0190 0B46     		mov	r3, r1
 323 0192 4648     		ldr	r0, .L182+96
 324 0194 FFF7FEFF 		bl	commands_printf
 325              	.LVL41:
 326              		.loc 1 86 0
 327 0198 FFF7FEFF 		bl	mc_interface_get_last_sample_adc_isr_duration
 328              	.LVL42:
 329 019c 60EE087A 		vmul.f32	s15, s0, s16
 330 01a0 17EE900A 		vmov	r0, s15
 331 01a4 FFF7FEFF 		bl	__aeabi_f2d
 332              	.LVL43:
 333 01a8 0246     		mov	r2, r0
 334 01aa 0B46     		mov	r3, r1
 335 01ac 4048     		ldr	r0, .L182+100
 336 01ae FFF7FEFF 		bl	commands_printf
 337              	.LVL44:
 338 01b2 B0E7     		b	.L1
 339              	.L164:
 340              		.loc 1 112 0
 341 01b4 3F4F     		ldr	r7, .L182+104
 342 01b6 3B68     		ldr	r3, [r7]
ARM GAS  C:\Users\CHRIST~1\AppData\Local\Temp\ccVm3NB4.s 			page 7


 343 01b8 002B     		cmp	r3, #0
 344 01ba 40F09180 		bne	.L16
 345              		.loc 1 113 0
 346 01be 3E48     		ldr	r0, .L182+108
 347 01c0 FFF7FEFF 		bl	commands_printf
 348              	.LVL45:
 349 01c4 A7E7     		b	.L1
 350              	.L161:
 351              	.LBB59:
 352              		.loc 1 91 0
 353 01c6 11A9     		add	r1, sp, #68
 354 01c8 FFF7FEFF 		bl	chHeapStatus
 355              	.LVL46:
 356 01cc 0446     		mov	r4, r0
 357              	.LVL47:
 358              		.loc 1 92 0
 359 01ce FFF7FEFF 		bl	chCoreGetStatusX
 360              	.LVL48:
 361 01d2 0146     		mov	r1, r0
 362 01d4 3948     		ldr	r0, .L182+112
 363 01d6 FFF7FEFF 		bl	commands_printf
 364              	.LVL49:
 365              		.loc 1 93 0
 366 01da 2146     		mov	r1, r4
 367 01dc 3848     		ldr	r0, .L182+116
 368 01de FFF7FEFF 		bl	commands_printf
 369              	.LVL50:
 370              		.loc 1 94 0
 371 01e2 1199     		ldr	r1, [sp, #68]
 372 01e4 3748     		ldr	r0, .L182+120
 373 01e6 FFF7FEFF 		bl	commands_printf
 374              	.LVL51:
 375              	.LBE59:
 376 01ea 94E7     		b	.L1
 377              	.LVL52:
 378              	.L162:
 379              	.LBB60:
 380              		.loc 1 98 0
 381 01ec 3648     		ldr	r0, .L182+124
 382 01ee 374E     		ldr	r6, .L182+128
 383              		.loc 1 102 0
 384 01f0 374D     		ldr	r5, .L182+132
 385              		.loc 1 98 0
 386 01f2 FFF7FEFF 		bl	commands_printf
 387              	.LVL53:
 388              		.loc 1 99 0
 389 01f6 3748     		ldr	r0, .L182+136
 390 01f8 FFF7FEFF 		bl	commands_printf
 391              	.LVL54:
 392              		.loc 1 100 0
 393 01fc FFF7FEFF 		bl	chRegFirstThread
 394              	.LVL55:
 395 0200 0446     		mov	r4, r0
 396              	.LVL56:
 397              	.L13:
 398              		.loc 1 105 0 discriminator 1
 399 0202 216A     		ldr	r1, [r4, #32]
ARM GAS  C:\Users\CHRIST~1\AppData\Local\Temp\ccVm3NB4.s 			page 8


 400              		.loc 1 102 0 discriminator 1
 401 0204 A368     		ldr	r3, [r4, #8]
 402 0206 E268     		ldr	r2, [r4, #12]
 403 0208 0391     		str	r1, [sp, #12]
 404 020a A169     		ldr	r1, [r4, #24]
 405 020c 0291     		str	r1, [sp, #8]
 406              		.loc 1 105 0 discriminator 1
 407 020e 217F     		ldrb	r1, [r4, #28]	@ zero_extendqisi2
 408              		.loc 1 102 0 discriminator 1
 409 0210 56F82110 		ldr	r1, [r6, r1, lsl #2]
 410 0214 0191     		str	r1, [sp, #4]
 411              		.loc 1 104 0 discriminator 1
 412 0216 A17F     		ldrb	r1, [r4, #30]	@ zero_extendqisi2
 413 0218 0139     		subs	r1, r1, #1
 414              		.loc 1 102 0 discriminator 1
 415 021a 0091     		str	r1, [sp]
 416 021c 2846     		mov	r0, r5
 417              	.LVL57:
 418 021e 2146     		mov	r1, r4
 419 0220 FFF7FEFF 		bl	commands_printf
 420              	.LVL58:
 421              		.loc 1 106 0 discriminator 1
 422 0224 2046     		mov	r0, r4
 423 0226 FFF7FEFF 		bl	chRegNextThread
 424              	.LVL59:
 425              		.loc 1 107 0 discriminator 1
 426 022a 0446     		mov	r4, r0
 427 022c 0028     		cmp	r0, #0
 428 022e E8D1     		bne	.L13
 429              		.loc 1 108 0
 430 0230 2948     		ldr	r0, .L182+140
 431              	.LVL60:
 432 0232 FFF7FEFF 		bl	commands_printf
 433              	.LVL61:
 434              	.LBE60:
 435 0236 6EE7     		b	.L1
 436              	.LVL62:
 437              	.L163:
 438              		.loc 1 110 0
 439 0238 FFF7FEFF 		bl	mc_interface_get_fault
 440              	.LVL63:
 441 023c FFF7FEFF 		bl	mc_interface_fault_to_string
 442              	.LVL64:
 443 0240 0146     		mov	r1, r0
 444 0242 2648     		ldr	r0, .L182+144
 445 0244 FFF7FEFF 		bl	commands_printf
 446              	.LVL65:
 447 0248 65E7     		b	.L1
 448              	.L183:
 449 024a 00BF     		.align	2
 450              	.L182:
 451 024c 18000000 		.word	.LC4
 452 0250 00000000 		.word	.LANCHOR0
 453 0254 00000000 		.word	.LANCHOR1
 454 0258 34000000 		.word	.LC6
 455 025c 44000000 		.word	.LC8
 456 0260 5C000000 		.word	.LC10
ARM GAS  C:\Users\CHRIST~1\AppData\Local\Temp\ccVm3NB4.s 			page 9


 457 0264 E0000000 		.word	.LC14
 458 0268 04010000 		.word	.LC16
 459 026c 5C010000 		.word	.LC20
 460 0270 0C020000 		.word	.LC25
 461 0274 18020000 		.word	.LC27
 462 0278 C8030000 		.word	.LC44
 463 027c E8030000 		.word	.LC46
 464 0280 08040000 		.word	.LC48
 465 0284 C0040000 		.word	.LC60
 466 0288 E0040000 		.word	.LC62
 467 028c 38060000 		.word	.LC73
 468 0290 1C000000 		.word	.LC5
 469 0294 3C000000 		.word	.LC7
 470 0298 E4000000 		.word	.LC15
 471 029c 00000000 		.word	0
 472 02a0 4C000000 		.word	.LC9
 473 02a4 00007A44 		.word	1148846080
 474 02a8 70000000 		.word	.LC11
 475 02ac 90000000 		.word	.LC12
 476 02b0 B8000000 		.word	.LC13
 477 02b4 00000000 		.word	.LANCHOR3
 478 02b8 20020000 		.word	.LC28
 479 02bc 08010000 		.word	.LC17
 480 02c0 24010000 		.word	.LC18
 481 02c4 3C010000 		.word	.LC19
 482 02c8 64010000 		.word	.LC21
 483 02cc 00000000 		.word	.LANCHOR2
 484 02d0 E4010000 		.word	.LC23
 485 02d4 A4010000 		.word	.LC22
 486 02d8 08020000 		.word	.LC24
 487 02dc 14020000 		.word	.LC26
 488              	.L16:
 489              		.loc 1 115 0
 490 02e0 C548     		ldr	r0, .L184
 491 02e2 FFF7FEFF 		bl	commands_printf
 492              	.LVL66:
 493              	.LBB61:
 494              		.loc 1 116 0
 495 02e6 3B68     		ldr	r3, [r7]
 496 02e8 002B     		cmp	r3, #0
 497 02ea 7FF714AF 		ble	.L1
 498 02ee C34D     		ldr	r5, .L184+4
 499              		.loc 1 117 0 discriminator 3
 500 02f0 DFF8C0A3 		ldr	r10, .L184+188
 501              		.loc 1 118 0 discriminator 3
 502 02f4 DFF8C093 		ldr	r9, .L184+192
 503              		.loc 1 119 0 discriminator 3
 504 02f8 DFF8C083 		ldr	r8, .L184+196
 505              	.LVL67:
 506              	.L18:
 507              		.loc 1 117 0 discriminator 3
 508 02fc C6EBC603 		rsb	r3, r6, r6, lsl #3
 509 0300 05EBC304 		add	r4, r5, r3, lsl #3
 510 0304 15F83300 		ldrb	r0, [r5, r3, lsl #3]	@ zero_extendqisi2
 511 0308 FFF7FEFF 		bl	mc_interface_fault_to_string
 512              	.LVL68:
 513 030c 0146     		mov	r1, r0
ARM GAS  C:\Users\CHRIST~1\AppData\Local\Temp\ccVm3NB4.s 			page 10


 514 030e 5046     		mov	r0, r10
 515 0310 FFF7FEFF 		bl	commands_printf
 516              	.LVL69:
 517              		.loc 1 118 0 discriminator 3
 518 0314 6068     		ldr	r0, [r4, #4]	@ float
 519 0316 FFF7FEFF 		bl	__aeabi_f2d
 520              	.LVL70:
 521 031a 0246     		mov	r2, r0
 522 031c 0B46     		mov	r3, r1
 523 031e 4846     		mov	r0, r9
 524 0320 FFF7FEFF 		bl	commands_printf
 525              	.LVL71:
 526              		.loc 1 119 0 discriminator 3
 527 0324 A068     		ldr	r0, [r4, #8]	@ float
 528 0326 FFF7FEFF 		bl	__aeabi_f2d
 529              	.LVL72:
 530 032a 0246     		mov	r2, r0
 531 032c 0B46     		mov	r3, r1
 532 032e 4046     		mov	r0, r8
 533 0330 FFF7FEFF 		bl	commands_printf
 534              	.LVL73:
 535              		.loc 1 120 0 discriminator 3
 536 0334 E068     		ldr	r0, [r4, #12]	@ float
 537 0336 FFF7FEFF 		bl	__aeabi_f2d
 538              	.LVL74:
 539 033a 0246     		mov	r2, r0
 540 033c 0B46     		mov	r3, r1
 541 033e B048     		ldr	r0, .L184+8
 542 0340 FFF7FEFF 		bl	commands_printf
 543              	.LVL75:
 544              		.loc 1 121 0 discriminator 3
 545 0344 2069     		ldr	r0, [r4, #16]	@ float
 546 0346 FFF7FEFF 		bl	__aeabi_f2d
 547              	.LVL76:
 548 034a 0246     		mov	r2, r0
 549 034c 0B46     		mov	r3, r1
 550 034e AD48     		ldr	r0, .L184+12
 551 0350 FFF7FEFF 		bl	commands_printf
 552              	.LVL77:
 553              		.loc 1 122 0 discriminator 3
 554 0354 6069     		ldr	r0, [r4, #20]	@ float
 555 0356 FFF7FEFF 		bl	__aeabi_f2d
 556              	.LVL78:
 557 035a 0246     		mov	r2, r0
 558 035c 0B46     		mov	r3, r1
 559 035e AA48     		ldr	r0, .L184+16
 560 0360 FFF7FEFF 		bl	commands_printf
 561              	.LVL79:
 562              		.loc 1 123 0 discriminator 3
 563 0364 A169     		ldr	r1, [r4, #24]
 564 0366 A948     		ldr	r0, .L184+20
 565 0368 FFF7FEFF 		bl	commands_printf
 566              	.LVL80:
 567              		.loc 1 124 0 discriminator 3
 568 036c E169     		ldr	r1, [r4, #28]
 569 036e A848     		ldr	r0, .L184+24
 570 0370 FFF7FEFF 		bl	commands_printf
ARM GAS  C:\Users\CHRIST~1\AppData\Local\Temp\ccVm3NB4.s 			page 11


 571              	.LVL81:
 572              		.loc 1 125 0 discriminator 3
 573 0374 D4ED0A7A 		vldr.32	s15, [r4, #40]	@ int
 574 0378 94ED047A 		vldr.32	s14, [r4, #16]
 575 037c A548     		ldr	r0, .L184+28
 576 037e F8EEE77A 		vcvt.f32.s32	s15, s15
 577              		.loc 1 116 0 discriminator 3
 578 0382 0136     		adds	r6, r6, #1
 579              	.LVL82:
 580              		.loc 1 125 0 discriminator 3
 581 0384 67EE877A 		vmul.f32	s15, s15, s14
 582 0388 FDEEE77A 		vcvt.s32.f32	s15, s15
 583 038c 17EE901A 		vmov	r1, s15	@ int
 584 0390 FFF7FEFF 		bl	commands_printf
 585              	.LVL83:
 586              		.loc 1 126 0 discriminator 3
 587 0394 216A     		ldr	r1, [r4, #32]
 588 0396 A048     		ldr	r0, .L184+32
 589 0398 FFF7FEFF 		bl	commands_printf
 590              	.LVL84:
 591              		.loc 1 127 0 discriminator 3
 592 039c 616A     		ldr	r1, [r4, #36]
 593 039e 9F48     		ldr	r0, .L184+36
 594 03a0 FFF7FEFF 		bl	commands_printf
 595              	.LVL85:
 596              		.loc 1 128 0 discriminator 3
 597 03a4 A16A     		ldr	r1, [r4, #40]
 598 03a6 9E48     		ldr	r0, .L184+40
 599 03a8 FFF7FEFF 		bl	commands_printf
 600              	.LVL86:
 601              		.loc 1 129 0 discriminator 3
 602 03ac E16A     		ldr	r1, [r4, #44]
 603 03ae 9D48     		ldr	r0, .L184+44
 604 03b0 FFF7FEFF 		bl	commands_printf
 605              	.LVL87:
 606              		.loc 1 130 0 discriminator 3
 607 03b4 206B     		ldr	r0, [r4, #48]	@ float
 608 03b6 FFF7FEFF 		bl	__aeabi_f2d
 609              	.LVL88:
 610 03ba 0246     		mov	r2, r0
 611 03bc 0B46     		mov	r3, r1
 612 03be 9A48     		ldr	r0, .L184+48
 613 03c0 FFF7FEFF 		bl	commands_printf
 614              	.LVL89:
 615              		.loc 1 136 0 discriminator 3
 616 03c4 9948     		ldr	r0, .L184+52
 617 03c6 FFF7FEFF 		bl	commands_printf
 618              	.LVL90:
 619              		.loc 1 116 0 discriminator 3
 620 03ca 3B68     		ldr	r3, [r7]
 621 03cc B342     		cmp	r3, r6
 622 03ce 95DC     		bgt	.L18
 623 03d0 A1E6     		b	.L1
 624              	.LVL91:
 625              	.L165:
 626              	.LBE61:
 627              		.loc 1 140 0
ARM GAS  C:\Users\CHRIST~1\AppData\Local\Temp\ccVm3NB4.s 			page 12


 628 03d2 FFF7FEFF 		bl	mc_interface_get_rpm
 629              	.LVL92:
 630 03d6 10EE100A 		vmov	r0, s0
 631 03da FFF7FEFF 		bl	__aeabi_f2d
 632              	.LVL93:
 633 03de 0246     		mov	r2, r0
 634 03e0 0B46     		mov	r3, r1
 635 03e2 9348     		ldr	r0, .L184+56
 636 03e4 FFF7FEFF 		bl	commands_printf
 637              	.LVL94:
 638 03e8 95E6     		b	.L1
 639              	.L166:
 640              		.loc 1 142 0
 641 03ea FFF7FEFF 		bl	mc_interface_get_tachometer_value
 642              	.LVL95:
 643 03ee 0146     		mov	r1, r0
 644 03f0 9048     		ldr	r0, .L184+60
 645 03f2 FFF7FEFF 		bl	commands_printf
 646              	.LVL96:
 647 03f6 8EE6     		b	.L1
 648              	.L23:
 649              		.loc 1 216 0
 650 03f8 8F49     		ldr	r1, .L184+64
 651 03fa 2846     		mov	r0, r5
 652 03fc FFF7FEFF 		bl	strcmp
 653              	.LVL97:
 654 0400 0028     		cmp	r0, #0
 655 0402 00F05D81 		beq	.L170
 656              		.loc 1 221 0
 657 0406 8D49     		ldr	r1, .L184+68
 658 0408 2846     		mov	r0, r5
 659 040a FFF7FEFF 		bl	strcmp
 660              	.LVL98:
 661 040e 0646     		mov	r6, r0
 662 0410 0028     		cmp	r0, #0
 663 0412 00F01082 		beq	.L171
 664              		.loc 1 235 0
 665 0416 8A49     		ldr	r1, .L184+72
 666 0418 2846     		mov	r0, r5
 667 041a FFF7FEFF 		bl	strcmp
 668              	.LVL99:
 669 041e 0028     		cmp	r0, #0
 670 0420 40F0B180 		bne	.L43
 671              		.loc 1 236 0
 672 0424 022C     		cmp	r4, #2
 673 0426 00F08E81 		beq	.L172
 674              	.L44:
 675              		.loc 1 264 0
 676 042a 8648     		ldr	r0, .L184+76
 677 042c FFF7FEFF 		bl	commands_printf
 678              	.LVL100:
 679 0430 71E6     		b	.L1
 680              	.L168:
 681              		.loc 1 169 0
 682 0432 854B     		ldr	r3, .L184+80
 683 0434 DFED856A 		vldr.32	s13, .L184+84
 684 0438 1B8A     		ldrh	r3, [r3, #16]
ARM GAS  C:\Users\CHRIST~1\AppData\Local\Temp\ccVm3NB4.s 			page 13


 685 043a 9FED857A 		vldr.32	s14, .L184+88
 686 043e 9BB2     		uxth	r3, r3
 687 0440 07EE903A 		vmov	s15, r3	@ int
 688 0444 F8EE677A 		vcvt.f32.u32	s15, s15
 689 0448 67EEA67A 		vmul.f32	s15, s15, s13
 690 044c 67EE877A 		vmul.f32	s15, s15, s14
 691 0450 17EE900A 		vmov	r0, s15
 692 0454 FFF7FEFF 		bl	__aeabi_f2d
 693              	.LVL101:
 694 0458 0246     		mov	r2, r0
 695 045a 0B46     		mov	r3, r1
 696 045c 7D48     		ldr	r0, .L184+92
 697 045e FFF7FEFF 		bl	commands_printf
 698              	.LVL102:
 699 0462 58E6     		b	.L1
 700              	.L167:
 701              	.LVL103:
 702              	.LBB62:
 703              	.LBB63:
 704              	.LBB64:
 705              	.LBB65:
 706              	.LBB66:
 707              		.file 2 "ChibiOS_3.0.2/os/ext/CMSIS/include/core_cmFunc.h"
 708              		.loc 2 546 0
 709 0464 2023     		movs	r3, #32
 710              		.syntax unified
 711              	@ 546 "ChibiOS_3.0.2/os/ext/CMSIS/include/core_cmFunc.h" 1
 712 0466 83F31188 		MSR basepri, r3
 713              	@ 0 "" 2
 714              	.LVL104:
 715              		.thumb
 716              		.syntax unified
 717              	.LBE66:
 718              	.LBE65:
 719              	.LBE64:
 720              	.LBE63:
 721              		.loc 1 145 0
 722 046a 7B4B     		ldr	r3, .L184+96
 723              		.loc 1 146 0
 724 046c 7B4A     		ldr	r2, .L184+100
 725              		.loc 1 145 0
 726 046e 596A     		ldr	r1, [r3, #36]
 727 0470 0E91     		str	r1, [sp, #56]
 728              		.loc 1 146 0
 729 0472 516A     		ldr	r1, [r2, #36]
 730 0474 0F91     		str	r1, [sp, #60]
 731              		.loc 1 147 0
 732 0476 1968     		ldr	r1, [r3]
 733 0478 C1F30011 		ubfx	r1, r1, #4, #1
 734 047c 1091     		str	r1, [sp, #64]
 735              		.loc 1 148 0
 736 047e 1168     		ldr	r1, [r2]
 737 0480 C1F30011 		ubfx	r1, r1, #4, #1
 738 0484 1191     		str	r1, [sp, #68]
 739              	.LVL105:
 740              	.LBB67:
 741              	.LBB68:
ARM GAS  C:\Users\CHRIST~1\AppData\Local\Temp\ccVm3NB4.s 			page 14


 742              	.LBB69:
 743              	.LBB70:
 744              	.LBB71:
 745              		.loc 2 546 0
 746              		.syntax unified
 747              	@ 546 "ChibiOS_3.0.2/os/ext/CMSIS/include/core_cmFunc.h" 1
 748 0486 80F31188 		MSR basepri, r0
 749              	@ 0 "" 2
 750              	.LVL106:
 751              		.thumb
 752              		.syntax unified
 753              	.LBE71:
 754              	.LBE70:
 755              	.LBE69:
 756              	.LBE68:
 757              	.LBE67:
 758              		.loc 1 157 0
 759 048a 7548     		ldr	r0, .L184+104
 760              		.loc 1 150 0
 761 048c D3F834A0 		ldr	r10, [r3, #52]
 762              	.LVL107:
 763              		.loc 1 151 0
 764 0490 D3F83890 		ldr	r9, [r3, #56]
 765              	.LVL108:
 766              		.loc 1 152 0
 767 0494 D3F83C80 		ldr	r8, [r3, #60]
 768              	.LVL109:
 769              		.loc 1 153 0
 770 0498 DF6A     		ldr	r7, [r3, #44]
 771              	.LVL110:
 772              		.loc 1 154 0
 773 049a 566B     		ldr	r6, [r2, #52]
 774              	.LVL111:
 775              		.loc 1 155 0
 776 049c 1D6C     		ldr	r5, [r3, #64]
 777              	.LVL112:
 778              		.loc 1 156 0
 779 049e 946B     		ldr	r4, [r2, #56]
 780              	.LVL113:
 781              		.loc 1 157 0
 782 04a0 0E99     		ldr	r1, [sp, #56]
 783 04a2 FFF7FEFF 		bl	commands_printf
 784              	.LVL114:
 785              		.loc 1 158 0
 786 04a6 0F99     		ldr	r1, [sp, #60]
 787 04a8 6E48     		ldr	r0, .L184+108
 788 04aa FFF7FEFF 		bl	commands_printf
 789              	.LVL115:
 790              		.loc 1 159 0
 791 04ae 5146     		mov	r1, r10
 792 04b0 6D48     		ldr	r0, .L184+112
 793 04b2 FFF7FEFF 		bl	commands_printf
 794              	.LVL116:
 795              		.loc 1 160 0
 796 04b6 4946     		mov	r1, r9
 797 04b8 6C48     		ldr	r0, .L184+116
 798 04ba FFF7FEFF 		bl	commands_printf
ARM GAS  C:\Users\CHRIST~1\AppData\Local\Temp\ccVm3NB4.s 			page 15


 799              	.LVL117:
 800              		.loc 1 161 0
 801 04be 4146     		mov	r1, r8
 802 04c0 6B48     		ldr	r0, .L184+120
 803 04c2 FFF7FEFF 		bl	commands_printf
 804              	.LVL118:
 805              		.loc 1 162 0
 806 04c6 3946     		mov	r1, r7
 807 04c8 6A48     		ldr	r0, .L184+124
 808 04ca FFF7FEFF 		bl	commands_printf
 809              	.LVL119:
 810              		.loc 1 163 0
 811 04ce 1099     		ldr	r1, [sp, #64]
 812 04d0 6948     		ldr	r0, .L184+128
 813 04d2 FFF7FEFF 		bl	commands_printf
 814              	.LVL120:
 815              		.loc 1 164 0
 816 04d6 1199     		ldr	r1, [sp, #68]
 817 04d8 6848     		ldr	r0, .L184+132
 818 04da FFF7FEFF 		bl	commands_printf
 819              	.LVL121:
 820              		.loc 1 165 0
 821 04de 3146     		mov	r1, r6
 822 04e0 6748     		ldr	r0, .L184+136
 823 04e2 FFF7FEFF 		bl	commands_printf
 824              	.LVL122:
 825              		.loc 1 166 0
 826 04e6 2946     		mov	r1, r5
 827 04e8 6648     		ldr	r0, .L184+140
 828 04ea FFF7FEFF 		bl	commands_printf
 829              	.LVL123:
 830              		.loc 1 167 0
 831 04ee 2146     		mov	r1, r4
 832 04f0 6548     		ldr	r0, .L184+144
 833 04f2 FFF7FEFF 		bl	commands_printf
 834              	.LVL124:
 835              	.LBE62:
 836 04f6 0EE6     		b	.L1
 837              	.LVL125:
 838              	.L169:
 839              	.LBB72:
 840              		.loc 1 173 0
 841 04f8 644B     		ldr	r3, .L184+148
 842              		.loc 1 176 0
 843 04fa 6549     		ldr	r1, .L184+152
 844 04fc 1998     		ldr	r0, [sp, #100]
 845              		.loc 1 173 0
 846 04fe 0B93     		str	r3, [sp, #44]	@ float
 847              		.loc 1 176 0
 848 0500 0BAA     		add	r2, sp, #44
 849              		.loc 1 174 0
 850 0502 0C93     		str	r3, [sp, #48]	@ float
 851              		.loc 1 175 0
 852 0504 0D93     		str	r3, [sp, #52]	@ float
 853              		.loc 1 176 0
 854 0506 FFF7FEFF 		bl	sscanf
 855              	.LVL126:
ARM GAS  C:\Users\CHRIST~1\AppData\Local\Temp\ccVm3NB4.s 			page 16


 856              		.loc 1 177 0
 857 050a 0CAA     		add	r2, sp, #48
 858 050c 6049     		ldr	r1, .L184+152
 859 050e 1A98     		ldr	r0, [sp, #104]
 860 0510 FFF7FEFF 		bl	sscanf
 861              	.LVL127:
 862              		.loc 1 178 0
 863 0514 0DAA     		add	r2, sp, #52
 864 0516 1B98     		ldr	r0, [sp, #108]
 865 0518 5D49     		ldr	r1, .L184+152
 866 051a FFF7FEFF 		bl	sscanf
 867              	.LVL128:
 868              		.loc 1 180 0
 869 051e 9DED0B0A 		vldr.32	s0, [sp, #44]
 870 0522 B5EEC00A 		vcmpe.f32	s0, #0
 871 0526 F1EE10FA 		vmrs	APSR_nzcv, FPSCR
 872 052a 28DD     		ble	.L85
 873              		.loc 1 180 0 is_stmt 0 discriminator 1
 874 052c 594B     		ldr	r3, .L184+156
 875 052e D3ED017A 		vldr.32	s15, [r3, #4]
 876 0532 B4EEE70A 		vcmpe.f32	s0, s15
 877 0536 F1EE10FA 		vmrs	APSR_nzcv, FPSCR
 878 053a 20D5     		bpl	.L85
 879              		.loc 1 181 0 is_stmt 1 discriminator 2
 880 053c DDED0C0A 		vldr.32	s1, [sp, #48]
 881              		.loc 1 180 0 discriminator 2
 882 0540 F2EE047A 		vmov.f32	s15, #1.0e+1
 883 0544 F4EEE70A 		vcmpe.f32	s1, s15
 884 0548 F1EE10FA 		vmrs	APSR_nzcv, FPSCR
 885 054c 17DD     		ble	.L85
 886              		.loc 1 181 0
 887 054e DFED527A 		vldr.32	s15, .L184+160
 888 0552 F4EEE70A 		vcmpe.f32	s1, s15
 889 0556 F1EE10FA 		vmrs	APSR_nzcv, FPSCR
 890 055a 10D5     		bpl	.L85
 891              		.loc 1 182 0 discriminator 1
 892 055c 9DED0D1A 		vldr.32	s2, [sp, #52]
 893              		.loc 1 181 0 discriminator 1
 894 0560 DFED4E7A 		vldr.32	s15, .L184+164
 895 0564 B4EEE71A 		vcmpe.f32	s2, s15
 896 0568 F1EE10FA 		vmrs	APSR_nzcv, FPSCR
 897 056c 07DD     		ble	.L85
 898              		.loc 1 182 0
 899 056e DFED4C7A 		vldr.32	s15, .L184+168
 900 0572 B4EEE71A 		vcmpe.f32	s2, s15
 901 0576 F1EE10FA 		vmrs	APSR_nzcv, FPSCR
 902 057a 00F1BD80 		bmi	.L173
 903              	.LVL129:
 904              	.L85:
 905              	.LBE72:
 906              	.LBB76:
 907              		.loc 1 552 0
 908 057e 4948     		ldr	r0, .L184+172
 909 0580 FFF7FEFF 		bl	commands_printf
 910              	.LVL130:
 911 0584 C7E5     		b	.L1
 912              	.LVL131:
ARM GAS  C:\Users\CHRIST~1\AppData\Local\Temp\ccVm3NB4.s 			page 17


 913              	.L43:
 914              	.LBE76:
 915              		.loc 1 266 0
 916 0586 4849     		ldr	r1, .L184+176
 917 0588 2846     		mov	r0, r5
 918 058a FFF7FEFF 		bl	strcmp
 919              	.LVL132:
 920 058e 0028     		cmp	r0, #0
 921 0590 40F0AA81 		bne	.L51
 922              		.loc 1 267 0
 923 0594 022C     		cmp	r4, #2
 924 0596 7FF448AF 		bne	.L44
 925              	.LBB77:
 926              		.loc 1 268 0
 927 059a 11AD     		add	r5, sp, #68
 928 059c 3B4B     		ldr	r3, .L184+148
 929              		.loc 1 269 0
 930 059e 1998     		ldr	r0, [sp, #100]
 931 05a0 3B49     		ldr	r1, .L184+152
 932              		.loc 1 268 0
 933 05a2 1193     		str	r3, [sp, #68]	@ float
 934              		.loc 1 269 0
 935 05a4 2A46     		mov	r2, r5
 936 05a6 FFF7FEFF 		bl	sscanf
 937              	.LVL133:
 938              		.loc 1 271 0
 939 05aa D5ED007A 		vldr.32	s15, [r5]
 940 05ae F5EEC07A 		vcmpe.f32	s15, #0
 941 05b2 F1EE10FA 		vmrs	APSR_nzcv, FPSCR
 942 05b6 E2DD     		ble	.L85
 943              		.loc 1 271 0 is_stmt 0 discriminator 1
 944 05b8 364C     		ldr	r4, .L184+156
 945              	.LVL134:
 946 05ba 94ED017A 		vldr.32	s14, [r4, #4]
 947 05be F4EEC77A 		vcmpe.f32	s15, s14
 948 05c2 F1EE10FA 		vmrs	APSR_nzcv, FPSCR
 949 05c6 DAD8     		bhi	.L85
 950              		.loc 1 272 0 is_stmt 1
 951 05c8 0223     		movs	r3, #2
 952              		.loc 1 273 0
 953 05ca 2046     		mov	r0, r4
 954              		.loc 1 272 0
 955 05cc A370     		strb	r3, [r4, #2]
 956              		.loc 1 273 0
 957 05ce FFF7FEFF 		bl	mc_interface_set_configuration
 958              	.LVL135:
 959              		.loc 1 275 0
 960 05d2 4FF4FA60 		mov	r0, #2000
 961 05d6 95ED000A 		vldr.32	s0, [r5]
 962 05da FFF7FEFF 		bl	mcpwm_foc_measure_resistance
 963              	.LVL136:
 964 05de 10EE100A 		vmov	r0, s0
 965 05e2 FFF7FEFF 		bl	__aeabi_f2d
 966              	.LVL137:
 967 05e6 0246     		mov	r2, r0
 968 05e8 0B46     		mov	r3, r1
 969 05ea 3048     		ldr	r0, .L184+180
ARM GAS  C:\Users\CHRIST~1\AppData\Local\Temp\ccVm3NB4.s 			page 18


 970 05ec FFF7FEFF 		bl	commands_printf
 971              	.LVL138:
 972              		.loc 1 277 0
 973 05f0 2F48     		ldr	r0, .L184+184
 974 05f2 FFF7FEFF 		bl	mc_interface_set_configuration
 975              	.LVL139:
 976 05f6 8EE5     		b	.L1
 977              	.L185:
 978              		.align	2
 979              	.L184:
 980 05f8 44020000 		.word	.LC29
 981 05fc 00000000 		.word	.LANCHOR4
 982 0600 C0020000 		.word	.LC33
 983 0604 D8020000 		.word	.LC34
 984 0608 F0020000 		.word	.LC35
 985 060c 08030000 		.word	.LC36
 986 0610 20030000 		.word	.LC37
 987 0614 38030000 		.word	.LC38
 988 0618 50030000 		.word	.LC39
 989 061c 68030000 		.word	.LC40
 990 0620 80030000 		.word	.LC41
 991 0624 98030000 		.word	.LC42
 992 0628 B0030000 		.word	.LC43
 993 062c 18000000 		.word	.LC4
 994 0630 CC030000 		.word	.LC45
 995 0634 F0030000 		.word	.LC47
 996 0638 60060000 		.word	.LC74
 997 063c BC060000 		.word	.LC78
 998 0640 98070000 		.word	.LC86
 999 0644 F4070000 		.word	.LC91
 1000 0648 00000000 		.word	ADC_Value
 1001 064c 6740533A 		.word	978534503
 1002 0650 74D19541 		.word	1100337524
 1003 0654 C8040000 		.word	.LC61
 1004 0658 00000140 		.word	1073807360
 1005 065c 00040140 		.word	1073808384
 1006 0660 0C040000 		.word	.LC49
 1007 0664 1C040000 		.word	.LC50
 1008 0668 2C040000 		.word	.LC51
 1009 066c 3C040000 		.word	.LC52
 1010 0670 4C040000 		.word	.LC53
 1011 0674 5C040000 		.word	.LC54
 1012 0678 64040000 		.word	.LC55
 1013 067c 70040000 		.word	.LC56
 1014 0680 7C040000 		.word	.LC57
 1015 0684 90040000 		.word	.LC58
 1016 0688 A8040000 		.word	.LC59
 1017 068c 000080BF 		.word	-1082130432
 1018 0690 F0040000 		.word	.LC63
 1019 0694 00000000 		.word	.LANCHOR0
 1020 0698 00803B45 		.word	1161527296
 1021 069c 0AD7A33C 		.word	1017370378
 1022 06a0 CDCC4C3F 		.word	1061997773
 1023 06a4 20060000 		.word	.LC72
 1024 06a8 1C080000 		.word	.LC92
 1025 06ac 28080000 		.word	.LC93
 1026 06b0 00000000 		.word	.LANCHOR1
ARM GAS  C:\Users\CHRIST~1\AppData\Local\Temp\ccVm3NB4.s 			page 19


 1027 06b4 78020000 		.word	.LC30
 1028 06b8 90020000 		.word	.LC31
 1029 06bc A8020000 		.word	.LC32
 1030              	.LVL140:
 1031              	.L170:
 1032              	.LBE77:
 1033              	.LBB78:
 1034              		.loc 1 217 0 discriminator 7
 1035 06c0 11A8     		add	r0, sp, #68
 1036 06c2 FFF7FEFF 		bl	mcpwm_get_rpm_dep
 1037              	.LVL141:
 1038              		.loc 1 218 0 discriminator 7
 1039 06c6 1198     		ldr	r0, [sp, #68]	@ float
 1040 06c8 FFF7FEFF 		bl	__aeabi_f2d
 1041              	.LVL142:
 1042 06cc 0246     		mov	r2, r0
 1043 06ce 0B46     		mov	r3, r1
 1044 06d0 A848     		ldr	r0, .L186
 1045 06d2 FFF7FEFF 		bl	commands_printf
 1046              	.LVL143:
 1047              		.loc 1 219 0 discriminator 7
 1048 06d6 1298     		ldr	r0, [sp, #72]	@ float
 1049 06d8 FFF7FEFF 		bl	__aeabi_f2d
 1050              	.LVL144:
 1051 06dc 0246     		mov	r2, r0
 1052 06de 0B46     		mov	r3, r1
 1053 06e0 A548     		ldr	r0, .L186+4
 1054 06e2 FFF7FEFF 		bl	commands_printf
 1055              	.LVL145:
 1056              		.loc 1 220 0 discriminator 7
 1057 06e6 1398     		ldr	r0, [sp, #76]	@ float
 1058 06e8 FFF7FEFF 		bl	__aeabi_f2d
 1059              	.LVL146:
 1060 06ec 0246     		mov	r2, r0
 1061 06ee 0B46     		mov	r3, r1
 1062 06f0 A248     		ldr	r0, .L186+8
 1063 06f2 FFF7FEFF 		bl	commands_printf
 1064              	.LVL147:
 1065              	.LBE78:
 1066 06f6 0EE5     		b	.L1
 1067              	.L173:
 1068              	.LBB79:
 1069              	.LBB73:
 1070              		.loc 1 188 0
 1071 06f8 10AB     		add	r3, sp, #64
 1072 06fa 11AA     		add	r2, sp, #68
 1073 06fc 0FA9     		add	r1, sp, #60
 1074 06fe 0EA8     		add	r0, sp, #56
 1075 0700 FFF7FEFF 		bl	conf_general_detect_motor_param
 1076              	.LVL148:
 1077 0704 0028     		cmp	r0, #0
 1078 0706 00F09280 		beq	.L32
 1079              		.loc 1 189 0
 1080 070a 0E98     		ldr	r0, [sp, #56]	@ float
 1081 070c FFF7FEFF 		bl	__aeabi_f2d
 1082              	.LVL149:
 1083 0710 0246     		mov	r2, r0
ARM GAS  C:\Users\CHRIST~1\AppData\Local\Temp\ccVm3NB4.s 			page 20


 1084 0712 0B46     		mov	r3, r1
 1085 0714 9A48     		ldr	r0, .L186+12
 1086 0716 FFF7FEFF 		bl	commands_printf
 1087              	.LVL150:
 1088              		.loc 1 190 0
 1089 071a 0F98     		ldr	r0, [sp, #60]	@ float
 1090 071c FFF7FEFF 		bl	__aeabi_f2d
 1091              	.LVL151:
 1092 0720 0246     		mov	r2, r0
 1093 0722 0B46     		mov	r3, r1
 1094 0724 9748     		ldr	r0, .L186+16
 1095 0726 FFF7FEFF 		bl	commands_printf
 1096              	.LVL152:
 1097              		.loc 1 192 0
 1098 072a 109B     		ldr	r3, [sp, #64]
 1099 072c 002B     		cmp	r3, #0
 1100 072e 7CD0     		beq	.L174
 1101              		.loc 1 197 0
 1102 0730 591C     		adds	r1, r3, #1
 1103 0732 5CD0     		beq	.L175
 1104              		.loc 1 202 0
 1105 0734 9A1C     		adds	r2, r3, #2
 1106 0736 56D0     		beq	.L176
 1107              		.loc 1 204 0
 1108 0738 0333     		adds	r3, r3, #3
 1109 073a 7FF4ECAC 		bne	.L1
 1110              		.loc 1 205 0
 1111 073e 9248     		ldr	r0, .L186+20
 1112 0740 FFF7FEFF 		bl	commands_printf
 1113              	.LVL153:
 1114 0744 E7E4     		b	.L1
 1115              	.L172:
 1116              	.LBE73:
 1117              	.LBE79:
 1118              	.LBB80:
 1119              		.loc 1 237 0
 1120 0746 914B     		ldr	r3, .L186+24
 1121              		.loc 1 238 0
 1122 0748 1998     		ldr	r0, [sp, #100]
 1123 074a 9149     		ldr	r1, .L186+28
 1124              		.loc 1 237 0
 1125 074c 0F93     		str	r3, [sp, #60]	@ float
 1126              		.loc 1 238 0
 1127 074e 0FAA     		add	r2, sp, #60
 1128 0750 FFF7FEFF 		bl	sscanf
 1129              	.LVL154:
 1130              		.loc 1 240 0
 1131 0754 DDED0F7A 		vldr.32	s15, [sp, #60]
 1132 0758 F5EEC07A 		vcmpe.f32	s15, #0
 1133 075c F1EE10FA 		vmrs	APSR_nzcv, FPSCR
 1134 0760 7FF70DAF 		ble	.L85
 1135              		.loc 1 240 0 is_stmt 0 discriminator 1
 1136 0764 8B4C     		ldr	r4, .L186+32
 1137              	.LVL155:
 1138 0766 94ED017A 		vldr.32	s14, [r4, #4]
 1139 076a F4EEC77A 		vcmpe.f32	s15, s14
 1140 076e F1EE10FA 		vmrs	APSR_nzcv, FPSCR
ARM GAS  C:\Users\CHRIST~1\AppData\Local\Temp\ccVm3NB4.s 			page 21


 1141 0772 3FF604AF 		bhi	.L85
 1142              		.loc 1 241 0 is_stmt 1
 1143 0776 FFF7FEFF 		bl	encoder_is_configured
 1144              	.LVL156:
 1145 077a 0028     		cmp	r0, #0
 1146 077c 51D0     		beq	.L48
 1147              	.LBB81:
 1148              		.loc 1 243 0
 1149 077e 0223     		movs	r3, #2
 1150              		.loc 1 244 0
 1151 0780 2046     		mov	r0, r4
 1152              		.loc 1 242 0
 1153 0782 A678     		ldrb	r6, [r4, #2]	@ zero_extendqisi2
 1154              	.LVL157:
 1155              		.loc 1 243 0
 1156 0784 A370     		strb	r3, [r4, #2]
 1157              		.loc 1 246 0
 1158 0786 0025     		movs	r5, #0
 1159              		.loc 1 244 0
 1160 0788 FFF7FEFF 		bl	mc_interface_set_configuration
 1161              	.LVL158:
 1162              		.loc 1 248 0
 1163 078c 0027     		movs	r7, #0
 1164              		.loc 1 249 0
 1165 078e 9DED0F0A 		vldr.32	s0, [sp, #60]
 1166              		.loc 1 246 0
 1167 0792 1095     		str	r5, [sp, #64]	@ float
 1168              		.loc 1 249 0
 1169 0794 11AA     		add	r2, sp, #68
 1170 0796 0EAB     		add	r3, sp, #56
 1171 0798 10A9     		add	r1, sp, #64
 1172 079a 0120     		movs	r0, #1
 1173              		.loc 1 247 0
 1174 079c 1195     		str	r5, [sp, #68]	@ float
 1175              		.loc 1 248 0
 1176 079e 8DF83870 		strb	r7, [sp, #56]
 1177              		.loc 1 249 0
 1178 07a2 FFF7FEFF 		bl	mcpwm_foc_encoder_detect
 1179              	.LVL159:
 1180              		.loc 1 252 0
 1181 07a6 2046     		mov	r0, r4
 1182              		.loc 1 251 0
 1183 07a8 A670     		strb	r6, [r4, #2]
 1184              		.loc 1 252 0
 1185 07aa FFF7FEFF 		bl	mc_interface_set_configuration
 1186              	.LVL160:
 1187              		.loc 1 254 0
 1188 07ae 1098     		ldr	r0, [sp, #64]	@ float
 1189 07b0 FFF7FEFF 		bl	__aeabi_f2d
 1190              	.LVL161:
 1191 07b4 0246     		mov	r2, r0
 1192 07b6 0B46     		mov	r3, r1
 1193 07b8 7748     		ldr	r0, .L186+36
 1194 07ba FFF7FEFF 		bl	commands_printf
 1195              	.LVL162:
 1196              		.loc 1 255 0
 1197 07be 1198     		ldr	r0, [sp, #68]	@ float
ARM GAS  C:\Users\CHRIST~1\AppData\Local\Temp\ccVm3NB4.s 			page 22


 1198 07c0 FFF7FEFF 		bl	__aeabi_f2d
 1199              	.LVL163:
 1200 07c4 0246     		mov	r2, r0
 1201 07c6 0B46     		mov	r3, r1
 1202 07c8 7448     		ldr	r0, .L186+40
 1203 07ca FFF7FEFF 		bl	commands_printf
 1204              	.LVL164:
 1205              		.loc 1 256 0
 1206 07ce 9DF83810 		ldrb	r1, [sp, #56]	@ zero_extendqisi2
 1207 07d2 734A     		ldr	r2, .L186+44
 1208 07d4 734B     		ldr	r3, .L186+48
 1209 07d6 7448     		ldr	r0, .L186+52
 1210 07d8 B942     		cmp	r1, r7
 1211 07da 14BF     		ite	ne
 1212 07dc 1146     		movne	r1, r2
 1213 07de 1946     		moveq	r1, r3
 1214 07e0 FFF7FEFF 		bl	commands_printf
 1215              	.LVL165:
 1216              	.LBE81:
 1217 07e4 97E4     		b	.L1
 1218              	.LVL166:
 1219              	.L176:
 1220              	.LBE80:
 1221              	.LBB82:
 1222              	.LBB74:
 1223              		.loc 1 203 0
 1224 07e6 7148     		ldr	r0, .L186+56
 1225 07e8 FFF7FEFF 		bl	commands_printf
 1226              	.LVL167:
 1227 07ec 93E4     		b	.L1
 1228              	.L175:
 1229              		.loc 1 198 0
 1230 07ee 7048     		ldr	r0, .L186+60
 1231              	.L152:
 1232 07f0 FFF7FEFF 		bl	commands_printf
 1233              	.LVL168:
 1234              		.loc 1 199 0
 1235 07f4 9DF94700 		ldrsb	r0, [sp, #71]
 1236 07f8 9DF94A60 		ldrsb	r6, [sp, #74]
 1237 07fc 9DF94950 		ldrsb	r5, [sp, #73]
 1238 0800 9DF94840 		ldrsb	r4, [sp, #72]
 1239              	.LVL169:
 1240 0804 9DF94B70 		ldrsb	r7, [sp, #75]
 1241 0808 9DF94630 		ldrsb	r3, [sp, #70]
 1242 080c 9DF94520 		ldrsb	r2, [sp, #69]
 1243 0810 9DF94410 		ldrsb	r1, [sp, #68]
 1244 0814 0497     		str	r7, [sp, #16]
 1245 0816 8DE87100 		stm	sp, {r0, r4, r5, r6}
 1246 081a 6648     		ldr	r0, .L186+64
 1247 081c FFF7FEFF 		bl	commands_printf
 1248              	.LVL170:
 1249 0820 79E4     		b	.L1
 1250              	.L48:
 1251              	.LBE74:
 1252              	.LBE82:
 1253              	.LBB83:
 1254              		.loc 1 258 0
ARM GAS  C:\Users\CHRIST~1\AppData\Local\Temp\ccVm3NB4.s 			page 23


 1255 0822 6548     		ldr	r0, .L186+68
 1256 0824 FFF7FEFF 		bl	commands_printf
 1257              	.LVL171:
 1258 0828 75E4     		b	.L1
 1259              	.LVL172:
 1260              	.L174:
 1261              	.LBE83:
 1262              	.LBB84:
 1263              	.LBB75:
 1264              		.loc 1 193 0
 1265 082a 6448     		ldr	r0, .L186+72
 1266 082c E0E7     		b	.L152
 1267              	.L32:
 1268              		.loc 1 208 0
 1269 082e 6448     		ldr	r0, .L186+76
 1270 0830 FFF7FEFF 		bl	commands_printf
 1271              	.LVL173:
 1272              	.LBE75:
 1273              		.loc 1 182 0
 1274 0834 6FE4     		b	.L1
 1275              	.L171:
 1276              	.LBE84:
 1277              		.loc 1 222 0
 1278 0836 6348     		ldr	r0, .L186+80
 1279              	.LBB85:
 1280              	.LBB86:
 1281              	.LBB87:
 1282              	.LBB88:
 1283              	.LBB89:
 1284              	.LBB90:
 1285              		.file 3 "ChibiOS_3.0.2/os/rt/include/chvt.h"
 1286              		.loc 3 231 0
 1287 0838 634D     		ldr	r5, .L186+84
 1288              	.LBE90:
 1289              	.LBE89:
 1290              	.LBE88:
 1291              	.LBE87:
 1292              		.loc 1 226 0
 1293 083a 9FED648A 		vldr.32	s16, .L186+88
 1294              		.loc 1 229 0
 1295 083e DFED648A 		vldr.32	s17, .L186+92
 1296              	.LBE86:
 1297              	.LBE85:
 1298              		.loc 1 222 0
 1299 0842 FFF7FEFF 		bl	commands_printf
 1300              	.LVL174:
 1301 0846 02E0     		b	.L42
 1302              	.LVL175:
 1303              	.L40:
 1304              	.LBB101:
 1305              		.loc 1 223 0 discriminator 2
 1306 0848 0A2E     		cmp	r6, #10
 1307 084a 3FF464AC 		beq	.L1
 1308              	.LVL176:
 1309              	.L42:
 1310              	.LBB99:
 1311              		.loc 1 224 0
ARM GAS  C:\Users\CHRIST~1\AppData\Local\Temp\ccVm3NB4.s 			page 24


 1312 084e 3046     		mov	r0, r6
 1313 0850 FFF7FEFF 		bl	comm_can_get_status_msg_index
 1314              	.LVL177:
 1315              		.loc 1 226 0
 1316 0854 0168     		ldr	r1, [r0]
 1317 0856 0029     		cmp	r1, #0
 1318              		.loc 1 224 0
 1319 0858 0446     		mov	r4, r0
 1320              	.LVL178:
 1321              		.loc 1 226 0
 1322 085a B7EE007A 		vmov.f32	s14, #1.0e+0
 1323              	.LBE99:
 1324              		.loc 1 223 0
 1325 085e 06F10106 		add	r6, r6, #1
 1326              	.LVL179:
 1327              	.LBB100:
 1328              		.loc 1 226 0
 1329 0862 F1DB     		blt	.L40
 1330              	.LBB94:
 1331              	.LBB93:
 1332              	.LBB92:
 1333              	.LBB91:
 1334              		.loc 3 231 0 discriminator 1
 1335 0864 AB6A     		ldr	r3, [r5, #40]
 1336              	.LVL180:
 1337              	.LBE91:
 1338              	.LBE92:
 1339              		.loc 3 267 0 discriminator 1
 1340 0866 4268     		ldr	r2, [r0, #4]
 1341 0868 9B1A     		subs	r3, r3, r2
 1342              	.LBE93:
 1343              	.LBE94:
 1344              		.loc 1 226 0 discriminator 1
 1345 086a 07EE903A 		vmov	s15, r3	@ int
 1346 086e F8EE677A 		vcvt.f32.u32	s15, s15
 1347 0872 C7EE886A 		vdiv.f32	s13, s15, s16
 1348 0876 F4EEC76A 		vcmpe.f32	s13, s14
 1349 087a F1EE10FA 		vmrs	APSR_nzcv, FPSCR
 1350 087e E3D5     		bpl	.L40
 1351              		.loc 1 227 0
 1352 0880 5448     		ldr	r0, .L186+96
 1353              	.LVL181:
 1354 0882 FFF7FEFF 		bl	commands_printf
 1355              	.LVL182:
 1356              		.loc 1 228 0
 1357 0886 6168     		ldr	r1, [r4, #4]
 1358 0888 5348     		ldr	r0, .L186+100
 1359 088a FFF7FEFF 		bl	commands_printf
 1360              	.LVL183:
 1361              	.LBB95:
 1362              	.LBB96:
 1363              		.loc 3 267 0
 1364 088e 6268     		ldr	r2, [r4, #4]
 1365              	.LBB97:
 1366              	.LBB98:
 1367              		.loc 3 231 0
 1368 0890 AB6A     		ldr	r3, [r5, #40]
ARM GAS  C:\Users\CHRIST~1\AppData\Local\Temp\ccVm3NB4.s 			page 25


 1369              	.LVL184:
 1370              	.LBE98:
 1371              	.LBE97:
 1372              		.loc 3 267 0
 1373 0892 9B1A     		subs	r3, r3, r2
 1374              	.LBE96:
 1375              	.LBE95:
 1376              		.loc 1 229 0
 1377 0894 07EE903A 		vmov	s15, r3	@ int
 1378 0898 F8EE677A 		vcvt.f32.u32	s15, s15
 1379 089c 87EE887A 		vdiv.f32	s14, s15, s16
 1380 08a0 67EE287A 		vmul.f32	s15, s14, s17
 1381 08a4 17EE900A 		vmov	r0, s15
 1382 08a8 FFF7FEFF 		bl	__aeabi_f2d
 1383              	.LVL185:
 1384 08ac 0246     		mov	r2, r0
 1385 08ae 0B46     		mov	r3, r1
 1386 08b0 4A48     		ldr	r0, .L186+104
 1387 08b2 FFF7FEFF 		bl	commands_printf
 1388              	.LVL186:
 1389              		.loc 1 230 0
 1390 08b6 A068     		ldr	r0, [r4, #8]	@ float
 1391 08b8 FFF7FEFF 		bl	__aeabi_f2d
 1392              	.LVL187:
 1393 08bc 0246     		mov	r2, r0
 1394 08be 0B46     		mov	r3, r1
 1395 08c0 4748     		ldr	r0, .L186+108
 1396 08c2 FFF7FEFF 		bl	commands_printf
 1397              	.LVL188:
 1398              		.loc 1 231 0
 1399 08c6 E068     		ldr	r0, [r4, #12]	@ float
 1400 08c8 FFF7FEFF 		bl	__aeabi_f2d
 1401              	.LVL189:
 1402 08cc 0246     		mov	r2, r0
 1403 08ce 0B46     		mov	r3, r1
 1404 08d0 4448     		ldr	r0, .L186+112
 1405 08d2 FFF7FEFF 		bl	commands_printf
 1406              	.LVL190:
 1407              		.loc 1 232 0
 1408 08d6 2069     		ldr	r0, [r4, #16]	@ float
 1409 08d8 FFF7FEFF 		bl	__aeabi_f2d
 1410              	.LVL191:
 1411 08dc 0246     		mov	r2, r0
 1412 08de 0B46     		mov	r3, r1
 1413 08e0 4148     		ldr	r0, .L186+116
 1414 08e2 FFF7FEFF 		bl	commands_printf
 1415              	.LVL192:
 1416 08e6 AFE7     		b	.L40
 1417              	.LVL193:
 1418              	.L51:
 1419              	.LBE100:
 1420              	.LBE101:
 1421              		.loc 1 284 0
 1422 08e8 4049     		ldr	r1, .L186+120
 1423 08ea 2846     		mov	r0, r5
 1424 08ec FFF7FEFF 		bl	strcmp
 1425              	.LVL194:
ARM GAS  C:\Users\CHRIST~1\AppData\Local\Temp\ccVm3NB4.s 			page 26


 1426 08f0 0028     		cmp	r0, #0
 1427 08f2 40F08580 		bne	.L56
 1428              		.loc 1 285 0
 1429 08f6 022C     		cmp	r4, #2
 1430 08f8 7FF497AD 		bne	.L44
 1431              	.LBB102:
 1432              		.loc 1 286 0
 1433 08fc 234B     		ldr	r3, .L186+24
 1434              		.loc 1 287 0
 1435 08fe 1998     		ldr	r0, [sp, #100]
 1436 0900 2349     		ldr	r1, .L186+28
 1437              		.loc 1 286 0
 1438 0902 1093     		str	r3, [sp, #64]	@ float
 1439              		.loc 1 287 0
 1440 0904 10AA     		add	r2, sp, #64
 1441 0906 FFF7FEFF 		bl	sscanf
 1442              	.LVL195:
 1443              		.loc 1 289 0
 1444 090a DDED107A 		vldr.32	s15, [sp, #64]
 1445 090e F5EEC07A 		vcmpe.f32	s15, #0
 1446 0912 F1EE10FA 		vmrs	APSR_nzcv, FPSCR
 1447 0916 7FF732AE 		ble	.L85
 1448              		.loc 1 289 0 is_stmt 0 discriminator 1
 1449 091a 9FED357A 		vldr.32	s14, .L186+124
 1450 091e F4EEC77A 		vcmpe.f32	s15, s14
 1451 0922 F1EE10FA 		vmrs	APSR_nzcv, FPSCR
 1452 0926 7FF52AAE 		bpl	.L85
 1453              	.LBB103:
 1454              		.loc 1 290 0 is_stmt 1
 1455 092a 1A4B     		ldr	r3, .L186+32
 1456              		.loc 1 291 0
 1457 092c 314A     		ldr	r2, .L186+128
 1458 092e C3F8A820 		str	r2, [r3, #168]	@ float
 1459              		.loc 1 292 0
 1460 0932 1846     		mov	r0, r3
 1461              		.loc 1 290 0
 1462 0934 0221     		movs	r1, #2
 1463 0936 9970     		strb	r1, [r3, #2]
 1464              		.loc 1 292 0
 1465 0938 FFF7FEFF 		bl	mc_interface_set_configuration
 1466              	.LVL196:
 1467              		.loc 1 295 0
 1468 093c 11A9     		add	r1, sp, #68
 1469 093e C820     		movs	r0, #200
 1470 0940 9DED100A 		vldr.32	s0, [sp, #64]
 1471 0944 FFF7FEFF 		bl	mcpwm_foc_measure_inductance
 1472              	.LVL197:
 1473              		.loc 1 296 0
 1474 0948 10EE100A 		vmov	r0, s0
 1475 094c FFF7FEFF 		bl	__aeabi_f2d
 1476              	.LVL198:
 1477 0950 0446     		mov	r4, r0
 1478              	.LVL199:
 1479 0952 1198     		ldr	r0, [sp, #68]	@ float
 1480 0954 0D46     		mov	r5, r1
 1481 0956 FFF7FEFF 		bl	__aeabi_f2d
 1482              	.LVL200:
ARM GAS  C:\Users\CHRIST~1\AppData\Local\Temp\ccVm3NB4.s 			page 27


 1483 095a 2246     		mov	r2, r4
 1484 095c CDE90001 		strd	r0, [sp]
 1485 0960 2B46     		mov	r3, r5
 1486 0962 2548     		ldr	r0, .L186+132
 1487 0964 FFF7FEFF 		bl	commands_printf
 1488              	.LVL201:
 1489              		.loc 1 298 0
 1490 0968 2448     		ldr	r0, .L186+136
 1491 096a FFF7FEFF 		bl	mc_interface_set_configuration
 1492              	.LVL202:
 1493              	.LBE103:
 1494              		.loc 1 289 0
 1495 096e FFF7D2BB 		b	.L1
 1496              	.L187:
 1497 0972 00BF     		.align	2
 1498              	.L186:
 1499 0974 68060000 		.word	.LC75
 1500 0978 80060000 		.word	.LC76
 1501 097c A0060000 		.word	.LC77
 1502 0980 F4040000 		.word	.LC64
 1503 0984 14050000 		.word	.LC65
 1504 0988 B8050000 		.word	.LC70
 1505 098c 000080BF 		.word	-1082130432
 1506 0990 F0040000 		.word	.LC63
 1507 0994 00000000 		.word	.LANCHOR0
 1508 0998 AC070000 		.word	.LC87
 1509 099c BC070000 		.word	.LC88
 1510 09a0 00000000 		.word	.LC0
 1511 09a4 08000000 		.word	.LC1
 1512 09a8 CC070000 		.word	.LC89
 1513 09ac 88050000 		.word	.LC69
 1514 09b0 68050000 		.word	.LC68
 1515 09b4 48050000 		.word	.LC67
 1516 09b8 DC070000 		.word	.LC90
 1517 09bc 2C050000 		.word	.LC66
 1518 09c0 E8050000 		.word	.LC71
 1519 09c4 C8060000 		.word	.LC79
 1520 09c8 00000000 		.word	ch
 1521 09cc 00401C46 		.word	1176256512
 1522 09d0 00007A44 		.word	1148846080
 1523 09d4 F8060000 		.word	.LC80
 1524 09d8 10070000 		.word	.LC81
 1525 09dc 28070000 		.word	.LC82
 1526 09e0 44070000 		.word	.LC83
 1527 09e4 60070000 		.word	.LC84
 1528 09e8 7C070000 		.word	.LC85
 1529 09ec 40080000 		.word	.LC94
 1530 09f0 6666663F 		.word	1063675494
 1531 09f4 00803B45 		.word	1161527296
 1532 09f8 4C080000 		.word	.LC95
 1533 09fc 00000000 		.word	.LANCHOR1
 1534              	.LVL203:
 1535              	.L56:
 1536              	.LBE102:
 1537              		.loc 1 305 0
 1538 0a00 CB49     		ldr	r1, .L188
 1539 0a02 2846     		mov	r0, r5
ARM GAS  C:\Users\CHRIST~1\AppData\Local\Temp\ccVm3NB4.s 			page 28


 1540 0a04 FFF7FEFF 		bl	strcmp
 1541              	.LVL204:
 1542 0a08 0028     		cmp	r0, #0
 1543 0a0a 53D1     		bne	.L61
 1544              		.loc 1 306 0
 1545 0a0c 052C     		cmp	r4, #5
 1546 0a0e 7FF40CAD 		bne	.L44
 1547              	.LBB104:
 1548              		.loc 1 307 0
 1549 0a12 C84B     		ldr	r3, .L188+4
 1550              		.loc 1 311 0
 1551 0a14 C849     		ldr	r1, .L188+8
 1552 0a16 1998     		ldr	r0, [sp, #100]
 1553              		.loc 1 307 0
 1554 0a18 0D93     		str	r3, [sp, #52]	@ float
 1555              		.loc 1 311 0
 1556 0a1a 0DAA     		add	r2, sp, #52
 1557              		.loc 1 308 0
 1558 0a1c 0E93     		str	r3, [sp, #56]	@ float
 1559              		.loc 1 309 0
 1560 0a1e 0F93     		str	r3, [sp, #60]	@ float
 1561              		.loc 1 310 0
 1562 0a20 1093     		str	r3, [sp, #64]	@ float
 1563              		.loc 1 311 0
 1564 0a22 FFF7FEFF 		bl	sscanf
 1565              	.LVL205:
 1566              		.loc 1 312 0
 1567 0a26 0EAA     		add	r2, sp, #56
 1568 0a28 C349     		ldr	r1, .L188+8
 1569 0a2a 1A98     		ldr	r0, [sp, #104]
 1570 0a2c FFF7FEFF 		bl	sscanf
 1571              	.LVL206:
 1572              		.loc 1 313 0
 1573 0a30 0FAA     		add	r2, sp, #60
 1574 0a32 C149     		ldr	r1, .L188+8
 1575 0a34 1B98     		ldr	r0, [sp, #108]
 1576 0a36 FFF7FEFF 		bl	sscanf
 1577              	.LVL207:
 1578              		.loc 1 314 0
 1579 0a3a 10AA     		add	r2, sp, #64
 1580 0a3c 1C98     		ldr	r0, [sp, #112]
 1581 0a3e BE49     		ldr	r1, .L188+8
 1582 0a40 FFF7FEFF 		bl	sscanf
 1583              	.LVL208:
 1584              		.loc 1 316 0
 1585 0a44 9DED0D0A 		vldr.32	s0, [sp, #52]
 1586 0a48 B5EEC00A 		vcmpe.f32	s0, #0
 1587 0a4c F1EE10FA 		vmrs	APSR_nzcv, FPSCR
 1588 0a50 7FF795AD 		ble	.L85
 1589              		.loc 1 316 0 is_stmt 0 discriminator 1
 1590 0a54 B94B     		ldr	r3, .L188+12
 1591 0a56 D3ED017A 		vldr.32	s15, [r3, #4]
 1592 0a5a B4EEE70A 		vcmpe.f32	s0, s15
 1593 0a5e F1EE10FA 		vmrs	APSR_nzcv, FPSCR
 1594 0a62 3FF68CAD 		bhi	.L85
 1595              		.loc 1 316 0 discriminator 2
 1596 0a66 9DED0F1A 		vldr.32	s2, [sp, #60]
ARM GAS  C:\Users\CHRIST~1\AppData\Local\Temp\ccVm3NB4.s 			page 29


 1597 0a6a B5EEC01A 		vcmpe.f32	s2, #0
 1598 0a6e F1EE10FA 		vmrs	APSR_nzcv, FPSCR
 1599 0a72 7FF784AD 		ble	.L85
 1600              		.loc 1 316 0 discriminator 3
 1601 0a76 DDED0E0A 		vldr.32	s1, [sp, #56]
 1602 0a7a DFEDB17A 		vldr.32	s15, .L188+16
 1603 0a7e F4EEE70A 		vcmpe.f32	s1, s15
 1604 0a82 F1EE10FA 		vmrs	APSR_nzcv, FPSCR
 1605 0a86 7FF77AAD 		ble	.L85
 1606              		.loc 1 316 0 discriminator 4
 1607 0a8a DDED101A 		vldr.32	s3, [sp, #64]
 1608 0a8e F5EEC01A 		vcmpe.f32	s3, #0
 1609 0a92 F1EE10FA 		vmrs	APSR_nzcv, FPSCR
 1610 0a96 FFF672AD 		blt	.L85
 1611              	.LBB105:
 1612              		.loc 1 318 0 is_stmt 1
 1613 0a9a 11A8     		add	r0, sp, #68
 1614 0a9c FFF7FEFF 		bl	conf_general_measure_flux_linkage
 1615              	.LVL209:
 1616              		.loc 1 319 0
 1617 0aa0 1198     		ldr	r0, [sp, #68]	@ float
 1618              	.LVL210:
 1619              	.L153:
 1620              	.LBE105:
 1621              	.LBE104:
 1622              	.LBB106:
 1623              	.LBB107:
 1624              		.loc 1 382 0
 1625 0aa2 FFF7FEFF 		bl	__aeabi_f2d
 1626              	.LVL211:
 1627 0aa6 0246     		mov	r2, r0
 1628 0aa8 0B46     		mov	r3, r1
 1629 0aaa A648     		ldr	r0, .L188+20
 1630 0aac FFF7FEFF 		bl	commands_printf
 1631              	.LVL212:
 1632              	.LBE107:
 1633 0ab0 FFF731BB 		b	.L1
 1634              	.LVL213:
 1635              	.L61:
 1636              	.LBE106:
 1637              		.loc 1 326 0
 1638 0ab4 A449     		ldr	r1, .L188+24
 1639 0ab6 2846     		mov	r0, r5
 1640 0ab8 FFF7FEFF 		bl	strcmp
 1641              	.LVL214:
 1642 0abc 0028     		cmp	r0, #0
 1643 0abe 00F08380 		beq	.L177
 1644              		.loc 1 337 0
 1645 0ac2 A249     		ldr	r1, .L188+28
 1646 0ac4 2846     		mov	r0, r5
 1647 0ac6 FFF7FEFF 		bl	strcmp
 1648              	.LVL215:
 1649 0aca 0646     		mov	r6, r0
 1650 0acc 0028     		cmp	r0, #0
 1651 0ace 40F09D80 		bne	.L70
 1652              		.loc 1 338 0
 1653 0ad2 022C     		cmp	r4, #2
ARM GAS  C:\Users\CHRIST~1\AppData\Local\Temp\ccVm3NB4.s 			page 30


 1654 0ad4 7FF4A9AC 		bne	.L44
 1655              	.LBB112:
 1656              		.loc 1 339 0
 1657 0ad8 11AD     		add	r5, sp, #68
 1658 0ada 964B     		ldr	r3, .L188+4
 1659              		.loc 1 340 0
 1660 0adc 1998     		ldr	r0, [sp, #100]
 1661 0ade 9649     		ldr	r1, .L188+8
 1662              		.loc 1 339 0
 1663 0ae0 2B60     		str	r3, [r5]	@ float
 1664              		.loc 1 340 0
 1665 0ae2 2A46     		mov	r2, r5
 1666 0ae4 FFF7FEFF 		bl	sscanf
 1667              	.LVL216:
 1668              		.loc 1 342 0
 1669 0ae8 D5ED007A 		vldr.32	s15, [r5]
 1670 0aec F5EEC07A 		vcmpe.f32	s15, #0
 1671 0af0 F1EE10FA 		vmrs	APSR_nzcv, FPSCR
 1672 0af4 7FF743AD 		ble	.L85
 1673              	.LBB111:
 1674              		.loc 1 343 0
 1675 0af8 904F     		ldr	r7, .L188+12
 1676              	.LBB108:
 1677              		.loc 1 354 0
 1678 0afa 9FED958A 		vldr.32	s16, .L188+32
 1679              	.LBE108:
 1680              		.loc 1 343 0
 1681 0afe BC70     		strb	r4, [r7, #2]
 1682              		.loc 1 344 0
 1683 0b00 3846     		mov	r0, r7
 1684 0b02 FFF7FEFF 		bl	mc_interface_set_configuration
 1685              	.LVL217:
 1686              		.loc 1 345 0
 1687 0b06 97ED309A 		vldr.32	s18, [r7, #192]
 1688 0b0a F7EE087A 		vmov.f32	s15, #1.5e+0
 1689 0b0e 29EE279A 		vmul.f32	s18, s18, s15
 1690              	.LVL218:
 1691              		.loc 1 348 0
 1692 0b12 FFF7FEFF 		bl	timeout_get_timeout_msec
 1693              	.LVL219:
 1694 0b16 0746     		mov	r7, r0
 1695              	.LVL220:
 1696              		.loc 1 349 0
 1697 0b18 FFF7FEFF 		bl	timeout_get_brake_current
 1698              	.LVL221:
 1699 0b1c F0EE40AA 		vmov.f32	s21, s0
 1700              	.LVL222:
 1701              		.loc 1 350 0
 1702 0b20 FFF7FEFF 		bl	timeout_reset
 1703              	.LVL223:
 1704              		.loc 1 351 0
 1705 0b24 9FED8B0A 		vldr.32	s0, .L188+36
 1706 0b28 4EF66020 		movw	r0, #60000
 1707 0b2c FFF7FEFF 		bl	timeout_configure
 1708              	.LVL224:
 1709              	.L73:
 1710              	.LBB109:
ARM GAS  C:\Users\CHRIST~1\AppData\Local\Temp\ccVm3NB4.s 			page 31


 1711              		.loc 1 354 0 discriminator 3
 1712 0b30 07EE906A 		vmov	s15, r6	@ int
 1713 0b34 B8EEE77A 		vcvt.f32.s32	s14, s15
 1714 0b38 D5ED007A 		vldr.32	s15, [r5]
 1715 0b3c 87EE080A 		vdiv.f32	s0, s14, s16
 1716              		.loc 1 353 0 discriminator 3
 1717 0b40 0136     		adds	r6, r6, #1
 1718              	.LVL225:
 1719              		.loc 1 354 0 discriminator 3
 1720 0b42 20EE270A 		vmul.f32	s0, s0, s15
 1721 0b46 FFF7FEFF 		bl	mc_interface_set_duty
 1722              	.LVL226:
 1723              		.loc 1 355 0 discriminator 3
 1724 0b4a C820     		movs	r0, #200
 1725 0b4c FFF7FEFF 		bl	chThdSleep
 1726              	.LVL227:
 1727              		.loc 1 353 0 discriminator 3
 1728 0b50 642E     		cmp	r6, #100
 1729 0b52 EDD1     		bne	.L73
 1730 0b54 9FED7F8A 		vldr.32	s16, .L188+36
 1731 0b58 4FF47A74 		mov	r4, #1000
 1732              	.LVL228:
 1733 0b5c F0EE488A 		vmov.f32	s17, s16
 1734 0b60 F0EE489A 		vmov.f32	s19, s16
 1735 0b64 B0EE48AA 		vmov.f32	s20, s16
 1736              	.LBE109:
 1737              	.LBB110:
 1738              		.loc 1 366 0 discriminator 3
 1739 0b68 B7EE00BA 		vmov.f32	s22, #1.0e+0
 1740              	.L74:
 1741              	.LVL229:
 1742              		.loc 1 363 0 discriminator 3
 1743 0b6c FFF7FEFF 		bl	mcpwm_foc_get_vq
 1744              	.LVL230:
 1745 0b70 3AEE00AA 		vadd.f32	s20, s20, s0
 1746              	.LVL231:
 1747              		.loc 1 364 0 discriminator 3
 1748 0b74 FFF7FEFF 		bl	mc_interface_get_rpm
 1749              	.LVL232:
 1750 0b78 79EE809A 		vadd.f32	s19, s19, s0
 1751              	.LVL233:
 1752              		.loc 1 365 0 discriminator 3
 1753 0b7c FFF7FEFF 		bl	mc_interface_get_tot_current_directional
 1754              	.LVL234:
 1755              		.loc 1 367 0 discriminator 3
 1756 0b80 0A20     		movs	r0, #10
 1757              		.loc 1 365 0 discriminator 3
 1758 0b82 38EE008A 		vadd.f32	s16, s16, s0
 1759              	.LVL235:
 1760              		.loc 1 367 0 discriminator 3
 1761 0b86 FFF7FEFF 		bl	chThdSleep
 1762              	.LVL236:
 1763              		.loc 1 362 0 discriminator 3
 1764 0b8a 013C     		subs	r4, r4, #1
 1765              	.LVL237:
 1766              		.loc 1 366 0 discriminator 3
 1767 0b8c 78EE8B8A 		vadd.f32	s17, s17, s22
ARM GAS  C:\Users\CHRIST~1\AppData\Local\Temp\ccVm3NB4.s 			page 32


 1768              	.LVL238:
 1769              		.loc 1 362 0 discriminator 3
 1770 0b90 ECD1     		bne	.L74
 1771              	.LBE110:
 1772              		.loc 1 370 0
 1773 0b92 FFF7FEFF 		bl	mc_interface_release_motor
 1774              	.LVL239:
 1775              		.loc 1 371 0
 1776 0b96 7048     		ldr	r0, .L188+40
 1777 0b98 FFF7FEFF 		bl	mc_interface_set_configuration
 1778              	.LVL240:
 1779              		.loc 1 374 0
 1780 0b9c 3846     		mov	r0, r7
 1781 0b9e B0EE6A0A 		vmov.f32	s0, s21
 1782 0ba2 FFF7FEFF 		bl	timeout_configure
 1783              	.LVL241:
 1784              		.loc 1 378 0
 1785 0ba6 C8EE286A 		vdiv.f32	s13, s16, s17
 1786              	.LVL242:
 1787              		.loc 1 376 0
 1788 0baa 8AEE287A 		vdiv.f32	s14, s20, s17
 1789              	.LVL243:
 1790              		.loc 1 377 0
 1791 0bae C9EEA87A 		vdiv.f32	s15, s19, s17
 1792              	.LVL244:
 1793              		.loc 1 380 0
 1794 0bb2 A9EE667A 		vfms.f32	s14, s18, s13
 1795              	.LVL245:
 1796 0bb6 DFED696A 		vldr.32	s13, .L188+44
 1797              	.LVL246:
 1798 0bba 67EEA67A 		vmul.f32	s15, s15, s13
 1799              	.LVL247:
 1800              		.loc 1 382 0
 1801 0bbe C7EE276A 		vdiv.f32	s13, s14, s15
 1802 0bc2 16EE900A 		vmov	r0, s13
 1803 0bc6 6CE7     		b	.L153
 1804              	.LVL248:
 1805              	.L177:
 1806              	.LBE111:
 1807              	.LBE112:
 1808              	.LBB113:
 1809              		.loc 1 327 0 discriminator 21
 1810 0bc8 5C4B     		ldr	r3, .L188+12
 1811 0bca 0222     		movs	r2, #2
 1812              		.loc 1 328 0 discriminator 21
 1813 0bcc 1846     		mov	r0, r3
 1814              		.loc 1 327 0 discriminator 21
 1815 0bce 9A70     		strb	r2, [r3, #2]
 1816              		.loc 1 328 0 discriminator 21
 1817 0bd0 FFF7FEFF 		bl	mc_interface_set_configuration
 1818              	.LVL249:
 1819              		.loc 1 330 0 discriminator 21
 1820 0bd4 0023     		movs	r3, #0
 1821              		.loc 1 332 0 discriminator 21
 1822 0bd6 11A9     		add	r1, sp, #68
 1823 0bd8 10A8     		add	r0, sp, #64
 1824              		.loc 1 330 0 discriminator 21
ARM GAS  C:\Users\CHRIST~1\AppData\Local\Temp\ccVm3NB4.s 			page 33


 1825 0bda 1093     		str	r3, [sp, #64]	@ float
 1826              		.loc 1 331 0 discriminator 21
 1827 0bdc 1193     		str	r3, [sp, #68]	@ float
 1828              		.loc 1 332 0 discriminator 21
 1829 0bde FFF7FEFF 		bl	mcpwm_foc_measure_res_ind
 1830              	.LVL250:
 1831              		.loc 1 333 0 discriminator 21
 1832 0be2 1098     		ldr	r0, [sp, #64]	@ float
 1833 0be4 FFF7FEFF 		bl	__aeabi_f2d
 1834              	.LVL251:
 1835 0be8 0246     		mov	r2, r0
 1836 0bea 0B46     		mov	r3, r1
 1837 0bec 5C48     		ldr	r0, .L188+48
 1838 0bee FFF7FEFF 		bl	commands_printf
 1839              	.LVL252:
 1840              		.loc 1 334 0 discriminator 21
 1841 0bf2 1198     		ldr	r0, [sp, #68]	@ float
 1842 0bf4 FFF7FEFF 		bl	__aeabi_f2d
 1843              	.LVL253:
 1844 0bf8 0246     		mov	r2, r0
 1845 0bfa 0B46     		mov	r3, r1
 1846 0bfc 5948     		ldr	r0, .L188+52
 1847 0bfe FFF7FEFF 		bl	commands_printf
 1848              	.LVL254:
 1849              		.loc 1 336 0 discriminator 21
 1850 0c02 5548     		ldr	r0, .L188+40
 1851 0c04 FFF7FEFF 		bl	mc_interface_set_configuration
 1852              	.LVL255:
 1853              	.LBE113:
 1854 0c08 FFF785BA 		b	.L1
 1855              	.L70:
 1856              		.loc 1 389 0
 1857 0c0c 5649     		ldr	r1, .L188+56
 1858 0c0e 2846     		mov	r0, r5
 1859 0c10 FFF7FEFF 		bl	strcmp
 1860              	.LVL256:
 1861 0c14 0028     		cmp	r0, #0
 1862 0c16 00F00481 		beq	.L178
 1863              		.loc 1 392 0
 1864 0c1a 5449     		ldr	r1, .L188+60
 1865 0c1c 2846     		mov	r0, r5
 1866 0c1e FFF7FEFF 		bl	strcmp
 1867              	.LVL257:
 1868 0c22 0028     		cmp	r0, #0
 1869 0c24 00F0C080 		beq	.L179
 1870              		.loc 1 403 0
 1871 0c28 5149     		ldr	r1, .L188+64
 1872 0c2a 2846     		mov	r0, r5
 1873 0c2c FFF7FEFF 		bl	strcmp
 1874              	.LVL258:
 1875 0c30 0028     		cmp	r0, #0
 1876 0c32 00F0FD80 		beq	.L80
 1877              		.loc 1 427 0
 1878 0c36 4F49     		ldr	r1, .L188+68
 1879 0c38 2846     		mov	r0, r5
 1880 0c3a FFF7FEFF 		bl	strcmp
 1881              	.LVL259:
ARM GAS  C:\Users\CHRIST~1\AppData\Local\Temp\ccVm3NB4.s 			page 34


 1882 0c3e 0028     		cmp	r0, #0
 1883 0c40 00F0F680 		beq	.L80
 1884              		.loc 1 454 0
 1885 0c44 4C49     		ldr	r1, .L188+72
 1886 0c46 2846     		mov	r0, r5
 1887 0c48 FFF7FEFF 		bl	strcmp
 1888              	.LVL260:
 1889 0c4c 0028     		cmp	r0, #0
 1890 0c4e 00F0EF80 		beq	.L80
 1891              		.loc 1 479 0
 1892 0c52 4A49     		ldr	r1, .L188+76
 1893 0c54 2846     		mov	r0, r5
 1894 0c56 FFF7FEFF 		bl	strcmp
 1895              	.LVL261:
 1896 0c5a 0028     		cmp	r0, #0
 1897 0c5c 00F0E880 		beq	.L80
 1898              		.loc 1 485 0
 1899 0c60 4749     		ldr	r1, .L188+80
 1900 0c62 2846     		mov	r0, r5
 1901 0c64 FFF7FEFF 		bl	strcmp
 1902              	.LVL262:
 1903 0c68 0028     		cmp	r0, #0
 1904 0c6a 00F0E180 		beq	.L80
 1905              		.loc 1 491 0
 1906 0c6e 4549     		ldr	r1, .L188+84
 1907 0c70 2846     		mov	r0, r5
 1908 0c72 FFF7FEFF 		bl	strcmp
 1909              	.LVL263:
 1910 0c76 0028     		cmp	r0, #0
 1911 0c78 55D0     		beq	.L82
 1912              		.loc 1 515 0
 1913 0c7a 4349     		ldr	r1, .L188+88
 1914 0c7c 2846     		mov	r0, r5
 1915 0c7e FFF7FEFF 		bl	strcmp
 1916              	.LVL264:
 1917 0c82 0028     		cmp	r0, #0
 1918 0c84 4FD0     		beq	.L82
 1919              		.loc 1 542 0
 1920 0c86 4149     		ldr	r1, .L188+92
 1921 0c88 2846     		mov	r0, r5
 1922 0c8a FFF7FEFF 		bl	strcmp
 1923              	.LVL265:
 1924 0c8e 38BB     		cbnz	r0, .L83
 1925              		.loc 1 543 0
 1926 0c90 032C     		cmp	r4, #3
 1927 0c92 04D0     		beq	.L180
 1928              		.loc 1 555 0
 1929 0c94 3E48     		ldr	r0, .L188+96
 1930 0c96 FFF7FEFF 		bl	commands_printf
 1931              	.LVL266:
 1932 0c9a FFF73CBA 		b	.L1
 1933              	.L180:
 1934              	.LBB114:
 1935              		.loc 1 544 0
 1936 0c9e 254B     		ldr	r3, .L188+4
 1937              		.loc 1 546 0
 1938 0ca0 2549     		ldr	r1, .L188+8
ARM GAS  C:\Users\CHRIST~1\AppData\Local\Temp\ccVm3NB4.s 			page 35


 1939 0ca2 1998     		ldr	r0, [sp, #100]
 1940              		.loc 1 544 0
 1941 0ca4 1093     		str	r3, [sp, #64]	@ float
 1942              		.loc 1 546 0
 1943 0ca6 10AA     		add	r2, sp, #64
 1944              		.loc 1 545 0
 1945 0ca8 1193     		str	r3, [sp, #68]	@ float
 1946              		.loc 1 546 0
 1947 0caa FFF7FEFF 		bl	sscanf
 1948              	.LVL267:
 1949              		.loc 1 547 0
 1950 0cae 11AA     		add	r2, sp, #68
 1951 0cb0 1A98     		ldr	r0, [sp, #104]
 1952 0cb2 2149     		ldr	r1, .L188+8
 1953 0cb4 FFF7FEFF 		bl	sscanf
 1954              	.LVL268:
 1955              		.loc 1 549 0
 1956 0cb8 9DED100A 		vldr.32	s0, [sp, #64]
 1957 0cbc B5EEC00A 		vcmpe.f32	s0, #0
 1958 0cc0 F1EE10FA 		vmrs	APSR_nzcv, FPSCR
 1959 0cc4 FFF65BAC 		blt	.L85
 1960              		.loc 1 549 0 is_stmt 0 discriminator 1
 1961 0cc8 DDED110A 		vldr.32	s1, [sp, #68]
 1962 0ccc F5EEC00A 		vcmpe.f32	s1, #0
 1963 0cd0 F1EE10FA 		vmrs	APSR_nzcv, FPSCR
 1964 0cd4 FFF653AC 		blt	.L85
 1965              		.loc 1 550 0 is_stmt 1
 1966 0cd8 FFF7FEFF 		bl	mcpwm_foc_set_openloop
 1967              	.LVL269:
 1968 0cdc FFF71BBA 		b	.L1
 1969              	.L83:
 1970              	.LBE114:
 1971              		.loc 1 560 0
 1972 0ce0 2C49     		ldr	r1, .L188+100
 1973 0ce2 2846     		mov	r0, r5
 1974 0ce4 FFF7FEFF 		bl	strcmp
 1975              	.LVL270:
 1976 0ce8 0646     		mov	r6, r0
 1977 0cea 0028     		cmp	r0, #0
 1978 0cec 00F0AC80 		beq	.L89
 1979              	.LVL271:
 1980              	.LBB115:
 1981              	.LBB116:
 1982              		.loc 1 683 0 discriminator 1
 1983 0cf0 294B     		ldr	r3, .L188+104
 1984 0cf2 D3F80090 		ldr	r9, [r3]
 1985 0cf6 B9F1000F 		cmp	r9, #0
 1986 0cfa 0EDD     		ble	.L91
 1987 0cfc 274E     		ldr	r6, .L188+108
 1988              		.loc 1 683 0 is_stmt 0
 1989 0cfe 0027     		movs	r7, #0
 1990              	.LVL272:
 1991              	.L100:
 1992              		.loc 1 684 0 is_stmt 1
 1993 0d00 4FEA0718 		lsl	r8, r7, #4
 1994 0d04 2846     		mov	r0, r5
 1995 0d06 56F80810 		ldr	r1, [r6, r8]
ARM GAS  C:\Users\CHRIST~1\AppData\Local\Temp\ccVm3NB4.s 			page 36


 1996 0d0a FFF7FEFF 		bl	strcmp
 1997              	.LVL273:
 1998              		.loc 1 683 0
 1999 0d0e 0137     		adds	r7, r7, #1
 2000              	.LVL274:
 2001              		.loc 1 684 0
 2002 0d10 0028     		cmp	r0, #0
 2003 0d12 00F09280 		beq	.L181
 2004              		.loc 1 683 0 discriminator 2
 2005 0d16 B945     		cmp	r9, r7
 2006 0d18 F2D1     		bne	.L100
 2007              	.LVL275:
 2008              	.L91:
 2009              	.LBE116:
 2010              		.loc 1 692 0
 2011 0d1a 2946     		mov	r1, r5
 2012 0d1c 2048     		ldr	r0, .L188+112
 2013 0d1e FFF7FEFF 		bl	commands_printf
 2014              	.LVL276:
 2015 0d22 FFF7F8B9 		b	.L1
 2016              	.LVL277:
 2017              	.L82:
 2018              	.LBE115:
 2019              		.loc 1 513 0
 2020 0d26 1F48     		ldr	r0, .L188+116
 2021 0d28 FFF7FEFF 		bl	commands_printf
 2022              	.LVL278:
 2023 0d2c FFF7F3B9 		b	.L1
 2024              	.L189:
 2025              		.align	2
 2026              	.L188:
 2027 0d30 74080000 		.word	.LC96
 2028 0d34 000080BF 		.word	-1082130432
 2029 0d38 F0040000 		.word	.LC63
 2030 0d3c 00000000 		.word	.LANCHOR0
 2031 0d40 0AD7A33C 		.word	1017370378
 2032 0d44 84080000 		.word	.LC97
 2033 0d48 98080000 		.word	.LC98
 2034 0d4c E0080000 		.word	.LC101
 2035 0d50 0000C842 		.word	1120403456
 2036 0d54 00000000 		.word	0
 2037 0d58 00000000 		.word	.LANCHOR1
 2038 0d5c 5077D63D 		.word	1037465424
 2039 0d60 A8080000 		.word	.LC99
 2040 0d64 C0080000 		.word	.LC100
 2041 0d68 F4080000 		.word	.LC102
 2042 0d6c 00090000 		.word	.LC103
 2043 0d70 8C090000 		.word	.LC109
 2044 0d74 C8090000 		.word	.LC111
 2045 0d78 DC090000 		.word	.LC112
 2046 0d7c F0090000 		.word	.LC113
 2047 0d80 080A0000 		.word	.LC114
 2048 0d84 200A0000 		.word	.LC115
 2049 0d88 5C0A0000 		.word	.LC117
 2050 0d8c 700A0000 		.word	.LC118
 2051 0d90 800A0000 		.word	.LC119
 2052 0d94 A80A0000 		.word	.LC120
ARM GAS  C:\Users\CHRIST~1\AppData\Local\Temp\ccVm3NB4.s 			page 37


 2053 0d98 00000000 		.word	.LANCHOR5
 2054 0d9c 00000000 		.word	.LANCHOR6
 2055 0da0 30110000 		.word	.LC161
 2056 0da4 340A0000 		.word	.LC116
 2057              	.L179:
 2058              		.loc 1 393 0
 2059 0da8 1D22     		movs	r2, #29
 2060 0daa 0321     		movs	r1, #3
 2061 0dac 8E48     		ldr	r0, .L190
 2062 0dae FFF7FEFF 		bl	commands_printf
 2063              	.LVL279:
 2064              		.loc 1 395 0
 2065 0db2 8E49     		ldr	r1, .L190+4
 2066 0db4 8E48     		ldr	r0, .L190+8
 2067 0db6 FFF7FEFF 		bl	commands_printf
 2068              	.LVL280:
 2069              		.loc 1 400 0
 2070 0dba 8E48     		ldr	r0, .L190+12
 2071              		.loc 1 398 0
 2072 0dbc 8E4B     		ldr	r3, .L190+16
 2073 0dbe 8F4A     		ldr	r2, .L190+20
 2074 0dc0 8F49     		ldr	r1, .L190+24
 2075              		.loc 1 397 0
 2076 0dc2 0478     		ldrb	r4, [r0]	@ zero_extendqisi2
 2077              	.LVL281:
 2078 0dc4 1B78     		ldrb	r3, [r3]	@ zero_extendqisi2
 2079 0dc6 1278     		ldrb	r2, [r2]	@ zero_extendqisi2
 2080 0dc8 0978     		ldrb	r1, [r1]	@ zero_extendqisi2
 2081 0dca 0894     		str	r4, [sp, #32]
 2082 0dcc 10F8014C 		ldrb	r4, [r0, #-1]	@ zero_extendqisi2
 2083 0dd0 0794     		str	r4, [sp, #28]
 2084 0dd2 10F8024C 		ldrb	r4, [r0, #-2]	@ zero_extendqisi2
 2085 0dd6 0694     		str	r4, [sp, #24]
 2086 0dd8 10F8034C 		ldrb	r4, [r0, #-3]	@ zero_extendqisi2
 2087 0ddc 0594     		str	r4, [sp, #20]
 2088 0dde 10F8044C 		ldrb	r4, [r0, #-4]	@ zero_extendqisi2
 2089 0de2 0494     		str	r4, [sp, #16]
 2090 0de4 10F8054C 		ldrb	r4, [r0, #-5]	@ zero_extendqisi2
 2091 0de8 0394     		str	r4, [sp, #12]
 2092 0dea 10F8064C 		ldrb	r4, [r0, #-6]	@ zero_extendqisi2
 2093 0dee 0294     		str	r4, [sp, #8]
 2094 0df0 10F8074C 		ldrb	r4, [r0, #-7]	@ zero_extendqisi2
 2095 0df4 0194     		str	r4, [sp, #4]
 2096              		.loc 1 398 0
 2097 0df6 0838     		subs	r0, r0, #8
 2098              		.loc 1 397 0
 2099 0df8 0078     		ldrb	r0, [r0]	@ zero_extendqisi2
 2100 0dfa 0090     		str	r0, [sp]
 2101 0dfc 8148     		ldr	r0, .L190+28
 2102 0dfe FFF7FEFF 		bl	commands_printf
 2103              	.LVL282:
 2104              		.loc 1 401 0
 2105 0e02 814B     		ldr	r3, .L190+32
 2106 0e04 814A     		ldr	r2, .L190+36
 2107 0e06 1978     		ldrb	r1, [r3]	@ zero_extendqisi2
 2108 0e08 814B     		ldr	r3, .L190+40
 2109 0e0a 8248     		ldr	r0, .L190+44
ARM GAS  C:\Users\CHRIST~1\AppData\Local\Temp\ccVm3NB4.s 			page 38


 2110 0e0c 0029     		cmp	r1, #0
 2111 0e0e 14BF     		ite	ne
 2112 0e10 1146     		movne	r1, r2
 2113 0e12 1946     		moveq	r1, r3
 2114 0e14 FFF7FEFF 		bl	commands_printf
 2115              	.LVL283:
 2116              		.loc 1 402 0
 2117 0e18 7F48     		ldr	r0, .L190+48
 2118 0e1a FFF7FEFF 		bl	commands_printf
 2119              	.LVL284:
 2120 0e1e FFF77AB9 		b	.L1
 2121              	.LVL285:
 2122              	.L178:
 2123              		.loc 1 390 0
 2124 0e22 FFF7FEFF 		bl	mcpwm_foc_print_state
 2125              	.LVL286:
 2126              		.loc 1 391 0
 2127 0e26 7C48     		ldr	r0, .L190+48
 2128 0e28 FFF7FEFF 		bl	commands_printf
 2129              	.LVL287:
 2130 0e2c FFF773B9 		b	.L1
 2131              	.L80:
 2132              		.loc 1 425 0
 2133 0e30 7A48     		ldr	r0, .L190+52
 2134 0e32 FFF7FEFF 		bl	commands_printf
 2135              	.LVL288:
 2136 0e36 FFF76EB9 		b	.L1
 2137              	.LVL289:
 2138              	.L181:
 2139              	.LBB118:
 2140              	.LBB117:
 2141              		.loc 1 685 0
 2142 0e3a 4644     		add	r6, r6, r8
 2143 0e3c 18A9     		add	r1, sp, #96
 2144 0e3e F368     		ldr	r3, [r6, #12]
 2145 0e40 2046     		mov	r0, r4
 2146 0e42 9847     		blx	r3
 2147              	.LVL290:
 2148 0e44 FFF767B9 		b	.L1
 2149              	.LVL291:
 2150              	.L89:
 2151              	.LBE117:
 2152              	.LBE118:
 2153              		.loc 1 561 0
 2154 0e48 7548     		ldr	r0, .L190+56
 2155              	.LBB119:
 2156              		.loc 1 666 0
 2157 0e4a 764D     		ldr	r5, .L190+60
 2158              	.LBE119:
 2159              		.loc 1 561 0
 2160 0e4c FFF7FEFF 		bl	commands_printf
 2161              	.LVL292:
 2162              		.loc 1 562 0
 2163 0e50 7548     		ldr	r0, .L190+64
 2164 0e52 FFF7FEFF 		bl	commands_printf
 2165              	.LVL293:
 2166              		.loc 1 563 0
ARM GAS  C:\Users\CHRIST~1\AppData\Local\Temp\ccVm3NB4.s 			page 39


 2167 0e56 7548     		ldr	r0, .L190+68
 2168 0e58 FFF7FEFF 		bl	commands_printf
 2169              	.LVL294:
 2170              		.loc 1 565 0
 2171 0e5c 7448     		ldr	r0, .L190+72
 2172 0e5e FFF7FEFF 		bl	commands_printf
 2173              	.LVL295:
 2174              		.loc 1 566 0
 2175 0e62 7448     		ldr	r0, .L190+76
 2176 0e64 FFF7FEFF 		bl	commands_printf
 2177              	.LVL296:
 2178              		.loc 1 568 0
 2179 0e68 7348     		ldr	r0, .L190+80
 2180 0e6a FFF7FEFF 		bl	commands_printf
 2181              	.LVL297:
 2182              		.loc 1 569 0
 2183 0e6e 7348     		ldr	r0, .L190+84
 2184 0e70 FFF7FEFF 		bl	commands_printf
 2185              	.LVL298:
 2186              		.loc 1 571 0
 2187 0e74 7248     		ldr	r0, .L190+88
 2188 0e76 FFF7FEFF 		bl	commands_printf
 2189              	.LVL299:
 2190              		.loc 1 572 0
 2191 0e7a 7248     		ldr	r0, .L190+92
 2192 0e7c FFF7FEFF 		bl	commands_printf
 2193              	.LVL300:
 2194              		.loc 1 574 0
 2195 0e80 7148     		ldr	r0, .L190+96
 2196 0e82 FFF7FEFF 		bl	commands_printf
 2197              	.LVL301:
 2198              		.loc 1 575 0
 2199 0e86 7148     		ldr	r0, .L190+100
 2200 0e88 FFF7FEFF 		bl	commands_printf
 2201              	.LVL302:
 2202              		.loc 1 577 0
 2203 0e8c 7048     		ldr	r0, .L190+104
 2204 0e8e FFF7FEFF 		bl	commands_printf
 2205              	.LVL303:
 2206              		.loc 1 578 0
 2207 0e92 7048     		ldr	r0, .L190+108
 2208 0e94 FFF7FEFF 		bl	commands_printf
 2209              	.LVL304:
 2210              		.loc 1 580 0
 2211 0e98 6F48     		ldr	r0, .L190+112
 2212 0e9a FFF7FEFF 		bl	commands_printf
 2213              	.LVL305:
 2214              		.loc 1 581 0
 2215 0e9e 6F48     		ldr	r0, .L190+116
 2216 0ea0 FFF7FEFF 		bl	commands_printf
 2217              	.LVL306:
 2218              		.loc 1 583 0
 2219 0ea4 6E48     		ldr	r0, .L190+120
 2220 0ea6 FFF7FEFF 		bl	commands_printf
 2221              	.LVL307:
 2222              		.loc 1 584 0
 2223 0eaa 6E48     		ldr	r0, .L190+124
ARM GAS  C:\Users\CHRIST~1\AppData\Local\Temp\ccVm3NB4.s 			page 40


 2224 0eac FFF7FEFF 		bl	commands_printf
 2225              	.LVL308:
 2226              		.loc 1 586 0
 2227 0eb0 6D48     		ldr	r0, .L190+128
 2228 0eb2 FFF7FEFF 		bl	commands_printf
 2229              	.LVL309:
 2230              		.loc 1 587 0
 2231 0eb6 6D48     		ldr	r0, .L190+132
 2232 0eb8 FFF7FEFF 		bl	commands_printf
 2233              	.LVL310:
 2234              		.loc 1 589 0
 2235 0ebc 6C48     		ldr	r0, .L190+136
 2236 0ebe FFF7FEFF 		bl	commands_printf
 2237              	.LVL311:
 2238              		.loc 1 590 0
 2239 0ec2 6C48     		ldr	r0, .L190+140
 2240 0ec4 FFF7FEFF 		bl	commands_printf
 2241              	.LVL312:
 2242              		.loc 1 592 0
 2243 0ec8 6B48     		ldr	r0, .L190+144
 2244 0eca FFF7FEFF 		bl	commands_printf
 2245              	.LVL313:
 2246              		.loc 1 593 0
 2247 0ece 6B48     		ldr	r0, .L190+148
 2248 0ed0 FFF7FEFF 		bl	commands_printf
 2249              	.LVL314:
 2250              		.loc 1 595 0
 2251 0ed4 6A48     		ldr	r0, .L190+152
 2252 0ed6 FFF7FEFF 		bl	commands_printf
 2253              	.LVL315:
 2254              		.loc 1 596 0
 2255 0eda 6A48     		ldr	r0, .L190+156
 2256 0edc FFF7FEFF 		bl	commands_printf
 2257              	.LVL316:
 2258              		.loc 1 598 0
 2259 0ee0 6948     		ldr	r0, .L190+160
 2260 0ee2 FFF7FEFF 		bl	commands_printf
 2261              	.LVL317:
 2262              		.loc 1 599 0
 2263 0ee6 6948     		ldr	r0, .L190+164
 2264 0ee8 FFF7FEFF 		bl	commands_printf
 2265              	.LVL318:
 2266              		.loc 1 601 0
 2267 0eec 6848     		ldr	r0, .L190+168
 2268 0eee FFF7FEFF 		bl	commands_printf
 2269              	.LVL319:
 2270              		.loc 1 602 0
 2271 0ef2 6848     		ldr	r0, .L190+172
 2272 0ef4 FFF7FEFF 		bl	commands_printf
 2273              	.LVL320:
 2274              		.loc 1 603 0
 2275 0ef8 6748     		ldr	r0, .L190+176
 2276 0efa FFF7FEFF 		bl	commands_printf
 2277              	.LVL321:
 2278              		.loc 1 604 0
 2279 0efe 6748     		ldr	r0, .L190+180
 2280 0f00 FFF7FEFF 		bl	commands_printf
ARM GAS  C:\Users\CHRIST~1\AppData\Local\Temp\ccVm3NB4.s 			page 41


 2281              	.LVL322:
 2282              		.loc 1 606 0
 2283 0f04 6648     		ldr	r0, .L190+184
 2284 0f06 FFF7FEFF 		bl	commands_printf
 2285              	.LVL323:
 2286              		.loc 1 607 0
 2287 0f0a 6648     		ldr	r0, .L190+188
 2288 0f0c FFF7FEFF 		bl	commands_printf
 2289              	.LVL324:
 2290              		.loc 1 609 0
 2291 0f10 6548     		ldr	r0, .L190+192
 2292 0f12 FFF7FEFF 		bl	commands_printf
 2293              	.LVL325:
 2294              		.loc 1 610 0
 2295 0f16 6548     		ldr	r0, .L190+196
 2296 0f18 FFF7FEFF 		bl	commands_printf
 2297              	.LVL326:
 2298              		.loc 1 612 0
 2299 0f1c 6448     		ldr	r0, .L190+200
 2300 0f1e FFF7FEFF 		bl	commands_printf
 2301              	.LVL327:
 2302              		.loc 1 613 0
 2303 0f22 6448     		ldr	r0, .L190+204
 2304 0f24 FFF7FEFF 		bl	commands_printf
 2305              	.LVL328:
 2306              		.loc 1 615 0
 2307 0f28 6348     		ldr	r0, .L190+208
 2308 0f2a FFF7FEFF 		bl	commands_printf
 2309              	.LVL329:
 2310              		.loc 1 616 0
 2311 0f2e 6348     		ldr	r0, .L190+212
 2312 0f30 FFF7FEFF 		bl	commands_printf
 2313              	.LVL330:
 2314              		.loc 1 618 0
 2315 0f34 6248     		ldr	r0, .L190+216
 2316 0f36 FFF7FEFF 		bl	commands_printf
 2317              	.LVL331:
 2318              		.loc 1 619 0
 2319 0f3a 6248     		ldr	r0, .L190+220
 2320 0f3c FFF7FEFF 		bl	commands_printf
 2321              	.LVL332:
 2322              		.loc 1 621 0
 2323 0f40 6148     		ldr	r0, .L190+224
 2324 0f42 FFF7FEFF 		bl	commands_printf
 2325              	.LVL333:
 2326              		.loc 1 622 0
 2327 0f46 6148     		ldr	r0, .L190+228
 2328 0f48 FFF7FEFF 		bl	commands_printf
 2329              	.LVL334:
 2330              		.loc 1 623 0
 2331 0f4c 6048     		ldr	r0, .L190+232
 2332 0f4e FFF7FEFF 		bl	commands_printf
 2333              	.LVL335:
 2334              		.loc 1 624 0
 2335 0f52 6048     		ldr	r0, .L190+236
 2336 0f54 FFF7FEFF 		bl	commands_printf
 2337              	.LVL336:
ARM GAS  C:\Users\CHRIST~1\AppData\Local\Temp\ccVm3NB4.s 			page 42


 2338              		.loc 1 626 0
 2339 0f58 5F48     		ldr	r0, .L190+240
 2340 0f5a FFF7FEFF 		bl	commands_printf
 2341              	.LVL337:
 2342              		.loc 1 627 0
 2343 0f5e 5F48     		ldr	r0, .L190+244
 2344 0f60 FFF7FEFF 		bl	commands_printf
 2345              	.LVL338:
 2346              		.loc 1 629 0
 2347 0f64 5E48     		ldr	r0, .L190+248
 2348 0f66 FFF7FEFF 		bl	commands_printf
 2349              	.LVL339:
 2350              		.loc 1 630 0
 2351 0f6a 5E48     		ldr	r0, .L190+252
 2352 0f6c FFF7FEFF 		bl	commands_printf
 2353              	.LVL340:
 2354              		.loc 1 632 0
 2355 0f70 5D48     		ldr	r0, .L190+256
 2356 0f72 FFF7FEFF 		bl	commands_printf
 2357              	.LVL341:
 2358              		.loc 1 633 0
 2359 0f76 5D48     		ldr	r0, .L190+260
 2360 0f78 FFF7FEFF 		bl	commands_printf
 2361              	.LVL342:
 2362              		.loc 1 635 0
 2363 0f7c 5C48     		ldr	r0, .L190+264
 2364 0f7e FFF7FEFF 		bl	commands_printf
 2365              	.LVL343:
 2366              		.loc 1 636 0
 2367 0f82 5C48     		ldr	r0, .L190+268
 2368 0f84 FFF7FEFF 		bl	commands_printf
 2369              	.LVL344:
 2370              		.loc 1 663 0
 2371 0f88 5B48     		ldr	r0, .L190+272
 2372 0f8a FFF7FEFF 		bl	commands_printf
 2373              	.LVL345:
 2374              		.loc 1 664 0
 2375 0f8e 5B48     		ldr	r0, .L190+276
 2376 0f90 FFF7FEFF 		bl	commands_printf
 2377              	.LVL346:
 2378              	.LBB120:
 2379              		.loc 1 666 0
 2380 0f94 2B68     		ldr	r3, [r5]
 2381 0f96 002B     		cmp	r3, #0
 2382 0f98 18DD     		ble	.L98
 2383 0f9a 594C     		ldr	r4, .L190+280
 2384              	.LVL347:
 2385              		.loc 1 668 0
 2386 0f9c DFF86891 		ldr	r9, .L190+288
 2387              		.loc 1 676 0
 2388 0fa0 DFF86881 		ldr	r8, .L190+292
 2389              		.loc 1 674 0
 2390 0fa4 574F     		ldr	r7, .L190+284
 2391              	.LVL348:
 2392              	.L97:
 2393              		.loc 1 667 0
 2394 0fa6 A368     		ldr	r3, [r4, #8]
ARM GAS  C:\Users\CHRIST~1\AppData\Local\Temp\ccVm3NB4.s 			page 43


 2395              		.loc 1 668 0
 2396 0fa8 4846     		mov	r0, r9
 2397 0faa 1A46     		mov	r2, r3
 2398              		.loc 1 667 0
 2399 0fac BBB1     		cbz	r3, .L93
 2400              		.loc 1 668 0
 2401 0fae 2168     		ldr	r1, [r4]
 2402 0fb0 FFF7FEFF 		bl	commands_printf
 2403              	.LVL349:
 2404              	.L94:
 2405              		.loc 1 673 0
 2406 0fb4 6368     		ldr	r3, [r4, #4]
 2407              		.loc 1 674 0
 2408 0fb6 3846     		mov	r0, r7
 2409 0fb8 1946     		mov	r1, r3
 2410              		.loc 1 673 0
 2411 0fba 63B1     		cbz	r3, .L95
 2412              		.loc 1 674 0
 2413 0fbc FFF7FEFF 		bl	commands_printf
 2414              	.LVL350:
 2415              	.L96:
 2416              		.loc 1 666 0 discriminator 2
 2417 0fc0 2B68     		ldr	r3, [r5]
 2418 0fc2 0136     		adds	r6, r6, #1
 2419              	.LVL351:
 2420 0fc4 B342     		cmp	r3, r6
 2421 0fc6 04F11004 		add	r4, r4, #16
 2422 0fca ECDC     		bgt	.L97
 2423              	.LVL352:
 2424              	.L98:
 2425              	.LBE120:
 2426              		.loc 1 680 0
 2427 0fcc 1248     		ldr	r0, .L190+48
 2428 0fce FFF7FEFF 		bl	commands_printf
 2429              	.LVL353:
 2430 0fd2 FFF7A0B8 		b	.L1
 2431              	.LVL354:
 2432              	.L95:
 2433              	.LBB121:
 2434              		.loc 1 676 0
 2435 0fd6 4046     		mov	r0, r8
 2436 0fd8 FFF7FEFF 		bl	commands_printf
 2437              	.LVL355:
 2438 0fdc F0E7     		b	.L96
 2439              	.L93:
 2440              		.loc 1 670 0
 2441 0fde 2068     		ldr	r0, [r4]
 2442 0fe0 FFF7FEFF 		bl	commands_printf
 2443              	.LVL356:
 2444 0fe4 E6E7     		b	.L94
 2445              	.L191:
 2446 0fe6 00BF     		.align	2
 2447              	.L190:
 2448 0fe8 0C090000 		.word	.LC104
 2449 0fec 1C090000 		.word	.LC105
 2450 0ff0 20090000 		.word	.LC106
 2451 0ff4 1B7AFF1F 		.word	536836635
ARM GAS  C:\Users\CHRIST~1\AppData\Local\Temp\ccVm3NB4.s 			page 44


 2452 0ff8 127AFF1F 		.word	536836626
 2453 0ffc 117AFF1F 		.word	536836625
 2454 1000 107AFF1F 		.word	536836624
 2455 1004 30090000 		.word	.LC107
 2456 1008 00000000 		.word	conf_general_permanent_nrf_found
 2457 100c 10000000 		.word	.LC2
 2458 1010 14000000 		.word	.LC3
 2459 1014 74090000 		.word	.LC108
 2460 1018 18000000 		.word	.LC4
 2461 101c A0090000 		.word	.LC110
 2462 1020 B00A0000 		.word	.LC121
 2463 1024 00000000 		.word	.LANCHOR5
 2464 1028 A80A0000 		.word	.LC120
 2465 102c C40A0000 		.word	.LC122
 2466 1030 34000000 		.word	.LC6
 2467 1034 D80A0000 		.word	.LC123
 2468 1038 44000000 		.word	.LC8
 2469 103c 040B0000 		.word	.LC124
 2470 1040 5C000000 		.word	.LC10
 2471 1044 180B0000 		.word	.LC125
 2472 1048 E0000000 		.word	.LC14
 2473 104c 480B0000 		.word	.LC126
 2474 1050 04010000 		.word	.LC16
 2475 1054 6C0B0000 		.word	.LC127
 2476 1058 5C010000 		.word	.LC20
 2477 105c 800B0000 		.word	.LC128
 2478 1060 0C020000 		.word	.LC25
 2479 1064 940B0000 		.word	.LC129
 2480 1068 18020000 		.word	.LC27
 2481 106c B40B0000 		.word	.LC130
 2482 1070 C8030000 		.word	.LC44
 2483 1074 F80B0000 		.word	.LC131
 2484 1078 E8030000 		.word	.LC46
 2485 107c 1C0C0000 		.word	.LC132
 2486 1080 08040000 		.word	.LC48
 2487 1084 380C0000 		.word	.LC133
 2488 1088 C0040000 		.word	.LC60
 2489 108c 580C0000 		.word	.LC134
 2490 1090 740C0000 		.word	.LC135
 2491 1094 A00C0000 		.word	.LC136
 2492 1098 E40C0000 		.word	.LC137
 2493 109c 200D0000 		.word	.LC138
 2494 10a0 60060000 		.word	.LC74
 2495 10a4 480D0000 		.word	.LC139
 2496 10a8 BC060000 		.word	.LC78
 2497 10ac 680D0000 		.word	.LC140
 2498 10b0 A40D0000 		.word	.LC141
 2499 10b4 C40D0000 		.word	.LC142
 2500 10b8 080E0000 		.word	.LC143
 2501 10bc 200E0000 		.word	.LC144
 2502 10c0 600E0000 		.word	.LC145
 2503 10c4 740E0000 		.word	.LC146
 2504 10c8 C80E0000 		.word	.LC147
 2505 10cc 000F0000 		.word	.LC148
 2506 10d0 400F0000 		.word	.LC149
 2507 10d4 6C0F0000 		.word	.LC150
 2508 10d8 98080000 		.word	.LC98
ARM GAS  C:\Users\CHRIST~1\AppData\Local\Temp\ccVm3NB4.s 			page 45


 2509 10dc A40F0000 		.word	.LC151
 2510 10e0 FC0F0000 		.word	.LC152
 2511 10e4 18100000 		.word	.LC153
 2512 10e8 F4080000 		.word	.LC102
 2513 10ec 50100000 		.word	.LC154
 2514 10f0 00090000 		.word	.LC103
 2515 10f4 74100000 		.word	.LC155
 2516 10f8 A0100000 		.word	.LC156
 2517 10fc C0100000 		.word	.LC157
 2518 1100 00000000 		.word	.LANCHOR6
 2519 1104 F8100000 		.word	.LC159
 2520 1108 F0100000 		.word	.LC158
 2521 110c 00110000 		.word	.LC160
 2522              	.LBE121:
 2523              		.cfi_endproc
 2524              	.LFE257:
 2525              		.size	terminal_process_string, .-terminal_process_string
 2526              		.section	.text.terminal_add_fault_data,"ax",%progbits
 2527              		.align	1
 2528              		.p2align 4,,15
 2529              		.global	terminal_add_fault_data
 2530              		.syntax unified
 2531              		.thumb
 2532              		.thumb_func
 2533              		.fpu fpv4-sp-d16
 2534              		.type	terminal_add_fault_data, %function
 2535              	terminal_add_fault_data:
 2536              	.LFB258:
 2537              		.loc 1 698 0
 2538              		.cfi_startproc
 2539              		@ args = 0, pretend = 0, frame = 0
 2540              		@ frame_needed = 0, uses_anonymous_args = 0
 2541              	.LVL357:
 2542 0000 F0B5     		push	{r4, r5, r6, r7, lr}
 2543              		.cfi_def_cfa_offset 20
 2544              		.cfi_offset 4, -20
 2545              		.cfi_offset 5, -16
 2546              		.cfi_offset 6, -12
 2547              		.cfi_offset 7, -8
 2548              		.cfi_offset 14, -4
 2549              		.loc 1 699 0
 2550 0002 0E4F     		ldr	r7, .L195
 2551 0004 0E4C     		ldr	r4, .L195+4
 2552 0006 3E68     		ldr	r6, [r7]
 2553 0008 0546     		mov	r5, r0
 2554 000a 0FCD     		ldmia	r5!, {r0, r1, r2, r3}
 2555              	.LVL358:
 2556 000c 06F1010E 		add	lr, r6, #1
 2557 0010 C6EBC606 		rsb	r6, r6, r6, lsl #3
 2558 0014 04EBC604 		add	r4, r4, r6, lsl #3
 2559 0018 C7F800E0 		str	lr, [r7]
 2560 001c 0FC4     		stmia	r4!, {r0, r1, r2, r3}
 2561 001e 0FCD     		ldmia	r5!, {r0, r1, r2, r3}
 2562              	.LVL359:
 2563 0020 0FC4     		stmia	r4!, {r0, r1, r2, r3}
 2564 0022 0FCD     		ldmia	r5!, {r0, r1, r2, r3}
 2565              	.LVL360:
ARM GAS  C:\Users\CHRIST~1\AppData\Local\Temp\ccVm3NB4.s 			page 46


 2566 0024 0FC4     		stmia	r4!, {r0, r1, r2, r3}
 2567 0026 95E80300 		ldm	r5, {r0, r1}
 2568 002a 84E80300 		stm	r4, {r0, r1}
 2569              		.loc 1 700 0
 2570 002e 3B68     		ldr	r3, [r7]
 2571 0030 182B     		cmp	r3, #24
 2572              		.loc 1 701 0
 2573 0032 C4BF     		itt	gt
 2574 0034 0023     		movgt	r3, #0
 2575 0036 3B60     		strgt	r3, [r7]
 2576 0038 F0BD     		pop	{r4, r5, r6, r7, pc}
 2577              	.LVL361:
 2578              	.L196:
 2579 003a 00BF     		.align	2
 2580              	.L195:
 2581 003c 00000000 		.word	.LANCHOR3
 2582 0040 00000000 		.word	.LANCHOR4
 2583              		.cfi_endproc
 2584              	.LFE258:
 2585              		.size	terminal_add_fault_data, .-terminal_add_fault_data
 2586              		.section	.text.terminal_register_command_callback,"ax",%progbits
 2587              		.align	1
 2588              		.p2align 4,,15
 2589              		.global	terminal_register_command_callback
 2590              		.syntax unified
 2591              		.thumb
 2592              		.thumb_func
 2593              		.fpu fpv4-sp-d16
 2594              		.type	terminal_register_command_callback, %function
 2595              	terminal_register_command_callback:
 2596              	.LFB259:
 2597              		.loc 1 726 0
 2598              		.cfi_startproc
 2599              		@ args = 0, pretend = 0, frame = 0
 2600              		@ frame_needed = 0, uses_anonymous_args = 0
 2601              	.LVL362:
 2602 0000 2DE9F84F 		push	{r3, r4, r5, r6, r7, r8, r9, r10, fp, lr}
 2603              		.cfi_def_cfa_offset 40
 2604              		.cfi_offset 3, -40
 2605              		.cfi_offset 4, -36
 2606              		.cfi_offset 5, -32
 2607              		.cfi_offset 6, -28
 2608              		.cfi_offset 7, -24
 2609              		.cfi_offset 8, -20
 2610              		.cfi_offset 9, -16
 2611              		.cfi_offset 10, -12
 2612              		.cfi_offset 11, -8
 2613              		.cfi_offset 14, -4
 2614              		.loc 1 728 0
 2615 0004 DFF88080 		ldr	r8, .L213+4
 2616              	.LBB122:
 2617              		.loc 1 732 0
 2618 0008 1E4E     		ldr	r6, .L213
 2619              	.LBE122:
 2620              		.loc 1 728 0
 2621 000a D8F80070 		ldr	r7, [r8]
 2622              	.LVL363:
ARM GAS  C:\Users\CHRIST~1\AppData\Local\Temp\ccVm3NB4.s 			page 47


 2623              	.LBB123:
 2624              		.loc 1 730 0
 2625 000e 002F     		cmp	r7, #0
 2626              	.LBE123:
 2627              		.loc 1 726 0
 2628 0010 0546     		mov	r5, r0
 2629 0012 8B46     		mov	fp, r1
 2630 0014 9246     		mov	r10, r2
 2631 0016 9946     		mov	r9, r3
 2632              	.LBB124:
 2633              		.loc 1 730 0
 2634 0018 1CDD     		ble	.L198
 2635              		.loc 1 732 0
 2636 001a 3068     		ldr	r0, [r6]
 2637              	.LVL364:
 2638 001c 8542     		cmp	r5, r0
 2639 001e 2ED0     		beq	.L205
 2640 0020 0024     		movs	r4, #0
 2641 0022 07E0     		b	.L201
 2642              	.LVL365:
 2643              	.L210:
 2644              		.loc 1 730 0 discriminator 2
 2645 0024 0134     		adds	r4, r4, #1
 2646              	.LVL366:
 2647 0026 A742     		cmp	r7, r4
 2648              		.loc 1 732 0 discriminator 2
 2649 0028 4FEA0413 		lsl	r3, r4, #4
 2650              		.loc 1 730 0 discriminator 2
 2651 002c 12D0     		beq	.L198
 2652              		.loc 1 732 0
 2653 002e F058     		ldr	r0, [r6, r3]
 2654 0030 A842     		cmp	r0, r5
 2655 0032 05D0     		beq	.L199
 2656              	.LVL367:
 2657              	.L201:
 2658              		.loc 1 738 0
 2659 0034 2946     		mov	r1, r5
 2660 0036 FFF7FEFF 		bl	strcmp
 2661              	.LVL368:
 2662 003a 0028     		cmp	r0, #0
 2663 003c F2D1     		bne	.L210
 2664 003e 2301     		lsls	r3, r4, #4
 2665              	.LVL369:
 2666              	.L199:
 2667              	.LBE124:
 2668              		.loc 1 744 0
 2669 0040 F218     		adds	r2, r6, r3
 2670 0042 F550     		str	r5, [r6, r3]
 2671              		.loc 1 745 0
 2672 0044 C2F804B0 		str	fp, [r2, #4]
 2673              		.loc 1 746 0
 2674 0048 C2F808A0 		str	r10, [r2, #8]
 2675              		.loc 1 747 0
 2676 004c C2F80C90 		str	r9, [r2, #12]
 2677 0050 BDE8F88F 		pop	{r3, r4, r5, r6, r7, r8, r9, r10, fp, pc}
 2678              	.LVL370:
 2679              	.L198:
ARM GAS  C:\Users\CHRIST~1\AppData\Local\Temp\ccVm3NB4.s 			page 48


 2680              		.loc 1 744 0
 2681 0054 3A01     		lsls	r2, r7, #4
 2682 0056 B318     		adds	r3, r6, r2
 2683              		.loc 1 750 0
 2684 0058 0137     		adds	r7, r7, #1
 2685              	.LVL371:
 2686              		.loc 1 751 0
 2687 005a 182F     		cmp	r7, #24
 2688              		.loc 1 744 0
 2689 005c B550     		str	r5, [r6, r2]
 2690              		.loc 1 745 0
 2691 005e C3F804B0 		str	fp, [r3, #4]
 2692              		.loc 1 746 0
 2693 0062 C3F808A0 		str	r10, [r3, #8]
 2694              		.loc 1 747 0
 2695 0066 C3F80C90 		str	r9, [r3, #12]
 2696              		.loc 1 751 0
 2697 006a 04DD     		ble	.L212
 2698              		.loc 1 752 0
 2699 006c 0023     		movs	r3, #0
 2700 006e C8F80030 		str	r3, [r8]
 2701              		.loc 1 755 0
 2702 0072 BDE8F88F 		pop	{r3, r4, r5, r6, r7, r8, r9, r10, fp, pc}
 2703              	.LVL372:
 2704              	.L212:
 2705              		.loc 1 750 0
 2706 0076 C8F80070 		str	r7, [r8]
 2707 007a BDE8F88F 		pop	{r3, r4, r5, r6, r7, r8, r9, r10, fp, pc}
 2708              	.LVL373:
 2709              	.L205:
 2710 007e 0023     		movs	r3, #0
 2711              	.LVL374:
 2712 0080 DEE7     		b	.L199
 2713              	.L214:
 2714 0082 00BF     		.align	2
 2715              	.L213:
 2716 0084 00000000 		.word	.LANCHOR6
 2717 0088 00000000 		.word	.LANCHOR5
 2718              		.cfi_endproc
 2719              	.LFE259:
 2720              		.size	terminal_register_command_callback, .-terminal_register_command_callback
 2721              		.section	.bss.callback_write,"aw",%nobits
 2722              		.align	2
 2723              		.set	.LANCHOR5,. + 0
 2724              		.type	callback_write, %object
 2725              		.size	callback_write, 4
 2726              	callback_write:
 2727 0000 00000000 		.space	4
 2728              		.section	.bss.callbacks,"aw",%nobits
 2729              		.align	2
 2730              		.set	.LANCHOR6,. + 0
 2731              		.type	callbacks, %object
 2732              		.size	callbacks, 400
 2733              	callbacks:
 2734 0000 00000000 		.space	400
 2734      00000000 
 2734      00000000 
ARM GAS  C:\Users\CHRIST~1\AppData\Local\Temp\ccVm3NB4.s 			page 49


 2734      00000000 
 2734      00000000 
 2735              		.section	.bss.fault_vec,"aw",%nobits
 2736              		.align	2
 2737              		.set	.LANCHOR4,. + 0
 2738              		.type	fault_vec, %object
 2739              		.size	fault_vec, 1400
 2740              	fault_vec:
 2741 0000 00000000 		.space	1400
 2741      00000000 
 2741      00000000 
 2741      00000000 
 2741      00000000 
 2742              		.section	.bss.fault_vec_write,"aw",%nobits
 2743              		.align	2
 2744              		.set	.LANCHOR3,. + 0
 2745              		.type	fault_vec_write, %object
 2746              		.size	fault_vec_write, 4
 2747              	fault_vec_write:
 2748 0000 00000000 		.space	4
 2749              		.section	.bss.mcconf.12605,"aw",%nobits
 2750              		.align	2
 2751              		.set	.LANCHOR0,. + 0
 2752              		.type	mcconf.12605, %object
 2753              		.size	mcconf.12605, 368
 2754              	mcconf.12605:
 2755 0000 00000000 		.space	368
 2755      00000000 
 2755      00000000 
 2755      00000000 
 2755      00000000 
 2756              		.section	.bss.mcconf_old.12606,"aw",%nobits
 2757              		.align	2
 2758              		.set	.LANCHOR1,. + 0
 2759              		.type	mcconf_old.12606, %object
 2760              		.size	mcconf_old.12606, 368
 2761              	mcconf_old.12606:
 2762 0000 00000000 		.space	368
 2762      00000000 
 2762      00000000 
 2762      00000000 
 2762      00000000 
 2763              		.section	.rodata.states.12610,"a",%progbits
 2764              		.align	2
 2765              		.set	.LANCHOR2,. + 0
 2766              		.type	states.12610, %object
 2767              		.size	states.12610, 64
 2768              	states.12610:
 2769 0000 00000000 		.word	.LC162
 2770 0004 08000000 		.word	.LC163
 2771 0008 10000000 		.word	.LC164
 2772 000c 18000000 		.word	.LC165
 2773 0010 24000000 		.word	.LC166
 2774 0014 2C000000 		.word	.LC167
 2775 0018 34000000 		.word	.LC168
 2776 001c 3C000000 		.word	.LC169
 2777 0020 44000000 		.word	.LC170
ARM GAS  C:\Users\CHRIST~1\AppData\Local\Temp\ccVm3NB4.s 			page 50


 2778 0024 50000000 		.word	.LC171
 2779 0028 58000000 		.word	.LC172
 2780 002c 60000000 		.word	.LC173
 2781 0030 6C000000 		.word	.LC174
 2782 0034 74000000 		.word	.LC175
 2783 0038 7C000000 		.word	.LC176
 2784 003c 84000000 		.word	.LC177
 2785              		.section	.rodata.str1.4,"aMS",%progbits,1
 2786              		.align	2
 2787              	.LC162:
 2788 0000 52454144 		.ascii	"READY\000"
 2788      5900
 2789 0006 0000     		.space	2
 2790              	.LC163:
 2791 0008 43555252 		.ascii	"CURRENT\000"
 2791      454E5400 
 2792              	.LC164:
 2793 0010 57545354 		.ascii	"WTSTART\000"
 2793      41525400 
 2794              	.LC165:
 2795 0018 53555350 		.ascii	"SUSPENDED\000"
 2795      454E4445 
 2795      4400
 2796 0022 0000     		.space	2
 2797              	.LC166:
 2798 0024 51554555 		.ascii	"QUEUED\000"
 2798      454400
 2799 002b 00       		.space	1
 2800              	.LC167:
 2801 002c 57545345 		.ascii	"WTSEM\000"
 2801      4D00
 2802 0032 0000     		.space	2
 2803              	.LC168:
 2804 0034 57544D54 		.ascii	"WTMTX\000"
 2804      5800
 2805 003a 0000     		.space	2
 2806              	.LC169:
 2807 003c 5754434F 		.ascii	"WTCOND\000"
 2807      4E4400
 2808 0043 00       		.space	1
 2809              	.LC170:
 2810 0044 534C4545 		.ascii	"SLEEPING\000"
 2810      50494E47 
 2810      00
 2811 004d 000000   		.space	3
 2812              	.LC171:
 2813 0050 57544558 		.ascii	"WTEXIT\000"
 2813      495400
 2814 0057 00       		.space	1
 2815              	.LC172:
 2816 0058 57544F52 		.ascii	"WTOREVT\000"
 2816      45565400 
 2817              	.LC173:
 2818 0060 5754414E 		.ascii	"WTANDEVT\000"
 2818      44455654 
 2818      00
 2819 0069 000000   		.space	3
ARM GAS  C:\Users\CHRIST~1\AppData\Local\Temp\ccVm3NB4.s 			page 51


 2820              	.LC174:
 2821 006c 534E444D 		.ascii	"SNDMSGQ\000"
 2821      53475100 
 2822              	.LC175:
 2823 0074 534E444D 		.ascii	"SNDMSG\000"
 2823      534700
 2824 007b 00       		.space	1
 2825              	.LC176:
 2826 007c 57544D53 		.ascii	"WTMSG\000"
 2826      4700
 2827 0082 0000     		.space	2
 2828              	.LC177:
 2829 0084 46494E41 		.ascii	"FINAL\000"
 2829      4C00
 2830              		.section	.rodata.terminal_process_string.str1.4,"aMS",%progbits,1
 2831              		.align	2
 2832              	.LC0:
 2833 0000 74727565 		.ascii	"true\000"
 2833      00
 2834 0005 000000   		.space	3
 2835              	.LC1:
 2836 0008 66616C73 		.ascii	"false\000"
 2836      6500
 2837 000e 0000     		.space	2
 2838              	.LC2:
 2839 0010 59657300 		.ascii	"Yes\000"
 2840              	.LC3:
 2841 0014 4E6F00   		.ascii	"No\000"
 2842 0017 00       		.space	1
 2843              	.LC4:
 2844 0018 2000     		.ascii	" \000"
 2845 001a 0000     		.space	2
 2846              	.LC5:
 2847 001c 4E6F2063 		.ascii	"No command received\012\000"
 2847      6F6D6D61 
 2847      6E642072 
 2847      65636569 
 2847      7665640A 
 2848 0031 000000   		.space	3
 2849              	.LC6:
 2850 0034 70696E67 		.ascii	"ping\000"
 2850      00
 2851 0039 000000   		.space	3
 2852              	.LC7:
 2853 003c 706F6E67 		.ascii	"pong\012\000"
 2853      0A00
 2854 0042 0000     		.space	2
 2855              	.LC8:
 2856 0044 73746F70 		.ascii	"stop\000"
 2856      00
 2857 0049 000000   		.space	3
 2858              	.LC9:
 2859 004c 4D6F746F 		.ascii	"Motor stopped\012\000"
 2859      72207374 
 2859      6F707065 
 2859      640A00
 2860 005b 00       		.space	1
ARM GAS  C:\Users\CHRIST~1\AppData\Local\Temp\ccVm3NB4.s 			page 52


 2861              	.LC10:
 2862 005c 6C617374 		.ascii	"last_adc_duration\000"
 2862      5F616463 
 2862      5F647572 
 2862      6174696F 
 2862      6E00
 2863 006e 0000     		.space	2
 2864              	.LC11:
 2865 0070 4C617465 		.ascii	"Latest ADC duration: %.4f ms\000"
 2865      73742041 
 2865      44432064 
 2865      75726174 
 2865      696F6E3A 
 2866 008d 000000   		.space	3
 2867              	.LC12:
 2868 0090 4C617465 		.ascii	"Latest injected ADC duration: %.4f ms\000"
 2868      73742069 
 2868      6E6A6563 
 2868      74656420 
 2868      41444320 
 2869 00b6 0000     		.space	2
 2870              	.LC13:
 2871 00b8 4C617465 		.ascii	"Latest sample ADC duration: %.4f ms\012\000"
 2871      73742073 
 2871      616D706C 
 2871      65204144 
 2871      43206475 
 2872 00dd 000000   		.space	3
 2873              	.LC14:
 2874 00e0 6B7600   		.ascii	"kv\000"
 2875 00e3 00       		.space	1
 2876              	.LC15:
 2877 00e4 43616C63 		.ascii	"Calculated KV: %.2f rpm/volt\012\000"
 2877      756C6174 
 2877      6564204B 
 2877      563A2025 
 2877      2E326620 
 2878 0102 0000     		.space	2
 2879              	.LC16:
 2880 0104 6D656D00 		.ascii	"mem\000"
 2881              	.LC17:
 2882 0108 636F7265 		.ascii	"core free memory : %u bytes\000"
 2882      20667265 
 2882      65206D65 
 2882      6D6F7279 
 2882      203A2025 
 2883              	.LC18:
 2884 0124 68656170 		.ascii	"heap fragments   : %u\000"
 2884      20667261 
 2884      676D656E 
 2884      74732020 
 2884      203A2025 
 2885 013a 0000     		.space	2
 2886              	.LC19:
 2887 013c 68656170 		.ascii	"heap free total  : %u bytes\012\000"
 2887      20667265 
 2887      6520746F 
ARM GAS  C:\Users\CHRIST~1\AppData\Local\Temp\ccVm3NB4.s 			page 53


 2887      74616C20 
 2887      203A2025 
 2888 0159 000000   		.space	3
 2889              	.LC20:
 2890 015c 74687265 		.ascii	"threads\000"
 2890      61647300 
 2891              	.LC21:
 2892 0164 20202020 		.ascii	"    addr    stack prio refs     state           nam"
 2892      61646472 
 2892      20202020 
 2892      73746163 
 2892      6B207072 
 2893 0197 65207469 		.ascii	"e time    \000"
 2893      6D652020 
 2893      202000
 2894 01a2 0000     		.space	2
 2895              	.LC22:
 2896 01a4 2D2D2D2D 		.ascii	"---------------------------------------------------"
 2896      2D2D2D2D 
 2896      2D2D2D2D 
 2896      2D2D2D2D 
 2896      2D2D2D2D 
 2897 01d7 2D2D2D2D 		.ascii	"----------\000"
 2897      2D2D2D2D 
 2897      2D2D00
 2898 01e2 0000     		.space	2
 2899              	.LC23:
 2900 01e4 252E386C 		.ascii	"%.8lx %.8lx %4lu %4lu %9s %14s %lu\000"
 2900      7820252E 
 2900      386C7820 
 2900      25346C75 
 2900      2025346C 
 2901 0207 00       		.space	1
 2902              	.LC24:
 2903 0208 00       		.ascii	"\000"
 2904 0209 000000   		.space	3
 2905              	.LC25:
 2906 020c 6661756C 		.ascii	"fault\000"
 2906      7400
 2907 0212 0000     		.space	2
 2908              	.LC26:
 2909 0214 25730A00 		.ascii	"%s\012\000"
 2910              	.LC27:
 2911 0218 6661756C 		.ascii	"faults\000"
 2911      747300
 2912 021f 00       		.space	1
 2913              	.LC28:
 2914 0220 4E6F2066 		.ascii	"No faults registered since startup\012\000"
 2914      61756C74 
 2914      73207265 
 2914      67697374 
 2914      65726564 
 2915              	.LC29:
 2916 0244 54686520 		.ascii	"The following faults were registered since start:\012"
 2916      666F6C6C 
 2916      6F77696E 
 2916      67206661 
ARM GAS  C:\Users\CHRIST~1\AppData\Local\Temp\ccVm3NB4.s 			page 54


 2916      756C7473 
 2917 0276 00       		.ascii	"\000"
 2918 0277 00       		.space	1
 2919              	.LC30:
 2920 0278 4661756C 		.ascii	"Fault            : %s\000"
 2920      74202020 
 2920      20202020 
 2920      20202020 
 2920      203A2025 
 2921 028e 0000     		.space	2
 2922              	.LC31:
 2923 0290 43757272 		.ascii	"Current          : %.1f\000"
 2923      656E7420 
 2923      20202020 
 2923      20202020 
 2923      203A2025 
 2924              	.LC32:
 2925 02a8 43757272 		.ascii	"Current filtered : %.1f\000"
 2925      656E7420 
 2925      66696C74 
 2925      65726564 
 2925      203A2025 
 2926              	.LC33:
 2927 02c0 566F6C74 		.ascii	"Voltage          : %.2f\000"
 2927      61676520 
 2927      20202020 
 2927      20202020 
 2927      203A2025 
 2928              	.LC34:
 2929 02d8 44757479 		.ascii	"Duty             : %.3f\000"
 2929      20202020 
 2929      20202020 
 2929      20202020 
 2929      203A2025 
 2930              	.LC35:
 2931 02f0 52504D20 		.ascii	"RPM              : %.1f\000"
 2931      20202020 
 2931      20202020 
 2931      20202020 
 2931      203A2025 
 2932              	.LC36:
 2933 0308 54616368 		.ascii	"Tacho            : %d\000"
 2933      6F202020 
 2933      20202020 
 2933      20202020 
 2933      203A2025 
 2934 031e 0000     		.space	2
 2935              	.LC37:
 2936 0320 4379636C 		.ascii	"Cycles running   : %d\000"
 2936      65732072 
 2936      756E6E69 
 2936      6E672020 
 2936      203A2025 
 2937 0336 0000     		.space	2
 2938              	.LC38:
 2939 0338 54494D20 		.ascii	"TIM duty         : %d\000"
 2939      64757479 
ARM GAS  C:\Users\CHRIST~1\AppData\Local\Temp\ccVm3NB4.s 			page 55


 2939      20202020 
 2939      20202020 
 2939      203A2025 
 2940 034e 0000     		.space	2
 2941              	.LC39:
 2942 0350 54494D20 		.ascii	"TIM val samp     : %d\000"
 2942      76616C20 
 2942      73616D70 
 2942      20202020 
 2942      203A2025 
 2943 0366 0000     		.space	2
 2944              	.LC40:
 2945 0368 54494D20 		.ascii	"TIM current samp : %d\000"
 2945      63757272 
 2945      656E7420 
 2945      73616D70 
 2945      203A2025 
 2946 037e 0000     		.space	2
 2947              	.LC41:
 2948 0380 54494D20 		.ascii	"TIM top          : %d\000"
 2948      746F7020 
 2948      20202020 
 2948      20202020 
 2948      203A2025 
 2949 0396 0000     		.space	2
 2950              	.LC42:
 2951 0398 436F6D6D 		.ascii	"Comm step        : %d\000"
 2951      20737465 
 2951      70202020 
 2951      20202020 
 2951      203A2025 
 2952 03ae 0000     		.space	2
 2953              	.LC43:
 2954 03b0 54656D70 		.ascii	"Temperature      : %.2f\000"
 2954      65726174 
 2954      75726520 
 2954      20202020 
 2954      203A2025 
 2955              	.LC44:
 2956 03c8 72706D00 		.ascii	"rpm\000"
 2957              	.LC45:
 2958 03cc 456C6563 		.ascii	"Electrical RPM: %.2f rpm\012\000"
 2958      74726963 
 2958      616C2052 
 2958      504D3A20 
 2958      252E3266 
 2959 03e6 0000     		.space	2
 2960              	.LC46:
 2961 03e8 74616368 		.ascii	"tacho\000"
 2961      6F00
 2962 03ee 0000     		.space	2
 2963              	.LC47:
 2964 03f0 54616368 		.ascii	"Tachometer counts: %i\012\000"
 2964      6F6D6574 
 2964      65722063 
 2964      6F756E74 
 2964      733A2025 
ARM GAS  C:\Users\CHRIST~1\AppData\Local\Temp\ccVm3NB4.s 			page 56


 2965 0407 00       		.space	1
 2966              	.LC48:
 2967 0408 74696D00 		.ascii	"tim\000"
 2968              	.LC49:
 2969 040c 54696D31 		.ascii	"Tim1 CNT: %i\000"
 2969      20434E54 
 2969      3A202569 
 2969      00
 2970 0419 000000   		.space	3
 2971              	.LC50:
 2972 041c 54696D38 		.ascii	"Tim8 CNT: %u\000"
 2972      20434E54 
 2972      3A202575 
 2972      00
 2973 0429 000000   		.space	3
 2974              	.LC51:
 2975 042c 44757479 		.ascii	"Duty cycle1: %u\000"
 2975      20637963 
 2975      6C65313A 
 2975      20257500 
 2976              	.LC52:
 2977 043c 44757479 		.ascii	"Duty cycle2: %u\000"
 2977      20637963 
 2977      6C65323A 
 2977      20257500 
 2978              	.LC53:
 2979 044c 44757479 		.ascii	"Duty cycle3: %u\000"
 2979      20637963 
 2979      6C65333A 
 2979      20257500 
 2980              	.LC54:
 2981 045c 546F703A 		.ascii	"Top: %u\000"
 2981      20257500 
 2982              	.LC55:
 2983 0464 44697231 		.ascii	"Dir1: %u\000"
 2983      3A202575 
 2983      00
 2984 046d 000000   		.space	3
 2985              	.LC56:
 2986 0470 44697238 		.ascii	"Dir8: %u\000"
 2986      3A202575 
 2986      00
 2987 0479 000000   		.space	3
 2988              	.LC57:
 2989 047c 566F6C74 		.ascii	"Voltage sample: %u\000"
 2989      61676520 
 2989      73616D70 
 2989      6C653A20 
 2989      257500
 2990 048f 00       		.space	1
 2991              	.LC58:
 2992 0490 43757272 		.ascii	"Current 1 sample: %u\000"
 2992      656E7420 
 2992      31207361 
 2992      6D706C65 
 2992      3A202575 
 2993 04a5 000000   		.space	3
ARM GAS  C:\Users\CHRIST~1\AppData\Local\Temp\ccVm3NB4.s 			page 57


 2994              	.LC59:
 2995 04a8 43757272 		.ascii	"Current 2 sample: %u\012\000"
 2995      656E7420 
 2995      32207361 
 2995      6D706C65 
 2995      3A202575 
 2996 04be 0000     		.space	2
 2997              	.LC60:
 2998 04c0 766F6C74 		.ascii	"volt\000"
 2998      00
 2999 04c5 000000   		.space	3
 3000              	.LC61:
 3001 04c8 496E7075 		.ascii	"Input voltage: %.2f\012\000"
 3001      7420766F 
 3001      6C746167 
 3001      653A2025 
 3001      2E32660A 
 3002 04dd 000000   		.space	3
 3003              	.LC62:
 3004 04e0 70617261 		.ascii	"param_detect\000"
 3004      6D5F6465 
 3004      74656374 
 3004      00
 3005 04ed 000000   		.space	3
 3006              	.LC63:
 3007 04f0 256600   		.ascii	"%f\000"
 3008 04f3 00       		.space	1
 3009              	.LC64:
 3010 04f4 4379636C 		.ascii	"Cycle integrator limit: %.2f\000"
 3010      6520696E 
 3010      74656772 
 3010      61746F72 
 3010      206C696D 
 3011 0511 000000   		.space	3
 3012              	.LC65:
 3013 0514 436F7570 		.ascii	"Coupling factor: %.2f\000"
 3013      6C696E67 
 3013      20666163 
 3013      746F723A 
 3013      20252E32 
 3014 052a 0000     		.space	2
 3015              	.LC66:
 3016 052c 44657465 		.ascii	"Detected hall sensor table:\000"
 3016      63746564 
 3016      2068616C 
 3016      6C207365 
 3016      6E736F72 
 3017              	.LC67:
 3018 0548 25692C20 		.ascii	"%i, %i, %i, %i, %i, %i, %i, %i\012\000"
 3018      25692C20 
 3018      25692C20 
 3018      25692C20 
 3018      25692C20 
 3019              	.LC68:
 3020 0568 48616C6C 		.ascii	"Hall sensor detection failed:\000"
 3020      2073656E 
 3020      736F7220 
ARM GAS  C:\Users\CHRIST~1\AppData\Local\Temp\ccVm3NB4.s 			page 58


 3020      64657465 
 3020      6374696F 
 3021 0586 0000     		.space	2
 3022              	.LC69:
 3023 0588 57533238 		.ascii	"WS2811 enabled. Hall sensors cannot be used.\012\000"
 3023      31312065 
 3023      6E61626C 
 3023      65642E20 
 3023      48616C6C 
 3024 05b6 0000     		.space	2
 3025              	.LC70:
 3026 05b8 456E636F 		.ascii	"Encoder enabled. Hall sensors cannot be used.\012\000"
 3026      64657220 
 3026      656E6162 
 3026      6C65642E 
 3026      2048616C 
 3027 05e7 00       		.space	1
 3028              	.LC71:
 3029 05e8 44657465 		.ascii	"Detection failed. Try again with different paramete"
 3029      6374696F 
 3029      6E206661 
 3029      696C6564 
 3029      2E205472 
 3030 061b 72732E0A 		.ascii	"rs.\012\000"
 3030      00
 3031              	.LC72:
 3032 0620 496E7661 		.ascii	"Invalid argument(s).\012\000"
 3032      6C696420 
 3032      61726775 
 3032      6D656E74 
 3032      2873292E 
 3033 0636 0000     		.space	2
 3034              	.LC73:
 3035 0638 54686973 		.ascii	"This command requires three arguments.\012\000"
 3035      20636F6D 
 3035      6D616E64 
 3035      20726571 
 3035      75697265 
 3036              	.LC74:
 3037 0660 72706D5F 		.ascii	"rpm_dep\000"
 3037      64657000 
 3038              	.LC75:
 3039 0668 4379636C 		.ascii	"Cycle int limit: %.2f\000"
 3039      6520696E 
 3039      74206C69 
 3039      6D69743A 
 3039      20252E32 
 3040 067e 0000     		.space	2
 3041              	.LC76:
 3042 0680 4379636C 		.ascii	"Cycle int limit running: %.2f\000"
 3042      6520696E 
 3042      74206C69 
 3042      6D697420 
 3042      72756E6E 
 3043 069e 0000     		.space	2
 3044              	.LC77:
 3045 06a0 4379636C 		.ascii	"Cycle int limit max: %.2f\012\000"
ARM GAS  C:\Users\CHRIST~1\AppData\Local\Temp\ccVm3NB4.s 			page 59


 3045      6520696E 
 3045      74206C69 
 3045      6D697420 
 3045      6D61783A 
 3046 06bb 00       		.space	1
 3047              	.LC78:
 3048 06bc 63616E5F 		.ascii	"can_devs\000"
 3048      64657673 
 3048      00
 3049 06c5 000000   		.space	3
 3050              	.LC79:
 3051 06c8 43414E20 		.ascii	"CAN devices seen on the bus the past second:\012\000"
 3051      64657669 
 3051      63657320 
 3051      7365656E 
 3051      206F6E20 
 3052 06f6 0000     		.space	2
 3053              	.LC80:
 3054 06f8 49442020 		.ascii	"ID                 : %i\000"
 3054      20202020 
 3054      20202020 
 3054      20202020 
 3054      2020203A 
 3055              	.LC81:
 3056 0710 52582054 		.ascii	"RX Time            : %i\000"
 3056      696D6520 
 3056      20202020 
 3056      20202020 
 3056      2020203A 
 3057              	.LC82:
 3058 0728 41676520 		.ascii	"Age (milliseconds) : %.2f\000"
 3058      286D696C 
 3058      6C697365 
 3058      636F6E64 
 3058      7329203A 
 3059 0742 0000     		.space	2
 3060              	.LC83:
 3061 0744 52504D20 		.ascii	"RPM                : %.2f\000"
 3061      20202020 
 3061      20202020 
 3061      20202020 
 3061      2020203A 
 3062 075e 0000     		.space	2
 3063              	.LC84:
 3064 0760 43757272 		.ascii	"Current            : %.2f\000"
 3064      656E7420 
 3064      20202020 
 3064      20202020 
 3064      2020203A 
 3065 077a 0000     		.space	2
 3066              	.LC85:
 3067 077c 44757479 		.ascii	"Duty               : %.2f\012\000"
 3067      20202020 
 3067      20202020 
 3067      20202020 
 3067      2020203A 
 3068 0797 00       		.space	1
ARM GAS  C:\Users\CHRIST~1\AppData\Local\Temp\ccVm3NB4.s 			page 60


 3069              	.LC86:
 3070 0798 666F635F 		.ascii	"foc_encoder_detect\000"
 3070      656E636F 
 3070      6465725F 
 3070      64657465 
 3070      637400
 3071 07ab 00       		.space	1
 3072              	.LC87:
 3073 07ac 4F666673 		.ascii	"Offset   : %.2f\000"
 3073      65742020 
 3073      203A2025 
 3073      2E326600 
 3074              	.LC88:
 3075 07bc 52617469 		.ascii	"Ratio    : %.2f\000"
 3075      6F202020 
 3075      203A2025 
 3075      2E326600 
 3076              	.LC89:
 3077 07cc 496E7665 		.ascii	"Inverted : %s\012\000"
 3077      72746564 
 3077      203A2025 
 3077      730A00
 3078 07db 00       		.space	1
 3079              	.LC90:
 3080 07dc 456E636F 		.ascii	"Encoder not enabled.\012\000"
 3080      64657220 
 3080      6E6F7420 
 3080      656E6162 
 3080      6C65642E 
 3081 07f2 0000     		.space	2
 3082              	.LC91:
 3083 07f4 54686973 		.ascii	"This command requires one argument.\012\000"
 3083      20636F6D 
 3083      6D616E64 
 3083      20726571 
 3083      75697265 
 3084 0819 000000   		.space	3
 3085              	.LC92:
 3086 081c 6D656173 		.ascii	"measure_res\000"
 3086      7572655F 
 3086      72657300 
 3087              	.LC93:
 3088 0828 52657369 		.ascii	"Resistance: %.6f ohm\012\000"
 3088      7374616E 
 3088      63653A20 
 3088      252E3666 
 3088      206F686D 
 3089 083e 0000     		.space	2
 3090              	.LC94:
 3091 0840 6D656173 		.ascii	"measure_ind\000"
 3091      7572655F 
 3091      696E6400 
 3092              	.LC95:
 3093 084c 496E6475 		.ascii	"Inductance: %.2f microhenry (%.2f A)\012\000"
 3093      6374616E 
 3093      63653A20 
 3093      252E3266 
ARM GAS  C:\Users\CHRIST~1\AppData\Local\Temp\ccVm3NB4.s 			page 61


 3093      206D6963 
 3094 0872 0000     		.space	2
 3095              	.LC96:
 3096 0874 6D656173 		.ascii	"measure_linkage\000"
 3096      7572655F 
 3096      6C696E6B 
 3096      61676500 
 3097              	.LC97:
 3098 0884 466C7578 		.ascii	"Flux linkage: %.7f\012\000"
 3098      206C696E 
 3098      6B616765 
 3098      3A20252E 
 3098      37660A00 
 3099              	.LC98:
 3100 0898 6D656173 		.ascii	"measure_res_ind\000"
 3100      7572655F 
 3100      7265735F 
 3100      696E6400 
 3101              	.LC99:
 3102 08a8 52657369 		.ascii	"Resistance: %.6f ohm\000"
 3102      7374616E 
 3102      63653A20 
 3102      252E3666 
 3102      206F686D 
 3103 08bd 000000   		.space	3
 3104              	.LC100:
 3105 08c0 496E6475 		.ascii	"Inductance: %.2f microhenry\012\000"
 3105      6374616E 
 3105      63653A20 
 3105      252E3266 
 3105      206D6963 
 3106 08dd 000000   		.space	3
 3107              	.LC101:
 3108 08e0 6D656173 		.ascii	"measure_linkage_foc\000"
 3108      7572655F 
 3108      6C696E6B 
 3108      6167655F 
 3108      666F6300 
 3109              	.LC102:
 3110 08f4 666F635F 		.ascii	"foc_state\000"
 3110      73746174 
 3110      6500
 3111 08fe 0000     		.space	2
 3112              	.LC103:
 3113 0900 68775F73 		.ascii	"hw_status\000"
 3113      74617475 
 3113      7300
 3114 090a 0000     		.space	2
 3115              	.LC104:
 3116 090c 4669726D 		.ascii	"Firmware: %d.%d\000"
 3116      77617265 
 3116      3A202564 
 3116      2E256400 
 3117              	.LC105:
 3118 091c 34313000 		.ascii	"410\000"
 3119              	.LC106:
 3120 0920 48617264 		.ascii	"Hardware: %s\000"
ARM GAS  C:\Users\CHRIST~1\AppData\Local\Temp\ccVm3NB4.s 			page 62


 3120      77617265 
 3120      3A202573 
 3120      00
 3121 092d 000000   		.space	3
 3122              	.LC107:
 3123 0930 55554944 		.ascii	"UUID: %02X %02X %02X %02X %02X %02X %02X %02X %02X "
 3123      3A202530 
 3123      32582025 
 3123      30325820 
 3123      25303258 
 3124 0963 25303258 		.ascii	"%02X %02X %02X\000"
 3124      20253032 
 3124      58202530 
 3124      325800
 3125 0972 0000     		.space	2
 3126              	.LC108:
 3127 0974 5065726D 		.ascii	"Permanent NRF found: %s\000"
 3127      616E656E 
 3127      74204E52 
 3127      4620666F 
 3127      756E643A 
 3128              	.LC109:
 3129 098c 64727638 		.ascii	"drv8301_read_reg\000"
 3129      3330315F 
 3129      72656164 
 3129      5F726567 
 3129      00
 3130 099d 000000   		.space	3
 3131              	.LC110:
 3132 09a0 54686973 		.ascii	"This hardware does not have a DRV8301.\012\000"
 3132      20686172 
 3132      64776172 
 3132      6520646F 
 3132      6573206E 
 3133              	.LC111:
 3134 09c8 64727638 		.ascii	"drv8301_write_reg\000"
 3134      3330315F 
 3134      77726974 
 3134      655F7265 
 3134      6700
 3135 09da 0000     		.space	2
 3136              	.LC112:
 3137 09dc 64727638 		.ascii	"drv8301_set_oc_adj\000"
 3137      3330315F 
 3137      7365745F 
 3137      6F635F61 
 3137      646A00
 3138 09ef 00       		.space	1
 3139              	.LC113:
 3140 09f0 64727638 		.ascii	"drv8301_print_faults\000"
 3140      3330315F 
 3140      7072696E 
 3140      745F6661 
 3140      756C7473 
 3141 0a05 000000   		.space	3
 3142              	.LC114:
 3143 0a08 64727638 		.ascii	"drv8301_reset_faults\000"
ARM GAS  C:\Users\CHRIST~1\AppData\Local\Temp\ccVm3NB4.s 			page 63


 3143      3330315F 
 3143      72657365 
 3143      745F6661 
 3143      756C7473 
 3144 0a1d 000000   		.space	3
 3145              	.LC115:
 3146 0a20 64727638 		.ascii	"drv8305_read_reg\000"
 3146      3330355F 
 3146      72656164 
 3146      5F726567 
 3146      00
 3147 0a31 000000   		.space	3
 3148              	.LC116:
 3149 0a34 54686973 		.ascii	"This hardware does not have a DRV8305.\012\000"
 3149      20686172 
 3149      64776172 
 3149      6520646F 
 3149      6573206E 
 3150              	.LC117:
 3151 0a5c 64727638 		.ascii	"drv8305_write_reg\000"
 3151      3330355F 
 3151      77726974 
 3151      655F7265 
 3151      6700
 3152 0a6e 0000     		.space	2
 3153              	.LC118:
 3154 0a70 666F635F 		.ascii	"foc_openloop\000"
 3154      6F70656E 
 3154      6C6F6F70 
 3154      00
 3155 0a7d 000000   		.space	3
 3156              	.LC119:
 3157 0a80 54686973 		.ascii	"This command requires two arguments.\012\000"
 3157      20636F6D 
 3157      6D616E64 
 3157      20726571 
 3157      75697265 
 3158 0aa6 0000     		.space	2
 3159              	.LC120:
 3160 0aa8 68656C70 		.ascii	"help\000"
 3160      00
 3161 0aad 000000   		.space	3
 3162              	.LC121:
 3163 0ab0 56616C69 		.ascii	"Valid commands are:\000"
 3163      6420636F 
 3163      6D6D616E 
 3163      64732061 
 3163      72653A00 
 3164              	.LC122:
 3165 0ac4 20205368 		.ascii	"  Show this help\000"
 3165      6F772074 
 3165      68697320 
 3165      68656C70 
 3165      00
 3166 0ad5 000000   		.space	3
 3167              	.LC123:
 3168 0ad8 20205072 		.ascii	"  Print pong here to see if the reply works\000"
ARM GAS  C:\Users\CHRIST~1\AppData\Local\Temp\ccVm3NB4.s 			page 64


 3168      696E7420 
 3168      706F6E67 
 3168      20686572 
 3168      6520746F 
 3169              	.LC124:
 3170 0b04 20205374 		.ascii	"  Stop the motor\000"
 3170      6F702074 
 3170      6865206D 
 3170      6F746F72 
 3170      00
 3171 0b15 000000   		.space	3
 3172              	.LC125:
 3173 0b18 20205468 		.ascii	"  The time the latest ADC interrupt consumed\000"
 3173      65207469 
 3173      6D652074 
 3173      6865206C 
 3173      61746573 
 3174 0b45 000000   		.space	3
 3175              	.LC126:
 3176 0b48 20205468 		.ascii	"  The calculated kv of the motor\000"
 3176      65206361 
 3176      6C63756C 
 3176      61746564 
 3176      206B7620 
 3177 0b69 000000   		.space	3
 3178              	.LC127:
 3179 0b6c 20205368 		.ascii	"  Show memory usage\000"
 3179      6F77206D 
 3179      656D6F72 
 3179      79207573 
 3179      61676500 
 3180              	.LC128:
 3181 0b80 20204C69 		.ascii	"  List all threads\000"
 3181      73742061 
 3181      6C6C2074 
 3181      68726561 
 3181      647300
 3182 0b93 00       		.space	1
 3183              	.LC129:
 3184 0b94 20205072 		.ascii	"  Prints the current fault code\000"
 3184      696E7473 
 3184      20746865 
 3184      20637572 
 3184      72656E74 
 3185              	.LC130:
 3186 0bb4 20205072 		.ascii	"  Prints all stored fault codes and conditions when"
 3186      696E7473 
 3186      20616C6C 
 3186      2073746F 
 3186      72656420 
 3187 0be7 20746865 		.ascii	" they arrived\000"
 3187      79206172 
 3187      72697665 
 3187      6400
 3188 0bf5 000000   		.space	3
 3189              	.LC131:
 3190 0bf8 20205072 		.ascii	"  Prints the current electrical RPM\000"
ARM GAS  C:\Users\CHRIST~1\AppData\Local\Temp\ccVm3NB4.s 			page 65


 3190      696E7473 
 3190      20746865 
 3190      20637572 
 3190      72656E74 
 3191              	.LC132:
 3192 0c1c 20205072 		.ascii	"  Prints tachometer value\000"
 3192      696E7473 
 3192      20746163 
 3192      686F6D65 
 3192      74657220 
 3193 0c36 0000     		.space	2
 3194              	.LC133:
 3195 0c38 20205072 		.ascii	"  Prints tim1 and tim8 settings\000"
 3195      696E7473 
 3195      2074696D 
 3195      3120616E 
 3195      64207469 
 3196              	.LC134:
 3197 0c58 20205072 		.ascii	"  Prints different voltages\000"
 3197      696E7473 
 3197      20646966 
 3197      66657265 
 3197      6E742076 
 3198              	.LC135:
 3199 0c74 70617261 		.ascii	"param_detect [current] [min_rpm] [low_duty]\000"
 3199      6D5F6465 
 3199      74656374 
 3199      205B6375 
 3199      7272656E 
 3200              	.LC136:
 3201 0ca0 20205370 		.ascii	"  Spin up the motor in COMM_MODE_DELAY and compute "
 3201      696E2075 
 3201      70207468 
 3201      65206D6F 
 3201      746F7220 
 3202 0cd3 69747320 		.ascii	"its parameters.\000"
 3202      70617261 
 3202      6D657465 
 3202      72732E00 
 3203 0ce3 00       		.space	1
 3204              	.LC137:
 3205 0ce4 20205468 		.ascii	"  This test should be performed without load on the"
 3205      69732074 
 3205      65737420 
 3205      73686F75 
 3205      6C642062 
 3206 0d17 206D6F74 		.ascii	" motor.\000"
 3206      6F722E00 
 3207 0d1f 00       		.space	1
 3208              	.LC138:
 3209 0d20 20204578 		.ascii	"  Example: param_detect 5.0 600 0.06\000"
 3209      616D706C 
 3209      653A2070 
 3209      6172616D 
 3209      5F646574 
 3210 0d45 000000   		.space	3
 3211              	.LC139:
ARM GAS  C:\Users\CHRIST~1\AppData\Local\Temp\ccVm3NB4.s 			page 66


 3212 0d48 20205072 		.ascii	"  Prints some rpm-dep values\000"
 3212      696E7473 
 3212      20736F6D 
 3212      65207270 
 3212      6D2D6465 
 3213 0d65 000000   		.space	3
 3214              	.LC140:
 3215 0d68 20205072 		.ascii	"  Prints all CAN devices seen on the bus the past s"
 3215      696E7473 
 3215      20616C6C 
 3215      2043414E 
 3215      20646576 
 3216 0d9b 65636F6E 		.ascii	"econd\000"
 3216      6400
 3217 0da1 000000   		.space	3
 3218              	.LC141:
 3219 0da4 666F635F 		.ascii	"foc_encoder_detect [current]\000"
 3219      656E636F 
 3219      6465725F 
 3219      64657465 
 3219      6374205B 
 3220 0dc1 000000   		.space	3
 3221              	.LC142:
 3222 0dc4 20205275 		.ascii	"  Run the motor at 1Hz on open loop and compute enc"
 3222      6E207468 
 3222      65206D6F 
 3222      746F7220 
 3222      61742031 
 3223 0df7 6F646572 		.ascii	"oder settings\000"
 3223      20736574 
 3223      74696E67 
 3223      7300
 3224 0e05 000000   		.space	3
 3225              	.LC143:
 3226 0e08 6D656173 		.ascii	"measure_res [current]\000"
 3226      7572655F 
 3226      72657320 
 3226      5B637572 
 3226      72656E74 
 3227 0e1e 0000     		.space	2
 3228              	.LC144:
 3229 0e20 20204C6F 		.ascii	"  Lock the motor with a current and calculate its r"
 3229      636B2074 
 3229      6865206D 
 3229      6F746F72 
 3229      20776974 
 3230 0e53 65736973 		.ascii	"esistance\000"
 3230      74616E63 
 3230      6500
 3231 0e5d 000000   		.space	3
 3232              	.LC145:
 3233 0e60 6D656173 		.ascii	"measure_ind [duty]\000"
 3233      7572655F 
 3233      696E6420 
 3233      5B647574 
 3233      795D00
 3234 0e73 00       		.space	1
ARM GAS  C:\Users\CHRIST~1\AppData\Local\Temp\ccVm3NB4.s 			page 67


 3235              	.LC146:
 3236 0e74 20205365 		.ascii	"  Send short voltage pulses, measure the current an"
 3236      6E642073 
 3236      686F7274 
 3236      20766F6C 
 3236      74616765 
 3237 0ea7 64206361 		.ascii	"d calculate the motor inductance\000"
 3237      6C63756C 
 3237      61746520 
 3237      74686520 
 3237      6D6F746F 
 3238              	.LC147:
 3239 0ec8 6D656173 		.ascii	"measure_linkage [current] [duty] [min_rpm] [motor_r"
 3239      7572655F 
 3239      6C696E6B 
 3239      61676520 
 3239      5B637572 
 3240 0efb 65735D00 		.ascii	"es]\000"
 3241 0eff 00       		.space	1
 3242              	.LC148:
 3243 0f00 20205275 		.ascii	"  Run the motor in BLDC delay mode and measure the "
 3243      6E207468 
 3243      65206D6F 
 3243      746F7220 
 3243      696E2042 
 3244 0f33 666C7578 		.ascii	"flux linkage\000"
 3244      206C696E 
 3244      6B616765 
 3244      00
 3245              	.LC149:
 3246 0f40 20206578 		.ascii	"  example measure_linkage 5 0.5 700 0.076\000"
 3246      616D706C 
 3246      65206D65 
 3246      61737572 
 3246      655F6C69 
 3247 0f6a 0000     		.space	2
 3248              	.LC150:
 3249 0f6c 20207469 		.ascii	"  tip: measure the resistance with measure_res firs"
 3249      703A206D 
 3249      65617375 
 3249      72652074 
 3249      68652072 
 3250 0f9f 7400     		.ascii	"t\000"
 3251 0fa1 000000   		.space	3
 3252              	.LC151:
 3253 0fa4 20204D65 		.ascii	"  Measure the motor resistance and inductance with "
 3253      61737572 
 3253      65207468 
 3253      65206D6F 
 3253      746F7220 
 3254 0fd7 616E2069 		.ascii	"an incremental adaptive algorithm.\000"
 3254      6E637265 
 3254      6D656E74 
 3254      616C2061 
 3254      64617074 
 3255 0ffa 0000     		.space	2
 3256              	.LC152:
ARM GAS  C:\Users\CHRIST~1\AppData\Local\Temp\ccVm3NB4.s 			page 68


 3257 0ffc 6D656173 		.ascii	"measure_linkage_foc [duty]\000"
 3257      7572655F 
 3257      6C696E6B 
 3257      6167655F 
 3257      666F6320 
 3258 1017 00       		.space	1
 3259              	.LC153:
 3260 1018 20205275 		.ascii	"  Run the motor with FOC and measure the flux linka"
 3260      6E207468 
 3260      65206D6F 
 3260      746F7220 
 3260      77697468 
 3261 104b 67652E00 		.ascii	"ge.\000"
 3262 104f 00       		.space	1
 3263              	.LC154:
 3264 1050 20205072 		.ascii	"  Print some FOC state variables.\000"
 3264      696E7420 
 3264      736F6D65 
 3264      20464F43 
 3264      20737461 
 3265 1072 0000     		.space	2
 3266              	.LC155:
 3267 1074 20205072 		.ascii	"  Print some hardware status information.\000"
 3267      696E7420 
 3267      736F6D65 
 3267      20686172 
 3267      64776172 
 3268 109e 0000     		.space	2
 3269              	.LC156:
 3270 10a0 666F635F 		.ascii	"foc_openloop [current] [erpm]\000"
 3270      6F70656E 
 3270      6C6F6F70 
 3270      205B6375 
 3270      7272656E 
 3271 10be 0000     		.space	2
 3272              	.LC157:
 3273 10c0 20204372 		.ascii	"  Create an open loop rotating current vector.\000"
 3273      65617465 
 3273      20616E20 
 3273      6F70656E 
 3273      206C6F6F 
 3274 10ef 00       		.space	1
 3275              	.LC158:
 3276 10f0 25732025 		.ascii	"%s %s\000"
 3276      7300
 3277 10f6 0000     		.space	2
 3278              	.LC159:
 3279 10f8 20202573 		.ascii	"  %s\000"
 3279      00
 3280 10fd 000000   		.space	3
 3281              	.LC160:
 3282 1100 20205468 		.ascii	"  There is no help available for this command.\000"
 3282      65726520 
 3282      6973206E 
 3282      6F206865 
 3282      6C702061 
 3283 112f 00       		.space	1
ARM GAS  C:\Users\CHRIST~1\AppData\Local\Temp\ccVm3NB4.s 			page 69


 3284              	.LC161:
 3285 1130 496E7661 		.ascii	"Invalid command: %s\012type help to list all availa"
 3285      6C696420 
 3285      636F6D6D 
 3285      616E643A 
 3285      2025730A 
 3286 1160 626C6520 		.ascii	"ble commands\012\000"
 3286      636F6D6D 
 3286      616E6473 
 3286      0A00
 3287              		.text
 3288              	.Letext0:
 3289              		.file 4 "c:\\program files (x86)\\gnu tools arm embedded\\6 2017-q2-update\\lib\\gcc\\arm-none-eab
 3290              		.file 5 "c:\\program files (x86)\\gnu tools arm embedded\\6 2017-q2-update\\arm-none-eabi\\include
 3291              		.file 6 "c:\\program files (x86)\\gnu tools arm embedded\\6 2017-q2-update\\arm-none-eabi\\include
 3292              		.file 7 "ChibiOS_3.0.2/os/rt/ports/ARMCMx/compilers/GCC/chtypes.h"
 3293              		.file 8 "ChibiOS_3.0.2/os/rt/include/chsystypes.h"
 3294              		.file 9 "ChibiOS_3.0.2/os/rt/include/chschd.h"
 3295              		.file 10 "ChibiOS_3.0.2/os/ext/CMSIS/include/core_cm4.h"
 3296              		.file 11 "ChibiOS_3.0.2/os/ext/CMSIS/ST/system_stm32f4xx.h"
 3297              		.file 12 "ChibiOS_3.0.2/os/ext/CMSIS/ST/stm32f407xx.h"
 3298              		.file 13 "ChibiOS_3.0.2/os/rt/ports/ARMCMx/chcore.h"
 3299              		.file 14 "ChibiOS_3.0.2/os/rt/ports/ARMCMx/chcore_v7m.h"
 3300              		.file 15 "ChibiOS_3.0.2/os/rt/include/chtm.h"
 3301              		.file 16 "ChibiOS_3.0.2/os/rt/include/chsem.h"
 3302              		.file 17 "ChibiOS_3.0.2/os/rt/include/chmtx.h"
 3303              		.file 18 "ChibiOS_3.0.2/os/rt/include/chregistry.h"
 3304              		.file 19 "ChibiOS_3.0.2/os/rt/include/chevents.h"
 3305              		.file 20 "ChibiOS_3.0.2/os/rt/include/chqueues.h"
 3306              		.file 21 "./datatypes.h"
 3307              		.file 22 "./conf_general.h"
 3308              		.file 23 "ChibiOS_3.0.2/os/hal/ports/STM32/STM32F4xx/stm32_dma.h"
 3309              		.file 24 "ChibiOS_3.0.2/os/hal/ports/STM32/LLD/GPIOv2/pal_lld.h"
 3310              		.file 25 "ChibiOS_3.0.2/os/hal/include/can.h"
 3311              		.file 26 "ChibiOS_3.0.2/os/hal/ports/STM32/LLD/can_lld.h"
 3312              		.file 27 "ChibiOS_3.0.2/os/hal/include/i2c.h"
 3313              		.file 28 "ChibiOS_3.0.2/os/hal/ports/STM32/LLD/I2Cv1/i2c_lld.h"
 3314              		.file 29 "ChibiOS_3.0.2/os/hal/include/icu.h"
 3315              		.file 30 "ChibiOS_3.0.2/os/hal/ports/STM32/LLD/TIMv1/icu_lld.h"
 3316              		.file 31 "ChibiOS_3.0.2/os/hal/ports/STM32/LLD/TIMv1/stm32_tim.h"
 3317              		.file 32 "ChibiOS_3.0.2/os/hal/include/spi.h"
 3318              		.file 33 "ChibiOS_3.0.2/os/hal/ports/STM32/LLD/SPIv1/spi_lld.h"
 3319              		.file 34 "ChibiOS_3.0.2/os/hal/include/uart.h"
 3320              		.file 35 "ChibiOS_3.0.2/os/hal/ports/STM32/LLD/USARTv1/uart_lld.h"
 3321              		.file 36 "ChibiOS_3.0.2/os/hal/include/usb.h"
 3322              		.file 37 "ChibiOS_3.0.2/os/hal/ports/STM32/LLD/OTGv1/usb_lld.h"
 3323              		.file 38 "ChibiOS_3.0.2/os/hal/ports/STM32/LLD/OTGv1/stm32_otg.h"
 3324              		.file 39 "mcpwm.h"
 3325              		.file 40 "mc_interface.h"
 3326              		.file 41 "c:\\program files (x86)\\gnu tools arm embedded\\6 2017-q2-update\\arm-none-eabi\\includ
 3327              		.file 42 "c:\\program files (x86)\\gnu tools arm embedded\\6 2017-q2-update\\arm-none-eabi\\includ
 3328              		.file 43 "c:\\program files (x86)\\gnu tools arm embedded\\6 2017-q2-update\\arm-none-eabi\\includ
 3329              		.file 44 "c:\\program files (x86)\\gnu tools arm embedded\\6 2017-q2-update\\arm-none-eabi\\includ
 3330              		.file 45 "ChibiOS_3.0.2/os/rt/include/chsys.h"
 3331              		.file 46 "c:\\program files (x86)\\gnu tools arm embedded\\6 2017-q2-update\\arm-none-eabi\\includ
 3332              		.file 47 "ChibiOS_3.0.2/os/rt/include/chheap.h"
 3333              		.file 48 "ChibiOS_3.0.2/os/rt/include/chmemcore.h"
ARM GAS  C:\Users\CHRIST~1\AppData\Local\Temp\ccVm3NB4.s 			page 70


 3334              		.file 49 "commands.h"
 3335              		.file 50 "c:\\program files (x86)\\gnu tools arm embedded\\6 2017-q2-update\\arm-none-eabi\\includ
 3336              		.file 51 "comm_can.h"
 3337              		.file 52 "mcpwm_foc.h"
 3338              		.file 53 "encoder.h"
 3339              		.file 54 "ChibiOS_3.0.2/os/rt/include/chthreads.h"
 3340              		.file 55 "timeout.h"
 3341              		.section	.debug_info,"",%progbits
 3342              	.Ldebug_info0:
 3343 0000 45560000 		.4byte	0x5645
 3344 0004 0400     		.2byte	0x4
 3345 0006 00000000 		.4byte	.Ldebug_abbrev0
 3346 000a 04       		.byte	0x4
 3347 000b 01       		.uleb128 0x1
 3348 000c FF070000 		.4byte	.LASF903
 3349 0010 0C       		.byte	0xc
 3350 0011 520A0000 		.4byte	.LASF904
 3351 0015 5B060000 		.4byte	.LASF905
 3352 0019 98010000 		.4byte	.Ldebug_ranges0+0x198
 3353 001d 00000000 		.4byte	0
 3354 0021 00000000 		.4byte	.Ldebug_line0
 3355 0025 02       		.uleb128 0x2
 3356 0026 04       		.byte	0x4
 3357 0027 04       		.byte	0x4
 3358 0028 D10A0000 		.4byte	.LASF0
 3359 002c 03       		.uleb128 0x3
 3360 002d 04       		.byte	0x4
 3361 002e 05       		.byte	0x5
 3362 002f 696E7400 		.ascii	"int\000"
 3363 0033 04       		.uleb128 0x4
 3364 0034 2C000000 		.4byte	0x2c
 3365 0038 05       		.uleb128 0x5
 3366 0039 D50E0000 		.4byte	.LASF2
 3367 003d 04       		.byte	0x4
 3368 003e D8       		.byte	0xd8
 3369 003f 48000000 		.4byte	0x48
 3370 0043 04       		.uleb128 0x4
 3371 0044 38000000 		.4byte	0x38
 3372 0048 02       		.uleb128 0x2
 3373 0049 04       		.byte	0x4
 3374 004a 07       		.byte	0x7
 3375 004b 35290000 		.4byte	.LASF1
 3376 004f 05       		.uleb128 0x5
 3377 0050 86280000 		.4byte	.LASF3
 3378 0054 05       		.byte	0x5
 3379 0055 29       		.byte	0x29
 3380 0056 5A000000 		.4byte	0x5a
 3381 005a 02       		.uleb128 0x2
 3382 005b 01       		.byte	0x1
 3383 005c 06       		.byte	0x6
 3384 005d 12170000 		.4byte	.LASF4
 3385 0061 05       		.uleb128 0x5
 3386 0062 10010000 		.4byte	.LASF5
 3387 0066 05       		.byte	0x5
 3388 0067 2B       		.byte	0x2b
 3389 0068 6C000000 		.4byte	0x6c
 3390 006c 02       		.uleb128 0x2
ARM GAS  C:\Users\CHRIST~1\AppData\Local\Temp\ccVm3NB4.s 			page 71


 3391 006d 01       		.byte	0x1
 3392 006e 08       		.byte	0x8
 3393 006f 3C0A0000 		.4byte	.LASF6
 3394 0073 02       		.uleb128 0x2
 3395 0074 02       		.byte	0x2
 3396 0075 05       		.byte	0x5
 3397 0076 97290000 		.4byte	.LASF7
 3398 007a 05       		.uleb128 0x5
 3399 007b 86070000 		.4byte	.LASF8
 3400 007f 05       		.byte	0x5
 3401 0080 39       		.byte	0x39
 3402 0081 85000000 		.4byte	0x85
 3403 0085 02       		.uleb128 0x2
 3404 0086 02       		.byte	0x2
 3405 0087 07       		.byte	0x7
 3406 0088 FF160000 		.4byte	.LASF9
 3407 008c 05       		.uleb128 0x5
 3408 008d E4200000 		.4byte	.LASF10
 3409 0091 05       		.byte	0x5
 3410 0092 4D       		.byte	0x4d
 3411 0093 97000000 		.4byte	0x97
 3412 0097 02       		.uleb128 0x2
 3413 0098 04       		.byte	0x4
 3414 0099 05       		.byte	0x5
 3415 009a 9E190000 		.4byte	.LASF11
 3416 009e 05       		.uleb128 0x5
 3417 009f EE200000 		.4byte	.LASF12
 3418 00a3 05       		.byte	0x5
 3419 00a4 4F       		.byte	0x4f
 3420 00a5 A9000000 		.4byte	0xa9
 3421 00a9 02       		.uleb128 0x2
 3422 00aa 04       		.byte	0x4
 3423 00ab 07       		.byte	0x7
 3424 00ac 751B0000 		.4byte	.LASF13
 3425 00b0 02       		.uleb128 0x2
 3426 00b1 08       		.byte	0x8
 3427 00b2 05       		.byte	0x5
 3428 00b3 12260000 		.4byte	.LASF14
 3429 00b7 05       		.uleb128 0x5
 3430 00b8 6B120000 		.4byte	.LASF15
 3431 00bc 05       		.byte	0x5
 3432 00bd 69       		.byte	0x69
 3433 00be C2000000 		.4byte	0xc2
 3434 00c2 02       		.uleb128 0x2
 3435 00c3 08       		.byte	0x8
 3436 00c4 07       		.byte	0x7
 3437 00c5 1E230000 		.4byte	.LASF16
 3438 00c9 05       		.uleb128 0x5
 3439 00ca AC150000 		.4byte	.LASF17
 3440 00ce 06       		.byte	0x6
 3441 00cf 14       		.byte	0x14
 3442 00d0 4F000000 		.4byte	0x4f
 3443 00d4 05       		.uleb128 0x5
 3444 00d5 0F0F0000 		.4byte	.LASF18
 3445 00d9 06       		.byte	0x6
 3446 00da 18       		.byte	0x18
 3447 00db 61000000 		.4byte	0x61
ARM GAS  C:\Users\CHRIST~1\AppData\Local\Temp\ccVm3NB4.s 			page 72


 3448 00df 06       		.uleb128 0x6
 3449 00e0 D4000000 		.4byte	0xd4
 3450 00e4 05       		.uleb128 0x5
 3451 00e5 25020000 		.4byte	.LASF19
 3452 00e9 06       		.byte	0x6
 3453 00ea 24       		.byte	0x24
 3454 00eb 7A000000 		.4byte	0x7a
 3455 00ef 04       		.uleb128 0x4
 3456 00f0 E4000000 		.4byte	0xe4
 3457 00f4 05       		.uleb128 0x5
 3458 00f5 9F030000 		.4byte	.LASF20
 3459 00f9 06       		.byte	0x6
 3460 00fa 2C       		.byte	0x2c
 3461 00fb 8C000000 		.4byte	0x8c
 3462 00ff 04       		.uleb128 0x4
 3463 0100 F4000000 		.4byte	0xf4
 3464 0104 05       		.uleb128 0x5
 3465 0105 C31A0000 		.4byte	.LASF21
 3466 0109 06       		.byte	0x6
 3467 010a 30       		.byte	0x30
 3468 010b 9E000000 		.4byte	0x9e
 3469 010f 04       		.uleb128 0x4
 3470 0110 04010000 		.4byte	0x104
 3471 0114 05       		.uleb128 0x5
 3472 0115 070C0000 		.4byte	.LASF22
 3473 0119 06       		.byte	0x6
 3474 011a 3C       		.byte	0x3c
 3475 011b B7000000 		.4byte	0xb7
 3476 011f 05       		.uleb128 0x5
 3477 0120 030E0000 		.4byte	.LASF23
 3478 0124 07       		.byte	0x7
 3479 0125 45       		.byte	0x45
 3480 0126 04010000 		.4byte	0x104
 3481 012a 05       		.uleb128 0x5
 3482 012b 26140000 		.4byte	.LASF24
 3483 012f 07       		.byte	0x7
 3484 0130 48       		.byte	0x48
 3485 0131 D4000000 		.4byte	0xd4
 3486 0135 05       		.uleb128 0x5
 3487 0136 5E240000 		.4byte	.LASF25
 3488 013a 07       		.byte	0x7
 3489 013b 49       		.byte	0x49
 3490 013c D4000000 		.4byte	0xd4
 3491 0140 05       		.uleb128 0x5
 3492 0141 B3130000 		.4byte	.LASF26
 3493 0145 07       		.byte	0x7
 3494 0146 4A       		.byte	0x4a
 3495 0147 D4000000 		.4byte	0xd4
 3496 014b 05       		.uleb128 0x5
 3497 014c 6C160000 		.4byte	.LASF27
 3498 0150 07       		.byte	0x7
 3499 0151 4B       		.byte	0x4b
 3500 0152 D4000000 		.4byte	0xd4
 3501 0156 05       		.uleb128 0x5
 3502 0157 8A060000 		.4byte	.LASF28
 3503 015b 07       		.byte	0x7
 3504 015c 4C       		.byte	0x4c
ARM GAS  C:\Users\CHRIST~1\AppData\Local\Temp\ccVm3NB4.s 			page 73


 3505 015d 04010000 		.4byte	0x104
 3506 0161 05       		.uleb128 0x5
 3507 0162 79000000 		.4byte	.LASF29
 3508 0166 07       		.byte	0x7
 3509 0167 4D       		.byte	0x4d
 3510 0168 F4000000 		.4byte	0xf4
 3511 016c 05       		.uleb128 0x5
 3512 016d 3F1B0000 		.4byte	.LASF30
 3513 0171 07       		.byte	0x7
 3514 0172 4F       		.byte	0x4f
 3515 0173 04010000 		.4byte	0x104
 3516 0177 05       		.uleb128 0x5
 3517 0178 04270000 		.4byte	.LASF31
 3518 017c 07       		.byte	0x7
 3519 017d 50       		.byte	0x50
 3520 017e 04010000 		.4byte	0x104
 3521 0182 05       		.uleb128 0x5
 3522 0183 C81D0000 		.4byte	.LASF32
 3523 0187 07       		.byte	0x7
 3524 0188 51       		.byte	0x51
 3525 0189 F4000000 		.4byte	0xf4
 3526 018d 05       		.uleb128 0x5
 3527 018e C1030000 		.4byte	.LASF33
 3528 0192 08       		.byte	0x8
 3529 0193 33       		.byte	0x33
 3530 0194 04010000 		.4byte	0x104
 3531 0198 04       		.uleb128 0x4
 3532 0199 8D010000 		.4byte	0x18d
 3533 019d 05       		.uleb128 0x5
 3534 019e 62030000 		.4byte	.LASF34
 3535 01a2 08       		.byte	0x8
 3536 01a3 3F       		.byte	0x3f
 3537 01a4 A8010000 		.4byte	0x1a8
 3538 01a8 07       		.uleb128 0x7
 3539 01a9 960A0000 		.4byte	.LASF56
 3540 01ad 48       		.byte	0x48
 3541 01ae 09       		.byte	0x9
 3542 01af C2       		.byte	0xc2
 3543 01b0 AD020000 		.4byte	0x2ad
 3544 01b4 08       		.uleb128 0x8
 3545 01b5 20130000 		.4byte	.LASF35
 3546 01b9 09       		.byte	0x9
 3547 01ba C3       		.byte	0xc3
 3548 01bb B8020000 		.4byte	0x2b8
 3549 01bf 00       		.byte	0
 3550 01c0 08       		.uleb128 0x8
 3551 01c1 440F0000 		.4byte	.LASF36
 3552 01c5 09       		.byte	0x9
 3553 01c6 C5       		.byte	0xc5
 3554 01c7 B8020000 		.4byte	0x2b8
 3555 01cb 04       		.byte	0x4
 3556 01cc 08       		.uleb128 0x8
 3557 01cd 3D120000 		.4byte	.LASF37
 3558 01d1 09       		.byte	0x9
 3559 01d2 C7       		.byte	0xc7
 3560 01d3 56010000 		.4byte	0x156
 3561 01d7 08       		.byte	0x8
ARM GAS  C:\Users\CHRIST~1\AppData\Local\Temp\ccVm3NB4.s 			page 74


 3562 01d8 08       		.uleb128 0x8
 3563 01d9 560B0000 		.4byte	.LASF38
 3564 01dd 09       		.byte	0x9
 3565 01de C8       		.byte	0xc8
 3566 01df AF0A0000 		.4byte	0xaaf
 3567 01e3 0C       		.byte	0xc
 3568 01e4 08       		.uleb128 0x8
 3569 01e5 AB020000 		.4byte	.LASF39
 3570 01e9 09       		.byte	0x9
 3571 01ea CA       		.byte	0xca
 3572 01eb B8020000 		.4byte	0x2b8
 3573 01ef 10       		.byte	0x10
 3574 01f0 08       		.uleb128 0x8
 3575 01f1 E9270000 		.4byte	.LASF40
 3576 01f5 09       		.byte	0x9
 3577 01f6 CB       		.byte	0xcb
 3578 01f7 B8020000 		.4byte	0x2b8
 3579 01fb 14       		.byte	0x14
 3580 01fc 08       		.uleb128 0x8
 3581 01fd F5240000 		.4byte	.LASF41
 3582 0201 09       		.byte	0x9
 3583 0202 D2       		.byte	0xd2
 3584 0203 F40C0000 		.4byte	0xcf4
 3585 0207 18       		.byte	0x18
 3586 0208 08       		.uleb128 0x8
 3587 0209 772A0000 		.4byte	.LASF42
 3588 020d 09       		.byte	0x9
 3589 020e DD       		.byte	0xdd
 3590 020f 35010000 		.4byte	0x135
 3591 0213 1C       		.byte	0x1c
 3592 0214 08       		.uleb128 0x8
 3593 0215 F1230000 		.4byte	.LASF43
 3594 0219 09       		.byte	0x9
 3595 021a E1       		.byte	0xe1
 3596 021b 2A010000 		.4byte	0x12a
 3597 021f 1D       		.byte	0x1d
 3598 0220 08       		.uleb128 0x8
 3599 0221 68190000 		.4byte	.LASF44
 3600 0225 09       		.byte	0x9
 3601 0226 E6       		.byte	0xe6
 3602 0227 40010000 		.4byte	0x140
 3603 022b 1E       		.byte	0x1e
 3604 022c 08       		.uleb128 0x8
 3605 022d 2D170000 		.4byte	.LASF45
 3606 0231 09       		.byte	0x9
 3607 0232 EC       		.byte	0xec
 3608 0233 4B010000 		.4byte	0x14b
 3609 0237 1F       		.byte	0x1f
 3610 0238 08       		.uleb128 0x8
 3611 0239 42170000 		.4byte	.LASF46
 3612 023d 09       		.byte	0x9
 3613 023e F3       		.byte	0xf3
 3614 023f 98010000 		.4byte	0x198
 3615 0243 20       		.byte	0x20
 3616 0244 09       		.uleb128 0x9
 3617 0245 705F7500 		.ascii	"p_u\000"
 3618 0249 09       		.byte	0x9
ARM GAS  C:\Users\CHRIST~1\AppData\Local\Temp\ccVm3NB4.s 			page 75


 3619 024a 3101     		.2byte	0x131
 3620 024c 2F0C0000 		.4byte	0xc2f
 3621 0250 24       		.byte	0x24
 3622 0251 0A       		.uleb128 0xa
 3623 0252 0D050000 		.4byte	.LASF47
 3624 0256 09       		.byte	0x9
 3625 0257 3601     		.2byte	0x136
 3626 0259 BE020000 		.4byte	0x2be
 3627 025d 28       		.byte	0x28
 3628 025e 0A       		.uleb128 0xa
 3629 025f D1170000 		.4byte	.LASF48
 3630 0263 09       		.byte	0x9
 3631 0264 3C01     		.2byte	0x13c
 3632 0266 E2020000 		.4byte	0x2e2
 3633 026a 2C       		.byte	0x2c
 3634 026b 0A       		.uleb128 0xa
 3635 026c 9A070000 		.4byte	.LASF49
 3636 0270 09       		.byte	0x9
 3637 0271 4001     		.2byte	0x140
 3638 0273 61010000 		.4byte	0x161
 3639 0277 34       		.byte	0x34
 3640 0278 0A       		.uleb128 0xa
 3641 0279 9D210000 		.4byte	.LASF50
 3642 027d 09       		.byte	0x9
 3643 027e 4601     		.2byte	0x146
 3644 0280 6C010000 		.4byte	0x16c
 3645 0284 38       		.byte	0x38
 3646 0285 0A       		.uleb128 0xa
 3647 0286 35240000 		.4byte	.LASF51
 3648 028a 09       		.byte	0x9
 3649 028b 4D01     		.2byte	0x14d
 3650 028d EE0C0000 		.4byte	0xcee
 3651 0291 3C       		.byte	0x3c
 3652 0292 0A       		.uleb128 0xa
 3653 0293 DE1F0000 		.4byte	.LASF52
 3654 0297 09       		.byte	0x9
 3655 0298 5101     		.2byte	0x151
 3656 029a 56010000 		.4byte	0x156
 3657 029e 40       		.byte	0x40
 3658 029f 0A       		.uleb128 0xa
 3659 02a0 BB130000 		.4byte	.LASF53
 3660 02a4 09       		.byte	0x9
 3661 02a5 5801     		.2byte	0x158
 3662 02a7 95030000 		.4byte	0x395
 3663 02ab 44       		.byte	0x44
 3664 02ac 00       		.byte	0
 3665 02ad 05       		.uleb128 0x5
 3666 02ae 14280000 		.4byte	.LASF54
 3667 02b2 08       		.byte	0x8
 3668 02b3 44       		.byte	0x44
 3669 02b4 B8020000 		.4byte	0x2b8
 3670 02b8 0B       		.uleb128 0xb
 3671 02b9 04       		.byte	0x4
 3672 02ba 9D010000 		.4byte	0x19d
 3673 02be 05       		.uleb128 0x5
 3674 02bf 43050000 		.4byte	.LASF55
 3675 02c3 08       		.byte	0x8
ARM GAS  C:\Users\CHRIST~1\AppData\Local\Temp\ccVm3NB4.s 			page 76


 3676 02c4 49       		.byte	0x49
 3677 02c5 C9020000 		.4byte	0x2c9
 3678 02c9 07       		.uleb128 0x7
 3679 02ca 9C2A0000 		.4byte	.LASF57
 3680 02ce 04       		.byte	0x4
 3681 02cf 09       		.byte	0x9
 3682 02d0 B0       		.byte	0xb0
 3683 02d1 E2020000 		.4byte	0x2e2
 3684 02d5 08       		.uleb128 0x8
 3685 02d6 20130000 		.4byte	.LASF35
 3686 02da 09       		.byte	0x9
 3687 02db B1       		.byte	0xb1
 3688 02dc B8020000 		.4byte	0x2b8
 3689 02e0 00       		.byte	0
 3690 02e1 00       		.byte	0
 3691 02e2 05       		.uleb128 0x5
 3692 02e3 0C190000 		.4byte	.LASF58
 3693 02e7 08       		.byte	0x8
 3694 02e8 50       		.byte	0x50
 3695 02e9 ED020000 		.4byte	0x2ed
 3696 02ed 07       		.uleb128 0x7
 3697 02ee 81020000 		.4byte	.LASF59
 3698 02f2 08       		.byte	0x8
 3699 02f3 09       		.byte	0x9
 3700 02f4 B7       		.byte	0xb7
 3701 02f5 12030000 		.4byte	0x312
 3702 02f9 08       		.uleb128 0x8
 3703 02fa 20130000 		.4byte	.LASF35
 3704 02fe 09       		.byte	0x9
 3705 02ff B8       		.byte	0xb8
 3706 0300 B8020000 		.4byte	0x2b8
 3707 0304 00       		.byte	0
 3708 0305 08       		.uleb128 0x8
 3709 0306 440F0000 		.4byte	.LASF36
 3710 030a 09       		.byte	0x9
 3711 030b B9       		.byte	0xb9
 3712 030c B8020000 		.4byte	0x2b8
 3713 0310 04       		.byte	0x4
 3714 0311 00       		.byte	0
 3715 0312 05       		.uleb128 0x5
 3716 0313 890A0000 		.4byte	.LASF60
 3717 0317 08       		.byte	0x8
 3718 0318 57       		.byte	0x57
 3719 0319 1D030000 		.4byte	0x31d
 3720 031d 0C       		.uleb128 0xc
 3721 031e C6200000 		.4byte	.LASF61
 3722 0322 1C       		.byte	0x1c
 3723 0323 09       		.byte	0x9
 3724 0324 9001     		.2byte	0x190
 3725 0326 79030000 		.4byte	0x379
 3726 032a 0A       		.uleb128 0xa
 3727 032b 611C0000 		.4byte	.LASF62
 3728 032f 09       		.byte	0x9
 3729 0330 9101     		.2byte	0x191
 3730 0332 E2020000 		.4byte	0x2e2
 3731 0336 00       		.byte	0
 3732 0337 0A       		.uleb128 0xa
ARM GAS  C:\Users\CHRIST~1\AppData\Local\Temp\ccVm3NB4.s 			page 77


 3733 0338 CA220000 		.4byte	.LASF63
 3734 033c 09       		.byte	0x9
 3735 033d 9201     		.2byte	0x192
 3736 033f 56010000 		.4byte	0x156
 3737 0343 08       		.byte	0x8
 3738 0344 0A       		.uleb128 0xa
 3739 0345 EB0D0000 		.4byte	.LASF64
 3740 0349 09       		.byte	0x9
 3741 034a 9401     		.2byte	0x194
 3742 034c AF0A0000 		.4byte	0xaaf
 3743 0350 0C       		.byte	0xc
 3744 0351 0A       		.uleb128 0xa
 3745 0352 E3150000 		.4byte	.LASF65
 3746 0356 09       		.byte	0x9
 3747 0357 9701     		.2byte	0x197
 3748 0359 B8020000 		.4byte	0x2b8
 3749 035d 10       		.byte	0x10
 3750 035e 0A       		.uleb128 0xa
 3751 035f 2D0F0000 		.4byte	.LASF66
 3752 0363 09       		.byte	0x9
 3753 0364 9801     		.2byte	0x198
 3754 0366 B8020000 		.4byte	0x2b8
 3755 036a 14       		.byte	0x14
 3756 036b 0A       		.uleb128 0xa
 3757 036c 720B0000 		.4byte	.LASF67
 3758 0370 09       		.byte	0x9
 3759 0371 9B01     		.2byte	0x19b
 3760 0373 B8020000 		.4byte	0x2b8
 3761 0377 18       		.byte	0x18
 3762 0378 00       		.byte	0
 3763 0379 05       		.uleb128 0x5
 3764 037a 881F0000 		.4byte	.LASF68
 3765 037e 08       		.byte	0x8
 3766 037f 5C       		.byte	0x5c
 3767 0380 84030000 		.4byte	0x384
 3768 0384 0B       		.uleb128 0xb
 3769 0385 04       		.byte	0x4
 3770 0386 8A030000 		.4byte	0x38a
 3771 038a 0D       		.uleb128 0xd
 3772 038b 95030000 		.4byte	0x395
 3773 038f 0E       		.uleb128 0xe
 3774 0390 95030000 		.4byte	0x395
 3775 0394 00       		.byte	0
 3776 0395 0F       		.uleb128 0xf
 3777 0396 04       		.byte	0x4
 3778 0397 05       		.uleb128 0x5
 3779 0398 DB0D0000 		.4byte	.LASF69
 3780 039c 08       		.byte	0x8
 3781 039d 61       		.byte	0x61
 3782 039e A2030000 		.4byte	0x3a2
 3783 03a2 0C       		.uleb128 0xc
 3784 03a3 E0230000 		.4byte	.LASF70
 3785 03a7 14       		.byte	0x14
 3786 03a8 09       		.byte	0x9
 3787 03a9 6B01     		.2byte	0x16b
 3788 03ab F1030000 		.4byte	0x3f1
 3789 03af 0A       		.uleb128 0xa
ARM GAS  C:\Users\CHRIST~1\AppData\Local\Temp\ccVm3NB4.s 			page 78


 3790 03b0 F10D0000 		.4byte	.LASF71
 3791 03b4 09       		.byte	0x9
 3792 03b5 6C01     		.2byte	0x16c
 3793 03b7 0B0D0000 		.4byte	0xd0b
 3794 03bb 00       		.byte	0
 3795 03bc 0A       		.uleb128 0xa
 3796 03bd 240A0000 		.4byte	.LASF72
 3797 03c1 09       		.byte	0x9
 3798 03c2 6D01     		.2byte	0x16d
 3799 03c4 0B0D0000 		.4byte	0xd0b
 3800 03c8 04       		.byte	0x4
 3801 03c9 0A       		.uleb128 0xa
 3802 03ca C8160000 		.4byte	.LASF73
 3803 03ce 09       		.byte	0x9
 3804 03cf 6E01     		.2byte	0x16e
 3805 03d1 8D010000 		.4byte	0x18d
 3806 03d5 08       		.byte	0x8
 3807 03d6 0A       		.uleb128 0xa
 3808 03d7 BA230000 		.4byte	.LASF74
 3809 03db 09       		.byte	0x9
 3810 03dc 6F01     		.2byte	0x16f
 3811 03de 79030000 		.4byte	0x379
 3812 03e2 0C       		.byte	0xc
 3813 03e3 0A       		.uleb128 0xa
 3814 03e4 5C0B0000 		.4byte	.LASF75
 3815 03e8 09       		.byte	0x9
 3816 03e9 7101     		.2byte	0x171
 3817 03eb 95030000 		.4byte	0x395
 3818 03ef 10       		.byte	0x10
 3819 03f0 00       		.byte	0
 3820 03f1 05       		.uleb128 0x5
 3821 03f2 62250000 		.4byte	.LASF76
 3822 03f6 08       		.byte	0x8
 3823 03f7 66       		.byte	0x66
 3824 03f8 FC030000 		.4byte	0x3fc
 3825 03fc 0C       		.uleb128 0xc
 3826 03fd 81030000 		.4byte	.LASF77
 3827 0401 10       		.byte	0x10
 3828 0402 09       		.byte	0x9
 3829 0403 7B01     		.2byte	0x17b
 3830 0405 3E040000 		.4byte	0x43e
 3831 0409 0A       		.uleb128 0xa
 3832 040a F10D0000 		.4byte	.LASF71
 3833 040e 09       		.byte	0x9
 3834 040f 7C01     		.2byte	0x17c
 3835 0411 0B0D0000 		.4byte	0xd0b
 3836 0415 00       		.byte	0
 3837 0416 0A       		.uleb128 0xa
 3838 0417 240A0000 		.4byte	.LASF72
 3839 041b 09       		.byte	0x9
 3840 041c 7E01     		.2byte	0x17e
 3841 041e 0B0D0000 		.4byte	0xd0b
 3842 0422 04       		.byte	0x4
 3843 0423 0A       		.uleb128 0xa
 3844 0424 C8160000 		.4byte	.LASF73
 3845 0428 09       		.byte	0x9
 3846 0429 8001     		.2byte	0x180
ARM GAS  C:\Users\CHRIST~1\AppData\Local\Temp\ccVm3NB4.s 			page 79


 3847 042b 8D010000 		.4byte	0x18d
 3848 042f 08       		.byte	0x8
 3849 0430 0A       		.uleb128 0xa
 3850 0431 88010000 		.4byte	.LASF78
 3851 0435 09       		.byte	0x9
 3852 0436 8201     		.2byte	0x182
 3853 0438 98010000 		.4byte	0x198
 3854 043c 0C       		.byte	0xc
 3855 043d 00       		.byte	0
 3856 043e 05       		.uleb128 0x5
 3857 043f 310B0000 		.4byte	.LASF79
 3858 0443 08       		.byte	0x8
 3859 0444 6B       		.byte	0x6b
 3860 0445 49040000 		.4byte	0x449
 3861 0449 0C       		.uleb128 0xc
 3862 044a FF200000 		.4byte	.LASF80
 3863 044e 04       		.byte	0x4
 3864 044f 09       		.byte	0x9
 3865 0450 A201     		.2byte	0x1a2
 3866 0452 64040000 		.4byte	0x464
 3867 0456 0A       		.uleb128 0xa
 3868 0457 C6150000 		.4byte	.LASF81
 3869 045b 09       		.byte	0x9
 3870 045c AA01     		.2byte	0x1aa
 3871 045e FA0C0000 		.4byte	0xcfa
 3872 0462 00       		.byte	0
 3873 0463 00       		.byte	0
 3874 0464 05       		.uleb128 0x5
 3875 0465 04010000 		.4byte	.LASF82
 3876 0469 08       		.byte	0x8
 3877 046a 70       		.byte	0x70
 3878 046b 6F040000 		.4byte	0x46f
 3879 046f 10       		.uleb128 0x10
 3880 0470 79180000 		.4byte	.LASF83
 3881 0474 5802     		.2byte	0x258
 3882 0476 09       		.byte	0x9
 3883 0477 C201     		.2byte	0x1c2
 3884 0479 CB040000 		.4byte	0x4cb
 3885 047d 0A       		.uleb128 0xa
 3886 047e 3D050000 		.4byte	.LASF84
 3887 0482 09       		.byte	0x9
 3888 0483 C601     		.2byte	0x1c6
 3889 0485 12030000 		.4byte	0x312
 3890 0489 00       		.byte	0
 3891 048a 0A       		.uleb128 0xa
 3892 048b ED040000 		.4byte	.LASF85
 3893 048f 09       		.byte	0x9
 3894 0490 CA01     		.2byte	0x1ca
 3895 0492 F1030000 		.4byte	0x3f1
 3896 0496 1C       		.byte	0x1c
 3897 0497 09       		.uleb128 0x9
 3898 0498 64626700 		.ascii	"dbg\000"
 3899 049c 09       		.byte	0x9
 3900 049d CE01     		.2byte	0x1ce
 3901 049f 3E040000 		.4byte	0x43e
 3902 04a3 2C       		.byte	0x2c
 3903 04a4 0A       		.uleb128 0xa
ARM GAS  C:\Users\CHRIST~1\AppData\Local\Temp\ccVm3NB4.s 			page 80


 3904 04a5 A7190000 		.4byte	.LASF86
 3905 04a9 09       		.byte	0x9
 3906 04aa D201     		.2byte	0x1d2
 3907 04ac 9D010000 		.4byte	0x19d
 3908 04b0 30       		.byte	0x30
 3909 04b1 09       		.uleb128 0x9
 3910 04b2 746D00   		.ascii	"tm\000"
 3911 04b5 09       		.byte	0x9
 3912 04b6 D701     		.2byte	0x1d7
 3913 04b8 240C0000 		.4byte	0xc24
 3914 04bc 78       		.byte	0x78
 3915 04bd 0A       		.uleb128 0xa
 3916 04be 8C230000 		.4byte	.LASF87
 3917 04c2 09       		.byte	0x9
 3918 04c3 E301     		.2byte	0x1e3
 3919 04c5 110D0000 		.4byte	0xd11
 3920 04c9 80       		.byte	0x80
 3921 04ca 00       		.byte	0
 3922 04cb 02       		.uleb128 0x2
 3923 04cc 04       		.byte	0x4
 3924 04cd 07       		.byte	0x7
 3925 04ce D1160000 		.4byte	.LASF88
 3926 04d2 11       		.uleb128 0x11
 3927 04d3 04010000 		.4byte	0x104
 3928 04d7 E2040000 		.4byte	0x4e2
 3929 04db 12       		.uleb128 0x12
 3930 04dc CB040000 		.4byte	0x4cb
 3931 04e0 07       		.byte	0x7
 3932 04e1 00       		.byte	0
 3933 04e2 13       		.uleb128 0x13
 3934 04e3 EE220000 		.4byte	.LASF89
 3935 04e7 0A       		.byte	0xa
 3936 04e8 A706     		.2byte	0x6a7
 3937 04ea FF000000 		.4byte	0xff
 3938 04ee 14       		.uleb128 0x14
 3939 04ef 22180000 		.4byte	.LASF90
 3940 04f3 0B       		.byte	0xb
 3941 04f4 4C       		.byte	0x4c
 3942 04f5 04010000 		.4byte	0x104
 3943 04f9 15       		.uleb128 0x15
 3944 04fa 10       		.byte	0x10
 3945 04fb 0C       		.byte	0xc
 3946 04fc E9       		.byte	0xe9
 3947 04fd 32050000 		.4byte	0x532
 3948 0501 16       		.uleb128 0x16
 3949 0502 54495200 		.ascii	"TIR\000"
 3950 0506 0C       		.byte	0xc
 3951 0507 EB       		.byte	0xeb
 3952 0508 0F010000 		.4byte	0x10f
 3953 050c 00       		.byte	0
 3954 050d 08       		.uleb128 0x8
 3955 050e F7110000 		.4byte	.LASF91
 3956 0512 0C       		.byte	0xc
 3957 0513 EC       		.byte	0xec
 3958 0514 0F010000 		.4byte	0x10f
 3959 0518 04       		.byte	0x4
 3960 0519 08       		.uleb128 0x8
ARM GAS  C:\Users\CHRIST~1\AppData\Local\Temp\ccVm3NB4.s 			page 81


 3961 051a 99190000 		.4byte	.LASF92
 3962 051e 0C       		.byte	0xc
 3963 051f ED       		.byte	0xed
 3964 0520 0F010000 		.4byte	0x10f
 3965 0524 08       		.byte	0x8
 3966 0525 08       		.uleb128 0x8
 3967 0526 49170000 		.4byte	.LASF93
 3968 052a 0C       		.byte	0xc
 3969 052b EE       		.byte	0xee
 3970 052c 0F010000 		.4byte	0x10f
 3971 0530 0C       		.byte	0xc
 3972 0531 00       		.byte	0
 3973 0532 05       		.uleb128 0x5
 3974 0533 27050000 		.4byte	.LASF94
 3975 0537 0C       		.byte	0xc
 3976 0538 EF       		.byte	0xef
 3977 0539 F9040000 		.4byte	0x4f9
 3978 053d 15       		.uleb128 0x15
 3979 053e 10       		.byte	0x10
 3980 053f 0C       		.byte	0xc
 3981 0540 F5       		.byte	0xf5
 3982 0541 76050000 		.4byte	0x576
 3983 0545 16       		.uleb128 0x16
 3984 0546 52495200 		.ascii	"RIR\000"
 3985 054a 0C       		.byte	0xc
 3986 054b F7       		.byte	0xf7
 3987 054c 0F010000 		.4byte	0x10f
 3988 0550 00       		.byte	0
 3989 0551 08       		.uleb128 0x8
 3990 0552 93200000 		.4byte	.LASF95
 3991 0556 0C       		.byte	0xc
 3992 0557 F8       		.byte	0xf8
 3993 0558 0F010000 		.4byte	0x10f
 3994 055c 04       		.byte	0x4
 3995 055d 08       		.uleb128 0x8
 3996 055e 051B0000 		.4byte	.LASF96
 3997 0562 0C       		.byte	0xc
 3998 0563 F9       		.byte	0xf9
 3999 0564 0F010000 		.4byte	0x10f
 4000 0568 08       		.byte	0x8
 4001 0569 08       		.uleb128 0x8
 4002 056a 6A180000 		.4byte	.LASF97
 4003 056e 0C       		.byte	0xc
 4004 056f FA       		.byte	0xfa
 4005 0570 0F010000 		.4byte	0x10f
 4006 0574 0C       		.byte	0xc
 4007 0575 00       		.byte	0
 4008 0576 05       		.uleb128 0x5
 4009 0577 911F0000 		.4byte	.LASF98
 4010 057b 0C       		.byte	0xc
 4011 057c FB       		.byte	0xfb
 4012 057d 3D050000 		.4byte	0x53d
 4013 0581 17       		.uleb128 0x17
 4014 0582 08       		.byte	0x8
 4015 0583 0C       		.byte	0xc
 4016 0584 0101     		.2byte	0x101
 4017 0586 A5050000 		.4byte	0x5a5
ARM GAS  C:\Users\CHRIST~1\AppData\Local\Temp\ccVm3NB4.s 			page 82


 4018 058a 09       		.uleb128 0x9
 4019 058b 46523100 		.ascii	"FR1\000"
 4020 058f 0C       		.byte	0xc
 4021 0590 0301     		.2byte	0x103
 4022 0592 0F010000 		.4byte	0x10f
 4023 0596 00       		.byte	0
 4024 0597 09       		.uleb128 0x9
 4025 0598 46523200 		.ascii	"FR2\000"
 4026 059c 0C       		.byte	0xc
 4027 059d 0401     		.2byte	0x104
 4028 059f 0F010000 		.4byte	0x10f
 4029 05a3 04       		.byte	0x4
 4030 05a4 00       		.byte	0
 4031 05a5 18       		.uleb128 0x18
 4032 05a6 07120000 		.4byte	.LASF99
 4033 05aa 0C       		.byte	0xc
 4034 05ab 0501     		.2byte	0x105
 4035 05ad 81050000 		.4byte	0x581
 4036 05b1 19       		.uleb128 0x19
 4037 05b2 2003     		.2byte	0x320
 4038 05b4 0C       		.byte	0xc
 4039 05b5 0B01     		.2byte	0x10b
 4040 05b7 E7060000 		.4byte	0x6e7
 4041 05bb 09       		.uleb128 0x9
 4042 05bc 4D435200 		.ascii	"MCR\000"
 4043 05c0 0C       		.byte	0xc
 4044 05c1 0D01     		.2byte	0x10d
 4045 05c3 0F010000 		.4byte	0x10f
 4046 05c7 00       		.byte	0
 4047 05c8 09       		.uleb128 0x9
 4048 05c9 4D535200 		.ascii	"MSR\000"
 4049 05cd 0C       		.byte	0xc
 4050 05ce 0E01     		.2byte	0x10e
 4051 05d0 0F010000 		.4byte	0x10f
 4052 05d4 04       		.byte	0x4
 4053 05d5 09       		.uleb128 0x9
 4054 05d6 54535200 		.ascii	"TSR\000"
 4055 05da 0C       		.byte	0xc
 4056 05db 0F01     		.2byte	0x10f
 4057 05dd 0F010000 		.4byte	0x10f
 4058 05e1 08       		.byte	0x8
 4059 05e2 0A       		.uleb128 0xa
 4060 05e3 0B100000 		.4byte	.LASF100
 4061 05e7 0C       		.byte	0xc
 4062 05e8 1001     		.2byte	0x110
 4063 05ea 0F010000 		.4byte	0x10f
 4064 05ee 0C       		.byte	0xc
 4065 05ef 0A       		.uleb128 0xa
 4066 05f0 CE100000 		.4byte	.LASF101
 4067 05f4 0C       		.byte	0xc
 4068 05f5 1101     		.2byte	0x111
 4069 05f7 0F010000 		.4byte	0x10f
 4070 05fb 10       		.byte	0x10
 4071 05fc 09       		.uleb128 0x9
 4072 05fd 49455200 		.ascii	"IER\000"
 4073 0601 0C       		.byte	0xc
 4074 0602 1201     		.2byte	0x112
ARM GAS  C:\Users\CHRIST~1\AppData\Local\Temp\ccVm3NB4.s 			page 83


 4075 0604 0F010000 		.4byte	0x10f
 4076 0608 14       		.byte	0x14
 4077 0609 09       		.uleb128 0x9
 4078 060a 45535200 		.ascii	"ESR\000"
 4079 060e 0C       		.byte	0xc
 4080 060f 1301     		.2byte	0x113
 4081 0611 0F010000 		.4byte	0x10f
 4082 0615 18       		.byte	0x18
 4083 0616 09       		.uleb128 0x9
 4084 0617 42545200 		.ascii	"BTR\000"
 4085 061b 0C       		.byte	0xc
 4086 061c 1401     		.2byte	0x114
 4087 061e 0F010000 		.4byte	0x10f
 4088 0622 1C       		.byte	0x1c
 4089 0623 0A       		.uleb128 0xa
 4090 0624 D3210000 		.4byte	.LASF102
 4091 0628 0C       		.byte	0xc
 4092 0629 1501     		.2byte	0x115
 4093 062b E7060000 		.4byte	0x6e7
 4094 062f 20       		.byte	0x20
 4095 0630 1A       		.uleb128 0x1a
 4096 0631 01130000 		.4byte	.LASF103
 4097 0635 0C       		.byte	0xc
 4098 0636 1601     		.2byte	0x116
 4099 0638 F7060000 		.4byte	0x6f7
 4100 063c 8001     		.2byte	0x180
 4101 063e 1A       		.uleb128 0x1a
 4102 063f 4A270000 		.4byte	.LASF104
 4103 0643 0C       		.byte	0xc
 4104 0644 1701     		.2byte	0x117
 4105 0646 07070000 		.4byte	0x707
 4106 064a B001     		.2byte	0x1b0
 4107 064c 1A       		.uleb128 0x1a
 4108 064d DD210000 		.4byte	.LASF105
 4109 0651 0C       		.byte	0xc
 4110 0652 1801     		.2byte	0x118
 4111 0654 17070000 		.4byte	0x717
 4112 0658 D001     		.2byte	0x1d0
 4113 065a 1B       		.uleb128 0x1b
 4114 065b 464D5200 		.ascii	"FMR\000"
 4115 065f 0C       		.byte	0xc
 4116 0660 1901     		.2byte	0x119
 4117 0662 0F010000 		.4byte	0x10f
 4118 0666 0002     		.2byte	0x200
 4119 0668 1A       		.uleb128 0x1a
 4120 0669 190C0000 		.4byte	.LASF106
 4121 066d 0C       		.byte	0xc
 4122 066e 1A01     		.2byte	0x11a
 4123 0670 0F010000 		.4byte	0x10f
 4124 0674 0402     		.2byte	0x204
 4125 0676 1A       		.uleb128 0x1a
 4126 0677 E7210000 		.4byte	.LASF107
 4127 067b 0C       		.byte	0xc
 4128 067c 1B01     		.2byte	0x11b
 4129 067e 04010000 		.4byte	0x104
 4130 0682 0802     		.2byte	0x208
 4131 0684 1A       		.uleb128 0x1a
ARM GAS  C:\Users\CHRIST~1\AppData\Local\Temp\ccVm3NB4.s 			page 84


 4132 0685 59240000 		.4byte	.LASF108
 4133 0689 0C       		.byte	0xc
 4134 068a 1C01     		.2byte	0x11c
 4135 068c 0F010000 		.4byte	0x10f
 4136 0690 0C02     		.2byte	0x20c
 4137 0692 1A       		.uleb128 0x1a
 4138 0693 F1210000 		.4byte	.LASF109
 4139 0697 0C       		.byte	0xc
 4140 0698 1D01     		.2byte	0x11d
 4141 069a 04010000 		.4byte	0x104
 4142 069e 1002     		.2byte	0x210
 4143 06a0 1A       		.uleb128 0x1a
 4144 06a1 621B0000 		.4byte	.LASF110
 4145 06a5 0C       		.byte	0xc
 4146 06a6 1E01     		.2byte	0x11e
 4147 06a8 0F010000 		.4byte	0x10f
 4148 06ac 1402     		.2byte	0x214
 4149 06ae 1A       		.uleb128 0x1a
 4150 06af FB210000 		.4byte	.LASF111
 4151 06b3 0C       		.byte	0xc
 4152 06b4 1F01     		.2byte	0x11f
 4153 06b6 04010000 		.4byte	0x104
 4154 06ba 1802     		.2byte	0x218
 4155 06bc 1A       		.uleb128 0x1a
 4156 06bd 25040000 		.4byte	.LASF112
 4157 06c1 0C       		.byte	0xc
 4158 06c2 2001     		.2byte	0x120
 4159 06c4 0F010000 		.4byte	0x10f
 4160 06c8 1C02     		.2byte	0x21c
 4161 06ca 1A       		.uleb128 0x1a
 4162 06cb 05220000 		.4byte	.LASF113
 4163 06cf 0C       		.byte	0xc
 4164 06d0 2101     		.2byte	0x121
 4165 06d2 D2040000 		.4byte	0x4d2
 4166 06d6 2002     		.2byte	0x220
 4167 06d8 1A       		.uleb128 0x1a
 4168 06d9 E4050000 		.4byte	.LASF114
 4169 06dd 0C       		.byte	0xc
 4170 06de 2201     		.2byte	0x122
 4171 06e0 27070000 		.4byte	0x727
 4172 06e4 4002     		.2byte	0x240
 4173 06e6 00       		.byte	0
 4174 06e7 11       		.uleb128 0x11
 4175 06e8 04010000 		.4byte	0x104
 4176 06ec F7060000 		.4byte	0x6f7
 4177 06f0 12       		.uleb128 0x12
 4178 06f1 CB040000 		.4byte	0x4cb
 4179 06f5 57       		.byte	0x57
 4180 06f6 00       		.byte	0
 4181 06f7 11       		.uleb128 0x11
 4182 06f8 32050000 		.4byte	0x532
 4183 06fc 07070000 		.4byte	0x707
 4184 0700 12       		.uleb128 0x12
 4185 0701 CB040000 		.4byte	0x4cb
 4186 0705 02       		.byte	0x2
 4187 0706 00       		.byte	0
 4188 0707 11       		.uleb128 0x11
ARM GAS  C:\Users\CHRIST~1\AppData\Local\Temp\ccVm3NB4.s 			page 85


 4189 0708 76050000 		.4byte	0x576
 4190 070c 17070000 		.4byte	0x717
 4191 0710 12       		.uleb128 0x12
 4192 0711 CB040000 		.4byte	0x4cb
 4193 0715 01       		.byte	0x1
 4194 0716 00       		.byte	0
 4195 0717 11       		.uleb128 0x11
 4196 0718 04010000 		.4byte	0x104
 4197 071c 27070000 		.4byte	0x727
 4198 0720 12       		.uleb128 0x12
 4199 0721 CB040000 		.4byte	0x4cb
 4200 0725 0B       		.byte	0xb
 4201 0726 00       		.byte	0
 4202 0727 11       		.uleb128 0x11
 4203 0728 A5050000 		.4byte	0x5a5
 4204 072c 37070000 		.4byte	0x737
 4205 0730 12       		.uleb128 0x12
 4206 0731 CB040000 		.4byte	0x4cb
 4207 0735 1B       		.byte	0x1b
 4208 0736 00       		.byte	0
 4209 0737 18       		.uleb128 0x18
 4210 0738 B40E0000 		.4byte	.LASF115
 4211 073c 0C       		.byte	0xc
 4212 073d 2301     		.2byte	0x123
 4213 073f B1050000 		.4byte	0x5b1
 4214 0743 17       		.uleb128 0x17
 4215 0744 18       		.byte	0x18
 4216 0745 0C       		.byte	0xc
 4217 0746 6B01     		.2byte	0x16b
 4218 0748 9A070000 		.4byte	0x79a
 4219 074c 09       		.uleb128 0x9
 4220 074d 435200   		.ascii	"CR\000"
 4221 0750 0C       		.byte	0xc
 4222 0751 6D01     		.2byte	0x16d
 4223 0753 0F010000 		.4byte	0x10f
 4224 0757 00       		.byte	0
 4225 0758 0A       		.uleb128 0xa
 4226 0759 68230000 		.4byte	.LASF116
 4227 075d 0C       		.byte	0xc
 4228 075e 6E01     		.2byte	0x16e
 4229 0760 0F010000 		.4byte	0x10f
 4230 0764 04       		.byte	0x4
 4231 0765 09       		.uleb128 0x9
 4232 0766 50415200 		.ascii	"PAR\000"
 4233 076a 0C       		.byte	0xc
 4234 076b 6F01     		.2byte	0x16f
 4235 076d 0F010000 		.4byte	0x10f
 4236 0771 08       		.byte	0x8
 4237 0772 0A       		.uleb128 0xa
 4238 0773 E5030000 		.4byte	.LASF117
 4239 0777 0C       		.byte	0xc
 4240 0778 7001     		.2byte	0x170
 4241 077a 0F010000 		.4byte	0x10f
 4242 077e 0C       		.byte	0xc
 4243 077f 0A       		.uleb128 0xa
 4244 0780 D7070000 		.4byte	.LASF118
 4245 0784 0C       		.byte	0xc
ARM GAS  C:\Users\CHRIST~1\AppData\Local\Temp\ccVm3NB4.s 			page 86


 4246 0785 7101     		.2byte	0x171
 4247 0787 0F010000 		.4byte	0x10f
 4248 078b 10       		.byte	0x10
 4249 078c 09       		.uleb128 0x9
 4250 078d 46435200 		.ascii	"FCR\000"
 4251 0791 0C       		.byte	0xc
 4252 0792 7201     		.2byte	0x172
 4253 0794 0F010000 		.4byte	0x10f
 4254 0798 14       		.byte	0x14
 4255 0799 00       		.byte	0
 4256 079a 18       		.uleb128 0x18
 4257 079b E1070000 		.4byte	.LASF119
 4258 079f 0C       		.byte	0xc
 4259 07a0 7301     		.2byte	0x173
 4260 07a2 43070000 		.4byte	0x743
 4261 07a6 11       		.uleb128 0x11
 4262 07a7 0F010000 		.4byte	0x10f
 4263 07ab B6070000 		.4byte	0x7b6
 4264 07af 12       		.uleb128 0x12
 4265 07b0 CB040000 		.4byte	0x4cb
 4266 07b4 01       		.byte	0x1
 4267 07b5 00       		.byte	0
 4268 07b6 04       		.uleb128 0x4
 4269 07b7 A6070000 		.4byte	0x7a6
 4270 07bb 11       		.uleb128 0x11
 4271 07bc 0F010000 		.4byte	0x10f
 4272 07c0 CB070000 		.4byte	0x7cb
 4273 07c4 12       		.uleb128 0x12
 4274 07c5 CB040000 		.4byte	0x4cb
 4275 07c9 03       		.byte	0x3
 4276 07ca 00       		.byte	0
 4277 07cb 04       		.uleb128 0x4
 4278 07cc BB070000 		.4byte	0x7bb
 4279 07d0 17       		.uleb128 0x17
 4280 07d1 28       		.byte	0x28
 4281 07d2 0C       		.byte	0xc
 4282 07d3 3F02     		.2byte	0x23f
 4283 07d5 5B080000 		.4byte	0x85b
 4284 07d9 09       		.uleb128 0x9
 4285 07da 43523100 		.ascii	"CR1\000"
 4286 07de 0C       		.byte	0xc
 4287 07df 4102     		.2byte	0x241
 4288 07e1 0F010000 		.4byte	0x10f
 4289 07e5 00       		.byte	0
 4290 07e6 09       		.uleb128 0x9
 4291 07e7 43523200 		.ascii	"CR2\000"
 4292 07eb 0C       		.byte	0xc
 4293 07ec 4202     		.2byte	0x242
 4294 07ee 0F010000 		.4byte	0x10f
 4295 07f2 04       		.byte	0x4
 4296 07f3 0A       		.uleb128 0xa
 4297 07f4 C92A0000 		.4byte	.LASF120
 4298 07f8 0C       		.byte	0xc
 4299 07f9 4302     		.2byte	0x243
 4300 07fb 0F010000 		.4byte	0x10f
 4301 07ff 08       		.byte	0x8
 4302 0800 0A       		.uleb128 0xa
ARM GAS  C:\Users\CHRIST~1\AppData\Local\Temp\ccVm3NB4.s 			page 87


 4303 0801 CE2A0000 		.4byte	.LASF121
 4304 0805 0C       		.byte	0xc
 4305 0806 4402     		.2byte	0x244
 4306 0808 0F010000 		.4byte	0x10f
 4307 080c 0C       		.byte	0xc
 4308 080d 09       		.uleb128 0x9
 4309 080e 445200   		.ascii	"DR\000"
 4310 0811 0C       		.byte	0xc
 4311 0812 4502     		.2byte	0x245
 4312 0814 0F010000 		.4byte	0x10f
 4313 0818 10       		.byte	0x10
 4314 0819 09       		.uleb128 0x9
 4315 081a 53523100 		.ascii	"SR1\000"
 4316 081e 0C       		.byte	0xc
 4317 081f 4602     		.2byte	0x246
 4318 0821 0F010000 		.4byte	0x10f
 4319 0825 14       		.byte	0x14
 4320 0826 09       		.uleb128 0x9
 4321 0827 53523200 		.ascii	"SR2\000"
 4322 082b 0C       		.byte	0xc
 4323 082c 4702     		.2byte	0x247
 4324 082e 0F010000 		.4byte	0x10f
 4325 0832 18       		.byte	0x18
 4326 0833 09       		.uleb128 0x9
 4327 0834 43435200 		.ascii	"CCR\000"
 4328 0838 0C       		.byte	0xc
 4329 0839 4802     		.2byte	0x248
 4330 083b 0F010000 		.4byte	0x10f
 4331 083f 1C       		.byte	0x1c
 4332 0840 0A       		.uleb128 0xa
 4333 0841 FE040000 		.4byte	.LASF122
 4334 0845 0C       		.byte	0xc
 4335 0846 4902     		.2byte	0x249
 4336 0848 0F010000 		.4byte	0x10f
 4337 084c 20       		.byte	0x20
 4338 084d 0A       		.uleb128 0xa
 4339 084e EA280000 		.4byte	.LASF123
 4340 0852 0C       		.byte	0xc
 4341 0853 4A02     		.2byte	0x24a
 4342 0855 0F010000 		.4byte	0x10f
 4343 0859 24       		.byte	0x24
 4344 085a 00       		.byte	0
 4345 085b 18       		.uleb128 0x18
 4346 085c 5E180000 		.4byte	.LASF124
 4347 0860 0C       		.byte	0xc
 4348 0861 4B02     		.2byte	0x24b
 4349 0863 D0070000 		.4byte	0x7d0
 4350 0867 17       		.uleb128 0x17
 4351 0868 24       		.byte	0x24
 4352 0869 0C       		.byte	0xc
 4353 086a DB02     		.2byte	0x2db
 4354 086c E4080000 		.4byte	0x8e4
 4355 0870 09       		.uleb128 0x9
 4356 0871 43523100 		.ascii	"CR1\000"
 4357 0875 0C       		.byte	0xc
 4358 0876 DD02     		.2byte	0x2dd
 4359 0878 0F010000 		.4byte	0x10f
ARM GAS  C:\Users\CHRIST~1\AppData\Local\Temp\ccVm3NB4.s 			page 88


 4360 087c 00       		.byte	0
 4361 087d 09       		.uleb128 0x9
 4362 087e 43523200 		.ascii	"CR2\000"
 4363 0882 0C       		.byte	0xc
 4364 0883 DE02     		.2byte	0x2de
 4365 0885 0F010000 		.4byte	0x10f
 4366 0889 04       		.byte	0x4
 4367 088a 09       		.uleb128 0x9
 4368 088b 535200   		.ascii	"SR\000"
 4369 088e 0C       		.byte	0xc
 4370 088f DF02     		.2byte	0x2df
 4371 0891 0F010000 		.4byte	0x10f
 4372 0895 08       		.byte	0x8
 4373 0896 09       		.uleb128 0x9
 4374 0897 445200   		.ascii	"DR\000"
 4375 089a 0C       		.byte	0xc
 4376 089b E002     		.2byte	0x2e0
 4377 089d 0F010000 		.4byte	0x10f
 4378 08a1 0C       		.byte	0xc
 4379 08a2 0A       		.uleb128 0xa
 4380 08a3 69070000 		.4byte	.LASF125
 4381 08a7 0C       		.byte	0xc
 4382 08a8 E102     		.2byte	0x2e1
 4383 08aa 0F010000 		.4byte	0x10f
 4384 08ae 10       		.byte	0x10
 4385 08af 0A       		.uleb128 0xa
 4386 08b0 AF0C0000 		.4byte	.LASF126
 4387 08b4 0C       		.byte	0xc
 4388 08b5 E202     		.2byte	0x2e2
 4389 08b7 0F010000 		.4byte	0x10f
 4390 08bb 14       		.byte	0x14
 4391 08bc 0A       		.uleb128 0xa
 4392 08bd 890B0000 		.4byte	.LASF127
 4393 08c1 0C       		.byte	0xc
 4394 08c2 E302     		.2byte	0x2e3
 4395 08c4 0F010000 		.4byte	0x10f
 4396 08c8 18       		.byte	0x18
 4397 08c9 0A       		.uleb128 0xa
 4398 08ca C5250000 		.4byte	.LASF128
 4399 08ce 0C       		.byte	0xc
 4400 08cf E402     		.2byte	0x2e4
 4401 08d1 0F010000 		.4byte	0x10f
 4402 08d5 1C       		.byte	0x1c
 4403 08d6 0A       		.uleb128 0xa
 4404 08d7 32070000 		.4byte	.LASF129
 4405 08db 0C       		.byte	0xc
 4406 08dc E502     		.2byte	0x2e5
 4407 08de 0F010000 		.4byte	0x10f
 4408 08e2 20       		.byte	0x20
 4409 08e3 00       		.byte	0
 4410 08e4 18       		.uleb128 0x18
 4411 08e5 AE230000 		.4byte	.LASF130
 4412 08e9 0C       		.byte	0xc
 4413 08ea E602     		.2byte	0x2e6
 4414 08ec 67080000 		.4byte	0x867
 4415 08f0 17       		.uleb128 0x17
 4416 08f1 54       		.byte	0x54
ARM GAS  C:\Users\CHRIST~1\AppData\Local\Temp\ccVm3NB4.s 			page 89


 4417 08f2 0C       		.byte	0xc
 4418 08f3 EC02     		.2byte	0x2ec
 4419 08f5 090A0000 		.4byte	0xa09
 4420 08f9 09       		.uleb128 0x9
 4421 08fa 43523100 		.ascii	"CR1\000"
 4422 08fe 0C       		.byte	0xc
 4423 08ff EE02     		.2byte	0x2ee
 4424 0901 0F010000 		.4byte	0x10f
 4425 0905 00       		.byte	0
 4426 0906 09       		.uleb128 0x9
 4427 0907 43523200 		.ascii	"CR2\000"
 4428 090b 0C       		.byte	0xc
 4429 090c EF02     		.2byte	0x2ef
 4430 090e 0F010000 		.4byte	0x10f
 4431 0912 04       		.byte	0x4
 4432 0913 0A       		.uleb128 0xa
 4433 0914 C2230000 		.4byte	.LASF131
 4434 0918 0C       		.byte	0xc
 4435 0919 F002     		.2byte	0x2f0
 4436 091b 0F010000 		.4byte	0x10f
 4437 091f 08       		.byte	0x8
 4438 0920 0A       		.uleb128 0xa
 4439 0921 510B0000 		.4byte	.LASF132
 4440 0925 0C       		.byte	0xc
 4441 0926 F102     		.2byte	0x2f1
 4442 0928 0F010000 		.4byte	0x10f
 4443 092c 0C       		.byte	0xc
 4444 092d 09       		.uleb128 0x9
 4445 092e 535200   		.ascii	"SR\000"
 4446 0931 0C       		.byte	0xc
 4447 0932 F202     		.2byte	0x2f2
 4448 0934 0F010000 		.4byte	0x10f
 4449 0938 10       		.byte	0x10
 4450 0939 09       		.uleb128 0x9
 4451 093a 45475200 		.ascii	"EGR\000"
 4452 093e 0C       		.byte	0xc
 4453 093f F302     		.2byte	0x2f3
 4454 0941 0F010000 		.4byte	0x10f
 4455 0945 14       		.byte	0x14
 4456 0946 0A       		.uleb128 0xa
 4457 0947 10290000 		.4byte	.LASF133
 4458 094b 0C       		.byte	0xc
 4459 094c F402     		.2byte	0x2f4
 4460 094e 0F010000 		.4byte	0x10f
 4461 0952 18       		.byte	0x18
 4462 0953 0A       		.uleb128 0xa
 4463 0954 16290000 		.4byte	.LASF134
 4464 0958 0C       		.byte	0xc
 4465 0959 F502     		.2byte	0x2f5
 4466 095b 0F010000 		.4byte	0x10f
 4467 095f 1C       		.byte	0x1c
 4468 0960 0A       		.uleb128 0xa
 4469 0961 2D070000 		.4byte	.LASF135
 4470 0965 0C       		.byte	0xc
 4471 0966 F602     		.2byte	0x2f6
 4472 0968 0F010000 		.4byte	0x10f
 4473 096c 20       		.byte	0x20
ARM GAS  C:\Users\CHRIST~1\AppData\Local\Temp\ccVm3NB4.s 			page 90


 4474 096d 09       		.uleb128 0x9
 4475 096e 434E5400 		.ascii	"CNT\000"
 4476 0972 0C       		.byte	0xc
 4477 0973 F702     		.2byte	0x2f7
 4478 0975 0F010000 		.4byte	0x10f
 4479 0979 24       		.byte	0x24
 4480 097a 09       		.uleb128 0x9
 4481 097b 50534300 		.ascii	"PSC\000"
 4482 097f 0C       		.byte	0xc
 4483 0980 F802     		.2byte	0x2f8
 4484 0982 0F010000 		.4byte	0x10f
 4485 0986 28       		.byte	0x28
 4486 0987 09       		.uleb128 0x9
 4487 0988 41525200 		.ascii	"ARR\000"
 4488 098c 0C       		.byte	0xc
 4489 098d F902     		.2byte	0x2f9
 4490 098f 0F010000 		.4byte	0x10f
 4491 0993 2C       		.byte	0x2c
 4492 0994 09       		.uleb128 0x9
 4493 0995 52435200 		.ascii	"RCR\000"
 4494 0999 0C       		.byte	0xc
 4495 099a FA02     		.2byte	0x2fa
 4496 099c 0F010000 		.4byte	0x10f
 4497 09a0 30       		.byte	0x30
 4498 09a1 0A       		.uleb128 0xa
 4499 09a2 32110000 		.4byte	.LASF136
 4500 09a6 0C       		.byte	0xc
 4501 09a7 FB02     		.2byte	0x2fb
 4502 09a9 0F010000 		.4byte	0x10f
 4503 09ad 34       		.byte	0x34
 4504 09ae 0A       		.uleb128 0xa
 4505 09af 37110000 		.4byte	.LASF137
 4506 09b3 0C       		.byte	0xc
 4507 09b4 FC02     		.2byte	0x2fc
 4508 09b6 0F010000 		.4byte	0x10f
 4509 09ba 38       		.byte	0x38
 4510 09bb 0A       		.uleb128 0xa
 4511 09bc 3C110000 		.4byte	.LASF138
 4512 09c0 0C       		.byte	0xc
 4513 09c1 FD02     		.2byte	0x2fd
 4514 09c3 0F010000 		.4byte	0x10f
 4515 09c7 3C       		.byte	0x3c
 4516 09c8 0A       		.uleb128 0xa
 4517 09c9 41110000 		.4byte	.LASF139
 4518 09cd 0C       		.byte	0xc
 4519 09ce FE02     		.2byte	0x2fe
 4520 09d0 0F010000 		.4byte	0x10f
 4521 09d4 40       		.byte	0x40
 4522 09d5 0A       		.uleb128 0xa
 4523 09d6 08020000 		.4byte	.LASF140
 4524 09da 0C       		.byte	0xc
 4525 09db FF02     		.2byte	0x2ff
 4526 09dd 0F010000 		.4byte	0x10f
 4527 09e1 44       		.byte	0x44
 4528 09e2 09       		.uleb128 0x9
 4529 09e3 44435200 		.ascii	"DCR\000"
 4530 09e7 0C       		.byte	0xc
ARM GAS  C:\Users\CHRIST~1\AppData\Local\Temp\ccVm3NB4.s 			page 91


 4531 09e8 0003     		.2byte	0x300
 4532 09ea 0F010000 		.4byte	0x10f
 4533 09ee 48       		.byte	0x48
 4534 09ef 0A       		.uleb128 0xa
 4535 09f0 74180000 		.4byte	.LASF141
 4536 09f4 0C       		.byte	0xc
 4537 09f5 0103     		.2byte	0x301
 4538 09f7 0F010000 		.4byte	0x10f
 4539 09fb 4C       		.byte	0x4c
 4540 09fc 09       		.uleb128 0x9
 4541 09fd 4F5200   		.ascii	"OR\000"
 4542 0a00 0C       		.byte	0xc
 4543 0a01 0203     		.2byte	0x302
 4544 0a03 0F010000 		.4byte	0x10f
 4545 0a07 50       		.byte	0x50
 4546 0a08 00       		.byte	0
 4547 0a09 18       		.uleb128 0x18
 4548 0a0a 74140000 		.4byte	.LASF142
 4549 0a0e 0C       		.byte	0xc
 4550 0a0f 0303     		.2byte	0x303
 4551 0a11 F0080000 		.4byte	0x8f0
 4552 0a15 17       		.uleb128 0x17
 4553 0a16 1C       		.byte	0x1c
 4554 0a17 0C       		.byte	0xc
 4555 0a18 0903     		.2byte	0x309
 4556 0a1a 780A0000 		.4byte	0xa78
 4557 0a1e 09       		.uleb128 0x9
 4558 0a1f 535200   		.ascii	"SR\000"
 4559 0a22 0C       		.byte	0xc
 4560 0a23 0B03     		.2byte	0x30b
 4561 0a25 0F010000 		.4byte	0x10f
 4562 0a29 00       		.byte	0
 4563 0a2a 09       		.uleb128 0x9
 4564 0a2b 445200   		.ascii	"DR\000"
 4565 0a2e 0C       		.byte	0xc
 4566 0a2f 0C03     		.2byte	0x30c
 4567 0a31 0F010000 		.4byte	0x10f
 4568 0a35 04       		.byte	0x4
 4569 0a36 09       		.uleb128 0x9
 4570 0a37 42525200 		.ascii	"BRR\000"
 4571 0a3b 0C       		.byte	0xc
 4572 0a3c 0D03     		.2byte	0x30d
 4573 0a3e 0F010000 		.4byte	0x10f
 4574 0a42 08       		.byte	0x8
 4575 0a43 09       		.uleb128 0x9
 4576 0a44 43523100 		.ascii	"CR1\000"
 4577 0a48 0C       		.byte	0xc
 4578 0a49 0E03     		.2byte	0x30e
 4579 0a4b 0F010000 		.4byte	0x10f
 4580 0a4f 0C       		.byte	0xc
 4581 0a50 09       		.uleb128 0x9
 4582 0a51 43523200 		.ascii	"CR2\000"
 4583 0a55 0C       		.byte	0xc
 4584 0a56 0F03     		.2byte	0x30f
 4585 0a58 0F010000 		.4byte	0x10f
 4586 0a5c 10       		.byte	0x10
 4587 0a5d 09       		.uleb128 0x9
ARM GAS  C:\Users\CHRIST~1\AppData\Local\Temp\ccVm3NB4.s 			page 92


 4588 0a5e 43523300 		.ascii	"CR3\000"
 4589 0a62 0C       		.byte	0xc
 4590 0a63 1003     		.2byte	0x310
 4591 0a65 0F010000 		.4byte	0x10f
 4592 0a69 14       		.byte	0x14
 4593 0a6a 0A       		.uleb128 0xa
 4594 0a6b B2280000 		.4byte	.LASF143
 4595 0a6f 0C       		.byte	0xc
 4596 0a70 1103     		.2byte	0x311
 4597 0a72 0F010000 		.4byte	0x10f
 4598 0a76 18       		.byte	0x18
 4599 0a77 00       		.byte	0
 4600 0a78 18       		.uleb128 0x18
 4601 0a79 E3290000 		.4byte	.LASF144
 4602 0a7d 0C       		.byte	0xc
 4603 0a7e 1203     		.2byte	0x312
 4604 0a80 150A0000 		.4byte	0xa15
 4605 0a84 11       		.uleb128 0x11
 4606 0a85 0F010000 		.4byte	0x10f
 4607 0a89 940A0000 		.4byte	0xa94
 4608 0a8d 12       		.uleb128 0x12
 4609 0a8e CB040000 		.4byte	0x4cb
 4610 0a92 0E       		.byte	0xe
 4611 0a93 00       		.byte	0
 4612 0a94 04       		.uleb128 0x4
 4613 0a95 840A0000 		.4byte	0xa84
 4614 0a99 05       		.uleb128 0x5
 4615 0a9a 361B0000 		.4byte	.LASF145
 4616 0a9e 0D       		.byte	0xd
 4617 0a9f 65       		.byte	0x65
 4618 0aa0 95030000 		.4byte	0x395
 4619 0aa4 05       		.uleb128 0x5
 4620 0aa5 FF090000 		.4byte	.LASF146
 4621 0aa9 0D       		.byte	0xd
 4622 0aaa 6D       		.byte	0x6d
 4623 0aab 14010000 		.4byte	0x114
 4624 0aaf 07       		.uleb128 0x7
 4625 0ab0 751A0000 		.4byte	.LASF147
 4626 0ab4 04       		.byte	0x4
 4627 0ab5 0D       		.byte	0xd
 4628 0ab6 89       		.byte	0x89
 4629 0ab7 C80A0000 		.4byte	0xac8
 4630 0abb 16       		.uleb128 0x16
 4631 0abc 72313300 		.ascii	"r13\000"
 4632 0ac0 0D       		.byte	0xd
 4633 0ac1 8A       		.byte	0x8a
 4634 0ac2 090C0000 		.4byte	0xc09
 4635 0ac6 00       		.byte	0
 4636 0ac7 00       		.byte	0
 4637 0ac8 07       		.uleb128 0x7
 4638 0ac9 09000000 		.4byte	.LASF148
 4639 0acd 64       		.byte	0x64
 4640 0ace 0E       		.byte	0xe
 4641 0acf F4       		.byte	0xf4
 4642 0ad0 090C0000 		.4byte	0xc09
 4643 0ad4 16       		.uleb128 0x16
 4644 0ad5 73313600 		.ascii	"s16\000"
ARM GAS  C:\Users\CHRIST~1\AppData\Local\Temp\ccVm3NB4.s 			page 93


 4645 0ad9 0E       		.byte	0xe
 4646 0ada F6       		.byte	0xf6
 4647 0adb 990A0000 		.4byte	0xa99
 4648 0adf 00       		.byte	0
 4649 0ae0 16       		.uleb128 0x16
 4650 0ae1 73313700 		.ascii	"s17\000"
 4651 0ae5 0E       		.byte	0xe
 4652 0ae6 F7       		.byte	0xf7
 4653 0ae7 990A0000 		.4byte	0xa99
 4654 0aeb 04       		.byte	0x4
 4655 0aec 16       		.uleb128 0x16
 4656 0aed 73313800 		.ascii	"s18\000"
 4657 0af1 0E       		.byte	0xe
 4658 0af2 F8       		.byte	0xf8
 4659 0af3 990A0000 		.4byte	0xa99
 4660 0af7 08       		.byte	0x8
 4661 0af8 16       		.uleb128 0x16
 4662 0af9 73313900 		.ascii	"s19\000"
 4663 0afd 0E       		.byte	0xe
 4664 0afe F9       		.byte	0xf9
 4665 0aff 990A0000 		.4byte	0xa99
 4666 0b03 0C       		.byte	0xc
 4667 0b04 16       		.uleb128 0x16
 4668 0b05 73323000 		.ascii	"s20\000"
 4669 0b09 0E       		.byte	0xe
 4670 0b0a FA       		.byte	0xfa
 4671 0b0b 990A0000 		.4byte	0xa99
 4672 0b0f 10       		.byte	0x10
 4673 0b10 16       		.uleb128 0x16
 4674 0b11 73323100 		.ascii	"s21\000"
 4675 0b15 0E       		.byte	0xe
 4676 0b16 FB       		.byte	0xfb
 4677 0b17 990A0000 		.4byte	0xa99
 4678 0b1b 14       		.byte	0x14
 4679 0b1c 16       		.uleb128 0x16
 4680 0b1d 73323200 		.ascii	"s22\000"
 4681 0b21 0E       		.byte	0xe
 4682 0b22 FC       		.byte	0xfc
 4683 0b23 990A0000 		.4byte	0xa99
 4684 0b27 18       		.byte	0x18
 4685 0b28 16       		.uleb128 0x16
 4686 0b29 73323300 		.ascii	"s23\000"
 4687 0b2d 0E       		.byte	0xe
 4688 0b2e FD       		.byte	0xfd
 4689 0b2f 990A0000 		.4byte	0xa99
 4690 0b33 1C       		.byte	0x1c
 4691 0b34 16       		.uleb128 0x16
 4692 0b35 73323400 		.ascii	"s24\000"
 4693 0b39 0E       		.byte	0xe
 4694 0b3a FE       		.byte	0xfe
 4695 0b3b 990A0000 		.4byte	0xa99
 4696 0b3f 20       		.byte	0x20
 4697 0b40 16       		.uleb128 0x16
 4698 0b41 73323500 		.ascii	"s25\000"
 4699 0b45 0E       		.byte	0xe
 4700 0b46 FF       		.byte	0xff
 4701 0b47 990A0000 		.4byte	0xa99
ARM GAS  C:\Users\CHRIST~1\AppData\Local\Temp\ccVm3NB4.s 			page 94


 4702 0b4b 24       		.byte	0x24
 4703 0b4c 09       		.uleb128 0x9
 4704 0b4d 73323600 		.ascii	"s26\000"
 4705 0b51 0E       		.byte	0xe
 4706 0b52 0001     		.2byte	0x100
 4707 0b54 990A0000 		.4byte	0xa99
 4708 0b58 28       		.byte	0x28
 4709 0b59 09       		.uleb128 0x9
 4710 0b5a 73323700 		.ascii	"s27\000"
 4711 0b5e 0E       		.byte	0xe
 4712 0b5f 0101     		.2byte	0x101
 4713 0b61 990A0000 		.4byte	0xa99
 4714 0b65 2C       		.byte	0x2c
 4715 0b66 09       		.uleb128 0x9
 4716 0b67 73323800 		.ascii	"s28\000"
 4717 0b6b 0E       		.byte	0xe
 4718 0b6c 0201     		.2byte	0x102
 4719 0b6e 990A0000 		.4byte	0xa99
 4720 0b72 30       		.byte	0x30
 4721 0b73 09       		.uleb128 0x9
 4722 0b74 73323900 		.ascii	"s29\000"
 4723 0b78 0E       		.byte	0xe
 4724 0b79 0301     		.2byte	0x103
 4725 0b7b 990A0000 		.4byte	0xa99
 4726 0b7f 34       		.byte	0x34
 4727 0b80 09       		.uleb128 0x9
 4728 0b81 73333000 		.ascii	"s30\000"
 4729 0b85 0E       		.byte	0xe
 4730 0b86 0401     		.2byte	0x104
 4731 0b88 990A0000 		.4byte	0xa99
 4732 0b8c 38       		.byte	0x38
 4733 0b8d 09       		.uleb128 0x9
 4734 0b8e 73333100 		.ascii	"s31\000"
 4735 0b92 0E       		.byte	0xe
 4736 0b93 0501     		.2byte	0x105
 4737 0b95 990A0000 		.4byte	0xa99
 4738 0b99 3C       		.byte	0x3c
 4739 0b9a 09       		.uleb128 0x9
 4740 0b9b 723400   		.ascii	"r4\000"
 4741 0b9e 0E       		.byte	0xe
 4742 0b9f 0701     		.2byte	0x107
 4743 0ba1 990A0000 		.4byte	0xa99
 4744 0ba5 40       		.byte	0x40
 4745 0ba6 09       		.uleb128 0x9
 4746 0ba7 723500   		.ascii	"r5\000"
 4747 0baa 0E       		.byte	0xe
 4748 0bab 0801     		.2byte	0x108
 4749 0bad 990A0000 		.4byte	0xa99
 4750 0bb1 44       		.byte	0x44
 4751 0bb2 09       		.uleb128 0x9
 4752 0bb3 723600   		.ascii	"r6\000"
 4753 0bb6 0E       		.byte	0xe
 4754 0bb7 0901     		.2byte	0x109
 4755 0bb9 990A0000 		.4byte	0xa99
 4756 0bbd 48       		.byte	0x48
 4757 0bbe 09       		.uleb128 0x9
 4758 0bbf 723700   		.ascii	"r7\000"
ARM GAS  C:\Users\CHRIST~1\AppData\Local\Temp\ccVm3NB4.s 			page 95


 4759 0bc2 0E       		.byte	0xe
 4760 0bc3 0A01     		.2byte	0x10a
 4761 0bc5 990A0000 		.4byte	0xa99
 4762 0bc9 4C       		.byte	0x4c
 4763 0bca 09       		.uleb128 0x9
 4764 0bcb 723800   		.ascii	"r8\000"
 4765 0bce 0E       		.byte	0xe
 4766 0bcf 0B01     		.2byte	0x10b
 4767 0bd1 990A0000 		.4byte	0xa99
 4768 0bd5 50       		.byte	0x50
 4769 0bd6 09       		.uleb128 0x9
 4770 0bd7 723900   		.ascii	"r9\000"
 4771 0bda 0E       		.byte	0xe
 4772 0bdb 0C01     		.2byte	0x10c
 4773 0bdd 990A0000 		.4byte	0xa99
 4774 0be1 54       		.byte	0x54
 4775 0be2 09       		.uleb128 0x9
 4776 0be3 72313000 		.ascii	"r10\000"
 4777 0be7 0E       		.byte	0xe
 4778 0be8 0D01     		.2byte	0x10d
 4779 0bea 990A0000 		.4byte	0xa99
 4780 0bee 58       		.byte	0x58
 4781 0bef 09       		.uleb128 0x9
 4782 0bf0 72313100 		.ascii	"r11\000"
 4783 0bf4 0E       		.byte	0xe
 4784 0bf5 0E01     		.2byte	0x10e
 4785 0bf7 990A0000 		.4byte	0xa99
 4786 0bfb 5C       		.byte	0x5c
 4787 0bfc 09       		.uleb128 0x9
 4788 0bfd 6C7200   		.ascii	"lr\000"
 4789 0c00 0E       		.byte	0xe
 4790 0c01 0F01     		.2byte	0x10f
 4791 0c03 990A0000 		.4byte	0xa99
 4792 0c07 60       		.byte	0x60
 4793 0c08 00       		.byte	0
 4794 0c09 0B       		.uleb128 0xb
 4795 0c0a 04       		.byte	0x4
 4796 0c0b C80A0000 		.4byte	0xac8
 4797 0c0f 15       		.uleb128 0x15
 4798 0c10 04       		.byte	0x4
 4799 0c11 0F       		.byte	0xf
 4800 0c12 38       		.byte	0x38
 4801 0c13 240C0000 		.4byte	0xc24
 4802 0c17 08       		.uleb128 0x8
 4803 0c18 35230000 		.4byte	.LASF149
 4804 0c1c 0F       		.byte	0xf
 4805 0c1d 3C       		.byte	0x3c
 4806 0c1e 1F010000 		.4byte	0x11f
 4807 0c22 00       		.byte	0
 4808 0c23 00       		.byte	0
 4809 0c24 05       		.uleb128 0x5
 4810 0c25 75280000 		.4byte	.LASF150
 4811 0c29 0F       		.byte	0xf
 4812 0c2a 3D       		.byte	0x3d
 4813 0c2b 0F0C0000 		.4byte	0xc0f
 4814 0c2f 1C       		.uleb128 0x1c
 4815 0c30 04       		.byte	0x4
ARM GAS  C:\Users\CHRIST~1\AppData\Local\Temp\ccVm3NB4.s 			page 96


 4816 0c31 09       		.byte	0x9
 4817 0c32 FA       		.byte	0xfa
 4818 0c33 8C0C0000 		.4byte	0xc8c
 4819 0c37 1D       		.uleb128 0x1d
 4820 0c38 E8110000 		.4byte	.LASF151
 4821 0c3c 09       		.byte	0x9
 4822 0c3d 0101     		.2byte	0x101
 4823 0c3f 61010000 		.4byte	0x161
 4824 0c43 1D       		.uleb128 0x1d
 4825 0c44 AA0F0000 		.4byte	.LASF152
 4826 0c48 09       		.byte	0x9
 4827 0c49 0801     		.2byte	0x108
 4828 0c4b 61010000 		.4byte	0x161
 4829 0c4f 1D       		.uleb128 0x1d
 4830 0c50 A91F0000 		.4byte	.LASF153
 4831 0c54 09       		.byte	0x9
 4832 0c55 0F01     		.2byte	0x10f
 4833 0c57 95030000 		.4byte	0x395
 4834 0c5b 1D       		.uleb128 0x1d
 4835 0c5c 671A0000 		.4byte	.LASF154
 4836 0c60 09       		.byte	0x9
 4837 0c61 1601     		.2byte	0x116
 4838 0c63 8C0C0000 		.4byte	0xc8c
 4839 0c67 1D       		.uleb128 0x1d
 4840 0c68 1A010000 		.4byte	.LASF155
 4841 0c6c 09       		.byte	0x9
 4842 0c6d 1E01     		.2byte	0x11e
 4843 0c6f B70C0000 		.4byte	0xcb7
 4844 0c73 1D       		.uleb128 0x1d
 4845 0c74 F21F0000 		.4byte	.LASF156
 4846 0c78 09       		.byte	0x9
 4847 0c79 2701     		.2byte	0x127
 4848 0c7b EE0C0000 		.4byte	0xcee
 4849 0c7f 1D       		.uleb128 0x1d
 4850 0c80 F9230000 		.4byte	.LASF157
 4851 0c84 09       		.byte	0x9
 4852 0c85 2F01     		.2byte	0x12f
 4853 0c87 6C010000 		.4byte	0x16c
 4854 0c8b 00       		.byte	0
 4855 0c8c 0B       		.uleb128 0xb
 4856 0c8d 04       		.byte	0x4
 4857 0c8e AD020000 		.4byte	0x2ad
 4858 0c92 07       		.uleb128 0x7
 4859 0c93 D9180000 		.4byte	.LASF158
 4860 0c97 0C       		.byte	0xc
 4861 0c98 10       		.byte	0x10
 4862 0c99 34       		.byte	0x34
 4863 0c9a B70C0000 		.4byte	0xcb7
 4864 0c9e 08       		.uleb128 0x8
 4865 0c9f BD250000 		.4byte	.LASF159
 4866 0ca3 10       		.byte	0x10
 4867 0ca4 35       		.byte	0x35
 4868 0ca5 E2020000 		.4byte	0x2e2
 4869 0ca9 00       		.byte	0
 4870 0caa 08       		.uleb128 0x8
 4871 0cab 830A0000 		.4byte	.LASF160
 4872 0caf 10       		.byte	0x10
ARM GAS  C:\Users\CHRIST~1\AppData\Local\Temp\ccVm3NB4.s 			page 97


 4873 0cb0 37       		.byte	0x37
 4874 0cb1 82010000 		.4byte	0x182
 4875 0cb5 08       		.byte	0x8
 4876 0cb6 00       		.byte	0
 4877 0cb7 0B       		.uleb128 0xb
 4878 0cb8 04       		.byte	0x4
 4879 0cb9 920C0000 		.4byte	0xc92
 4880 0cbd 07       		.uleb128 0x7
 4881 0cbe C40C0000 		.4byte	.LASF161
 4882 0cc2 10       		.byte	0x10
 4883 0cc3 11       		.byte	0x11
 4884 0cc4 39       		.byte	0x39
 4885 0cc5 EE0C0000 		.4byte	0xcee
 4886 0cc9 08       		.uleb128 0x8
 4887 0cca F9190000 		.4byte	.LASF162
 4888 0cce 11       		.byte	0x11
 4889 0ccf 3A       		.byte	0x3a
 4890 0cd0 E2020000 		.4byte	0x2e2
 4891 0cd4 00       		.byte	0
 4892 0cd5 08       		.uleb128 0x8
 4893 0cd6 FD170000 		.4byte	.LASF163
 4894 0cda 11       		.byte	0x11
 4895 0cdb 3C       		.byte	0x3c
 4896 0cdc B8020000 		.4byte	0x2b8
 4897 0ce0 08       		.byte	0x8
 4898 0ce1 08       		.uleb128 0x8
 4899 0ce2 BE010000 		.4byte	.LASF164
 4900 0ce6 11       		.byte	0x11
 4901 0ce7 3E       		.byte	0x3e
 4902 0ce8 430E0000 		.4byte	0xe43
 4903 0cec 0C       		.byte	0xc
 4904 0ced 00       		.byte	0
 4905 0cee 0B       		.uleb128 0xb
 4906 0cef 04       		.byte	0x4
 4907 0cf0 BD0C0000 		.4byte	0xcbd
 4908 0cf4 0B       		.uleb128 0xb
 4909 0cf5 04       		.byte	0x4
 4910 0cf6 060D0000 		.4byte	0xd06
 4911 0cfa 04       		.uleb128 0x4
 4912 0cfb F40C0000 		.4byte	0xcf4
 4913 0cff 02       		.uleb128 0x2
 4914 0d00 01       		.byte	0x1
 4915 0d01 08       		.byte	0x8
 4916 0d02 4B1C0000 		.4byte	.LASF165
 4917 0d06 06       		.uleb128 0x6
 4918 0d07 FF0C0000 		.4byte	0xcff
 4919 0d0b 0B       		.uleb128 0xb
 4920 0d0c 04       		.byte	0x4
 4921 0d0d 97030000 		.4byte	0x397
 4922 0d11 11       		.uleb128 0x11
 4923 0d12 A40A0000 		.4byte	0xaa4
 4924 0d16 210D0000 		.4byte	0xd21
 4925 0d1a 12       		.uleb128 0x12
 4926 0d1b CB040000 		.4byte	0x4cb
 4927 0d1f 3A       		.byte	0x3a
 4928 0d20 00       		.byte	0
 4929 0d21 1E       		.uleb128 0x1e
ARM GAS  C:\Users\CHRIST~1\AppData\Local\Temp\ccVm3NB4.s 			page 98


 4930 0d22 636800   		.ascii	"ch\000"
 4931 0d25 09       		.byte	0x9
 4932 0d26 0902     		.2byte	0x209
 4933 0d28 64040000 		.4byte	0x464
 4934 0d2c 15       		.uleb128 0x15
 4935 0d2d 16       		.byte	0x16
 4936 0d2e 12       		.byte	0x12
 4937 0d2f 34       		.byte	0x34
 4938 0d30 0D0E0000 		.4byte	0xe0d
 4939 0d34 08       		.uleb128 0x8
 4940 0d35 04260000 		.4byte	.LASF166
 4941 0d39 12       		.byte	0x12
 4942 0d3a 35       		.byte	0x35
 4943 0d3b 0D0E0000 		.4byte	0xe0d
 4944 0d3f 00       		.byte	0
 4945 0d40 08       		.uleb128 0x8
 4946 0d41 B7280000 		.4byte	.LASF167
 4947 0d45 12       		.byte	0x12
 4948 0d46 36       		.byte	0x36
 4949 0d47 D4000000 		.4byte	0xd4
 4950 0d4b 04       		.byte	0x4
 4951 0d4c 08       		.uleb128 0x8
 4952 0d4d 09030000 		.4byte	.LASF168
 4953 0d51 12       		.byte	0x12
 4954 0d52 37       		.byte	0x37
 4955 0d53 D4000000 		.4byte	0xd4
 4956 0d57 05       		.byte	0x5
 4957 0d58 08       		.uleb128 0x8
 4958 0d59 38180000 		.4byte	.LASF169
 4959 0d5d 12       		.byte	0x12
 4960 0d5e 38       		.byte	0x38
 4961 0d5f E4000000 		.4byte	0xe4
 4962 0d63 06       		.byte	0x6
 4963 0d64 08       		.uleb128 0x8
 4964 0d65 27000000 		.4byte	.LASF170
 4965 0d69 12       		.byte	0x12
 4966 0d6a 39       		.byte	0x39
 4967 0d6b D4000000 		.4byte	0xd4
 4968 0d6f 08       		.byte	0x8
 4969 0d70 08       		.uleb128 0x8
 4970 0d71 88160000 		.4byte	.LASF171
 4971 0d75 12       		.byte	0x12
 4972 0d76 3A       		.byte	0x3a
 4973 0d77 D4000000 		.4byte	0xd4
 4974 0d7b 09       		.byte	0x9
 4975 0d7c 08       		.uleb128 0x8
 4976 0d7d DC280000 		.4byte	.LASF172
 4977 0d81 12       		.byte	0x12
 4978 0d82 3B       		.byte	0x3b
 4979 0d83 D4000000 		.4byte	0xd4
 4980 0d87 0A       		.byte	0xa
 4981 0d88 08       		.uleb128 0x8
 4982 0d89 3F260000 		.4byte	.LASF173
 4983 0d8d 12       		.byte	0x12
 4984 0d8e 3C       		.byte	0x3c
 4985 0d8f D4000000 		.4byte	0xd4
 4986 0d93 0B       		.byte	0xb
ARM GAS  C:\Users\CHRIST~1\AppData\Local\Temp\ccVm3NB4.s 			page 99


 4987 0d94 08       		.uleb128 0x8
 4988 0d95 52050000 		.4byte	.LASF174
 4989 0d99 12       		.byte	0x12
 4990 0d9a 3D       		.byte	0x3d
 4991 0d9b D4000000 		.4byte	0xd4
 4992 0d9f 0C       		.byte	0xc
 4993 0da0 08       		.uleb128 0x8
 4994 0da1 1F0D0000 		.4byte	.LASF175
 4995 0da5 12       		.byte	0x12
 4996 0da6 3E       		.byte	0x3e
 4997 0da7 D4000000 		.4byte	0xd4
 4998 0dab 0D       		.byte	0xd
 4999 0dac 08       		.uleb128 0x8
 5000 0dad 98050000 		.4byte	.LASF176
 5001 0db1 12       		.byte	0x12
 5002 0db2 3F       		.byte	0x3f
 5003 0db3 D4000000 		.4byte	0xd4
 5004 0db7 0E       		.byte	0xe
 5005 0db8 08       		.uleb128 0x8
 5006 0db9 4B0F0000 		.4byte	.LASF177
 5007 0dbd 12       		.byte	0x12
 5008 0dbe 40       		.byte	0x40
 5009 0dbf D4000000 		.4byte	0xd4
 5010 0dc3 0F       		.byte	0xf
 5011 0dc4 08       		.uleb128 0x8
 5012 0dc5 D5030000 		.4byte	.LASF178
 5013 0dc9 12       		.byte	0x12
 5014 0dca 41       		.byte	0x41
 5015 0dcb D4000000 		.4byte	0xd4
 5016 0dcf 10       		.byte	0x10
 5017 0dd0 08       		.uleb128 0x8
 5018 0dd1 A6090000 		.4byte	.LASF179
 5019 0dd5 12       		.byte	0x12
 5020 0dd6 43       		.byte	0x43
 5021 0dd7 D4000000 		.4byte	0xd4
 5022 0ddb 11       		.byte	0x11
 5023 0ddc 08       		.uleb128 0x8
 5024 0ddd D8020000 		.4byte	.LASF180
 5025 0de1 12       		.byte	0x12
 5026 0de2 44       		.byte	0x44
 5027 0de3 D4000000 		.4byte	0xd4
 5028 0de7 12       		.byte	0x12
 5029 0de8 08       		.uleb128 0x8
 5030 0de9 DC170000 		.4byte	.LASF181
 5031 0ded 12       		.byte	0x12
 5032 0dee 45       		.byte	0x45
 5033 0def D4000000 		.4byte	0xd4
 5034 0df3 13       		.byte	0x13
 5035 0df4 08       		.uleb128 0x8
 5036 0df5 701E0000 		.4byte	.LASF182
 5037 0df9 12       		.byte	0x12
 5038 0dfa 46       		.byte	0x46
 5039 0dfb D4000000 		.4byte	0xd4
 5040 0dff 14       		.byte	0x14
 5041 0e00 08       		.uleb128 0x8
 5042 0e01 F8000000 		.4byte	.LASF183
 5043 0e05 12       		.byte	0x12
ARM GAS  C:\Users\CHRIST~1\AppData\Local\Temp\ccVm3NB4.s 			page 100


 5044 0e06 48       		.byte	0x48
 5045 0e07 D4000000 		.4byte	0xd4
 5046 0e0b 15       		.byte	0x15
 5047 0e0c 00       		.byte	0
 5048 0e0d 11       		.uleb128 0x11
 5049 0e0e FF0C0000 		.4byte	0xcff
 5050 0e12 1D0E0000 		.4byte	0xe1d
 5051 0e16 12       		.uleb128 0x12
 5052 0e17 CB040000 		.4byte	0x4cb
 5053 0e1b 03       		.byte	0x3
 5054 0e1c 00       		.byte	0
 5055 0e1d 05       		.uleb128 0x5
 5056 0e1e FD150000 		.4byte	.LASF184
 5057 0e22 12       		.byte	0x12
 5058 0e23 49       		.byte	0x49
 5059 0e24 2C0D0000 		.4byte	0xd2c
 5060 0e28 06       		.uleb128 0x6
 5061 0e29 1D0E0000 		.4byte	0xe1d
 5062 0e2d 14       		.uleb128 0x14
 5063 0e2e 100C0000 		.4byte	.LASF185
 5064 0e32 12       		.byte	0x12
 5065 0e33 6E       		.byte	0x6e
 5066 0e34 280E0000 		.4byte	0xe28
 5067 0e38 05       		.uleb128 0x5
 5068 0e39 90210000 		.4byte	.LASF186
 5069 0e3d 11       		.byte	0x11
 5070 0e3e 34       		.byte	0x34
 5071 0e3f BD0C0000 		.4byte	0xcbd
 5072 0e43 0B       		.uleb128 0xb
 5073 0e44 04       		.byte	0x4
 5074 0e45 380E0000 		.4byte	0xe38
 5075 0e49 05       		.uleb128 0x5
 5076 0e4a 6C0C0000 		.4byte	.LASF187
 5077 0e4e 13       		.byte	0x13
 5078 0e4f 34       		.byte	0x34
 5079 0e50 540E0000 		.4byte	0xe54
 5080 0e54 07       		.uleb128 0x7
 5081 0e55 5D0A0000 		.4byte	.LASF188
 5082 0e59 14       		.byte	0x14
 5083 0e5a 13       		.byte	0x13
 5084 0e5b 39       		.byte	0x39
 5085 0e5c 9D0E0000 		.4byte	0xe9d
 5086 0e60 08       		.uleb128 0x8
 5087 0e61 5B020000 		.4byte	.LASF189
 5088 0e65 13       		.byte	0x13
 5089 0e66 3A       		.byte	0x3a
 5090 0e67 9D0E0000 		.4byte	0xe9d
 5091 0e6b 00       		.byte	0
 5092 0e6c 08       		.uleb128 0x8
 5093 0e6d 69220000 		.4byte	.LASF190
 5094 0e71 13       		.byte	0x13
 5095 0e72 3D       		.byte	0x3d
 5096 0e73 B8020000 		.4byte	0x2b8
 5097 0e77 04       		.byte	0x4
 5098 0e78 08       		.uleb128 0x8
 5099 0e79 6B030000 		.4byte	.LASF191
 5100 0e7d 13       		.byte	0x13
ARM GAS  C:\Users\CHRIST~1\AppData\Local\Temp\ccVm3NB4.s 			page 101


 5101 0e7e 3F       		.byte	0x3f
 5102 0e7f 6C010000 		.4byte	0x16c
 5103 0e83 08       		.byte	0x8
 5104 0e84 08       		.uleb128 0x8
 5105 0e85 1F240000 		.4byte	.LASF192
 5106 0e89 13       		.byte	0x13
 5107 0e8a 41       		.byte	0x41
 5108 0e8b 77010000 		.4byte	0x177
 5109 0e8f 0C       		.byte	0xc
 5110 0e90 08       		.uleb128 0x8
 5111 0e91 8D0F0000 		.4byte	.LASF193
 5112 0e95 13       		.byte	0x13
 5113 0e96 43       		.byte	0x43
 5114 0e97 77010000 		.4byte	0x177
 5115 0e9b 10       		.byte	0x10
 5116 0e9c 00       		.byte	0
 5117 0e9d 0B       		.uleb128 0xb
 5118 0e9e 04       		.byte	0x4
 5119 0e9f 490E0000 		.4byte	0xe49
 5120 0ea3 07       		.uleb128 0x7
 5121 0ea4 28240000 		.4byte	.LASF194
 5122 0ea8 04       		.byte	0x4
 5123 0ea9 13       		.byte	0x13
 5124 0eaa 4A       		.byte	0x4a
 5125 0eab BC0E0000 		.4byte	0xebc
 5126 0eaf 08       		.uleb128 0x8
 5127 0eb0 6D230000 		.4byte	.LASF195
 5128 0eb4 13       		.byte	0x13
 5129 0eb5 4B       		.byte	0x4b
 5130 0eb6 9D0E0000 		.4byte	0xe9d
 5131 0eba 00       		.byte	0
 5132 0ebb 00       		.byte	0
 5133 0ebc 05       		.uleb128 0x5
 5134 0ebd B0160000 		.4byte	.LASF196
 5135 0ec1 13       		.byte	0x13
 5136 0ec2 4E       		.byte	0x4e
 5137 0ec3 A30E0000 		.4byte	0xea3
 5138 0ec7 05       		.uleb128 0x5
 5139 0ec8 DC0F0000 		.4byte	.LASF197
 5140 0ecc 14       		.byte	0x14
 5141 0ecd 3F       		.byte	0x3f
 5142 0ece D20E0000 		.4byte	0xed2
 5143 0ed2 07       		.uleb128 0x7
 5144 0ed3 44120000 		.4byte	.LASF198
 5145 0ed7 24       		.byte	0x24
 5146 0ed8 14       		.byte	0x14
 5147 0ed9 4D       		.byte	0x4d
 5148 0eda 3F0F0000 		.4byte	0xf3f
 5149 0ede 08       		.uleb128 0x8
 5150 0edf 1D050000 		.4byte	.LASF199
 5151 0ee3 14       		.byte	0x14
 5152 0ee4 4E       		.byte	0x4e
 5153 0ee5 E2020000 		.4byte	0x2e2
 5154 0ee9 00       		.byte	0
 5155 0eea 08       		.uleb128 0x8
 5156 0eeb 25210000 		.4byte	.LASF200
 5157 0eef 14       		.byte	0x14
ARM GAS  C:\Users\CHRIST~1\AppData\Local\Temp\ccVm3NB4.s 			page 102


 5158 0ef0 4F       		.byte	0x4f
 5159 0ef1 43000000 		.4byte	0x43
 5160 0ef5 08       		.byte	0x8
 5161 0ef6 08       		.uleb128 0x8
 5162 0ef7 17130000 		.4byte	.LASF201
 5163 0efb 14       		.byte	0x14
 5164 0efc 50       		.byte	0x50
 5165 0efd 610F0000 		.4byte	0xf61
 5166 0f01 0C       		.byte	0xc
 5167 0f02 08       		.uleb128 0x8
 5168 0f03 68040000 		.4byte	.LASF202
 5169 0f07 14       		.byte	0x14
 5170 0f08 51       		.byte	0x51
 5171 0f09 610F0000 		.4byte	0xf61
 5172 0f0d 10       		.byte	0x10
 5173 0f0e 08       		.uleb128 0x8
 5174 0f0f B11B0000 		.4byte	.LASF203
 5175 0f13 14       		.byte	0x14
 5176 0f14 53       		.byte	0x53
 5177 0f15 610F0000 		.4byte	0xf61
 5178 0f19 14       		.byte	0x14
 5179 0f1a 08       		.uleb128 0x8
 5180 0f1b 6D1A0000 		.4byte	.LASF204
 5181 0f1f 14       		.byte	0x14
 5182 0f20 54       		.byte	0x54
 5183 0f21 610F0000 		.4byte	0xf61
 5184 0f25 18       		.byte	0x18
 5185 0f26 08       		.uleb128 0x8
 5186 0f27 E91F0000 		.4byte	.LASF205
 5187 0f2b 14       		.byte	0x14
 5188 0f2c 55       		.byte	0x55
 5189 0f2d 3F0F0000 		.4byte	0xf3f
 5190 0f31 1C       		.byte	0x1c
 5191 0f32 08       		.uleb128 0x8
 5192 0f33 B21C0000 		.4byte	.LASF206
 5193 0f37 14       		.byte	0x14
 5194 0f38 56       		.byte	0x56
 5195 0f39 95030000 		.4byte	0x395
 5196 0f3d 20       		.byte	0x20
 5197 0f3e 00       		.byte	0
 5198 0f3f 05       		.uleb128 0x5
 5199 0f40 57040000 		.4byte	.LASF207
 5200 0f44 14       		.byte	0x14
 5201 0f45 42       		.byte	0x42
 5202 0f46 4A0F0000 		.4byte	0xf4a
 5203 0f4a 0B       		.uleb128 0xb
 5204 0f4b 04       		.byte	0x4
 5205 0f4c 500F0000 		.4byte	0xf50
 5206 0f50 0D       		.uleb128 0xd
 5207 0f51 5B0F0000 		.4byte	0xf5b
 5208 0f55 0E       		.uleb128 0xe
 5209 0f56 5B0F0000 		.4byte	0xf5b
 5210 0f5a 00       		.byte	0
 5211 0f5b 0B       		.uleb128 0xb
 5212 0f5c 04       		.byte	0x4
 5213 0f5d C70E0000 		.4byte	0xec7
 5214 0f61 0B       		.uleb128 0xb
ARM GAS  C:\Users\CHRIST~1\AppData\Local\Temp\ccVm3NB4.s 			page 103


 5215 0f62 04       		.byte	0x4
 5216 0f63 D4000000 		.4byte	0xd4
 5217 0f67 05       		.uleb128 0x5
 5218 0f68 5D050000 		.4byte	.LASF208
 5219 0f6c 14       		.byte	0x14
 5220 0f6d 64       		.byte	0x64
 5221 0f6e C70E0000 		.4byte	0xec7
 5222 0f72 05       		.uleb128 0x5
 5223 0f73 F9290000 		.4byte	.LASF209
 5224 0f77 14       		.byte	0x14
 5225 0f78 71       		.byte	0x71
 5226 0f79 C70E0000 		.4byte	0xec7
 5227 0f7d 0B       		.uleb128 0xb
 5228 0f7e 04       		.byte	0x4
 5229 0f7f DF000000 		.4byte	0xdf
 5230 0f83 1F       		.uleb128 0x1f
 5231 0f84 01       		.byte	0x1
 5232 0f85 6C000000 		.4byte	0x6c
 5233 0f89 15       		.byte	0x15
 5234 0f8a 23       		.byte	0x23
 5235 0f8b A20F0000 		.4byte	0xfa2
 5236 0f8f 20       		.uleb128 0x20
 5237 0f90 78250000 		.4byte	.LASF210
 5238 0f94 00       		.byte	0
 5239 0f95 20       		.uleb128 0x20
 5240 0f96 E01B0000 		.4byte	.LASF211
 5241 0f9a 01       		.byte	0x1
 5242 0f9b 20       		.uleb128 0x20
 5243 0f9c 2A040000 		.4byte	.LASF212
 5244 0fa0 02       		.byte	0x2
 5245 0fa1 00       		.byte	0
 5246 0fa2 05       		.uleb128 0x5
 5247 0fa3 3B040000 		.4byte	.LASF213
 5248 0fa7 15       		.byte	0x15
 5249 0fa8 27       		.byte	0x27
 5250 0fa9 830F0000 		.4byte	0xf83
 5251 0fad 1F       		.uleb128 0x1f
 5252 0fae 01       		.byte	0x1
 5253 0faf 6C000000 		.4byte	0x6c
 5254 0fb3 15       		.byte	0x15
 5255 0fb4 29       		.byte	0x29
 5256 0fb5 C60F0000 		.4byte	0xfc6
 5257 0fb9 20       		.uleb128 0x20
 5258 0fba 131A0000 		.4byte	.LASF214
 5259 0fbe 00       		.byte	0
 5260 0fbf 20       		.uleb128 0x20
 5261 0fc0 AC2A0000 		.4byte	.LASF215
 5262 0fc4 01       		.byte	0x1
 5263 0fc5 00       		.byte	0
 5264 0fc6 05       		.uleb128 0x5
 5265 0fc7 D7240000 		.4byte	.LASF216
 5266 0fcb 15       		.byte	0x15
 5267 0fcc 2C       		.byte	0x2c
 5268 0fcd AD0F0000 		.4byte	0xfad
 5269 0fd1 1F       		.uleb128 0x1f
 5270 0fd2 01       		.byte	0x1
 5271 0fd3 6C000000 		.4byte	0x6c
ARM GAS  C:\Users\CHRIST~1\AppData\Local\Temp\ccVm3NB4.s 			page 104


 5272 0fd7 15       		.byte	0x15
 5273 0fd8 2E       		.byte	0x2e
 5274 0fd9 F00F0000 		.4byte	0xff0
 5275 0fdd 20       		.uleb128 0x20
 5276 0fde A9200000 		.4byte	.LASF217
 5277 0fe2 00       		.byte	0
 5278 0fe3 20       		.uleb128 0x20
 5279 0fe4 0A0D0000 		.4byte	.LASF218
 5280 0fe8 01       		.byte	0x1
 5281 0fe9 20       		.uleb128 0x20
 5282 0fea 110E0000 		.4byte	.LASF219
 5283 0fee 02       		.byte	0x2
 5284 0fef 00       		.byte	0
 5285 0ff0 05       		.uleb128 0x5
 5286 0ff1 8A190000 		.4byte	.LASF220
 5287 0ff5 15       		.byte	0x15
 5288 0ff6 32       		.byte	0x32
 5289 0ff7 D10F0000 		.4byte	0xfd1
 5290 0ffb 1F       		.uleb128 0x1f
 5291 0ffc 01       		.byte	0x1
 5292 0ffd 6C000000 		.4byte	0x6c
 5293 1001 15       		.byte	0x15
 5294 1002 34       		.byte	0x34
 5295 1003 1A100000 		.4byte	0x101a
 5296 1007 20       		.uleb128 0x20
 5297 1008 4D190000 		.4byte	.LASF221
 5298 100c 00       		.byte	0
 5299 100d 20       		.uleb128 0x20
 5300 100e 38070000 		.4byte	.LASF222
 5301 1012 01       		.byte	0x1
 5302 1013 20       		.uleb128 0x20
 5303 1014 09230000 		.4byte	.LASF223
 5304 1018 02       		.byte	0x2
 5305 1019 00       		.byte	0
 5306 101a 05       		.uleb128 0x5
 5307 101b 22290000 		.4byte	.LASF224
 5308 101f 15       		.byte	0x15
 5309 1020 38       		.byte	0x38
 5310 1021 FB0F0000 		.4byte	0xffb
 5311 1025 1F       		.uleb128 0x1f
 5312 1026 01       		.byte	0x1
 5313 1027 6C000000 		.4byte	0x6c
 5314 102b 15       		.byte	0x15
 5315 102c 3A       		.byte	0x3a
 5316 102d 44100000 		.4byte	0x1044
 5317 1031 20       		.uleb128 0x20
 5318 1032 132A0000 		.4byte	.LASF225
 5319 1036 00       		.byte	0
 5320 1037 20       		.uleb128 0x20
 5321 1038 2A150000 		.4byte	.LASF226
 5322 103c 01       		.byte	0x1
 5323 103d 20       		.uleb128 0x20
 5324 103e 08110000 		.4byte	.LASF227
 5325 1042 02       		.byte	0x2
 5326 1043 00       		.byte	0
 5327 1044 05       		.uleb128 0x5
 5328 1045 F91F0000 		.4byte	.LASF228
ARM GAS  C:\Users\CHRIST~1\AppData\Local\Temp\ccVm3NB4.s 			page 105


 5329 1049 15       		.byte	0x15
 5330 104a 3E       		.byte	0x3e
 5331 104b 25100000 		.4byte	0x1025
 5332 104f 1F       		.uleb128 0x1f
 5333 1050 01       		.byte	0x1
 5334 1051 6C000000 		.4byte	0x6c
 5335 1055 15       		.byte	0x15
 5336 1056 40       		.byte	0x40
 5337 1057 86100000 		.4byte	0x1086
 5338 105b 20       		.uleb128 0x20
 5339 105c F81D0000 		.4byte	.LASF229
 5340 1060 00       		.byte	0
 5341 1061 20       		.uleb128 0x20
 5342 1062 7E110000 		.4byte	.LASF230
 5343 1066 01       		.byte	0x1
 5344 1067 20       		.uleb128 0x20
 5345 1068 9E1D0000 		.4byte	.LASF231
 5346 106c 02       		.byte	0x2
 5347 106d 20       		.uleb128 0x20
 5348 106e E5090000 		.4byte	.LASF232
 5349 1072 03       		.byte	0x3
 5350 1073 20       		.uleb128 0x20
 5351 1074 B80B0000 		.4byte	.LASF233
 5352 1078 04       		.byte	0x4
 5353 1079 20       		.uleb128 0x20
 5354 107a 0C040000 		.4byte	.LASF234
 5355 107e 05       		.byte	0x5
 5356 107f 20       		.uleb128 0x20
 5357 1080 AE170000 		.4byte	.LASF235
 5358 1084 06       		.byte	0x6
 5359 1085 00       		.byte	0
 5360 1086 05       		.uleb128 0x5
 5361 1087 CD250000 		.4byte	.LASF236
 5362 108b 15       		.byte	0x15
 5363 108c 48       		.byte	0x48
 5364 108d 4F100000 		.4byte	0x104f
 5365 1091 1F       		.uleb128 0x1f
 5366 1092 01       		.byte	0x1
 5367 1093 6C000000 		.4byte	0x6c
 5368 1097 15       		.byte	0x15
 5369 1098 5F       		.byte	0x5f
 5370 1099 B0100000 		.4byte	0x10b0
 5371 109d 20       		.uleb128 0x20
 5372 109e 1C190000 		.4byte	.LASF237
 5373 10a2 00       		.byte	0
 5374 10a3 20       		.uleb128 0x20
 5375 10a4 730E0000 		.4byte	.LASF238
 5376 10a8 01       		.byte	0x1
 5377 10a9 20       		.uleb128 0x20
 5378 10aa EB0E0000 		.4byte	.LASF239
 5379 10ae 02       		.byte	0x2
 5380 10af 00       		.byte	0
 5381 10b0 05       		.uleb128 0x5
 5382 10b1 EF280000 		.4byte	.LASF240
 5383 10b5 15       		.byte	0x15
 5384 10b6 63       		.byte	0x63
 5385 10b7 91100000 		.4byte	0x1091
ARM GAS  C:\Users\CHRIST~1\AppData\Local\Temp\ccVm3NB4.s 			page 106


 5386 10bb 15       		.uleb128 0x15
 5387 10bc 1C       		.byte	0x1c
 5388 10bd 15       		.byte	0x15
 5389 10be 65       		.byte	0x65
 5390 10bf 18110000 		.4byte	0x1118
 5391 10c3 08       		.uleb128 0x8
 5392 10c4 BA0F0000 		.4byte	.LASF241
 5393 10c8 15       		.byte	0x15
 5394 10c9 66       		.byte	0x66
 5395 10ca 25000000 		.4byte	0x25
 5396 10ce 00       		.byte	0
 5397 10cf 08       		.uleb128 0x8
 5398 10d0 970E0000 		.4byte	.LASF242
 5399 10d4 15       		.byte	0x15
 5400 10d5 67       		.byte	0x67
 5401 10d6 25000000 		.4byte	0x25
 5402 10da 04       		.byte	0x4
 5403 10db 08       		.uleb128 0x8
 5404 10dc 1A160000 		.4byte	.LASF243
 5405 10e0 15       		.byte	0x15
 5406 10e1 68       		.byte	0x68
 5407 10e2 25000000 		.4byte	0x25
 5408 10e6 08       		.byte	0x8
 5409 10e7 08       		.uleb128 0x8
 5410 10e8 0D020000 		.4byte	.LASF244
 5411 10ec 15       		.byte	0x15
 5412 10ed 69       		.byte	0x69
 5413 10ee 25000000 		.4byte	0x25
 5414 10f2 0C       		.byte	0xc
 5415 10f3 08       		.uleb128 0x8
 5416 10f4 D3100000 		.4byte	.LASF245
 5417 10f8 15       		.byte	0x15
 5418 10f9 6A       		.byte	0x6a
 5419 10fa 25000000 		.4byte	0x25
 5420 10fe 10       		.byte	0x10
 5421 10ff 08       		.uleb128 0x8
 5422 1100 BE1F0000 		.4byte	.LASF246
 5423 1104 15       		.byte	0x15
 5424 1105 6B       		.byte	0x6b
 5425 1106 F4000000 		.4byte	0xf4
 5426 110a 14       		.byte	0x14
 5427 110b 08       		.uleb128 0x8
 5428 110c 70260000 		.4byte	.LASF247
 5429 1110 15       		.byte	0x15
 5430 1111 6C       		.byte	0x6c
 5431 1112 04010000 		.4byte	0x104
 5432 1116 18       		.byte	0x18
 5433 1117 00       		.byte	0
 5434 1118 04       		.uleb128 0x4
 5435 1119 25000000 		.4byte	0x25
 5436 111d 06       		.uleb128 0x6
 5437 111e 25000000 		.4byte	0x25
 5438 1122 05       		.uleb128 0x5
 5439 1123 E7190000 		.4byte	.LASF248
 5440 1127 15       		.byte	0x15
 5441 1128 6D       		.byte	0x6d
 5442 1129 BB100000 		.4byte	0x10bb
ARM GAS  C:\Users\CHRIST~1\AppData\Local\Temp\ccVm3NB4.s 			page 107


 5443 112d 1F       		.uleb128 0x1f
 5444 112e 01       		.byte	0x1
 5445 112f 6C000000 		.4byte	0x6c
 5446 1133 15       		.byte	0x15
 5447 1134 6F       		.byte	0x6f
 5448 1135 52110000 		.4byte	0x1152
 5449 1139 20       		.uleb128 0x20
 5450 113a EA030000 		.4byte	.LASF249
 5451 113e 00       		.byte	0
 5452 113f 20       		.uleb128 0x20
 5453 1140 C41F0000 		.4byte	.LASF250
 5454 1144 01       		.byte	0x1
 5455 1145 20       		.uleb128 0x20
 5456 1146 6F070000 		.4byte	.LASF251
 5457 114a 02       		.byte	0x2
 5458 114b 20       		.uleb128 0x20
 5459 114c A3250000 		.4byte	.LASF252
 5460 1150 03       		.byte	0x3
 5461 1151 00       		.byte	0
 5462 1152 05       		.uleb128 0x5
 5463 1153 051C0000 		.4byte	.LASF253
 5464 1157 15       		.byte	0x15
 5465 1158 74       		.byte	0x74
 5466 1159 2D110000 		.4byte	0x112d
 5467 115d 21       		.uleb128 0x21
 5468 115e 7001     		.2byte	0x170
 5469 1160 15       		.byte	0x15
 5470 1161 81       		.byte	0x81
 5471 1162 06160000 		.4byte	0x1606
 5472 1166 08       		.uleb128 0x8
 5473 1167 C3130000 		.4byte	.LASF254
 5474 116b 15       		.byte	0x15
 5475 116c 83       		.byte	0x83
 5476 116d A20F0000 		.4byte	0xfa2
 5477 1171 00       		.byte	0
 5478 1172 08       		.uleb128 0x8
 5479 1173 900B0000 		.4byte	.LASF255
 5480 1177 15       		.byte	0x15
 5481 1178 84       		.byte	0x84
 5482 1179 C60F0000 		.4byte	0xfc6
 5483 117d 01       		.byte	0x1
 5484 117e 08       		.uleb128 0x8
 5485 117f CC130000 		.4byte	.LASF256
 5486 1183 15       		.byte	0x15
 5487 1184 85       		.byte	0x85
 5488 1185 44100000 		.4byte	0x1044
 5489 1189 02       		.byte	0x2
 5490 118a 08       		.uleb128 0x8
 5491 118b 98200000 		.4byte	.LASF257
 5492 118f 15       		.byte	0x15
 5493 1190 86       		.byte	0x86
 5494 1191 F00F0000 		.4byte	0xff0
 5495 1195 03       		.byte	0x3
 5496 1196 08       		.uleb128 0x8
 5497 1197 8A180000 		.4byte	.LASF258
 5498 119b 15       		.byte	0x15
 5499 119c 88       		.byte	0x88
ARM GAS  C:\Users\CHRIST~1\AppData\Local\Temp\ccVm3NB4.s 			page 108


 5500 119d 25000000 		.4byte	0x25
 5501 11a1 04       		.byte	0x4
 5502 11a2 08       		.uleb128 0x8
 5503 11a3 5B1D0000 		.4byte	.LASF259
 5504 11a7 15       		.byte	0x15
 5505 11a8 89       		.byte	0x89
 5506 11a9 25000000 		.4byte	0x25
 5507 11ad 08       		.byte	0x8
 5508 11ae 08       		.uleb128 0x8
 5509 11af D8270000 		.4byte	.LASF260
 5510 11b3 15       		.byte	0x15
 5511 11b4 8A       		.byte	0x8a
 5512 11b5 25000000 		.4byte	0x25
 5513 11b9 0C       		.byte	0xc
 5514 11ba 08       		.uleb128 0x8
 5515 11bb F7010000 		.4byte	.LASF261
 5516 11bf 15       		.byte	0x15
 5517 11c0 8B       		.byte	0x8b
 5518 11c1 25000000 		.4byte	0x25
 5519 11c5 10       		.byte	0x10
 5520 11c6 08       		.uleb128 0x8
 5521 11c7 32000000 		.4byte	.LASF262
 5522 11cb 15       		.byte	0x15
 5523 11cc 8C       		.byte	0x8c
 5524 11cd 25000000 		.4byte	0x25
 5525 11d1 14       		.byte	0x14
 5526 11d2 08       		.uleb128 0x8
 5527 11d3 A0020000 		.4byte	.LASF263
 5528 11d7 15       		.byte	0x15
 5529 11d8 8D       		.byte	0x8d
 5530 11d9 25000000 		.4byte	0x25
 5531 11dd 18       		.byte	0x18
 5532 11de 08       		.uleb128 0x8
 5533 11df 37170000 		.4byte	.LASF264
 5534 11e3 15       		.byte	0x15
 5535 11e4 8E       		.byte	0x8e
 5536 11e5 25000000 		.4byte	0x25
 5537 11e9 1C       		.byte	0x1c
 5538 11ea 08       		.uleb128 0x8
 5539 11eb 190B0000 		.4byte	.LASF265
 5540 11ef 15       		.byte	0x15
 5541 11f0 8F       		.byte	0x8f
 5542 11f1 25000000 		.4byte	0x25
 5543 11f5 20       		.byte	0x20
 5544 11f6 08       		.uleb128 0x8
 5545 11f7 15000000 		.4byte	.LASF266
 5546 11fb 15       		.byte	0x15
 5547 11fc 90       		.byte	0x90
 5548 11fd 25000000 		.4byte	0x25
 5549 1201 24       		.byte	0x24
 5550 1202 08       		.uleb128 0x8
 5551 1203 E7260000 		.4byte	.LASF267
 5552 1207 15       		.byte	0x15
 5553 1208 91       		.byte	0x91
 5554 1209 25000000 		.4byte	0x25
 5555 120d 28       		.byte	0x28
 5556 120e 08       		.uleb128 0x8
ARM GAS  C:\Users\CHRIST~1\AppData\Local\Temp\ccVm3NB4.s 			page 109


 5557 120f 87100000 		.4byte	.LASF268
 5558 1213 15       		.byte	0x15
 5559 1214 92       		.byte	0x92
 5560 1215 25000000 		.4byte	0x25
 5561 1219 2C       		.byte	0x2c
 5562 121a 08       		.uleb128 0x8
 5563 121b 830F0000 		.4byte	.LASF269
 5564 121f 15       		.byte	0x15
 5565 1220 93       		.byte	0x93
 5566 1221 25000000 		.4byte	0x25
 5567 1225 30       		.byte	0x30
 5568 1226 08       		.uleb128 0x8
 5569 1227 43100000 		.4byte	.LASF270
 5570 122b 15       		.byte	0x15
 5571 122c 94       		.byte	0x94
 5572 122d 25000000 		.4byte	0x25
 5573 1231 34       		.byte	0x34
 5574 1232 08       		.uleb128 0x8
 5575 1233 69100000 		.4byte	.LASF271
 5576 1237 15       		.byte	0x15
 5577 1238 95       		.byte	0x95
 5578 1239 25000000 		.4byte	0x25
 5579 123d 38       		.byte	0x38
 5580 123e 08       		.uleb128 0x8
 5581 123f CC010000 		.4byte	.LASF272
 5582 1243 15       		.byte	0x15
 5583 1244 96       		.byte	0x96
 5584 1245 06160000 		.4byte	0x1606
 5585 1249 3C       		.byte	0x3c
 5586 124a 08       		.uleb128 0x8
 5587 124b 400B0000 		.4byte	.LASF273
 5588 124f 15       		.byte	0x15
 5589 1250 97       		.byte	0x97
 5590 1251 25000000 		.4byte	0x25
 5591 1255 40       		.byte	0x40
 5592 1256 08       		.uleb128 0x8
 5593 1257 20030000 		.4byte	.LASF274
 5594 125b 15       		.byte	0x15
 5595 125c 98       		.byte	0x98
 5596 125d 25000000 		.4byte	0x25
 5597 1261 44       		.byte	0x44
 5598 1262 08       		.uleb128 0x8
 5599 1263 D71C0000 		.4byte	.LASF275
 5600 1267 15       		.byte	0x15
 5601 1268 99       		.byte	0x99
 5602 1269 25000000 		.4byte	0x25
 5603 126d 48       		.byte	0x48
 5604 126e 08       		.uleb128 0x8
 5605 126f 56200000 		.4byte	.LASF276
 5606 1273 15       		.byte	0x15
 5607 1274 9A       		.byte	0x9a
 5608 1275 25000000 		.4byte	0x25
 5609 1279 4C       		.byte	0x4c
 5610 127a 08       		.uleb128 0x8
 5611 127b BF280000 		.4byte	.LASF277
 5612 127f 15       		.byte	0x15
 5613 1280 9B       		.byte	0x9b
ARM GAS  C:\Users\CHRIST~1\AppData\Local\Temp\ccVm3NB4.s 			page 110


 5614 1281 25000000 		.4byte	0x25
 5615 1285 50       		.byte	0x50
 5616 1286 08       		.uleb128 0x8
 5617 1287 FC110000 		.4byte	.LASF278
 5618 128b 15       		.byte	0x15
 5619 128c 9C       		.byte	0x9c
 5620 128d 25000000 		.4byte	0x25
 5621 1291 54       		.byte	0x54
 5622 1292 08       		.uleb128 0x8
 5623 1293 FB0A0000 		.4byte	.LASF279
 5624 1297 15       		.byte	0x15
 5625 1298 9D       		.byte	0x9d
 5626 1299 25000000 		.4byte	0x25
 5627 129d 58       		.byte	0x58
 5628 129e 08       		.uleb128 0x8
 5629 129f 7D260000 		.4byte	.LASF280
 5630 12a3 15       		.byte	0x15
 5631 12a4 9E       		.byte	0x9e
 5632 12a5 25000000 		.4byte	0x25
 5633 12a9 5C       		.byte	0x5c
 5634 12aa 08       		.uleb128 0x8
 5635 12ab 360E0000 		.4byte	.LASF281
 5636 12af 15       		.byte	0x15
 5637 12b0 A0       		.byte	0xa0
 5638 12b1 25000000 		.4byte	0x25
 5639 12b5 60       		.byte	0x60
 5640 12b6 08       		.uleb128 0x8
 5641 12b7 D7130000 		.4byte	.LASF282
 5642 12bb 15       		.byte	0x15
 5643 12bc A1       		.byte	0xa1
 5644 12bd 25000000 		.4byte	0x25
 5645 12c1 64       		.byte	0x64
 5646 12c2 08       		.uleb128 0x8
 5647 12c3 84220000 		.4byte	.LASF283
 5648 12c7 15       		.byte	0x15
 5649 12c8 A2       		.byte	0xa2
 5650 12c9 25000000 		.4byte	0x25
 5651 12cd 68       		.byte	0x68
 5652 12ce 08       		.uleb128 0x8
 5653 12cf 8F280000 		.4byte	.LASF284
 5654 12d3 15       		.byte	0x15
 5655 12d4 A3       		.byte	0xa3
 5656 12d5 25000000 		.4byte	0x25
 5657 12d9 6C       		.byte	0x6c
 5658 12da 08       		.uleb128 0x8
 5659 12db 461E0000 		.4byte	.LASF285
 5660 12df 15       		.byte	0x15
 5661 12e0 A4       		.byte	0xa4
 5662 12e1 25000000 		.4byte	0x25
 5663 12e5 70       		.byte	0x70
 5664 12e6 08       		.uleb128 0x8
 5665 12e7 620F0000 		.4byte	.LASF286
 5666 12eb 15       		.byte	0x15
 5667 12ec A5       		.byte	0xa5
 5668 12ed 25000000 		.4byte	0x25
 5669 12f1 74       		.byte	0x74
 5670 12f2 08       		.uleb128 0x8
ARM GAS  C:\Users\CHRIST~1\AppData\Local\Temp\ccVm3NB4.s 			page 111


 5671 12f3 1E110000 		.4byte	.LASF287
 5672 12f7 15       		.byte	0x15
 5673 12f8 A7       		.byte	0xa7
 5674 12f9 25000000 		.4byte	0x25
 5675 12fd 78       		.byte	0x78
 5676 12fe 08       		.uleb128 0x8
 5677 12ff 72050000 		.4byte	.LASF288
 5678 1303 15       		.byte	0x15
 5679 1304 A8       		.byte	0xa8
 5680 1305 25000000 		.4byte	0x25
 5681 1309 7C       		.byte	0x7c
 5682 130a 08       		.uleb128 0x8
 5683 130b F4130000 		.4byte	.LASF289
 5684 130f 15       		.byte	0x15
 5685 1310 A9       		.byte	0xa9
 5686 1311 25000000 		.4byte	0x25
 5687 1315 80       		.byte	0x80
 5688 1316 08       		.uleb128 0x8
 5689 1317 99150000 		.4byte	.LASF290
 5690 131b 15       		.byte	0x15
 5691 131c AA       		.byte	0xaa
 5692 131d 25000000 		.4byte	0x25
 5693 1321 84       		.byte	0x84
 5694 1322 08       		.uleb128 0x8
 5695 1323 DC120000 		.4byte	.LASF291
 5696 1327 15       		.byte	0x15
 5697 1328 AB       		.byte	0xab
 5698 1329 25000000 		.4byte	0x25
 5699 132d 88       		.byte	0x88
 5700 132e 08       		.uleb128 0x8
 5701 132f 3F240000 		.4byte	.LASF292
 5702 1333 15       		.byte	0x15
 5703 1334 AC       		.byte	0xac
 5704 1335 25000000 		.4byte	0x25
 5705 1339 8C       		.byte	0x8c
 5706 133a 08       		.uleb128 0x8
 5707 133b 6F1C0000 		.4byte	.LASF293
 5708 133f 15       		.byte	0x15
 5709 1340 AD       		.byte	0xad
 5710 1341 25000000 		.4byte	0x25
 5711 1345 90       		.byte	0x90
 5712 1346 08       		.uleb128 0x8
 5713 1347 AE140000 		.4byte	.LASF294
 5714 134b 15       		.byte	0x15
 5715 134c AF       		.byte	0xaf
 5716 134d 0D160000 		.4byte	0x160d
 5717 1351 94       		.byte	0x94
 5718 1352 08       		.uleb128 0x8
 5719 1353 261E0000 		.4byte	.LASF295
 5720 1357 15       		.byte	0x15
 5721 1358 B0       		.byte	0xb0
 5722 1359 25000000 		.4byte	0x25
 5723 135d 9C       		.byte	0x9c
 5724 135e 08       		.uleb128 0x8
 5725 135f BD050000 		.4byte	.LASF296
 5726 1363 15       		.byte	0x15
 5727 1364 B2       		.byte	0xb2
ARM GAS  C:\Users\CHRIST~1\AppData\Local\Temp\ccVm3NB4.s 			page 112


 5728 1365 25000000 		.4byte	0x25
 5729 1369 A0       		.byte	0xa0
 5730 136a 08       		.uleb128 0x8
 5731 136b A5050000 		.4byte	.LASF297
 5732 136f 15       		.byte	0x15
 5733 1370 B3       		.byte	0xb3
 5734 1371 25000000 		.4byte	0x25
 5735 1375 A4       		.byte	0xa4
 5736 1376 08       		.uleb128 0x8
 5737 1377 100B0000 		.4byte	.LASF298
 5738 137b 15       		.byte	0x15
 5739 137c B4       		.byte	0xb4
 5740 137d 25000000 		.4byte	0x25
 5741 1381 A8       		.byte	0xa8
 5742 1382 08       		.uleb128 0x8
 5743 1383 3C230000 		.4byte	.LASF299
 5744 1387 15       		.byte	0x15
 5745 1388 B5       		.byte	0xb5
 5746 1389 25000000 		.4byte	0x25
 5747 138d AC       		.byte	0xac
 5748 138e 08       		.uleb128 0x8
 5749 138f B8020000 		.4byte	.LASF300
 5750 1393 15       		.byte	0x15
 5751 1394 B6       		.byte	0xb6
 5752 1395 25000000 		.4byte	0x25
 5753 1399 B0       		.byte	0xb0
 5754 139a 08       		.uleb128 0x8
 5755 139b 450E0000 		.4byte	.LASF301
 5756 139f 15       		.byte	0x15
 5757 13a0 B7       		.byte	0xb7
 5758 13a1 06160000 		.4byte	0x1606
 5759 13a5 B4       		.byte	0xb4
 5760 13a6 08       		.uleb128 0x8
 5761 13a7 B11A0000 		.4byte	.LASF302
 5762 13ab 15       		.byte	0x15
 5763 13ac B8       		.byte	0xb8
 5764 13ad 25000000 		.4byte	0x25
 5765 13b1 B8       		.byte	0xb8
 5766 13b2 08       		.uleb128 0x8
 5767 13b3 C3090000 		.4byte	.LASF303
 5768 13b7 15       		.byte	0x15
 5769 13b8 B9       		.byte	0xb9
 5770 13b9 25000000 		.4byte	0x25
 5771 13bd BC       		.byte	0xbc
 5772 13be 08       		.uleb128 0x8
 5773 13bf CF090000 		.4byte	.LASF304
 5774 13c3 15       		.byte	0x15
 5775 13c4 BA       		.byte	0xba
 5776 13c5 25000000 		.4byte	0x25
 5777 13c9 C0       		.byte	0xc0
 5778 13ca 08       		.uleb128 0x8
 5779 13cb 70150000 		.4byte	.LASF305
 5780 13cf 15       		.byte	0x15
 5781 13d0 BB       		.byte	0xbb
 5782 13d1 25000000 		.4byte	0x25
 5783 13d5 C4       		.byte	0xc4
 5784 13d6 08       		.uleb128 0x8
ARM GAS  C:\Users\CHRIST~1\AppData\Local\Temp\ccVm3NB4.s 			page 113


 5785 13d7 D40B0000 		.4byte	.LASF306
 5786 13db 15       		.byte	0x15
 5787 13dc BC       		.byte	0xbc
 5788 13dd 25000000 		.4byte	0x25
 5789 13e1 C8       		.byte	0xc8
 5790 13e2 08       		.uleb128 0x8
 5791 13e3 C9000000 		.4byte	.LASF307
 5792 13e7 15       		.byte	0x15
 5793 13e8 BD       		.byte	0xbd
 5794 13e9 25000000 		.4byte	0x25
 5795 13ed CC       		.byte	0xcc
 5796 13ee 08       		.uleb128 0x8
 5797 13ef 1F1F0000 		.4byte	.LASF308
 5798 13f3 15       		.byte	0x15
 5799 13f4 BE       		.byte	0xbe
 5800 13f5 25000000 		.4byte	0x25
 5801 13f9 D0       		.byte	0xd0
 5802 13fa 08       		.uleb128 0x8
 5803 13fb 081F0000 		.4byte	.LASF309
 5804 13ff 15       		.byte	0x15
 5805 1400 BF       		.byte	0xbf
 5806 1401 25000000 		.4byte	0x25
 5807 1405 D4       		.byte	0xd4
 5808 1406 08       		.uleb128 0x8
 5809 1407 05180000 		.4byte	.LASF310
 5810 140b 15       		.byte	0x15
 5811 140c C0       		.byte	0xc0
 5812 140d 25000000 		.4byte	0x25
 5813 1411 D8       		.byte	0xd8
 5814 1412 08       		.uleb128 0x8
 5815 1413 E8170000 		.4byte	.LASF311
 5816 1417 15       		.byte	0x15
 5817 1418 C1       		.byte	0xc1
 5818 1419 25000000 		.4byte	0x25
 5819 141d DC       		.byte	0xdc
 5820 141e 08       		.uleb128 0x8
 5821 141f BF1E0000 		.4byte	.LASF312
 5822 1423 15       		.byte	0x15
 5823 1424 C2       		.byte	0xc2
 5824 1425 25000000 		.4byte	0x25
 5825 1429 E0       		.byte	0xe0
 5826 142a 08       		.uleb128 0x8
 5827 142b BE210000 		.4byte	.LASF313
 5828 142f 15       		.byte	0x15
 5829 1430 C3       		.byte	0xc3
 5830 1431 25000000 		.4byte	0x25
 5831 1435 E4       		.byte	0xe4
 5832 1436 08       		.uleb128 0x8
 5833 1437 60280000 		.4byte	.LASF314
 5834 143b 15       		.byte	0x15
 5835 143c C4       		.byte	0xc4
 5836 143d 25000000 		.4byte	0x25
 5837 1441 E8       		.byte	0xe8
 5838 1442 08       		.uleb128 0x8
 5839 1443 43140000 		.4byte	.LASF315
 5840 1447 15       		.byte	0x15
 5841 1448 C5       		.byte	0xc5
ARM GAS  C:\Users\CHRIST~1\AppData\Local\Temp\ccVm3NB4.s 			page 114


 5842 1449 25000000 		.4byte	0x25
 5843 144d EC       		.byte	0xec
 5844 144e 08       		.uleb128 0x8
 5845 144f D01E0000 		.4byte	.LASF316
 5846 1453 15       		.byte	0x15
 5847 1454 C6       		.byte	0xc6
 5848 1455 25000000 		.4byte	0x25
 5849 1459 F0       		.byte	0xf0
 5850 145a 08       		.uleb128 0x8
 5851 145b D8220000 		.4byte	.LASF317
 5852 145f 15       		.byte	0x15
 5853 1460 C7       		.byte	0xc7
 5854 1461 1A100000 		.4byte	0x101a
 5855 1465 F4       		.byte	0xf4
 5856 1466 08       		.uleb128 0x8
 5857 1467 BF100000 		.4byte	.LASF318
 5858 146b 15       		.byte	0x15
 5859 146c C8       		.byte	0xc8
 5860 146d 1D160000 		.4byte	0x161d
 5861 1471 F5       		.byte	0xf5
 5862 1472 22       		.uleb128 0x22
 5863 1473 76120000 		.4byte	.LASF319
 5864 1477 15       		.byte	0x15
 5865 1478 C9       		.byte	0xc9
 5866 1479 25000000 		.4byte	0x25
 5867 147d 0001     		.2byte	0x100
 5868 147f 22       		.uleb128 0x22
 5869 1480 A1290000 		.4byte	.LASF320
 5870 1484 15       		.byte	0x15
 5871 1485 CA       		.byte	0xca
 5872 1486 06160000 		.4byte	0x1606
 5873 148a 0401     		.2byte	0x104
 5874 148c 22       		.uleb128 0x22
 5875 148d AA240000 		.4byte	.LASF321
 5876 1491 15       		.byte	0x15
 5877 1492 CB       		.byte	0xcb
 5878 1493 06160000 		.4byte	0x1606
 5879 1497 0501     		.2byte	0x105
 5880 1499 22       		.uleb128 0x22
 5881 149a 4F230000 		.4byte	.LASF322
 5882 149e 15       		.byte	0x15
 5883 149f CC       		.byte	0xcc
 5884 14a0 25000000 		.4byte	0x25
 5885 14a4 0801     		.2byte	0x108
 5886 14a6 22       		.uleb128 0x22
 5887 14a7 1E1C0000 		.4byte	.LASF323
 5888 14ab 15       		.byte	0x15
 5889 14ac CD       		.byte	0xcd
 5890 14ad 06160000 		.4byte	0x1606
 5891 14b1 0C01     		.2byte	0x10c
 5892 14b3 22       		.uleb128 0x22
 5893 14b4 7B200000 		.4byte	.LASF324
 5894 14b8 15       		.byte	0x15
 5895 14b9 CE       		.byte	0xce
 5896 14ba 25000000 		.4byte	0x25
 5897 14be 1001     		.2byte	0x110
 5898 14c0 22       		.uleb128 0x22
ARM GAS  C:\Users\CHRIST~1\AppData\Local\Temp\ccVm3NB4.s 			page 115


 5899 14c1 331E0000 		.4byte	.LASF325
 5900 14c5 15       		.byte	0x15
 5901 14c6 D0       		.byte	0xd0
 5902 14c7 25000000 		.4byte	0x25
 5903 14cb 1401     		.2byte	0x114
 5904 14cd 22       		.uleb128 0x22
 5905 14ce 081E0000 		.4byte	.LASF326
 5906 14d2 15       		.byte	0x15
 5907 14d3 D1       		.byte	0xd1
 5908 14d4 25000000 		.4byte	0x25
 5909 14d8 1801     		.2byte	0x118
 5910 14da 22       		.uleb128 0x22
 5911 14db 23090000 		.4byte	.LASF327
 5912 14df 15       		.byte	0x15
 5913 14e0 D2       		.byte	0xd2
 5914 14e1 25000000 		.4byte	0x25
 5915 14e5 1C01     		.2byte	0x11c
 5916 14e7 22       		.uleb128 0x22
 5917 14e8 6C0A0000 		.4byte	.LASF328
 5918 14ec 15       		.byte	0x15
 5919 14ed D3       		.byte	0xd3
 5920 14ee 25000000 		.4byte	0x25
 5921 14f2 2001     		.2byte	0x120
 5922 14f4 22       		.uleb128 0x22
 5923 14f5 DB0C0000 		.4byte	.LASF329
 5924 14f9 15       		.byte	0x15
 5925 14fa D4       		.byte	0xd4
 5926 14fb 06160000 		.4byte	0x1606
 5927 14ff 2401     		.2byte	0x124
 5928 1501 22       		.uleb128 0x22
 5929 1502 B91B0000 		.4byte	.LASF330
 5930 1506 15       		.byte	0x15
 5931 1507 D6       		.byte	0xd6
 5932 1508 25000000 		.4byte	0x25
 5933 150c 2801     		.2byte	0x128
 5934 150e 22       		.uleb128 0x22
 5935 150f A81B0000 		.4byte	.LASF331
 5936 1513 15       		.byte	0x15
 5937 1514 D7       		.byte	0xd7
 5938 1515 25000000 		.4byte	0x25
 5939 1519 2C01     		.2byte	0x12c
 5940 151b 22       		.uleb128 0x22
 5941 151c 9F1B0000 		.4byte	.LASF332
 5942 1520 15       		.byte	0x15
 5943 1521 D8       		.byte	0xd8
 5944 1522 25000000 		.4byte	0x25
 5945 1526 3001     		.2byte	0x130
 5946 1528 22       		.uleb128 0x22
 5947 1529 27280000 		.4byte	.LASF333
 5948 152d 15       		.byte	0x15
 5949 152e D9       		.byte	0xd9
 5950 152f 25000000 		.4byte	0x25
 5951 1533 3401     		.2byte	0x134
 5952 1535 22       		.uleb128 0x22
 5953 1536 63020000 		.4byte	.LASF334
 5954 153a 15       		.byte	0x15
 5955 153b DB       		.byte	0xdb
ARM GAS  C:\Users\CHRIST~1\AppData\Local\Temp\ccVm3NB4.s 			page 116


 5956 153c 25000000 		.4byte	0x25
 5957 1540 3801     		.2byte	0x138
 5958 1542 22       		.uleb128 0x22
 5959 1543 5A0E0000 		.4byte	.LASF335
 5960 1547 15       		.byte	0x15
 5961 1548 DC       		.byte	0xdc
 5962 1549 25000000 		.4byte	0x25
 5963 154d 3C01     		.2byte	0x13c
 5964 154f 22       		.uleb128 0x22
 5965 1550 7E130000 		.4byte	.LASF336
 5966 1554 15       		.byte	0x15
 5967 1555 DD       		.byte	0xdd
 5968 1556 25000000 		.4byte	0x25
 5969 155a 4001     		.2byte	0x140
 5970 155c 22       		.uleb128 0x22
 5971 155d 871B0000 		.4byte	.LASF337
 5972 1561 15       		.byte	0x15
 5973 1562 DE       		.byte	0xde
 5974 1563 25000000 		.4byte	0x25
 5975 1567 4401     		.2byte	0x144
 5976 1569 22       		.uleb128 0x22
 5977 156a AD070000 		.4byte	.LASF338
 5978 156e 15       		.byte	0x15
 5979 156f E0       		.byte	0xe0
 5980 1570 F4000000 		.4byte	0xf4
 5981 1574 4801     		.2byte	0x148
 5982 1576 22       		.uleb128 0x22
 5983 1577 DB250000 		.4byte	.LASF339
 5984 157b 15       		.byte	0x15
 5985 157c E1       		.byte	0xe1
 5986 157d 25000000 		.4byte	0x25
 5987 1581 4C01     		.2byte	0x14c
 5988 1583 22       		.uleb128 0x22
 5989 1584 96110000 		.4byte	.LASF340
 5990 1588 15       		.byte	0x15
 5991 1589 E2       		.byte	0xe2
 5992 158a 25000000 		.4byte	0x25
 5993 158e 5001     		.2byte	0x150
 5994 1590 22       		.uleb128 0x22
 5995 1591 D32A0000 		.4byte	.LASF341
 5996 1595 15       		.byte	0x15
 5997 1596 E3       		.byte	0xe3
 5998 1597 04010000 		.4byte	0x104
 5999 159b 5401     		.2byte	0x154
 6000 159d 22       		.uleb128 0x22
 6001 159e 60110000 		.4byte	.LASF342
 6002 15a2 15       		.byte	0x15
 6003 15a3 E4       		.byte	0xe4
 6004 15a4 B0100000 		.4byte	0x10b0
 6005 15a8 5801     		.2byte	0x158
 6006 15aa 22       		.uleb128 0x22
 6007 15ab B7110000 		.4byte	.LASF343
 6008 15af 15       		.byte	0x15
 6009 15b0 E5       		.byte	0xe5
 6010 15b1 06160000 		.4byte	0x1606
 6011 15b5 5901     		.2byte	0x159
 6012 15b7 22       		.uleb128 0x22
ARM GAS  C:\Users\CHRIST~1\AppData\Local\Temp\ccVm3NB4.s 			page 117


 6013 15b8 240E0000 		.4byte	.LASF344
 6014 15bc 15       		.byte	0x15
 6015 15bd E6       		.byte	0xe6
 6016 15be 52110000 		.4byte	0x1152
 6017 15c2 5A01     		.2byte	0x15a
 6018 15c4 22       		.uleb128 0x22
 6019 15c5 93010000 		.4byte	.LASF345
 6020 15c9 15       		.byte	0x15
 6021 15ca E7       		.byte	0xe7
 6022 15cb 2C000000 		.4byte	0x2c
 6023 15cf 5C01     		.2byte	0x15c
 6024 15d1 22       		.uleb128 0x22
 6025 15d2 66210000 		.4byte	.LASF346
 6026 15d6 15       		.byte	0x15
 6027 15d7 E8       		.byte	0xe8
 6028 15d8 25000000 		.4byte	0x25
 6029 15dc 6001     		.2byte	0x160
 6030 15de 22       		.uleb128 0x22
 6031 15df F51B0000 		.4byte	.LASF347
 6032 15e3 15       		.byte	0x15
 6033 15e4 E9       		.byte	0xe9
 6034 15e5 25000000 		.4byte	0x25
 6035 15e9 6401     		.2byte	0x164
 6036 15eb 22       		.uleb128 0x22
 6037 15ec A0240000 		.4byte	.LASF348
 6038 15f0 15       		.byte	0x15
 6039 15f1 EA       		.byte	0xea
 6040 15f2 25000000 		.4byte	0x25
 6041 15f6 6801     		.2byte	0x168
 6042 15f8 22       		.uleb128 0x22
 6043 15f9 3F060000 		.4byte	.LASF349
 6044 15fd 15       		.byte	0x15
 6045 15fe EB       		.byte	0xeb
 6046 15ff 25000000 		.4byte	0x25
 6047 1603 6C01     		.2byte	0x16c
 6048 1605 00       		.byte	0
 6049 1606 02       		.uleb128 0x2
 6050 1607 01       		.byte	0x1
 6051 1608 02       		.byte	0x2
 6052 1609 2A010000 		.4byte	.LASF350
 6053 160d 11       		.uleb128 0x11
 6054 160e C9000000 		.4byte	0xc9
 6055 1612 1D160000 		.4byte	0x161d
 6056 1616 12       		.uleb128 0x12
 6057 1617 CB040000 		.4byte	0x4cb
 6058 161b 07       		.byte	0x7
 6059 161c 00       		.byte	0
 6060 161d 11       		.uleb128 0x11
 6061 161e D4000000 		.4byte	0xd4
 6062 1622 2D160000 		.4byte	0x162d
 6063 1626 12       		.uleb128 0x12
 6064 1627 CB040000 		.4byte	0x4cb
 6065 162b 07       		.byte	0x7
 6066 162c 00       		.byte	0
 6067 162d 05       		.uleb128 0x5
 6068 162e EC250000 		.4byte	.LASF351
 6069 1632 15       		.byte	0x15
ARM GAS  C:\Users\CHRIST~1\AppData\Local\Temp\ccVm3NB4.s 			page 118


 6070 1633 EC       		.byte	0xec
 6071 1634 5D110000 		.4byte	0x115d
 6072 1638 11       		.uleb128 0x11
 6073 1639 6C000000 		.4byte	0x6c
 6074 163d 48160000 		.4byte	0x1648
 6075 1641 12       		.uleb128 0x12
 6076 1642 CB040000 		.4byte	0x4cb
 6077 1646 02       		.byte	0x2
 6078 1647 00       		.byte	0
 6079 1648 17       		.uleb128 0x17
 6080 1649 38       		.byte	0x38
 6081 164a 15       		.byte	0x15
 6082 164b EC01     		.2byte	0x1ec
 6083 164d 08170000 		.4byte	0x1708
 6084 1651 0A       		.uleb128 0xa
 6085 1652 161D0000 		.4byte	.LASF352
 6086 1656 15       		.byte	0x15
 6087 1657 ED01     		.2byte	0x1ed
 6088 1659 86100000 		.4byte	0x1086
 6089 165d 00       		.byte	0
 6090 165e 0A       		.uleb128 0xa
 6091 165f 59170000 		.4byte	.LASF353
 6092 1663 15       		.byte	0x15
 6093 1664 EE01     		.2byte	0x1ee
 6094 1666 25000000 		.4byte	0x25
 6095 166a 04       		.byte	0x4
 6096 166b 0A       		.uleb128 0xa
 6097 166c 2A250000 		.4byte	.LASF354
 6098 1670 15       		.byte	0x15
 6099 1671 EF01     		.2byte	0x1ef
 6100 1673 25000000 		.4byte	0x25
 6101 1677 08       		.byte	0x8
 6102 1678 0A       		.uleb128 0xa
 6103 1679 7C220000 		.4byte	.LASF355
 6104 167d 15       		.byte	0x15
 6105 167e F001     		.2byte	0x1f0
 6106 1680 25000000 		.4byte	0x25
 6107 1684 0C       		.byte	0xc
 6108 1685 0A       		.uleb128 0xa
 6109 1686 F31D0000 		.4byte	.LASF356
 6110 168a 15       		.byte	0x15
 6111 168b F101     		.2byte	0x1f1
 6112 168d 25000000 		.4byte	0x25
 6113 1691 10       		.byte	0x10
 6114 1692 09       		.uleb128 0x9
 6115 1693 72706D00 		.ascii	"rpm\000"
 6116 1697 15       		.byte	0x15
 6117 1698 F201     		.2byte	0x1f2
 6118 169a 25000000 		.4byte	0x25
 6119 169e 14       		.byte	0x14
 6120 169f 0A       		.uleb128 0xa
 6121 16a0 891D0000 		.4byte	.LASF357
 6122 16a4 15       		.byte	0x15
 6123 16a5 F301     		.2byte	0x1f3
 6124 16a7 2C000000 		.4byte	0x2c
 6125 16ab 18       		.byte	0x18
 6126 16ac 0A       		.uleb128 0xa
ARM GAS  C:\Users\CHRIST~1\AppData\Local\Temp\ccVm3NB4.s 			page 119


 6127 16ad 99160000 		.4byte	.LASF358
 6128 16b1 15       		.byte	0x15
 6129 16b2 F401     		.2byte	0x1f4
 6130 16b4 2C000000 		.4byte	0x2c
 6131 16b8 1C       		.byte	0x1c
 6132 16b9 0A       		.uleb128 0xa
 6133 16ba 960D0000 		.4byte	.LASF359
 6134 16be 15       		.byte	0x15
 6135 16bf F501     		.2byte	0x1f5
 6136 16c1 2C000000 		.4byte	0x2c
 6137 16c5 20       		.byte	0x20
 6138 16c6 0A       		.uleb128 0xa
 6139 16c7 E4240000 		.4byte	.LASF360
 6140 16cb 15       		.byte	0x15
 6141 16cc F601     		.2byte	0x1f6
 6142 16ce 2C000000 		.4byte	0x2c
 6143 16d2 24       		.byte	0x24
 6144 16d3 0A       		.uleb128 0xa
 6145 16d4 0F210000 		.4byte	.LASF361
 6146 16d8 15       		.byte	0x15
 6147 16d9 F701     		.2byte	0x1f7
 6148 16db 2C000000 		.4byte	0x2c
 6149 16df 28       		.byte	0x28
 6150 16e0 0A       		.uleb128 0xa
 6151 16e1 CC1B0000 		.4byte	.LASF362
 6152 16e5 15       		.byte	0x15
 6153 16e6 F801     		.2byte	0x1f8
 6154 16e8 2C000000 		.4byte	0x2c
 6155 16ec 2C       		.byte	0x2c
 6156 16ed 0A       		.uleb128 0xa
 6157 16ee C7230000 		.4byte	.LASF363
 6158 16f2 15       		.byte	0x15
 6159 16f3 F901     		.2byte	0x1f9
 6160 16f5 25000000 		.4byte	0x25
 6161 16f9 30       		.byte	0x30
 6162 16fa 0A       		.uleb128 0xa
 6163 16fb A2180000 		.4byte	.LASF364
 6164 16ff 15       		.byte	0x15
 6165 1700 FA01     		.2byte	0x1fa
 6166 1702 2C000000 		.4byte	0x2c
 6167 1706 34       		.byte	0x34
 6168 1707 00       		.byte	0
 6169 1708 18       		.uleb128 0x18
 6170 1709 082A0000 		.4byte	.LASF365
 6171 170d 15       		.byte	0x15
 6172 170e FB01     		.2byte	0x1fb
 6173 1710 48160000 		.4byte	0x1648
 6174 1714 04       		.uleb128 0x4
 6175 1715 08170000 		.4byte	0x1708
 6176 1719 17       		.uleb128 0x17
 6177 171a 14       		.byte	0x14
 6178 171b 15       		.byte	0x15
 6179 171c 1302     		.2byte	0x213
 6180 171e 63170000 		.4byte	0x1763
 6181 1722 09       		.uleb128 0x9
 6182 1723 696400   		.ascii	"id\000"
 6183 1726 15       		.byte	0x15
ARM GAS  C:\Users\CHRIST~1\AppData\Local\Temp\ccVm3NB4.s 			page 120


 6184 1727 1402     		.2byte	0x214
 6185 1729 2C000000 		.4byte	0x2c
 6186 172d 00       		.byte	0
 6187 172e 0A       		.uleb128 0xa
 6188 172f AA280000 		.4byte	.LASF366
 6189 1733 15       		.byte	0x15
 6190 1734 1502     		.2byte	0x215
 6191 1736 8D010000 		.4byte	0x18d
 6192 173a 04       		.byte	0x4
 6193 173b 09       		.uleb128 0x9
 6194 173c 72706D00 		.ascii	"rpm\000"
 6195 1740 15       		.byte	0x15
 6196 1741 1602     		.2byte	0x216
 6197 1743 25000000 		.4byte	0x25
 6198 1747 08       		.byte	0x8
 6199 1748 0A       		.uleb128 0xa
 6200 1749 59170000 		.4byte	.LASF353
 6201 174d 15       		.byte	0x15
 6202 174e 1702     		.2byte	0x217
 6203 1750 25000000 		.4byte	0x25
 6204 1754 0C       		.byte	0xc
 6205 1755 0A       		.uleb128 0xa
 6206 1756 F31D0000 		.4byte	.LASF356
 6207 175a 15       		.byte	0x15
 6208 175b 1802     		.2byte	0x218
 6209 175d 25000000 		.4byte	0x25
 6210 1761 10       		.byte	0x10
 6211 1762 00       		.byte	0
 6212 1763 18       		.uleb128 0x18
 6213 1764 B6060000 		.4byte	.LASF367
 6214 1768 15       		.byte	0x15
 6215 1769 1902     		.2byte	0x219
 6216 176b 19170000 		.4byte	0x1719
 6217 176f 14       		.uleb128 0x14
 6218 1770 CC1A0000 		.4byte	.LASF368
 6219 1774 16       		.byte	0x16
 6220 1775 9E       		.byte	0x9e
 6221 1776 06160000 		.4byte	0x1606
 6222 177a 15       		.uleb128 0x15
 6223 177b 0C       		.byte	0xc
 6224 177c 17       		.byte	0x17
 6225 177d DA       		.byte	0xda
 6226 177e BF170000 		.4byte	0x17bf
 6227 1782 08       		.uleb128 0x8
 6228 1783 57290000 		.4byte	.LASF369
 6229 1787 17       		.byte	0x17
 6230 1788 DB       		.byte	0xdb
 6231 1789 BF170000 		.4byte	0x17bf
 6232 178d 00       		.byte	0
 6233 178e 08       		.uleb128 0x8
 6234 178f CA110000 		.4byte	.LASF370
 6235 1793 17       		.byte	0x17
 6236 1794 DC       		.byte	0xdc
 6237 1795 C5170000 		.4byte	0x17c5
 6238 1799 04       		.byte	0x4
 6239 179a 08       		.uleb128 0x8
 6240 179b 61040000 		.4byte	.LASF371
ARM GAS  C:\Users\CHRIST~1\AppData\Local\Temp\ccVm3NB4.s 			page 121


 6241 179f 17       		.byte	0x17
 6242 17a0 DD       		.byte	0xdd
 6243 17a1 D4000000 		.4byte	0xd4
 6244 17a5 08       		.byte	0x8
 6245 17a6 08       		.uleb128 0x8
 6246 17a7 86210000 		.4byte	.LASF372
 6247 17ab 17       		.byte	0x17
 6248 17ac DF       		.byte	0xdf
 6249 17ad D4000000 		.4byte	0xd4
 6250 17b1 09       		.byte	0x9
 6251 17b2 08       		.uleb128 0x8
 6252 17b3 98030000 		.4byte	.LASF373
 6253 17b7 17       		.byte	0x17
 6254 17b8 E0       		.byte	0xe0
 6255 17b9 D4000000 		.4byte	0xd4
 6256 17bd 0A       		.byte	0xa
 6257 17be 00       		.byte	0
 6258 17bf 0B       		.uleb128 0xb
 6259 17c0 04       		.byte	0x4
 6260 17c1 9A070000 		.4byte	0x79a
 6261 17c5 0B       		.uleb128 0xb
 6262 17c6 04       		.byte	0x4
 6263 17c7 0F010000 		.4byte	0x10f
 6264 17cb 05       		.uleb128 0x5
 6265 17cc 99040000 		.4byte	.LASF374
 6266 17d0 17       		.byte	0x17
 6267 17d1 E1       		.byte	0xe1
 6268 17d2 7A170000 		.4byte	0x177a
 6269 17d6 06       		.uleb128 0x6
 6270 17d7 CB170000 		.4byte	0x17cb
 6271 17db 11       		.uleb128 0x11
 6272 17dc D6170000 		.4byte	0x17d6
 6273 17e0 EB170000 		.4byte	0x17eb
 6274 17e4 12       		.uleb128 0x12
 6275 17e5 CB040000 		.4byte	0x4cb
 6276 17e9 0F       		.byte	0xf
 6277 17ea 00       		.byte	0
 6278 17eb 06       		.uleb128 0x6
 6279 17ec DB170000 		.4byte	0x17db
 6280 17f0 13       		.uleb128 0x13
 6281 17f1 691D0000 		.4byte	.LASF375
 6282 17f5 17       		.byte	0x17
 6283 17f6 BB01     		.2byte	0x1bb
 6284 17f8 EB170000 		.4byte	0x17eb
 6285 17fc 15       		.uleb128 0x15
 6286 17fd 04       		.byte	0x4
 6287 17fe 18       		.byte	0x18
 6288 17ff B3       		.byte	0xb3
 6289 1800 1D180000 		.4byte	0x181d
 6290 1804 16       		.uleb128 0x16
 6291 1805 73657400 		.ascii	"set\000"
 6292 1809 18       		.byte	0x18
 6293 180a B4       		.byte	0xb4
 6294 180b E4000000 		.4byte	0xe4
 6295 180f 00       		.byte	0
 6296 1810 08       		.uleb128 0x8
 6297 1811 910E0000 		.4byte	.LASF376
ARM GAS  C:\Users\CHRIST~1\AppData\Local\Temp\ccVm3NB4.s 			page 122


 6298 1815 18       		.byte	0x18
 6299 1816 B5       		.byte	0xb5
 6300 1817 E4000000 		.4byte	0xe4
 6301 181b 02       		.byte	0x2
 6302 181c 00       		.byte	0
 6303 181d 1C       		.uleb128 0x1c
 6304 181e 04       		.byte	0x4
 6305 181f 18       		.byte	0x18
 6306 1820 B1       		.byte	0xb1
 6307 1821 38180000 		.4byte	0x1838
 6308 1825 23       		.uleb128 0x23
 6309 1826 5700     		.ascii	"W\000"
 6310 1828 18       		.byte	0x18
 6311 1829 B2       		.byte	0xb2
 6312 182a 04010000 		.4byte	0x104
 6313 182e 23       		.uleb128 0x23
 6314 182f 4800     		.ascii	"H\000"
 6315 1831 18       		.byte	0x18
 6316 1832 B6       		.byte	0xb6
 6317 1833 FC170000 		.4byte	0x17fc
 6318 1837 00       		.byte	0
 6319 1838 04       		.uleb128 0x4
 6320 1839 1D180000 		.4byte	0x181d
 6321 183d 15       		.uleb128 0x15
 6322 183e 2C       		.byte	0x2c
 6323 183f 18       		.byte	0x18
 6324 1840 A9       		.byte	0xa9
 6325 1841 CA180000 		.4byte	0x18ca
 6326 1845 08       		.uleb128 0x8
 6327 1846 A8210000 		.4byte	.LASF377
 6328 184a 18       		.byte	0x18
 6329 184b AB       		.byte	0xab
 6330 184c 0F010000 		.4byte	0x10f
 6331 1850 00       		.byte	0
 6332 1851 08       		.uleb128 0x8
 6333 1852 2F030000 		.4byte	.LASF378
 6334 1856 18       		.byte	0x18
 6335 1857 AC       		.byte	0xac
 6336 1858 0F010000 		.4byte	0x10f
 6337 185c 04       		.byte	0x4
 6338 185d 08       		.uleb128 0x8
 6339 185e 1C100000 		.4byte	.LASF379
 6340 1862 18       		.byte	0x18
 6341 1863 AD       		.byte	0xad
 6342 1864 0F010000 		.4byte	0x10f
 6343 1868 08       		.byte	0x8
 6344 1869 08       		.uleb128 0x8
 6345 186a DE200000 		.4byte	.LASF380
 6346 186e 18       		.byte	0x18
 6347 186f AE       		.byte	0xae
 6348 1870 0F010000 		.4byte	0x10f
 6349 1874 0C       		.byte	0xc
 6350 1875 16       		.uleb128 0x16
 6351 1876 49445200 		.ascii	"IDR\000"
 6352 187a 18       		.byte	0x18
 6353 187b AF       		.byte	0xaf
 6354 187c 0F010000 		.4byte	0x10f
ARM GAS  C:\Users\CHRIST~1\AppData\Local\Temp\ccVm3NB4.s 			page 123


 6355 1880 10       		.byte	0x10
 6356 1881 16       		.uleb128 0x16
 6357 1882 4F445200 		.ascii	"ODR\000"
 6358 1886 18       		.byte	0x18
 6359 1887 B0       		.byte	0xb0
 6360 1888 0F010000 		.4byte	0x10f
 6361 188c 14       		.byte	0x14
 6362 188d 08       		.uleb128 0x8
 6363 188e 64140000 		.4byte	.LASF381
 6364 1892 18       		.byte	0x18
 6365 1893 B7       		.byte	0xb7
 6366 1894 38180000 		.4byte	0x1838
 6367 1898 18       		.byte	0x18
 6368 1899 08       		.uleb128 0x8
 6369 189a AC1A0000 		.4byte	.LASF382
 6370 189e 18       		.byte	0x18
 6371 189f B8       		.byte	0xb8
 6372 18a0 0F010000 		.4byte	0x10f
 6373 18a4 1C       		.byte	0x1c
 6374 18a5 08       		.uleb128 0x8
 6375 18a6 411E0000 		.4byte	.LASF383
 6376 18aa 18       		.byte	0x18
 6377 18ab B9       		.byte	0xb9
 6378 18ac 0F010000 		.4byte	0x10f
 6379 18b0 20       		.byte	0x20
 6380 18b1 08       		.uleb128 0x8
 6381 18b2 3C1E0000 		.4byte	.LASF384
 6382 18b6 18       		.byte	0x18
 6383 18b7 BA       		.byte	0xba
 6384 18b8 0F010000 		.4byte	0x10f
 6385 18bc 24       		.byte	0x24
 6386 18bd 16       		.uleb128 0x16
 6387 18be 42525200 		.ascii	"BRR\000"
 6388 18c2 18       		.byte	0x18
 6389 18c3 BB       		.byte	0xbb
 6390 18c4 0F010000 		.4byte	0x10f
 6391 18c8 28       		.byte	0x28
 6392 18c9 00       		.byte	0
 6393 18ca 05       		.uleb128 0x5
 6394 18cb DB110000 		.4byte	.LASF385
 6395 18cf 18       		.byte	0x18
 6396 18d0 BC       		.byte	0xbc
 6397 18d1 3D180000 		.4byte	0x183d
 6398 18d5 15       		.uleb128 0x15
 6399 18d6 1C       		.byte	0x1c
 6400 18d7 18       		.byte	0x18
 6401 18d8 C1       		.byte	0xc1
 6402 18d9 32190000 		.4byte	0x1932
 6403 18dd 08       		.uleb128 0x8
 6404 18de B7250000 		.4byte	.LASF386
 6405 18e2 18       		.byte	0x18
 6406 18e3 C3       		.byte	0xc3
 6407 18e4 04010000 		.4byte	0x104
 6408 18e8 00       		.byte	0
 6409 18e9 08       		.uleb128 0x8
 6410 18ea 19030000 		.4byte	.LASF387
 6411 18ee 18       		.byte	0x18
ARM GAS  C:\Users\CHRIST~1\AppData\Local\Temp\ccVm3NB4.s 			page 124


 6412 18ef C5       		.byte	0xc5
 6413 18f0 04010000 		.4byte	0x104
 6414 18f4 04       		.byte	0x4
 6415 18f5 08       		.uleb128 0x8
 6416 18f6 4B020000 		.4byte	.LASF388
 6417 18fa 18       		.byte	0x18
 6418 18fb C7       		.byte	0xc7
 6419 18fc 04010000 		.4byte	0x104
 6420 1900 08       		.byte	0x8
 6421 1901 08       		.uleb128 0x8
 6422 1902 9A240000 		.4byte	.LASF389
 6423 1906 18       		.byte	0x18
 6424 1907 C9       		.byte	0xc9
 6425 1908 04010000 		.4byte	0x104
 6426 190c 0C       		.byte	0xc
 6427 190d 16       		.uleb128 0x16
 6428 190e 6F647200 		.ascii	"odr\000"
 6429 1912 18       		.byte	0x18
 6430 1913 CB       		.byte	0xcb
 6431 1914 04010000 		.4byte	0x104
 6432 1918 10       		.byte	0x10
 6433 1919 08       		.uleb128 0x8
 6434 191a 5B210000 		.4byte	.LASF390
 6435 191e 18       		.byte	0x18
 6436 191f CD       		.byte	0xcd
 6437 1920 04010000 		.4byte	0x104
 6438 1924 14       		.byte	0x14
 6439 1925 08       		.uleb128 0x8
 6440 1926 4D210000 		.4byte	.LASF391
 6441 192a 18       		.byte	0x18
 6442 192b CF       		.byte	0xcf
 6443 192c 04010000 		.4byte	0x104
 6444 1930 18       		.byte	0x18
 6445 1931 00       		.byte	0
 6446 1932 05       		.uleb128 0x5
 6447 1933 331D0000 		.4byte	.LASF392
 6448 1937 18       		.byte	0x18
 6449 1938 D0       		.byte	0xd0
 6450 1939 D5180000 		.4byte	0x18d5
 6451 193d 15       		.uleb128 0x15
 6452 193e FC       		.byte	0xfc
 6453 193f 18       		.byte	0x18
 6454 1940 D9       		.byte	0xd9
 6455 1941 B2190000 		.4byte	0x19b2
 6456 1945 08       		.uleb128 0x8
 6457 1946 4D120000 		.4byte	.LASF393
 6458 194a 18       		.byte	0x18
 6459 194b DC       		.byte	0xdc
 6460 194c 32190000 		.4byte	0x1932
 6461 1950 00       		.byte	0
 6462 1951 08       		.uleb128 0x8
 6463 1952 02030000 		.4byte	.LASF394
 6464 1956 18       		.byte	0x18
 6465 1957 E0       		.byte	0xe0
 6466 1958 32190000 		.4byte	0x1932
 6467 195c 1C       		.byte	0x1c
 6468 195d 08       		.uleb128 0x8
ARM GAS  C:\Users\CHRIST~1\AppData\Local\Temp\ccVm3NB4.s 			page 125


 6469 195e C5010000 		.4byte	.LASF395
 6470 1962 18       		.byte	0x18
 6471 1963 E4       		.byte	0xe4
 6472 1964 32190000 		.4byte	0x1932
 6473 1968 38       		.byte	0x38
 6474 1969 08       		.uleb128 0x8
 6475 196a B30F0000 		.4byte	.LASF396
 6476 196e 18       		.byte	0x18
 6477 196f E8       		.byte	0xe8
 6478 1970 32190000 		.4byte	0x1932
 6479 1974 54       		.byte	0x54
 6480 1975 08       		.uleb128 0x8
 6481 1976 5A1C0000 		.4byte	.LASF397
 6482 197a 18       		.byte	0x18
 6483 197b EC       		.byte	0xec
 6484 197c 32190000 		.4byte	0x1932
 6485 1980 70       		.byte	0x70
 6486 1981 08       		.uleb128 0x8
 6487 1982 552A0000 		.4byte	.LASF398
 6488 1986 18       		.byte	0x18
 6489 1987 F0       		.byte	0xf0
 6490 1988 32190000 		.4byte	0x1932
 6491 198c 8C       		.byte	0x8c
 6492 198d 08       		.uleb128 0x8
 6493 198e EF0C0000 		.4byte	.LASF399
 6494 1992 18       		.byte	0x18
 6495 1993 F4       		.byte	0xf4
 6496 1994 32190000 		.4byte	0x1932
 6497 1998 A8       		.byte	0xa8
 6498 1999 08       		.uleb128 0x8
 6499 199a 011A0000 		.4byte	.LASF400
 6500 199e 18       		.byte	0x18
 6501 199f F8       		.byte	0xf8
 6502 19a0 32190000 		.4byte	0x1932
 6503 19a4 C4       		.byte	0xc4
 6504 19a5 08       		.uleb128 0x8
 6505 19a6 F1270000 		.4byte	.LASF401
 6506 19aa 18       		.byte	0x18
 6507 19ab FC       		.byte	0xfc
 6508 19ac 32190000 		.4byte	0x1932
 6509 19b0 E0       		.byte	0xe0
 6510 19b1 00       		.byte	0
 6511 19b2 05       		.uleb128 0x5
 6512 19b3 2E0C0000 		.4byte	.LASF402
 6513 19b7 18       		.byte	0x18
 6514 19b8 FE       		.byte	0xfe
 6515 19b9 3D190000 		.4byte	0x193d
 6516 19bd 06       		.uleb128 0x6
 6517 19be B2190000 		.4byte	0x19b2
 6518 19c2 18       		.uleb128 0x18
 6519 19c3 081A0000 		.4byte	.LASF403
 6520 19c7 18       		.byte	0x18
 6521 19c8 1B01     		.2byte	0x11b
 6522 19ca CE190000 		.4byte	0x19ce
 6523 19ce 0B       		.uleb128 0xb
 6524 19cf 04       		.byte	0x4
 6525 19d0 CA180000 		.4byte	0x18ca
ARM GAS  C:\Users\CHRIST~1\AppData\Local\Temp\ccVm3NB4.s 			page 126


 6526 19d4 13       		.uleb128 0x13
 6527 19d5 32220000 		.4byte	.LASF404
 6528 19d9 18       		.byte	0x18
 6529 19da DA01     		.2byte	0x1da
 6530 19dc BD190000 		.4byte	0x19bd
 6531 19e0 1F       		.uleb128 0x1f
 6532 19e1 01       		.byte	0x1
 6533 19e2 6C000000 		.4byte	0x6c
 6534 19e6 19       		.byte	0x19
 6535 19e7 5F       		.byte	0x5f
 6536 19e8 0B1A0000 		.4byte	0x1a0b
 6537 19ec 20       		.uleb128 0x20
 6538 19ed 260B0000 		.4byte	.LASF405
 6539 19f1 00       		.byte	0
 6540 19f2 20       		.uleb128 0x20
 6541 19f3 EF000000 		.4byte	.LASF406
 6542 19f7 01       		.byte	0x1
 6543 19f8 20       		.uleb128 0x20
 6544 19f9 53000000 		.4byte	.LASF407
 6545 19fd 02       		.byte	0x2
 6546 19fe 20       		.uleb128 0x20
 6547 19ff 8E050000 		.4byte	.LASF408
 6548 1a03 03       		.byte	0x3
 6549 1a04 20       		.uleb128 0x20
 6550 1a05 060B0000 		.4byte	.LASF409
 6551 1a09 04       		.byte	0x4
 6552 1a0a 00       		.byte	0
 6553 1a0b 05       		.uleb128 0x5
 6554 1a0c D9050000 		.4byte	.LASF410
 6555 1a10 19       		.byte	0x19
 6556 1a11 65       		.byte	0x65
 6557 1a12 E0190000 		.4byte	0x19e0
 6558 1a16 15       		.uleb128 0x15
 6559 1a17 08       		.byte	0x8
 6560 1a18 1A       		.byte	0x1a
 6561 1a19 F4       		.byte	0xf4
 6562 1a1a 381A0000 		.4byte	0x1a38
 6563 1a1e 16       		.uleb128 0x16
 6564 1a1f 6D637200 		.ascii	"mcr\000"
 6565 1a23 1A       		.byte	0x1a
 6566 1a24 FA       		.byte	0xfa
 6567 1a25 04010000 		.4byte	0x104
 6568 1a29 00       		.byte	0
 6569 1a2a 09       		.uleb128 0x9
 6570 1a2b 62747200 		.ascii	"btr\000"
 6571 1a2f 1A       		.byte	0x1a
 6572 1a30 0001     		.2byte	0x100
 6573 1a32 04010000 		.4byte	0x104
 6574 1a36 04       		.byte	0x4
 6575 1a37 00       		.byte	0
 6576 1a38 18       		.uleb128 0x18
 6577 1a39 501C0000 		.4byte	.LASF411
 6578 1a3d 1A       		.byte	0x1a
 6579 1a3e 0101     		.2byte	0x101
 6580 1a40 161A0000 		.4byte	0x1a16
 6581 1a44 06       		.uleb128 0x6
 6582 1a45 381A0000 		.4byte	0x1a38
ARM GAS  C:\Users\CHRIST~1\AppData\Local\Temp\ccVm3NB4.s 			page 127


 6583 1a49 17       		.uleb128 0x17
 6584 1a4a 30       		.byte	0x30
 6585 1a4b 1A       		.byte	0x1a
 6586 1a4c 0601     		.2byte	0x106
 6587 1a4e D51A0000 		.4byte	0x1ad5
 6588 1a52 0A       		.uleb128 0xa
 6589 1a53 32180000 		.4byte	.LASF412
 6590 1a57 1A       		.byte	0x1a
 6591 1a58 0A01     		.2byte	0x10a
 6592 1a5a 0B1A0000 		.4byte	0x1a0b
 6593 1a5e 00       		.byte	0
 6594 1a5f 0A       		.uleb128 0xa
 6595 1a60 FD250000 		.4byte	.LASF413
 6596 1a64 1A       		.byte	0x1a
 6597 1a65 0E01     		.2byte	0x10e
 6598 1a67 D51A0000 		.4byte	0x1ad5
 6599 1a6b 04       		.byte	0x4
 6600 1a6c 0A       		.uleb128 0xa
 6601 1a6d 7B0A0000 		.4byte	.LASF414
 6602 1a71 1A       		.byte	0x1a
 6603 1a72 1201     		.2byte	0x112
 6604 1a74 E2020000 		.4byte	0x2e2
 6605 1a78 08       		.byte	0x8
 6606 1a79 0A       		.uleb128 0xa
 6607 1a7a 21220000 		.4byte	.LASF415
 6608 1a7e 1A       		.byte	0x1a
 6609 1a7f 1601     		.2byte	0x116
 6610 1a81 E2020000 		.4byte	0x2e2
 6611 1a85 10       		.byte	0x10
 6612 1a86 0A       		.uleb128 0xa
 6613 1a87 2C1C0000 		.4byte	.LASF416
 6614 1a8b 1A       		.byte	0x1a
 6615 1a8c 2301     		.2byte	0x123
 6616 1a8e BC0E0000 		.4byte	0xebc
 6617 1a92 18       		.byte	0x18
 6618 1a93 0A       		.uleb128 0xa
 6619 1a94 CD0C0000 		.4byte	.LASF417
 6620 1a98 1A       		.byte	0x1a
 6621 1a99 2A01     		.2byte	0x12a
 6622 1a9b BC0E0000 		.4byte	0xebc
 6623 1a9f 1C       		.byte	0x1c
 6624 1aa0 0A       		.uleb128 0xa
 6625 1aa1 10100000 		.4byte	.LASF418
 6626 1aa5 1A       		.byte	0x1a
 6627 1aa6 3001     		.2byte	0x130
 6628 1aa8 BC0E0000 		.4byte	0xebc
 6629 1aac 20       		.byte	0x20
 6630 1aad 0A       		.uleb128 0xa
 6631 1aae 75030000 		.4byte	.LASF419
 6632 1ab2 1A       		.byte	0x1a
 6633 1ab3 3501     		.2byte	0x135
 6634 1ab5 BC0E0000 		.4byte	0xebc
 6635 1ab9 24       		.byte	0x24
 6636 1aba 0A       		.uleb128 0xa
 6637 1abb 170A0000 		.4byte	.LASF420
 6638 1abf 1A       		.byte	0x1a
 6639 1ac0 3901     		.2byte	0x139
ARM GAS  C:\Users\CHRIST~1\AppData\Local\Temp\ccVm3NB4.s 			page 128


 6640 1ac2 BC0E0000 		.4byte	0xebc
 6641 1ac6 28       		.byte	0x28
 6642 1ac7 09       		.uleb128 0x9
 6643 1ac8 63616E00 		.ascii	"can\000"
 6644 1acc 1A       		.byte	0x1a
 6645 1acd 3F01     		.2byte	0x13f
 6646 1acf DB1A0000 		.4byte	0x1adb
 6647 1ad3 2C       		.byte	0x2c
 6648 1ad4 00       		.byte	0
 6649 1ad5 0B       		.uleb128 0xb
 6650 1ad6 04       		.byte	0x4
 6651 1ad7 441A0000 		.4byte	0x1a44
 6652 1adb 0B       		.uleb128 0xb
 6653 1adc 04       		.byte	0x4
 6654 1add 37070000 		.4byte	0x737
 6655 1ae1 18       		.uleb128 0x18
 6656 1ae2 CB030000 		.4byte	.LASF421
 6657 1ae6 1A       		.byte	0x1a
 6658 1ae7 4001     		.2byte	0x140
 6659 1ae9 491A0000 		.4byte	0x1a49
 6660 1aed 13       		.uleb128 0x13
 6661 1aee 53240000 		.4byte	.LASF422
 6662 1af2 1A       		.byte	0x1a
 6663 1af3 4B01     		.2byte	0x14b
 6664 1af5 E11A0000 		.4byte	0x1ae1
 6665 1af9 1F       		.uleb128 0x1f
 6666 1afa 01       		.byte	0x1
 6667 1afb 6C000000 		.4byte	0x6c
 6668 1aff 1B       		.byte	0x1b
 6669 1b00 4C       		.byte	0x4c
 6670 1b01 2A1B0000 		.4byte	0x1b2a
 6671 1b05 20       		.uleb128 0x20
 6672 1b06 50060000 		.4byte	.LASF423
 6673 1b0a 00       		.byte	0
 6674 1b0b 20       		.uleb128 0x20
 6675 1b0c F20F0000 		.4byte	.LASF424
 6676 1b10 01       		.byte	0x1
 6677 1b11 20       		.uleb128 0x20
 6678 1b12 AC060000 		.4byte	.LASF425
 6679 1b16 02       		.byte	0x2
 6680 1b17 20       		.uleb128 0x20
 6681 1b18 8B040000 		.4byte	.LASF426
 6682 1b1c 03       		.byte	0x3
 6683 1b1d 20       		.uleb128 0x20
 6684 1b1e 54030000 		.4byte	.LASF427
 6685 1b22 04       		.byte	0x4
 6686 1b23 20       		.uleb128 0x20
 6687 1b24 16150000 		.4byte	.LASF428
 6688 1b28 05       		.byte	0x5
 6689 1b29 00       		.byte	0
 6690 1b2a 05       		.uleb128 0x5
 6691 1b2b C9120000 		.4byte	.LASF429
 6692 1b2f 1B       		.byte	0x1b
 6693 1b30 53       		.byte	0x53
 6694 1b31 F91A0000 		.4byte	0x1af9
 6695 1b35 18       		.uleb128 0x18
 6696 1b36 E3040000 		.4byte	.LASF430
ARM GAS  C:\Users\CHRIST~1\AppData\Local\Temp\ccVm3NB4.s 			page 129


 6697 1b3a 1C       		.byte	0x1c
 6698 1b3b 6A01     		.2byte	0x16a
 6699 1b3d E4000000 		.4byte	0xe4
 6700 1b41 18       		.uleb128 0x18
 6701 1b42 FB030000 		.4byte	.LASF431
 6702 1b46 1C       		.byte	0x1c
 6703 1b47 6F01     		.2byte	0x16f
 6704 1b49 04010000 		.4byte	0x104
 6705 1b4d 24       		.uleb128 0x24
 6706 1b4e 01       		.byte	0x1
 6707 1b4f 6C000000 		.4byte	0x6c
 6708 1b53 1C       		.byte	0x1c
 6709 1b54 7401     		.2byte	0x174
 6710 1b56 6D1B0000 		.4byte	0x1b6d
 6711 1b5a 20       		.uleb128 0x20
 6712 1b5b 00100000 		.4byte	.LASF432
 6713 1b5f 01       		.byte	0x1
 6714 1b60 20       		.uleb128 0x20
 6715 1b61 7F000000 		.4byte	.LASF433
 6716 1b65 02       		.byte	0x2
 6717 1b66 20       		.uleb128 0x20
 6718 1b67 A00A0000 		.4byte	.LASF434
 6719 1b6b 03       		.byte	0x3
 6720 1b6c 00       		.byte	0
 6721 1b6d 18       		.uleb128 0x18
 6722 1b6e 5E290000 		.4byte	.LASF435
 6723 1b72 1C       		.byte	0x1c
 6724 1b73 7801     		.2byte	0x178
 6725 1b75 4D1B0000 		.4byte	0x1b4d
 6726 1b79 24       		.uleb128 0x24
 6727 1b7a 01       		.byte	0x1
 6728 1b7b 6C000000 		.4byte	0x6c
 6729 1b7f 1C       		.byte	0x1c
 6730 1b80 7D01     		.2byte	0x17d
 6731 1b82 991B0000 		.4byte	0x1b99
 6732 1b86 20       		.uleb128 0x20
 6733 1b87 350F0000 		.4byte	.LASF436
 6734 1b8b 01       		.byte	0x1
 6735 1b8c 20       		.uleb128 0x20
 6736 1b8d CA280000 		.4byte	.LASF437
 6737 1b91 02       		.byte	0x2
 6738 1b92 20       		.uleb128 0x20
 6739 1b93 E60B0000 		.4byte	.LASF438
 6740 1b97 03       		.byte	0x3
 6741 1b98 00       		.byte	0
 6742 1b99 18       		.uleb128 0x18
 6743 1b9a CE060000 		.4byte	.LASF439
 6744 1b9e 1C       		.byte	0x1c
 6745 1b9f 8101     		.2byte	0x181
 6746 1ba1 791B0000 		.4byte	0x1b79
 6747 1ba5 17       		.uleb128 0x17
 6748 1ba6 0C       		.byte	0xc
 6749 1ba7 1C       		.byte	0x1c
 6750 1ba8 8601     		.2byte	0x186
 6751 1baa D61B0000 		.4byte	0x1bd6
 6752 1bae 0A       		.uleb128 0xa
 6753 1baf 29060000 		.4byte	.LASF440
ARM GAS  C:\Users\CHRIST~1\AppData\Local\Temp\ccVm3NB4.s 			page 130


 6754 1bb3 1C       		.byte	0x1c
 6755 1bb4 8801     		.2byte	0x188
 6756 1bb6 6D1B0000 		.4byte	0x1b6d
 6757 1bba 00       		.byte	0
 6758 1bbb 0A       		.uleb128 0xa
 6759 1bbc B5030000 		.4byte	.LASF441
 6760 1bc0 1C       		.byte	0x1c
 6761 1bc1 8901     		.2byte	0x189
 6762 1bc3 04010000 		.4byte	0x104
 6763 1bc7 04       		.byte	0x4
 6764 1bc8 0A       		.uleb128 0xa
 6765 1bc9 372A0000 		.4byte	.LASF442
 6766 1bcd 1C       		.byte	0x1c
 6767 1bce 8C01     		.2byte	0x18c
 6768 1bd0 991B0000 		.4byte	0x1b99
 6769 1bd4 08       		.byte	0x8
 6770 1bd5 00       		.byte	0
 6771 1bd6 18       		.uleb128 0x18
 6772 1bd7 1B020000 		.4byte	.LASF443
 6773 1bdb 1C       		.byte	0x1c
 6774 1bdc 8E01     		.2byte	0x18e
 6775 1bde A51B0000 		.4byte	0x1ba5
 6776 1be2 06       		.uleb128 0x6
 6777 1be3 D61B0000 		.4byte	0x1bd6
 6778 1be7 18       		.uleb128 0x18
 6779 1be8 81040000 		.4byte	.LASF444
 6780 1bec 1C       		.byte	0x1c
 6781 1bed 9301     		.2byte	0x193
 6782 1bef F31B0000 		.4byte	0x1bf3
 6783 1bf3 0C       		.uleb128 0xc
 6784 1bf4 81040000 		.4byte	.LASF444
 6785 1bf8 38       		.byte	0x38
 6786 1bf9 1C       		.byte	0x1c
 6787 1bfa 9801     		.2byte	0x198
 6788 1bfc 901C0000 		.4byte	0x1c90
 6789 1c00 0A       		.uleb128 0xa
 6790 1c01 32180000 		.4byte	.LASF412
 6791 1c05 1C       		.byte	0x1c
 6792 1c06 9C01     		.2byte	0x19c
 6793 1c08 2A1B0000 		.4byte	0x1b2a
 6794 1c0c 00       		.byte	0
 6795 1c0d 0A       		.uleb128 0xa
 6796 1c0e FD250000 		.4byte	.LASF413
 6797 1c12 1C       		.byte	0x1c
 6798 1c13 A001     		.2byte	0x1a0
 6799 1c15 901C0000 		.4byte	0x1c90
 6800 1c19 04       		.byte	0x4
 6801 1c1a 0A       		.uleb128 0xa
 6802 1c1b 73010000 		.4byte	.LASF445
 6803 1c1f 1C       		.byte	0x1c
 6804 1c20 A401     		.2byte	0x1a4
 6805 1c22 411B0000 		.4byte	0x1b41
 6806 1c26 08       		.byte	0x8
 6807 1c27 0A       		.uleb128 0xa
 6808 1c28 0B0E0000 		.4byte	.LASF446
 6809 1c2c 1C       		.byte	0x1c
 6810 1c2d A901     		.2byte	0x1a9
ARM GAS  C:\Users\CHRIST~1\AppData\Local\Temp\ccVm3NB4.s 			page 131


 6811 1c2f 380E0000 		.4byte	0xe38
 6812 1c33 0C       		.byte	0xc
 6813 1c34 0A       		.uleb128 0xa
 6814 1c35 EE060000 		.4byte	.LASF447
 6815 1c39 1C       		.byte	0x1c
 6816 1c3a B201     		.2byte	0x1b2
 6817 1c3c AD020000 		.4byte	0x2ad
 6818 1c40 1C       		.byte	0x1c
 6819 1c41 0A       		.uleb128 0xa
 6820 1c42 FB0F0000 		.4byte	.LASF448
 6821 1c46 1C       		.byte	0x1c
 6822 1c47 B601     		.2byte	0x1b6
 6823 1c49 351B0000 		.4byte	0x1b35
 6824 1c4d 20       		.byte	0x20
 6825 1c4e 0A       		.uleb128 0xa
 6826 1c4f 44090000 		.4byte	.LASF449
 6827 1c53 1C       		.byte	0x1c
 6828 1c54 BA01     		.2byte	0x1ba
 6829 1c56 04010000 		.4byte	0x104
 6830 1c5a 24       		.byte	0x24
 6831 1c5b 0A       		.uleb128 0xa
 6832 1c5c B9090000 		.4byte	.LASF450
 6833 1c60 1C       		.byte	0x1c
 6834 1c61 BE01     		.2byte	0x1be
 6835 1c63 04010000 		.4byte	0x104
 6836 1c67 28       		.byte	0x28
 6837 1c68 0A       		.uleb128 0xa
 6838 1c69 4A010000 		.4byte	.LASF451
 6839 1c6d 1C       		.byte	0x1c
 6840 1c6e C201     		.2byte	0x1c2
 6841 1c70 961C0000 		.4byte	0x1c96
 6842 1c74 2C       		.byte	0x2c
 6843 1c75 0A       		.uleb128 0xa
 6844 1c76 2E020000 		.4byte	.LASF452
 6845 1c7a 1C       		.byte	0x1c
 6846 1c7b C601     		.2byte	0x1c6
 6847 1c7d 961C0000 		.4byte	0x1c96
 6848 1c81 30       		.byte	0x30
 6849 1c82 09       		.uleb128 0x9
 6850 1c83 69326300 		.ascii	"i2c\000"
 6851 1c87 1C       		.byte	0x1c
 6852 1c88 CA01     		.2byte	0x1ca
 6853 1c8a 9C1C0000 		.4byte	0x1c9c
 6854 1c8e 34       		.byte	0x34
 6855 1c8f 00       		.byte	0
 6856 1c90 0B       		.uleb128 0xb
 6857 1c91 04       		.byte	0x4
 6858 1c92 E21B0000 		.4byte	0x1be2
 6859 1c96 0B       		.uleb128 0xb
 6860 1c97 04       		.byte	0x4
 6861 1c98 D6170000 		.4byte	0x17d6
 6862 1c9c 0B       		.uleb128 0xb
 6863 1c9d 04       		.byte	0x4
 6864 1c9e 5B080000 		.4byte	0x85b
 6865 1ca2 13       		.uleb128 0x13
 6866 1ca3 27130000 		.4byte	.LASF453
 6867 1ca7 1C       		.byte	0x1c
ARM GAS  C:\Users\CHRIST~1\AppData\Local\Temp\ccVm3NB4.s 			page 132


 6868 1ca8 E401     		.2byte	0x1e4
 6869 1caa E71B0000 		.4byte	0x1be7
 6870 1cae 1F       		.uleb128 0x1f
 6871 1caf 01       		.byte	0x1
 6872 1cb0 6C000000 		.4byte	0x6c
 6873 1cb4 1D       		.byte	0x1d
 6874 1cb5 31       		.byte	0x31
 6875 1cb6 D91C0000 		.4byte	0x1cd9
 6876 1cba 20       		.uleb128 0x20
 6877 1cbb 09280000 		.4byte	.LASF454
 6878 1cbf 00       		.byte	0
 6879 1cc0 20       		.uleb128 0x20
 6880 1cc1 52210000 		.4byte	.LASF455
 6881 1cc5 01       		.byte	0x1
 6882 1cc6 20       		.uleb128 0x20
 6883 1cc7 F4040000 		.4byte	.LASF456
 6884 1ccb 02       		.byte	0x2
 6885 1ccc 20       		.uleb128 0x20
 6886 1ccd 0E160000 		.4byte	.LASF457
 6887 1cd1 03       		.byte	0x3
 6888 1cd2 20       		.uleb128 0x20
 6889 1cd3 531F0000 		.4byte	.LASF458
 6890 1cd7 04       		.byte	0x4
 6891 1cd8 00       		.byte	0
 6892 1cd9 05       		.uleb128 0x5
 6893 1cda A3230000 		.4byte	.LASF459
 6894 1cde 1D       		.byte	0x1d
 6895 1cdf 37       		.byte	0x37
 6896 1ce0 AE1C0000 		.4byte	0x1cae
 6897 1ce4 05       		.uleb128 0x5
 6898 1ce5 C21B0000 		.4byte	.LASF460
 6899 1ce9 1D       		.byte	0x1d
 6900 1cea 3C       		.byte	0x3c
 6901 1ceb EF1C0000 		.4byte	0x1cef
 6902 1cef 0C       		.uleb128 0xc
 6903 1cf0 C21B0000 		.4byte	.LASF460
 6904 1cf4 18       		.byte	0x18
 6905 1cf5 1E       		.byte	0x1e
 6906 1cf6 3101     		.2byte	0x131
 6907 1cf8 4B1D0000 		.4byte	0x1d4b
 6908 1cfc 0A       		.uleb128 0xa
 6909 1cfd 32180000 		.4byte	.LASF412
 6910 1d01 1E       		.byte	0x1e
 6911 1d02 3501     		.2byte	0x135
 6912 1d04 D91C0000 		.4byte	0x1cd9
 6913 1d08 00       		.byte	0
 6914 1d09 0A       		.uleb128 0xa
 6915 1d0a FD250000 		.4byte	.LASF413
 6916 1d0e 1E       		.byte	0x1e
 6917 1d0f 3901     		.2byte	0x139
 6918 1d11 4E1F0000 		.4byte	0x1f4e
 6919 1d15 04       		.byte	0x4
 6920 1d16 0A       		.uleb128 0xa
 6921 1d17 AE210000 		.4byte	.LASF461
 6922 1d1b 1E       		.byte	0x1e
 6923 1d1c 4101     		.2byte	0x141
 6924 1d1e 04010000 		.4byte	0x104
ARM GAS  C:\Users\CHRIST~1\AppData\Local\Temp\ccVm3NB4.s 			page 133


 6925 1d22 08       		.byte	0x8
 6926 1d23 09       		.uleb128 0x9
 6927 1d24 74696D00 		.ascii	"tim\000"
 6928 1d28 1E       		.byte	0x1e
 6929 1d29 4501     		.2byte	0x145
 6930 1d2b 541F0000 		.4byte	0x1f54
 6931 1d2f 0C       		.byte	0xc
 6932 1d30 0A       		.uleb128 0xa
 6933 1d31 F9200000 		.4byte	.LASF462
 6934 1d35 1E       		.byte	0x1e
 6935 1d36 4901     		.2byte	0x149
 6936 1d38 C5170000 		.4byte	0x17c5
 6937 1d3c 10       		.byte	0x10
 6938 1d3d 0A       		.uleb128 0xa
 6939 1d3e 17050000 		.4byte	.LASF463
 6940 1d42 1E       		.byte	0x1e
 6941 1d43 4D01     		.2byte	0x14d
 6942 1d45 C5170000 		.4byte	0x17c5
 6943 1d49 14       		.byte	0x14
 6944 1d4a 00       		.byte	0
 6945 1d4b 05       		.uleb128 0x5
 6946 1d4c F21C0000 		.4byte	.LASF464
 6947 1d50 1D       		.byte	0x1d
 6948 1d51 43       		.byte	0x43
 6949 1d52 561D0000 		.4byte	0x1d56
 6950 1d56 0B       		.uleb128 0xb
 6951 1d57 04       		.byte	0x4
 6952 1d58 5C1D0000 		.4byte	0x1d5c
 6953 1d5c 0D       		.uleb128 0xd
 6954 1d5d 671D0000 		.4byte	0x1d67
 6955 1d61 0E       		.uleb128 0xe
 6956 1d62 671D0000 		.4byte	0x1d67
 6957 1d66 00       		.byte	0
 6958 1d67 0B       		.uleb128 0xb
 6959 1d68 04       		.byte	0x4
 6960 1d69 E41C0000 		.4byte	0x1ce4
 6961 1d6d 17       		.uleb128 0x17
 6962 1d6e 60       		.byte	0x60
 6963 1d6f 1F       		.byte	0x1f
 6964 1d70 9E01     		.2byte	0x19e
 6965 1d72 791E0000 		.4byte	0x1e79
 6966 1d76 09       		.uleb128 0x9
 6967 1d77 43523100 		.ascii	"CR1\000"
 6968 1d7b 1F       		.byte	0x1f
 6969 1d7c 9F01     		.2byte	0x19f
 6970 1d7e 0F010000 		.4byte	0x10f
 6971 1d82 00       		.byte	0
 6972 1d83 09       		.uleb128 0x9
 6973 1d84 43523200 		.ascii	"CR2\000"
 6974 1d88 1F       		.byte	0x1f
 6975 1d89 A001     		.2byte	0x1a0
 6976 1d8b 0F010000 		.4byte	0x10f
 6977 1d8f 04       		.byte	0x4
 6978 1d90 0A       		.uleb128 0xa
 6979 1d91 C2230000 		.4byte	.LASF131
 6980 1d95 1F       		.byte	0x1f
 6981 1d96 A101     		.2byte	0x1a1
ARM GAS  C:\Users\CHRIST~1\AppData\Local\Temp\ccVm3NB4.s 			page 134


 6982 1d98 0F010000 		.4byte	0x10f
 6983 1d9c 08       		.byte	0x8
 6984 1d9d 0A       		.uleb128 0xa
 6985 1d9e 510B0000 		.4byte	.LASF132
 6986 1da2 1F       		.byte	0x1f
 6987 1da3 A201     		.2byte	0x1a2
 6988 1da5 0F010000 		.4byte	0x10f
 6989 1da9 0C       		.byte	0xc
 6990 1daa 09       		.uleb128 0x9
 6991 1dab 535200   		.ascii	"SR\000"
 6992 1dae 1F       		.byte	0x1f
 6993 1daf A301     		.2byte	0x1a3
 6994 1db1 0F010000 		.4byte	0x10f
 6995 1db5 10       		.byte	0x10
 6996 1db6 09       		.uleb128 0x9
 6997 1db7 45475200 		.ascii	"EGR\000"
 6998 1dbb 1F       		.byte	0x1f
 6999 1dbc A401     		.2byte	0x1a4
 7000 1dbe 0F010000 		.4byte	0x10f
 7001 1dc2 14       		.byte	0x14
 7002 1dc3 0A       		.uleb128 0xa
 7003 1dc4 10290000 		.4byte	.LASF133
 7004 1dc8 1F       		.byte	0x1f
 7005 1dc9 A501     		.2byte	0x1a5
 7006 1dcb 0F010000 		.4byte	0x10f
 7007 1dcf 18       		.byte	0x18
 7008 1dd0 0A       		.uleb128 0xa
 7009 1dd1 16290000 		.4byte	.LASF134
 7010 1dd5 1F       		.byte	0x1f
 7011 1dd6 A601     		.2byte	0x1a6
 7012 1dd8 0F010000 		.4byte	0x10f
 7013 1ddc 1C       		.byte	0x1c
 7014 1ddd 0A       		.uleb128 0xa
 7015 1dde 2D070000 		.4byte	.LASF135
 7016 1de2 1F       		.byte	0x1f
 7017 1de3 A701     		.2byte	0x1a7
 7018 1de5 0F010000 		.4byte	0x10f
 7019 1de9 20       		.byte	0x20
 7020 1dea 09       		.uleb128 0x9
 7021 1deb 434E5400 		.ascii	"CNT\000"
 7022 1def 1F       		.byte	0x1f
 7023 1df0 A801     		.2byte	0x1a8
 7024 1df2 0F010000 		.4byte	0x10f
 7025 1df6 24       		.byte	0x24
 7026 1df7 09       		.uleb128 0x9
 7027 1df8 50534300 		.ascii	"PSC\000"
 7028 1dfc 1F       		.byte	0x1f
 7029 1dfd A901     		.2byte	0x1a9
 7030 1dff 0F010000 		.4byte	0x10f
 7031 1e03 28       		.byte	0x28
 7032 1e04 09       		.uleb128 0x9
 7033 1e05 41525200 		.ascii	"ARR\000"
 7034 1e09 1F       		.byte	0x1f
 7035 1e0a AA01     		.2byte	0x1aa
 7036 1e0c 0F010000 		.4byte	0x10f
 7037 1e10 2C       		.byte	0x2c
 7038 1e11 09       		.uleb128 0x9
ARM GAS  C:\Users\CHRIST~1\AppData\Local\Temp\ccVm3NB4.s 			page 135


 7039 1e12 52435200 		.ascii	"RCR\000"
 7040 1e16 1F       		.byte	0x1f
 7041 1e17 AB01     		.2byte	0x1ab
 7042 1e19 0F010000 		.4byte	0x10f
 7043 1e1d 30       		.byte	0x30
 7044 1e1e 09       		.uleb128 0x9
 7045 1e1f 43435200 		.ascii	"CCR\000"
 7046 1e23 1F       		.byte	0x1f
 7047 1e24 AC01     		.2byte	0x1ac
 7048 1e26 CB070000 		.4byte	0x7cb
 7049 1e2a 34       		.byte	0x34
 7050 1e2b 0A       		.uleb128 0xa
 7051 1e2c 08020000 		.4byte	.LASF140
 7052 1e30 1F       		.byte	0x1f
 7053 1e31 AD01     		.2byte	0x1ad
 7054 1e33 0F010000 		.4byte	0x10f
 7055 1e37 44       		.byte	0x44
 7056 1e38 09       		.uleb128 0x9
 7057 1e39 44435200 		.ascii	"DCR\000"
 7058 1e3d 1F       		.byte	0x1f
 7059 1e3e AE01     		.2byte	0x1ae
 7060 1e40 0F010000 		.4byte	0x10f
 7061 1e44 48       		.byte	0x48
 7062 1e45 0A       		.uleb128 0xa
 7063 1e46 74180000 		.4byte	.LASF141
 7064 1e4a 1F       		.byte	0x1f
 7065 1e4b AF01     		.2byte	0x1af
 7066 1e4d 0F010000 		.4byte	0x10f
 7067 1e51 4C       		.byte	0x4c
 7068 1e52 09       		.uleb128 0x9
 7069 1e53 4F5200   		.ascii	"OR\000"
 7070 1e56 1F       		.byte	0x1f
 7071 1e57 B001     		.2byte	0x1b0
 7072 1e59 0F010000 		.4byte	0x10f
 7073 1e5d 50       		.byte	0x50
 7074 1e5e 0A       		.uleb128 0xa
 7075 1e5f 1C290000 		.4byte	.LASF465
 7076 1e63 1F       		.byte	0x1f
 7077 1e64 B101     		.2byte	0x1b1
 7078 1e66 0F010000 		.4byte	0x10f
 7079 1e6a 54       		.byte	0x54
 7080 1e6b 0A       		.uleb128 0xa
 7081 1e6c AF0E0000 		.4byte	.LASF466
 7082 1e70 1F       		.byte	0x1f
 7083 1e71 B201     		.2byte	0x1b2
 7084 1e73 B6070000 		.4byte	0x7b6
 7085 1e77 58       		.byte	0x58
 7086 1e78 00       		.byte	0
 7087 1e79 18       		.uleb128 0x18
 7088 1e7a B3220000 		.4byte	.LASF467
 7089 1e7e 1F       		.byte	0x1f
 7090 1e7f B301     		.2byte	0x1b3
 7091 1e81 6D1D0000 		.4byte	0x1d6d
 7092 1e85 1F       		.uleb128 0x1f
 7093 1e86 01       		.byte	0x1
 7094 1e87 6C000000 		.4byte	0x6c
 7095 1e8b 1E       		.byte	0x1e
ARM GAS  C:\Users\CHRIST~1\AppData\Local\Temp\ccVm3NB4.s 			page 136


 7096 1e8c EE       		.byte	0xee
 7097 1e8d 9E1E0000 		.4byte	0x1e9e
 7098 1e91 20       		.uleb128 0x20
 7099 1e92 6D090000 		.4byte	.LASF468
 7100 1e96 00       		.byte	0
 7101 1e97 20       		.uleb128 0x20
 7102 1e98 461D0000 		.4byte	.LASF469
 7103 1e9c 01       		.byte	0x1
 7104 1e9d 00       		.byte	0
 7105 1e9e 05       		.uleb128 0x5
 7106 1e9f 88260000 		.4byte	.LASF470
 7107 1ea3 1E       		.byte	0x1e
 7108 1ea4 F1       		.byte	0xf1
 7109 1ea5 851E0000 		.4byte	0x1e85
 7110 1ea9 05       		.uleb128 0x5
 7111 1eaa 8F1D0000 		.4byte	.LASF471
 7112 1eae 1E       		.byte	0x1e
 7113 1eaf F6       		.byte	0xf6
 7114 1eb0 04010000 		.4byte	0x104
 7115 1eb4 1F       		.uleb128 0x1f
 7116 1eb5 01       		.byte	0x1
 7117 1eb6 6C000000 		.4byte	0x6c
 7118 1eba 1E       		.byte	0x1e
 7119 1ebb FB       		.byte	0xfb
 7120 1ebc CD1E0000 		.4byte	0x1ecd
 7121 1ec0 20       		.uleb128 0x20
 7122 1ec1 B91C0000 		.4byte	.LASF472
 7123 1ec5 00       		.byte	0
 7124 1ec6 20       		.uleb128 0x20
 7125 1ec7 FB220000 		.4byte	.LASF473
 7126 1ecb 01       		.byte	0x1
 7127 1ecc 00       		.byte	0
 7128 1ecd 05       		.uleb128 0x5
 7129 1ece CC050000 		.4byte	.LASF474
 7130 1ed2 1E       		.byte	0x1e
 7131 1ed3 FE       		.byte	0xfe
 7132 1ed4 B41E0000 		.4byte	0x1eb4
 7133 1ed8 17       		.uleb128 0x17
 7134 1ed9 1C       		.byte	0x1c
 7135 1eda 1E       		.byte	0x1e
 7136 1edb 0901     		.2byte	0x109
 7137 1edd 3D1F0000 		.4byte	0x1f3d
 7138 1ee1 0A       		.uleb128 0xa
 7139 1ee2 58090000 		.4byte	.LASF475
 7140 1ee6 1E       		.byte	0x1e
 7141 1ee7 0D01     		.2byte	0x10d
 7142 1ee9 9E1E0000 		.4byte	0x1e9e
 7143 1eed 00       		.byte	0
 7144 1eee 0A       		.uleb128 0xa
 7145 1eef 56280000 		.4byte	.LASF476
 7146 1ef3 1E       		.byte	0x1e
 7147 1ef4 1301     		.2byte	0x113
 7148 1ef6 A91E0000 		.4byte	0x1ea9
 7149 1efa 04       		.byte	0x4
 7150 1efb 0A       		.uleb128 0xa
 7151 1efc 21150000 		.4byte	.LASF477
 7152 1f00 1E       		.byte	0x1e
ARM GAS  C:\Users\CHRIST~1\AppData\Local\Temp\ccVm3NB4.s 			page 137


 7153 1f01 1701     		.2byte	0x117
 7154 1f03 4B1D0000 		.4byte	0x1d4b
 7155 1f07 08       		.byte	0x8
 7156 1f08 0A       		.uleb128 0xa
 7157 1f09 BF120000 		.4byte	.LASF478
 7158 1f0d 1E       		.byte	0x1e
 7159 1f0e 1B01     		.2byte	0x11b
 7160 1f10 4B1D0000 		.4byte	0x1d4b
 7161 1f14 0C       		.byte	0xc
 7162 1f15 0A       		.uleb128 0xa
 7163 1f16 FB0B0000 		.4byte	.LASF479
 7164 1f1a 1E       		.byte	0x1e
 7165 1f1b 1F01     		.2byte	0x11f
 7166 1f1d 4B1D0000 		.4byte	0x1d4b
 7167 1f21 10       		.byte	0x10
 7168 1f22 0A       		.uleb128 0xa
 7169 1f23 51130000 		.4byte	.LASF480
 7170 1f27 1E       		.byte	0x1e
 7171 1f28 2501     		.2byte	0x125
 7172 1f2a CD1E0000 		.4byte	0x1ecd
 7173 1f2e 14       		.byte	0x14
 7174 1f2f 0A       		.uleb128 0xa
 7175 1f30 880D0000 		.4byte	.LASF481
 7176 1f34 1E       		.byte	0x1e
 7177 1f35 2B01     		.2byte	0x12b
 7178 1f37 04010000 		.4byte	0x104
 7179 1f3b 18       		.byte	0x18
 7180 1f3c 00       		.byte	0
 7181 1f3d 18       		.uleb128 0x18
 7182 1f3e D61B0000 		.4byte	.LASF482
 7183 1f42 1E       		.byte	0x1e
 7184 1f43 2C01     		.2byte	0x12c
 7185 1f45 D81E0000 		.4byte	0x1ed8
 7186 1f49 06       		.uleb128 0x6
 7187 1f4a 3D1F0000 		.4byte	0x1f3d
 7188 1f4e 0B       		.uleb128 0xb
 7189 1f4f 04       		.byte	0x4
 7190 1f50 491F0000 		.4byte	0x1f49
 7191 1f54 0B       		.uleb128 0xb
 7192 1f55 04       		.byte	0x4
 7193 1f56 791E0000 		.4byte	0x1e79
 7194 1f5a 13       		.uleb128 0x13
 7195 1f5b E8220000 		.4byte	.LASF483
 7196 1f5f 1E       		.byte	0x1e
 7197 1f60 8601     		.2byte	0x186
 7198 1f62 E41C0000 		.4byte	0x1ce4
 7199 1f66 1F       		.uleb128 0x1f
 7200 1f67 01       		.byte	0x1
 7201 1f68 6C000000 		.4byte	0x6c
 7202 1f6c 20       		.byte	0x20
 7203 1f6d 46       		.byte	0x46
 7204 1f6e 911F0000 		.4byte	0x1f91
 7205 1f72 20       		.uleb128 0x20
 7206 1f73 06070000 		.4byte	.LASF484
 7207 1f77 00       		.byte	0
 7208 1f78 20       		.uleb128 0x20
 7209 1f79 F1020000 		.4byte	.LASF485
ARM GAS  C:\Users\CHRIST~1\AppData\Local\Temp\ccVm3NB4.s 			page 138


 7210 1f7d 01       		.byte	0x1
 7211 1f7e 20       		.uleb128 0x20
 7212 1f7f 11270000 		.4byte	.LASF486
 7213 1f83 02       		.byte	0x2
 7214 1f84 20       		.uleb128 0x20
 7215 1f85 0C130000 		.4byte	.LASF487
 7216 1f89 03       		.byte	0x3
 7217 1f8a 20       		.uleb128 0x20
 7218 1f8b D0150000 		.4byte	.LASF488
 7219 1f8f 04       		.byte	0x4
 7220 1f90 00       		.byte	0
 7221 1f91 05       		.uleb128 0x5
 7222 1f92 36030000 		.4byte	.LASF489
 7223 1f96 20       		.byte	0x20
 7224 1f97 4C       		.byte	0x4c
 7225 1f98 661F0000 		.4byte	0x1f66
 7226 1f9c 18       		.uleb128 0x18
 7227 1f9d 67240000 		.4byte	.LASF490
 7228 1fa1 21       		.byte	0x21
 7229 1fa2 9601     		.2byte	0x196
 7230 1fa4 A81F0000 		.4byte	0x1fa8
 7231 1fa8 0C       		.uleb128 0xc
 7232 1fa9 67240000 		.4byte	.LASF490
 7233 1fad 30       		.byte	0x30
 7234 1fae 21       		.byte	0x21
 7235 1faf BA01     		.2byte	0x1ba
 7236 1fb1 2B200000 		.4byte	0x202b
 7237 1fb5 0A       		.uleb128 0xa
 7238 1fb6 32180000 		.4byte	.LASF412
 7239 1fba 21       		.byte	0x21
 7240 1fbb BE01     		.2byte	0x1be
 7241 1fbd 911F0000 		.4byte	0x1f91
 7242 1fc1 00       		.byte	0
 7243 1fc2 0A       		.uleb128 0xa
 7244 1fc3 FD250000 		.4byte	.LASF413
 7245 1fc7 21       		.byte	0x21
 7246 1fc8 C201     		.2byte	0x1c2
 7247 1fca 9D200000 		.4byte	0x209d
 7248 1fce 04       		.byte	0x4
 7249 1fcf 0A       		.uleb128 0xa
 7250 1fd0 EE060000 		.4byte	.LASF447
 7251 1fd4 21       		.byte	0x21
 7252 1fd5 C701     		.2byte	0x1c7
 7253 1fd7 AD020000 		.4byte	0x2ad
 7254 1fdb 08       		.byte	0x8
 7255 1fdc 0A       		.uleb128 0xa
 7256 1fdd 0B0E0000 		.4byte	.LASF446
 7257 1fe1 21       		.byte	0x21
 7258 1fe2 CD01     		.2byte	0x1cd
 7259 1fe4 380E0000 		.4byte	0xe38
 7260 1fe8 0C       		.byte	0xc
 7261 1fe9 09       		.uleb128 0x9
 7262 1fea 73706900 		.ascii	"spi\000"
 7263 1fee 21       		.byte	0x21
 7264 1fef D601     		.2byte	0x1d6
 7265 1ff1 A3200000 		.4byte	0x20a3
 7266 1ff5 1C       		.byte	0x1c
ARM GAS  C:\Users\CHRIST~1\AppData\Local\Temp\ccVm3NB4.s 			page 139


 7267 1ff6 0A       		.uleb128 0xa
 7268 1ff7 4A010000 		.4byte	.LASF451
 7269 1ffb 21       		.byte	0x21
 7270 1ffc DA01     		.2byte	0x1da
 7271 1ffe 961C0000 		.4byte	0x1c96
 7272 2002 20       		.byte	0x20
 7273 2003 0A       		.uleb128 0xa
 7274 2004 2E020000 		.4byte	.LASF452
 7275 2008 21       		.byte	0x21
 7276 2009 DE01     		.2byte	0x1de
 7277 200b 961C0000 		.4byte	0x1c96
 7278 200f 24       		.byte	0x24
 7279 2010 0A       		.uleb128 0xa
 7280 2011 44090000 		.4byte	.LASF449
 7281 2015 21       		.byte	0x21
 7282 2016 E201     		.2byte	0x1e2
 7283 2018 04010000 		.4byte	0x104
 7284 201c 28       		.byte	0x28
 7285 201d 0A       		.uleb128 0xa
 7286 201e B9090000 		.4byte	.LASF450
 7287 2022 21       		.byte	0x21
 7288 2023 E601     		.2byte	0x1e6
 7289 2025 04010000 		.4byte	0x104
 7290 2029 2C       		.byte	0x2c
 7291 202a 00       		.byte	0
 7292 202b 18       		.uleb128 0x18
 7293 202c 7A010000 		.4byte	.LASF491
 7294 2030 21       		.byte	0x21
 7295 2031 9E01     		.2byte	0x19e
 7296 2033 37200000 		.4byte	0x2037
 7297 2037 0B       		.uleb128 0xb
 7298 2038 04       		.byte	0x4
 7299 2039 3D200000 		.4byte	0x203d
 7300 203d 0D       		.uleb128 0xd
 7301 203e 48200000 		.4byte	0x2048
 7302 2042 0E       		.uleb128 0xe
 7303 2043 48200000 		.4byte	0x2048
 7304 2047 00       		.byte	0
 7305 2048 0B       		.uleb128 0xb
 7306 2049 04       		.byte	0x4
 7307 204a 9C1F0000 		.4byte	0x1f9c
 7308 204e 17       		.uleb128 0x17
 7309 204f 0C       		.byte	0xc
 7310 2050 21       		.byte	0x21
 7311 2051 A301     		.2byte	0x1a3
 7312 2053 8C200000 		.4byte	0x208c
 7313 2057 0A       		.uleb128 0xa
 7314 2058 2C0A0000 		.4byte	.LASF492
 7315 205c 21       		.byte	0x21
 7316 205d A701     		.2byte	0x1a7
 7317 205f 2B200000 		.4byte	0x202b
 7318 2063 00       		.byte	0
 7319 2064 0A       		.uleb128 0xa
 7320 2065 02280000 		.4byte	.LASF493
 7321 2069 21       		.byte	0x21
 7322 206a AC01     		.2byte	0x1ac
 7323 206c C2190000 		.4byte	0x19c2
ARM GAS  C:\Users\CHRIST~1\AppData\Local\Temp\ccVm3NB4.s 			page 140


 7324 2070 04       		.byte	0x4
 7325 2071 0A       		.uleb128 0xa
 7326 2072 B3090000 		.4byte	.LASF494
 7327 2076 21       		.byte	0x21
 7328 2077 B001     		.2byte	0x1b0
 7329 2079 E4000000 		.4byte	0xe4
 7330 207d 08       		.byte	0x8
 7331 207e 09       		.uleb128 0x9
 7332 207f 63723100 		.ascii	"cr1\000"
 7333 2083 21       		.byte	0x21
 7334 2084 B401     		.2byte	0x1b4
 7335 2086 E4000000 		.4byte	0xe4
 7336 208a 0A       		.byte	0xa
 7337 208b 00       		.byte	0
 7338 208c 18       		.uleb128 0x18
 7339 208d 77240000 		.4byte	.LASF495
 7340 2091 21       		.byte	0x21
 7341 2092 B501     		.2byte	0x1b5
 7342 2094 4E200000 		.4byte	0x204e
 7343 2098 06       		.uleb128 0x6
 7344 2099 8C200000 		.4byte	0x208c
 7345 209d 0B       		.uleb128 0xb
 7346 209e 04       		.byte	0x4
 7347 209f 98200000 		.4byte	0x2098
 7348 20a3 0B       		.uleb128 0xb
 7349 20a4 04       		.byte	0x4
 7350 20a5 E4080000 		.4byte	0x8e4
 7351 20a9 13       		.uleb128 0x13
 7352 20aa 501A0000 		.4byte	.LASF496
 7353 20ae 21       		.byte	0x21
 7354 20af F201     		.2byte	0x1f2
 7355 20b1 9C1F0000 		.4byte	0x1f9c
 7356 20b5 1F       		.uleb128 0x1f
 7357 20b6 01       		.byte	0x1
 7358 20b7 6C000000 		.4byte	0x6c
 7359 20bb 22       		.byte	0x22
 7360 20bc 3D       		.byte	0x3d
 7361 20bd D4200000 		.4byte	0x20d4
 7362 20c1 20       		.uleb128 0x20
 7363 20c2 450D0000 		.4byte	.LASF497
 7364 20c6 00       		.byte	0
 7365 20c7 20       		.uleb128 0x20
 7366 20c8 2F1F0000 		.4byte	.LASF498
 7367 20cc 01       		.byte	0x1
 7368 20cd 20       		.uleb128 0x20
 7369 20ce B3150000 		.4byte	.LASF499
 7370 20d2 02       		.byte	0x2
 7371 20d3 00       		.byte	0
 7372 20d4 05       		.uleb128 0x5
 7373 20d5 5B1A0000 		.4byte	.LASF500
 7374 20d9 22       		.byte	0x22
 7375 20da 41       		.byte	0x41
 7376 20db B5200000 		.4byte	0x20b5
 7377 20df 1F       		.uleb128 0x1f
 7378 20e0 01       		.byte	0x1
 7379 20e1 6C000000 		.4byte	0x6c
 7380 20e5 22       		.byte	0x22
ARM GAS  C:\Users\CHRIST~1\AppData\Local\Temp\ccVm3NB4.s 			page 141


 7381 20e6 46       		.byte	0x46
 7382 20e7 FE200000 		.4byte	0x20fe
 7383 20eb 20       		.uleb128 0x20
 7384 20ec B5000000 		.4byte	.LASF501
 7385 20f0 00       		.byte	0
 7386 20f1 20       		.uleb128 0x20
 7387 20f2 9A0B0000 		.4byte	.LASF502
 7388 20f6 01       		.byte	0x1
 7389 20f7 20       		.uleb128 0x20
 7390 20f8 662A0000 		.4byte	.LASF503
 7391 20fc 02       		.byte	0x2
 7392 20fd 00       		.byte	0
 7393 20fe 05       		.uleb128 0x5
 7394 20ff 95250000 		.4byte	.LASF504
 7395 2103 22       		.byte	0x22
 7396 2104 4A       		.byte	0x4a
 7397 2105 DF200000 		.4byte	0x20df
 7398 2109 1F       		.uleb128 0x1f
 7399 210a 01       		.byte	0x1
 7400 210b 6C000000 		.4byte	0x6c
 7401 210f 22       		.byte	0x22
 7402 2110 4F       		.byte	0x4f
 7403 2111 28210000 		.4byte	0x2128
 7404 2115 20       		.uleb128 0x20
 7405 2116 BE180000 		.4byte	.LASF505
 7406 211a 00       		.byte	0
 7407 211b 20       		.uleb128 0x20
 7408 211c 630B0000 		.4byte	.LASF506
 7409 2120 01       		.byte	0x1
 7410 2121 20       		.uleb128 0x20
 7411 2122 58220000 		.4byte	.LASF507
 7412 2126 02       		.byte	0x2
 7413 2127 00       		.byte	0
 7414 2128 05       		.uleb128 0x5
 7415 2129 4B250000 		.4byte	.LASF508
 7416 212d 22       		.byte	0x22
 7417 212e 53       		.byte	0x53
 7418 212f 09210000 		.4byte	0x2109
 7419 2133 18       		.uleb128 0x18
 7420 2134 131F0000 		.4byte	.LASF509
 7421 2138 23       		.byte	0x23
 7422 2139 B101     		.2byte	0x1b1
 7423 213b 04010000 		.4byte	0x104
 7424 213f 18       		.uleb128 0x18
 7425 2140 59140000 		.4byte	.LASF510
 7426 2144 23       		.byte	0x23
 7427 2145 B601     		.2byte	0x1b6
 7428 2147 4B210000 		.4byte	0x214b
 7429 214b 0C       		.uleb128 0xc
 7430 214c 59140000 		.4byte	.LASF510
 7431 2150 1C       		.byte	0x1c
 7432 2151 23       		.byte	0x23
 7433 2152 FE01     		.2byte	0x1fe
 7434 2154 CE210000 		.4byte	0x21ce
 7435 2158 0A       		.uleb128 0xa
 7436 2159 32180000 		.4byte	.LASF412
 7437 215d 23       		.byte	0x23
ARM GAS  C:\Users\CHRIST~1\AppData\Local\Temp\ccVm3NB4.s 			page 142


 7438 215e 0202     		.2byte	0x202
 7439 2160 D4200000 		.4byte	0x20d4
 7440 2164 00       		.byte	0
 7441 2165 0A       		.uleb128 0xa
 7442 2166 F1290000 		.4byte	.LASF511
 7443 216a 23       		.byte	0x23
 7444 216b 0602     		.2byte	0x206
 7445 216d FE200000 		.4byte	0x20fe
 7446 2171 01       		.byte	0x1
 7447 2172 0A       		.uleb128 0xa
 7448 2173 A6170000 		.4byte	.LASF512
 7449 2177 23       		.byte	0x23
 7450 2178 0A02     		.2byte	0x20a
 7451 217a 28210000 		.4byte	0x2128
 7452 217e 02       		.byte	0x2
 7453 217f 0A       		.uleb128 0xa
 7454 2180 FD250000 		.4byte	.LASF413
 7455 2184 23       		.byte	0x23
 7456 2185 0E02     		.2byte	0x20e
 7457 2187 C5220000 		.4byte	0x22c5
 7458 218b 04       		.byte	0x4
 7459 218c 0A       		.uleb128 0xa
 7460 218d 8A1C0000 		.4byte	.LASF513
 7461 2191 23       		.byte	0x23
 7462 2192 1602     		.2byte	0x216
 7463 2194 CB220000 		.4byte	0x22cb
 7464 2198 08       		.byte	0x8
 7465 2199 0A       		.uleb128 0xa
 7466 219a 421A0000 		.4byte	.LASF514
 7467 219e 23       		.byte	0x23
 7468 219f 1A02     		.2byte	0x21a
 7469 21a1 04010000 		.4byte	0x104
 7470 21a5 0C       		.byte	0xc
 7471 21a6 0A       		.uleb128 0xa
 7472 21a7 4A010000 		.4byte	.LASF451
 7473 21ab 23       		.byte	0x23
 7474 21ac 1E02     		.2byte	0x21e
 7475 21ae 961C0000 		.4byte	0x1c96
 7476 21b2 10       		.byte	0x10
 7477 21b3 0A       		.uleb128 0xa
 7478 21b4 2E020000 		.4byte	.LASF452
 7479 21b8 23       		.byte	0x23
 7480 21b9 2202     		.2byte	0x222
 7481 21bb 961C0000 		.4byte	0x1c96
 7482 21bf 14       		.byte	0x14
 7483 21c0 0A       		.uleb128 0xa
 7484 21c1 B60C0000 		.4byte	.LASF515
 7485 21c5 23       		.byte	0x23
 7486 21c6 2602     		.2byte	0x226
 7487 21c8 EF000000 		.4byte	0xef
 7488 21cc 18       		.byte	0x18
 7489 21cd 00       		.byte	0
 7490 21ce 18       		.uleb128 0x18
 7491 21cf 151C0000 		.4byte	.LASF516
 7492 21d3 23       		.byte	0x23
 7493 21d4 BD01     		.2byte	0x1bd
 7494 21d6 DA210000 		.4byte	0x21da
ARM GAS  C:\Users\CHRIST~1\AppData\Local\Temp\ccVm3NB4.s 			page 143


 7495 21da 0B       		.uleb128 0xb
 7496 21db 04       		.byte	0x4
 7497 21dc E0210000 		.4byte	0x21e0
 7498 21e0 0D       		.uleb128 0xd
 7499 21e1 EB210000 		.4byte	0x21eb
 7500 21e5 0E       		.uleb128 0xe
 7501 21e6 EB210000 		.4byte	0x21eb
 7502 21ea 00       		.byte	0
 7503 21eb 0B       		.uleb128 0xb
 7504 21ec 04       		.byte	0x4
 7505 21ed 3F210000 		.4byte	0x213f
 7506 21f1 18       		.uleb128 0x18
 7507 21f2 8F150000 		.4byte	.LASF517
 7508 21f6 23       		.byte	0x23
 7509 21f7 C501     		.2byte	0x1c5
 7510 21f9 FD210000 		.4byte	0x21fd
 7511 21fd 0B       		.uleb128 0xb
 7512 21fe 04       		.byte	0x4
 7513 21ff 03220000 		.4byte	0x2203
 7514 2203 0D       		.uleb128 0xd
 7515 2204 13220000 		.4byte	0x2213
 7516 2208 0E       		.uleb128 0xe
 7517 2209 EB210000 		.4byte	0x21eb
 7518 220d 0E       		.uleb128 0xe
 7519 220e E4000000 		.4byte	0xe4
 7520 2212 00       		.byte	0
 7521 2213 18       		.uleb128 0x18
 7522 2214 47040000 		.4byte	.LASF518
 7523 2218 23       		.byte	0x23
 7524 2219 CD01     		.2byte	0x1cd
 7525 221b 1F220000 		.4byte	0x221f
 7526 221f 0B       		.uleb128 0xb
 7527 2220 04       		.byte	0x4
 7528 2221 25220000 		.4byte	0x2225
 7529 2225 0D       		.uleb128 0xd
 7530 2226 35220000 		.4byte	0x2235
 7531 222a 0E       		.uleb128 0xe
 7532 222b EB210000 		.4byte	0x21eb
 7533 222f 0E       		.uleb128 0xe
 7534 2230 33210000 		.4byte	0x2133
 7535 2234 00       		.byte	0
 7536 2235 17       		.uleb128 0x17
 7537 2236 20       		.byte	0x20
 7538 2237 23       		.byte	0x23
 7539 2238 D301     		.2byte	0x1d3
 7540 223a B4220000 		.4byte	0x22b4
 7541 223e 0A       		.uleb128 0xa
 7542 223f C0140000 		.4byte	.LASF519
 7543 2243 23       		.byte	0x23
 7544 2244 D701     		.2byte	0x1d7
 7545 2246 CE210000 		.4byte	0x21ce
 7546 224a 00       		.byte	0
 7547 224b 0A       		.uleb128 0xa
 7548 224c D4200000 		.4byte	.LASF520
 7549 2250 23       		.byte	0x23
 7550 2251 DB01     		.2byte	0x1db
 7551 2253 CE210000 		.4byte	0x21ce
ARM GAS  C:\Users\CHRIST~1\AppData\Local\Temp\ccVm3NB4.s 			page 144


 7552 2257 04       		.byte	0x4
 7553 2258 0A       		.uleb128 0xa
 7554 2259 5E1F0000 		.4byte	.LASF521
 7555 225d 23       		.byte	0x23
 7556 225e DF01     		.2byte	0x1df
 7557 2260 CE210000 		.4byte	0x21ce
 7558 2264 08       		.byte	0x8
 7559 2265 0A       		.uleb128 0xa
 7560 2266 0C150000 		.4byte	.LASF522
 7561 226a 23       		.byte	0x23
 7562 226b E301     		.2byte	0x1e3
 7563 226d F1210000 		.4byte	0x21f1
 7564 2271 0C       		.byte	0xc
 7565 2272 0A       		.uleb128 0xa
 7566 2273 46230000 		.4byte	.LASF523
 7567 2277 23       		.byte	0x23
 7568 2278 E701     		.2byte	0x1e7
 7569 227a 13220000 		.4byte	0x2213
 7570 227e 10       		.byte	0x10
 7571 227f 0A       		.uleb128 0xa
 7572 2280 C0200000 		.4byte	.LASF524
 7573 2284 23       		.byte	0x23
 7574 2285 EC01     		.2byte	0x1ec
 7575 2287 04010000 		.4byte	0x104
 7576 228b 14       		.byte	0x14
 7577 228c 09       		.uleb128 0x9
 7578 228d 63723100 		.ascii	"cr1\000"
 7579 2291 23       		.byte	0x23
 7580 2292 F001     		.2byte	0x1f0
 7581 2294 E4000000 		.4byte	0xe4
 7582 2298 18       		.byte	0x18
 7583 2299 09       		.uleb128 0x9
 7584 229a 63723200 		.ascii	"cr2\000"
 7585 229e 23       		.byte	0x23
 7586 229f F401     		.2byte	0x1f4
 7587 22a1 E4000000 		.4byte	0xe4
 7588 22a5 1A       		.byte	0x1a
 7589 22a6 09       		.uleb128 0x9
 7590 22a7 63723300 		.ascii	"cr3\000"
 7591 22ab 23       		.byte	0x23
 7592 22ac F801     		.2byte	0x1f8
 7593 22ae E4000000 		.4byte	0xe4
 7594 22b2 1C       		.byte	0x1c
 7595 22b3 00       		.byte	0
 7596 22b4 18       		.uleb128 0x18
 7597 22b5 69140000 		.4byte	.LASF525
 7598 22b9 23       		.byte	0x23
 7599 22ba F901     		.2byte	0x1f9
 7600 22bc 35220000 		.4byte	0x2235
 7601 22c0 06       		.uleb128 0x6
 7602 22c1 B4220000 		.4byte	0x22b4
 7603 22c5 0B       		.uleb128 0xb
 7604 22c6 04       		.byte	0x4
 7605 22c7 C0220000 		.4byte	0x22c0
 7606 22cb 0B       		.uleb128 0xb
 7607 22cc 04       		.byte	0x4
 7608 22cd 780A0000 		.4byte	0xa78
ARM GAS  C:\Users\CHRIST~1\AppData\Local\Temp\ccVm3NB4.s 			page 145


 7609 22d1 13       		.uleb128 0x13
 7610 22d2 D0140000 		.4byte	.LASF526
 7611 22d6 23       		.byte	0x23
 7612 22d7 3A02     		.2byte	0x23a
 7613 22d9 3F210000 		.4byte	0x213f
 7614 22dd 13       		.uleb128 0x13
 7615 22de D7140000 		.4byte	.LASF527
 7616 22e2 23       		.byte	0x23
 7617 22e3 4602     		.2byte	0x246
 7618 22e5 3F210000 		.4byte	0x213f
 7619 22e9 05       		.uleb128 0x5
 7620 22ea 2D130000 		.4byte	.LASF528
 7621 22ee 24       		.byte	0x24
 7622 22ef FA       		.byte	0xfa
 7623 22f0 F4220000 		.4byte	0x22f4
 7624 22f4 10       		.uleb128 0x10
 7625 22f5 2D130000 		.4byte	.LASF528
 7626 22f9 8002     		.2byte	0x280
 7627 22fb 25       		.byte	0x25
 7628 22fc 7701     		.2byte	0x177
 7629 22fe 20240000 		.4byte	0x2420
 7630 2302 0A       		.uleb128 0xa
 7631 2303 32180000 		.4byte	.LASF412
 7632 2307 25       		.byte	0x25
 7633 2308 7B01     		.2byte	0x17b
 7634 230a 57240000 		.4byte	0x2457
 7635 230e 00       		.byte	0
 7636 230f 0A       		.uleb128 0xa
 7637 2310 FD250000 		.4byte	.LASF413
 7638 2314 25       		.byte	0x25
 7639 2315 7F01     		.2byte	0x17f
 7640 2317 782D0000 		.4byte	0x2d78
 7641 231b 04       		.byte	0x4
 7642 231c 0A       		.uleb128 0xa
 7643 231d CA240000 		.4byte	.LASF529
 7644 2321 25       		.byte	0x25
 7645 2322 8301     		.2byte	0x183
 7646 2324 E4000000 		.4byte	0xe4
 7647 2328 08       		.byte	0x8
 7648 2329 0A       		.uleb128 0xa
 7649 232a 45280000 		.4byte	.LASF530
 7650 232e 25       		.byte	0x25
 7651 232f 8701     		.2byte	0x187
 7652 2331 E4000000 		.4byte	0xe4
 7653 2335 0A       		.byte	0xa
 7654 2336 09       		.uleb128 0x9
 7655 2337 65706300 		.ascii	"epc\000"
 7656 233b 25       		.byte	0x25
 7657 233c 8B01     		.2byte	0x18b
 7658 233e 7E2D0000 		.4byte	0x2d7e
 7659 2342 0C       		.byte	0xc
 7660 2343 0A       		.uleb128 0xa
 7661 2344 23070000 		.4byte	.LASF531
 7662 2348 25       		.byte	0x25
 7663 2349 9201     		.2byte	0x192
 7664 234b 942D0000 		.4byte	0x2d94
 7665 234f 1C       		.byte	0x1c
ARM GAS  C:\Users\CHRIST~1\AppData\Local\Temp\ccVm3NB4.s 			page 146


 7666 2350 0A       		.uleb128 0xa
 7667 2351 610D0000 		.4byte	.LASF532
 7668 2355 25       		.byte	0x25
 7669 2356 9901     		.2byte	0x199
 7670 2358 942D0000 		.4byte	0x2d94
 7671 235c 28       		.byte	0x28
 7672 235d 0A       		.uleb128 0xa
 7673 235e B20A0000 		.4byte	.LASF533
 7674 2362 25       		.byte	0x25
 7675 2363 9D01     		.2byte	0x19d
 7676 2365 9B240000 		.4byte	0x249b
 7677 2369 34       		.byte	0x34
 7678 236a 0A       		.uleb128 0xa
 7679 236b CB040000 		.4byte	.LASF534
 7680 236f 25       		.byte	0x25
 7681 2370 A101     		.2byte	0x1a1
 7682 2372 610F0000 		.4byte	0xf61
 7683 2376 38       		.byte	0x38
 7684 2377 0A       		.uleb128 0xa
 7685 2378 E2190000 		.4byte	.LASF535
 7686 237c 25       		.byte	0x25
 7687 237d A501     		.2byte	0x1a5
 7688 237f 38000000 		.4byte	0x38
 7689 2383 3C       		.byte	0x3c
 7690 2384 0A       		.uleb128 0xa
 7691 2385 76210000 		.4byte	.LASF536
 7692 2389 25       		.byte	0x25
 7693 238a A901     		.2byte	0x1a9
 7694 238c 1A250000 		.4byte	0x251a
 7695 2390 40       		.byte	0x40
 7696 2391 0A       		.uleb128 0xa
 7697 2392 00070000 		.4byte	.LASF537
 7698 2396 25       		.byte	0x25
 7699 2397 AD01     		.2byte	0x1ad
 7700 2399 1D160000 		.4byte	0x161d
 7701 239d 44       		.byte	0x44
 7702 239e 0A       		.uleb128 0xa
 7703 239f 6F170000 		.4byte	.LASF538
 7704 23a3 25       		.byte	0x25
 7705 23a4 B101     		.2byte	0x1b1
 7706 23a6 E4000000 		.4byte	0xe4
 7707 23aa 4C       		.byte	0x4c
 7708 23ab 0A       		.uleb128 0xa
 7709 23ac C9170000 		.4byte	.LASF539
 7710 23b0 25       		.byte	0x25
 7711 23b1 B501     		.2byte	0x1b5
 7712 23b3 D4000000 		.4byte	0xd4
 7713 23b7 4E       		.byte	0x4e
 7714 23b8 0A       		.uleb128 0xa
 7715 23b9 1C1D0000 		.4byte	.LASF540
 7716 23bd 25       		.byte	0x25
 7717 23be B901     		.2byte	0x1b9
 7718 23c0 D4000000 		.4byte	0xd4
 7719 23c4 4F       		.byte	0x4f
 7720 23c5 09       		.uleb128 0x9
 7721 23c6 6F746700 		.ascii	"otg\000"
 7722 23ca 25       		.byte	0x25
ARM GAS  C:\Users\CHRIST~1\AppData\Local\Temp\ccVm3NB4.s 			page 147


 7723 23cb C101     		.2byte	0x1c1
 7724 23cd A42D0000 		.4byte	0x2da4
 7725 23d1 50       		.byte	0x50
 7726 23d2 0A       		.uleb128 0xa
 7727 23d3 A00F0000 		.4byte	.LASF541
 7728 23d7 25       		.byte	0x25
 7729 23d8 C501     		.2byte	0x1c5
 7730 23da AA2D0000 		.4byte	0x2daa
 7731 23de 54       		.byte	0x54
 7732 23df 0A       		.uleb128 0xa
 7733 23e0 D1220000 		.4byte	.LASF542
 7734 23e4 25       		.byte	0x25
 7735 23e5 C901     		.2byte	0x1c9
 7736 23e7 04010000 		.4byte	0x104
 7737 23eb 58       		.byte	0x58
 7738 23ec 0A       		.uleb128 0xa
 7739 23ed 690E0000 		.4byte	.LASF543
 7740 23f1 25       		.byte	0x25
 7741 23f2 CD01     		.2byte	0x1cd
 7742 23f4 04010000 		.4byte	0x104
 7743 23f8 5C       		.byte	0x5c
 7744 23f9 0A       		.uleb128 0xa
 7745 23fa DC070000 		.4byte	.LASF544
 7746 23fe 25       		.byte	0x25
 7747 23ff D101     		.2byte	0x1d1
 7748 2401 AD020000 		.4byte	0x2ad
 7749 2405 60       		.byte	0x60
 7750 2406 09       		.uleb128 0x9
 7751 2407 747200   		.ascii	"tr\000"
 7752 240a 25       		.byte	0x25
 7753 240b D601     		.2byte	0x1d6
 7754 240d AD020000 		.4byte	0x2ad
 7755 2411 64       		.byte	0x64
 7756 2412 0A       		.uleb128 0xa
 7757 2413 A8160000 		.4byte	.LASF545
 7758 2417 25       		.byte	0x25
 7759 2418 DA01     		.2byte	0x1da
 7760 241a B02D0000 		.4byte	0x2db0
 7761 241e 68       		.byte	0x68
 7762 241f 00       		.byte	0
 7763 2420 05       		.uleb128 0x5
 7764 2421 A4010000 		.4byte	.LASF546
 7765 2425 24       		.byte	0x24
 7766 2426 FF       		.byte	0xff
 7767 2427 D4000000 		.4byte	0xd4
 7768 242b 24       		.uleb128 0x24
 7769 242c 01       		.byte	0x1
 7770 242d 6C000000 		.4byte	0x6c
 7771 2431 24       		.byte	0x24
 7772 2432 0401     		.2byte	0x104
 7773 2434 57240000 		.4byte	0x2457
 7774 2438 20       		.uleb128 0x20
 7775 2439 4C290000 		.4byte	.LASF547
 7776 243d 00       		.byte	0
 7777 243e 20       		.uleb128 0x20
 7778 243f 00000000 		.4byte	.LASF548
 7779 2443 01       		.byte	0x1
ARM GAS  C:\Users\CHRIST~1\AppData\Local\Temp\ccVm3NB4.s 			page 148


 7780 2444 20       		.uleb128 0x20
 7781 2445 66150000 		.4byte	.LASF549
 7782 2449 02       		.byte	0x2
 7783 244a 20       		.uleb128 0x20
 7784 244b 681B0000 		.4byte	.LASF550
 7785 244f 03       		.byte	0x3
 7786 2450 20       		.uleb128 0x20
 7787 2451 F4070000 		.4byte	.LASF551
 7788 2455 04       		.byte	0x4
 7789 2456 00       		.byte	0
 7790 2457 18       		.uleb128 0x18
 7791 2458 16250000 		.4byte	.LASF552
 7792 245c 24       		.byte	0x24
 7793 245d 0A01     		.2byte	0x10a
 7794 245f 2B240000 		.4byte	0x242b
 7795 2463 24       		.uleb128 0x24
 7796 2464 01       		.byte	0x1
 7797 2465 6C000000 		.4byte	0x6c
 7798 2469 24       		.byte	0x24
 7799 246a 1801     		.2byte	0x118
 7800 246c 9B240000 		.4byte	0x249b
 7801 2470 20       		.uleb128 0x20
 7802 2471 2F210000 		.4byte	.LASF553
 7803 2475 00       		.byte	0
 7804 2476 20       		.uleb128 0x20
 7805 2477 73110000 		.4byte	.LASF554
 7806 247b 01       		.byte	0x1
 7807 247c 20       		.uleb128 0x20
 7808 247d DF1D0000 		.4byte	.LASF555
 7809 2481 02       		.byte	0x2
 7810 2482 20       		.uleb128 0x20
 7811 2483 4A180000 		.4byte	.LASF556
 7812 2487 03       		.byte	0x3
 7813 2488 20       		.uleb128 0x20
 7814 2489 4E170000 		.4byte	.LASF557
 7815 248d 04       		.byte	0x4
 7816 248e 20       		.uleb128 0x20
 7817 248f 9F120000 		.4byte	.LASF558
 7818 2493 05       		.byte	0x5
 7819 2494 20       		.uleb128 0x20
 7820 2495 91100000 		.4byte	.LASF559
 7821 2499 06       		.byte	0x6
 7822 249a 00       		.byte	0
 7823 249b 18       		.uleb128 0x18
 7824 249c F3120000 		.4byte	.LASF560
 7825 24a0 24       		.byte	0x24
 7826 24a1 2001     		.2byte	0x120
 7827 24a3 63240000 		.4byte	0x2463
 7828 24a7 24       		.uleb128 0x24
 7829 24a8 01       		.byte	0x1
 7830 24a9 6C000000 		.4byte	0x6c
 7831 24ad 24       		.byte	0x24
 7832 24ae 2501     		.2byte	0x125
 7833 24b0 D9240000 		.4byte	0x24d9
 7834 24b4 20       		.uleb128 0x20
 7835 24b5 4B1B0000 		.4byte	.LASF561
 7836 24b9 00       		.byte	0
ARM GAS  C:\Users\CHRIST~1\AppData\Local\Temp\ccVm3NB4.s 			page 149


 7837 24ba 20       		.uleb128 0x20
 7838 24bb C3260000 		.4byte	.LASF562
 7839 24bf 01       		.byte	0x1
 7840 24c0 20       		.uleb128 0x20
 7841 24c1 2E160000 		.4byte	.LASF563
 7842 24c5 02       		.byte	0x2
 7843 24c6 20       		.uleb128 0x20
 7844 24c7 ED160000 		.4byte	.LASF564
 7845 24cb 03       		.byte	0x3
 7846 24cc 20       		.uleb128 0x20
 7847 24cd A7270000 		.4byte	.LASF565
 7848 24d1 04       		.byte	0x4
 7849 24d2 20       		.uleb128 0x20
 7850 24d3 EB150000 		.4byte	.LASF566
 7851 24d7 05       		.byte	0x5
 7852 24d8 00       		.byte	0
 7853 24d9 18       		.uleb128 0x18
 7854 24da 391C0000 		.4byte	.LASF567
 7855 24de 24       		.byte	0x24
 7856 24df 2C01     		.2byte	0x12c
 7857 24e1 A7240000 		.4byte	0x24a7
 7858 24e5 17       		.uleb128 0x17
 7859 24e6 08       		.byte	0x8
 7860 24e7 24       		.byte	0x24
 7861 24e8 3101     		.2byte	0x131
 7862 24ea 09250000 		.4byte	0x2509
 7863 24ee 0A       		.uleb128 0xa
 7864 24ef 422A0000 		.4byte	.LASF568
 7865 24f3 24       		.byte	0x24
 7866 24f4 3501     		.2byte	0x135
 7867 24f6 38000000 		.4byte	0x38
 7868 24fa 00       		.byte	0
 7869 24fb 0A       		.uleb128 0xa
 7870 24fc 77040000 		.4byte	.LASF569
 7871 2500 24       		.byte	0x24
 7872 2501 3901     		.2byte	0x139
 7873 2503 7D0F0000 		.4byte	0xf7d
 7874 2507 04       		.byte	0x4
 7875 2508 00       		.byte	0
 7876 2509 18       		.uleb128 0x18
 7877 250a 8E170000 		.4byte	.LASF570
 7878 250e 24       		.byte	0x24
 7879 250f 3A01     		.2byte	0x13a
 7880 2511 E5240000 		.4byte	0x24e5
 7881 2515 06       		.uleb128 0x6
 7882 2516 09250000 		.4byte	0x2509
 7883 251a 18       		.uleb128 0x18
 7884 251b B2290000 		.4byte	.LASF571
 7885 251f 24       		.byte	0x24
 7886 2520 4201     		.2byte	0x142
 7887 2522 26250000 		.4byte	0x2526
 7888 2526 0B       		.uleb128 0xb
 7889 2527 04       		.byte	0x4
 7890 2528 2C250000 		.4byte	0x252c
 7891 252c 0D       		.uleb128 0xd
 7892 252d 37250000 		.4byte	0x2537
 7893 2531 0E       		.uleb128 0xe
ARM GAS  C:\Users\CHRIST~1\AppData\Local\Temp\ccVm3NB4.s 			page 150


 7894 2532 37250000 		.4byte	0x2537
 7895 2536 00       		.byte	0
 7896 2537 0B       		.uleb128 0xb
 7897 2538 04       		.byte	0x4
 7898 2539 E9220000 		.4byte	0x22e9
 7899 253d 18       		.uleb128 0x18
 7900 253e D3040000 		.4byte	.LASF572
 7901 2542 24       		.byte	0x24
 7902 2543 4B01     		.2byte	0x14b
 7903 2545 49250000 		.4byte	0x2549
 7904 2549 0B       		.uleb128 0xb
 7905 254a 04       		.byte	0x4
 7906 254b 4F250000 		.4byte	0x254f
 7907 254f 0D       		.uleb128 0xd
 7908 2550 5F250000 		.4byte	0x255f
 7909 2554 0E       		.uleb128 0xe
 7910 2555 37250000 		.4byte	0x2537
 7911 2559 0E       		.uleb128 0xe
 7912 255a 20240000 		.4byte	0x2420
 7913 255e 00       		.byte	0
 7914 255f 18       		.uleb128 0x18
 7915 2560 380C0000 		.4byte	.LASF573
 7916 2564 24       		.byte	0x24
 7917 2565 5401     		.2byte	0x154
 7918 2567 6B250000 		.4byte	0x256b
 7919 256b 0B       		.uleb128 0xb
 7920 256c 04       		.byte	0x4
 7921 256d 71250000 		.4byte	0x2571
 7922 2571 0D       		.uleb128 0xd
 7923 2572 81250000 		.4byte	0x2581
 7924 2576 0E       		.uleb128 0xe
 7925 2577 37250000 		.4byte	0x2537
 7926 257b 0E       		.uleb128 0xe
 7927 257c D9240000 		.4byte	0x24d9
 7928 2580 00       		.byte	0
 7929 2581 18       		.uleb128 0x18
 7930 2582 F51A0000 		.4byte	.LASF574
 7931 2586 24       		.byte	0x24
 7932 2587 6001     		.2byte	0x160
 7933 2589 8D250000 		.4byte	0x258d
 7934 258d 0B       		.uleb128 0xb
 7935 258e 04       		.byte	0x4
 7936 258f 93250000 		.4byte	0x2593
 7937 2593 25       		.uleb128 0x25
 7938 2594 06160000 		.4byte	0x1606
 7939 2598 A2250000 		.4byte	0x25a2
 7940 259c 0E       		.uleb128 0xe
 7941 259d 37250000 		.4byte	0x2537
 7942 25a1 00       		.byte	0
 7943 25a2 18       		.uleb128 0x18
 7944 25a3 46110000 		.4byte	.LASF575
 7945 25a7 24       		.byte	0x24
 7946 25a8 6501     		.2byte	0x165
 7947 25aa AE250000 		.4byte	0x25ae
 7948 25ae 0B       		.uleb128 0xb
 7949 25af 04       		.byte	0x4
 7950 25b0 B4250000 		.4byte	0x25b4
ARM GAS  C:\Users\CHRIST~1\AppData\Local\Temp\ccVm3NB4.s 			page 151


 7951 25b4 25       		.uleb128 0x25
 7952 25b5 D2250000 		.4byte	0x25d2
 7953 25b9 D2250000 		.4byte	0x25d2
 7954 25bd 0E       		.uleb128 0xe
 7955 25be 37250000 		.4byte	0x2537
 7956 25c2 0E       		.uleb128 0xe
 7957 25c3 D4000000 		.4byte	0xd4
 7958 25c7 0E       		.uleb128 0xe
 7959 25c8 D4000000 		.4byte	0xd4
 7960 25cc 0E       		.uleb128 0xe
 7961 25cd E4000000 		.4byte	0xe4
 7962 25d1 00       		.byte	0
 7963 25d2 0B       		.uleb128 0xb
 7964 25d3 04       		.byte	0x4
 7965 25d4 15250000 		.4byte	0x2515
 7966 25d8 15       		.uleb128 0x15
 7967 25d9 20       		.byte	0x20
 7968 25da 26       		.byte	0x26
 7969 25db 35       		.byte	0x35
 7970 25dc 41260000 		.4byte	0x2641
 7971 25e0 08       		.uleb128 0x8
 7972 25e1 41030000 		.4byte	.LASF576
 7973 25e5 26       		.byte	0x26
 7974 25e6 36       		.byte	0x36
 7975 25e7 0F010000 		.4byte	0x10f
 7976 25eb 00       		.byte	0
 7977 25ec 08       		.uleb128 0x8
 7978 25ed CE0E0000 		.4byte	.LASF577
 7979 25f1 26       		.byte	0x26
 7980 25f2 38       		.byte	0x38
 7981 25f3 0F010000 		.4byte	0x10f
 7982 25f7 04       		.byte	0x4
 7983 25f8 08       		.uleb128 0x8
 7984 25f9 D2020000 		.4byte	.LASF578
 7985 25fd 26       		.byte	0x26
 7986 25fe 39       		.byte	0x39
 7987 25ff 0F010000 		.4byte	0x10f
 7988 2603 08       		.byte	0x8
 7989 2604 08       		.uleb128 0x8
 7990 2605 B01E0000 		.4byte	.LASF579
 7991 2609 26       		.byte	0x26
 7992 260a 3A       		.byte	0x3a
 7993 260b 0F010000 		.4byte	0x10f
 7994 260f 0C       		.byte	0xc
 7995 2610 08       		.uleb128 0x8
 7996 2611 DA160000 		.4byte	.LASF580
 7997 2615 26       		.byte	0x26
 7998 2616 3C       		.byte	0x3c
 7999 2617 0F010000 		.4byte	0x10f
 8000 261b 10       		.byte	0x10
 8001 261c 08       		.uleb128 0x8
 8002 261d 170F0000 		.4byte	.LASF581
 8003 2621 26       		.byte	0x26
 8004 2622 3E       		.byte	0x3e
 8005 2623 0F010000 		.4byte	0x10f
 8006 2627 14       		.byte	0x14
 8007 2628 08       		.uleb128 0x8
ARM GAS  C:\Users\CHRIST~1\AppData\Local\Temp\ccVm3NB4.s 			page 152


 8008 2629 1F0F0000 		.4byte	.LASF582
 8009 262d 26       		.byte	0x26
 8010 262e 3F       		.byte	0x3f
 8011 262f 0F010000 		.4byte	0x10f
 8012 2633 18       		.byte	0x18
 8013 2634 08       		.uleb128 0x8
 8014 2635 C2240000 		.4byte	.LASF583
 8015 2639 26       		.byte	0x26
 8016 263a 40       		.byte	0x40
 8017 263b 0F010000 		.4byte	0x10f
 8018 263f 1C       		.byte	0x1c
 8019 2640 00       		.byte	0
 8020 2641 05       		.uleb128 0x5
 8021 2642 111E0000 		.4byte	.LASF584
 8022 2646 26       		.byte	0x26
 8023 2647 41       		.byte	0x41
 8024 2648 D8250000 		.4byte	0x25d8
 8025 264c 15       		.uleb128 0x15
 8026 264d 20       		.byte	0x20
 8027 264e 26       		.byte	0x26
 8028 264f 46       		.byte	0x46
 8029 2650 B5260000 		.4byte	0x26b5
 8030 2654 08       		.uleb128 0x8
 8031 2655 7B0F0000 		.4byte	.LASF585
 8032 2659 26       		.byte	0x26
 8033 265a 47       		.byte	0x47
 8034 265b 0F010000 		.4byte	0x10f
 8035 265f 00       		.byte	0
 8036 2660 08       		.uleb128 0x8
 8037 2661 C70E0000 		.4byte	.LASF586
 8038 2665 26       		.byte	0x26
 8039 2666 49       		.byte	0x49
 8040 2667 0F010000 		.4byte	0x10f
 8041 266b 04       		.byte	0x4
 8042 266c 08       		.uleb128 0x8
 8043 266d 9B230000 		.4byte	.LASF587
 8044 2671 26       		.byte	0x26
 8045 2672 4A       		.byte	0x4a
 8046 2673 0F010000 		.4byte	0x10f
 8047 2677 08       		.byte	0x8
 8048 2678 08       		.uleb128 0x8
 8049 2679 4A130000 		.4byte	.LASF588
 8050 267d 26       		.byte	0x26
 8051 267e 4C       		.byte	0x4c
 8052 267f 0F010000 		.4byte	0x10f
 8053 2683 0C       		.byte	0xc
 8054 2684 08       		.uleb128 0x8
 8055 2685 F7180000 		.4byte	.LASF589
 8056 2689 26       		.byte	0x26
 8057 268a 4D       		.byte	0x4d
 8058 268b 0F010000 		.4byte	0x10f
 8059 268f 10       		.byte	0x10
 8060 2690 08       		.uleb128 0x8
 8061 2691 170F0000 		.4byte	.LASF581
 8062 2695 26       		.byte	0x26
 8063 2696 4F       		.byte	0x4f
 8064 2697 0F010000 		.4byte	0x10f
ARM GAS  C:\Users\CHRIST~1\AppData\Local\Temp\ccVm3NB4.s 			page 153


 8065 269b 14       		.byte	0x14
 8066 269c 08       		.uleb128 0x8
 8067 269d 11070000 		.4byte	.LASF590
 8068 26a1 26       		.byte	0x26
 8069 26a2 50       		.byte	0x50
 8070 26a3 0F010000 		.4byte	0x10f
 8071 26a7 18       		.byte	0x18
 8072 26a8 08       		.uleb128 0x8
 8073 26a9 84230000 		.4byte	.LASF591
 8074 26ad 26       		.byte	0x26
 8075 26ae 52       		.byte	0x52
 8076 26af 0F010000 		.4byte	0x10f
 8077 26b3 1C       		.byte	0x1c
 8078 26b4 00       		.byte	0
 8079 26b5 05       		.uleb128 0x5
 8080 26b6 2C090000 		.4byte	.LASF592
 8081 26ba 26       		.byte	0x26
 8082 26bb 53       		.byte	0x53
 8083 26bc 4C260000 		.4byte	0x264c
 8084 26c0 15       		.uleb128 0x15
 8085 26c1 20       		.byte	0x20
 8086 26c2 26       		.byte	0x26
 8087 26c3 58       		.byte	0x58
 8088 26c4 29270000 		.4byte	0x2729
 8089 26c8 08       		.uleb128 0x8
 8090 26c9 A81E0000 		.4byte	.LASF593
 8091 26cd 26       		.byte	0x26
 8092 26ce 59       		.byte	0x59
 8093 26cf 0F010000 		.4byte	0x10f
 8094 26d3 00       		.byte	0
 8095 26d4 08       		.uleb128 0x8
 8096 26d5 C70E0000 		.4byte	.LASF586
 8097 26d9 26       		.byte	0x26
 8098 26da 5B       		.byte	0x5b
 8099 26db 0F010000 		.4byte	0x10f
 8100 26df 04       		.byte	0x4
 8101 26e0 08       		.uleb128 0x8
 8102 26e1 A41A0000 		.4byte	.LASF594
 8103 26e5 26       		.byte	0x26
 8104 26e6 5C       		.byte	0x5c
 8105 26e7 0F010000 		.4byte	0x10f
 8106 26eb 08       		.byte	0x8
 8107 26ec 08       		.uleb128 0x8
 8108 26ed 4A130000 		.4byte	.LASF588
 8109 26f1 26       		.byte	0x26
 8110 26f2 5E       		.byte	0x5e
 8111 26f3 0F010000 		.4byte	0x10f
 8112 26f7 0C       		.byte	0xc
 8113 26f8 08       		.uleb128 0x8
 8114 26f9 21250000 		.4byte	.LASF595
 8115 26fd 26       		.byte	0x26
 8116 26fe 5F       		.byte	0x5f
 8117 26ff 0F010000 		.4byte	0x10f
 8118 2703 10       		.byte	0x10
 8119 2704 08       		.uleb128 0x8
 8120 2705 170F0000 		.4byte	.LASF581
 8121 2709 26       		.byte	0x26
ARM GAS  C:\Users\CHRIST~1\AppData\Local\Temp\ccVm3NB4.s 			page 154


 8122 270a 61       		.byte	0x61
 8123 270b 0F010000 		.4byte	0x10f
 8124 270f 14       		.byte	0x14
 8125 2710 08       		.uleb128 0x8
 8126 2711 1F0F0000 		.4byte	.LASF582
 8127 2715 26       		.byte	0x26
 8128 2716 62       		.byte	0x62
 8129 2717 0F010000 		.4byte	0x10f
 8130 271b 18       		.byte	0x18
 8131 271c 08       		.uleb128 0x8
 8132 271d 84230000 		.4byte	.LASF591
 8133 2721 26       		.byte	0x26
 8134 2722 63       		.byte	0x63
 8135 2723 0F010000 		.4byte	0x10f
 8136 2727 1C       		.byte	0x1c
 8137 2728 00       		.byte	0
 8138 2729 05       		.uleb128 0x5
 8139 272a 77190000 		.4byte	.LASF596
 8140 272e 26       		.byte	0x26
 8141 272f 64       		.byte	0x64
 8142 2730 C0260000 		.4byte	0x26c0
 8143 2734 26       		.uleb128 0x26
 8144 2735 00100100 		.4byte	0x11000
 8145 2739 26       		.byte	0x26
 8146 273a 69       		.byte	0x69
 8147 273b 112A0000 		.4byte	0x2a11
 8148 273f 08       		.uleb128 0x8
 8149 2740 C3040000 		.4byte	.LASF597
 8150 2744 26       		.byte	0x26
 8151 2745 6A       		.byte	0x6a
 8152 2746 0F010000 		.4byte	0x10f
 8153 274a 00       		.byte	0
 8154 274b 08       		.uleb128 0x8
 8155 274c 3D0D0000 		.4byte	.LASF598
 8156 2750 26       		.byte	0x26
 8157 2751 6B       		.byte	0x6b
 8158 2752 0F010000 		.4byte	0x10f
 8159 2756 04       		.byte	0x4
 8160 2757 08       		.uleb128 0x8
 8161 2758 50070000 		.4byte	.LASF599
 8162 275c 26       		.byte	0x26
 8163 275d 6C       		.byte	0x6c
 8164 275e 0F010000 		.4byte	0x10f
 8165 2762 08       		.byte	0x8
 8166 2763 08       		.uleb128 0x8
 8167 2764 DB290000 		.4byte	.LASF600
 8168 2768 26       		.byte	0x26
 8169 2769 6D       		.byte	0x6d
 8170 276a 0F010000 		.4byte	0x10f
 8171 276e 0C       		.byte	0xc
 8172 276f 08       		.uleb128 0x8
 8173 2770 87150000 		.4byte	.LASF601
 8174 2774 26       		.byte	0x26
 8175 2775 6E       		.byte	0x6e
 8176 2776 0F010000 		.4byte	0x10f
 8177 277a 10       		.byte	0x10
 8178 277b 08       		.uleb128 0x8
ARM GAS  C:\Users\CHRIST~1\AppData\Local\Temp\ccVm3NB4.s 			page 155


 8179 277c BC0C0000 		.4byte	.LASF602
 8180 2780 26       		.byte	0x26
 8181 2781 6F       		.byte	0x6f
 8182 2782 0F010000 		.4byte	0x10f
 8183 2786 14       		.byte	0x14
 8184 2787 08       		.uleb128 0x8
 8185 2788 EA1C0000 		.4byte	.LASF603
 8186 278c 26       		.byte	0x26
 8187 278d 70       		.byte	0x70
 8188 278e 0F010000 		.4byte	0x10f
 8189 2792 18       		.byte	0x18
 8190 2793 08       		.uleb128 0x8
 8191 2794 CA070000 		.4byte	.LASF604
 8192 2798 26       		.byte	0x26
 8193 2799 71       		.byte	0x71
 8194 279a 0F010000 		.4byte	0x10f
 8195 279e 1C       		.byte	0x1c
 8196 279f 08       		.uleb128 0x8
 8197 27a0 C2070000 		.4byte	.LASF605
 8198 27a4 26       		.byte	0x26
 8199 27a5 73       		.byte	0x73
 8200 27a6 0F010000 		.4byte	0x10f
 8201 27aa 20       		.byte	0x20
 8202 27ab 08       		.uleb128 0x8
 8203 27ac 821C0000 		.4byte	.LASF606
 8204 27b0 26       		.byte	0x26
 8205 27b1 75       		.byte	0x75
 8206 27b2 0F010000 		.4byte	0x10f
 8207 27b6 24       		.byte	0x24
 8208 27b7 08       		.uleb128 0x8
 8209 27b8 E0000000 		.4byte	.LASF607
 8210 27bc 26       		.byte	0x26
 8211 27bd 76       		.byte	0x76
 8212 27be 0F010000 		.4byte	0x10f
 8213 27c2 28       		.byte	0x28
 8214 27c3 08       		.uleb128 0x8
 8215 27c4 001D0000 		.4byte	.LASF608
 8216 27c8 26       		.byte	0x26
 8217 27c9 78       		.byte	0x78
 8218 27ca 0F010000 		.4byte	0x10f
 8219 27ce 2C       		.byte	0x2c
 8220 27cf 08       		.uleb128 0x8
 8221 27d0 24100000 		.4byte	.LASF609
 8222 27d4 26       		.byte	0x26
 8223 27d5 7A       		.byte	0x7a
 8224 27d6 0F010000 		.4byte	0x10f
 8225 27da 30       		.byte	0x30
 8226 27db 08       		.uleb128 0x8
 8227 27dc 3B100000 		.4byte	.LASF610
 8228 27e0 26       		.byte	0x26
 8229 27e1 7B       		.byte	0x7b
 8230 27e2 0F010000 		.4byte	0x10f
 8231 27e6 34       		.byte	0x34
 8232 27e7 08       		.uleb128 0x8
 8233 27e8 F1010000 		.4byte	.LASF611
 8234 27ec 26       		.byte	0x26
 8235 27ed 7C       		.byte	0x7c
ARM GAS  C:\Users\CHRIST~1\AppData\Local\Temp\ccVm3NB4.s 			page 156


 8236 27ee 0F010000 		.4byte	0x10f
 8237 27f2 38       		.byte	0x38
 8238 27f3 16       		.uleb128 0x16
 8239 27f4 43494400 		.ascii	"CID\000"
 8240 27f8 26       		.byte	0x26
 8241 27f9 7D       		.byte	0x7d
 8242 27fa 0F010000 		.4byte	0x10f
 8243 27fe 3C       		.byte	0x3c
 8244 27ff 08       		.uleb128 0x8
 8245 2800 22120000 		.4byte	.LASF612
 8246 2804 26       		.byte	0x26
 8247 2805 7E       		.byte	0x7e
 8248 2806 212A0000 		.4byte	0x2a21
 8249 280a 40       		.byte	0x40
 8250 280b 22       		.uleb128 0x22
 8251 280c 20260000 		.4byte	.LASF613
 8252 2810 26       		.byte	0x26
 8253 2811 7F       		.byte	0x7f
 8254 2812 0F010000 		.4byte	0x10f
 8255 2816 0001     		.2byte	0x100
 8256 2818 22       		.uleb128 0x22
 8257 2819 53020000 		.4byte	.LASF614
 8258 281d 26       		.byte	0x26
 8259 281e 81       		.byte	0x81
 8260 281f 940A0000 		.4byte	0xa94
 8261 2823 0401     		.2byte	0x104
 8262 2825 22       		.uleb128 0x22
 8263 2826 BF160000 		.4byte	.LASF615
 8264 282a 26       		.byte	0x26
 8265 282b 83       		.byte	0x83
 8266 282c 362A0000 		.4byte	0x2a36
 8267 2830 4001     		.2byte	0x140
 8268 2832 22       		.uleb128 0x22
 8269 2833 271A0000 		.4byte	.LASF616
 8270 2837 26       		.byte	0x26
 8271 2838 84       		.byte	0x84
 8272 2839 0F010000 		.4byte	0x10f
 8273 283d 0004     		.2byte	0x400
 8274 283f 22       		.uleb128 0x22
 8275 2840 47290000 		.4byte	.LASF617
 8276 2844 26       		.byte	0x26
 8277 2845 85       		.byte	0x85
 8278 2846 0F010000 		.4byte	0x10f
 8279 284a 0404     		.2byte	0x404
 8280 284c 22       		.uleb128 0x22
 8281 284d 51040000 		.4byte	.LASF618
 8282 2851 26       		.byte	0x26
 8283 2852 86       		.byte	0x86
 8284 2853 0F010000 		.4byte	0x10f
 8285 2857 0804     		.2byte	0x408
 8286 2859 22       		.uleb128 0x22
 8287 285a 8D0D0000 		.4byte	.LASF619
 8288 285e 26       		.byte	0x26
 8289 285f 88       		.byte	0x88
 8290 2860 0F010000 		.4byte	0x10f
 8291 2864 0C04     		.2byte	0x40c
 8292 2866 22       		.uleb128 0x22
ARM GAS  C:\Users\CHRIST~1\AppData\Local\Temp\ccVm3NB4.s 			page 157


 8293 2867 11030000 		.4byte	.LASF620
 8294 286b 26       		.byte	0x26
 8295 286c 89       		.byte	0x89
 8296 286d 0F010000 		.4byte	0x10f
 8297 2871 1004     		.2byte	0x410
 8298 2873 22       		.uleb128 0x22
 8299 2874 06040000 		.4byte	.LASF621
 8300 2878 26       		.byte	0x26
 8301 2879 8B       		.byte	0x8b
 8302 287a 0F010000 		.4byte	0x10f
 8303 287e 1404     		.2byte	0x414
 8304 2880 22       		.uleb128 0x22
 8305 2881 580D0000 		.4byte	.LASF622
 8306 2885 26       		.byte	0x26
 8307 2886 8D       		.byte	0x8d
 8308 2887 0F010000 		.4byte	0x10f
 8309 288b 1804     		.2byte	0x418
 8310 288d 22       		.uleb128 0x22
 8311 288e 4D200000 		.4byte	.LASF623
 8312 2892 26       		.byte	0x26
 8313 2893 8F       		.byte	0x8f
 8314 2894 4B2A0000 		.4byte	0x2a4b
 8315 2898 1C04     		.2byte	0x41c
 8316 289a 22       		.uleb128 0x22
 8317 289b B3020000 		.4byte	.LASF624
 8318 289f 26       		.byte	0x26
 8319 28a0 90       		.byte	0x90
 8320 28a1 0F010000 		.4byte	0x10f
 8321 28a5 4004     		.2byte	0x440
 8322 28a7 22       		.uleb128 0x22
 8323 28a8 29220000 		.4byte	.LASF625
 8324 28ac 26       		.byte	0x26
 8325 28ad 92       		.byte	0x92
 8326 28ae 602A0000 		.4byte	0x2a60
 8327 28b2 4404     		.2byte	0x444
 8328 28b4 27       		.uleb128 0x27
 8329 28b5 686300   		.ascii	"hc\000"
 8330 28b8 26       		.byte	0x26
 8331 28b9 93       		.byte	0x93
 8332 28ba 652A0000 		.4byte	0x2a65
 8333 28be 0005     		.2byte	0x500
 8334 28c0 22       		.uleb128 0x22
 8335 28c1 61010000 		.4byte	.LASF626
 8336 28c5 26       		.byte	0x26
 8337 28c6 94       		.byte	0x94
 8338 28c7 852A0000 		.4byte	0x2a85
 8339 28cb 0007     		.2byte	0x700
 8340 28cd 22       		.uleb128 0x22
 8341 28ce 2A1F0000 		.4byte	.LASF627
 8342 28d2 26       		.byte	0x26
 8343 28d3 95       		.byte	0x95
 8344 28d4 0F010000 		.4byte	0x10f
 8345 28d8 0008     		.2byte	0x800
 8346 28da 22       		.uleb128 0x22
 8347 28db 94270000 		.4byte	.LASF628
 8348 28df 26       		.byte	0x26
 8349 28e0 96       		.byte	0x96
ARM GAS  C:\Users\CHRIST~1\AppData\Local\Temp\ccVm3NB4.s 			page 158


 8350 28e1 0F010000 		.4byte	0x10f
 8351 28e5 0408     		.2byte	0x804
 8352 28e7 22       		.uleb128 0x22
 8353 28e8 3E140000 		.4byte	.LASF629
 8354 28ec 26       		.byte	0x26
 8355 28ed 97       		.byte	0x97
 8356 28ee 0F010000 		.4byte	0x10f
 8357 28f2 0808     		.2byte	0x808
 8358 28f4 22       		.uleb128 0x22
 8359 28f5 AC040000 		.4byte	.LASF630
 8360 28f9 26       		.byte	0x26
 8361 28fa 98       		.byte	0x98
 8362 28fb 0F010000 		.4byte	0x10f
 8363 28ff 0C08     		.2byte	0x80c
 8364 2901 22       		.uleb128 0x22
 8365 2902 350D0000 		.4byte	.LASF631
 8366 2906 26       		.byte	0x26
 8367 2907 99       		.byte	0x99
 8368 2908 0F010000 		.4byte	0x10f
 8369 290c 1008     		.2byte	0x810
 8370 290e 22       		.uleb128 0x22
 8371 290f D3230000 		.4byte	.LASF632
 8372 2913 26       		.byte	0x26
 8373 2914 9B       		.byte	0x9b
 8374 2915 0F010000 		.4byte	0x10f
 8375 2919 1408     		.2byte	0x814
 8376 291b 22       		.uleb128 0x22
 8377 291c 71240000 		.4byte	.LASF633
 8378 2920 26       		.byte	0x26
 8379 2921 9D       		.byte	0x9d
 8380 2922 0F010000 		.4byte	0x10f
 8381 2926 1808     		.2byte	0x818
 8382 2928 22       		.uleb128 0x22
 8383 2929 1C210000 		.4byte	.LASF634
 8384 292d 26       		.byte	0x26
 8385 292e 9F       		.byte	0x9f
 8386 292f 0F010000 		.4byte	0x10f
 8387 2933 1C08     		.2byte	0x81c
 8388 2935 22       		.uleb128 0x22
 8389 2936 F9050000 		.4byte	.LASF635
 8390 293a 26       		.byte	0x26
 8391 293b A1       		.byte	0xa1
 8392 293c 0F010000 		.4byte	0x10f
 8393 2940 2008     		.2byte	0x820
 8394 2942 22       		.uleb128 0x22
 8395 2943 04050000 		.4byte	.LASF636
 8396 2947 26       		.byte	0x26
 8397 2948 A2       		.byte	0xa2
 8398 2949 0F010000 		.4byte	0x10f
 8399 294d 2408     		.2byte	0x824
 8400 294f 22       		.uleb128 0x22
 8401 2950 6A010000 		.4byte	.LASF637
 8402 2954 26       		.byte	0x26
 8403 2955 A3       		.byte	0xa3
 8404 2956 0F010000 		.4byte	0x10f
 8405 295a 2808     		.2byte	0x828
 8406 295c 22       		.uleb128 0x22
ARM GAS  C:\Users\CHRIST~1\AppData\Local\Temp\ccVm3NB4.s 			page 159


 8407 295d F5060000 		.4byte	.LASF638
 8408 2961 26       		.byte	0x26
 8409 2962 A5       		.byte	0xa5
 8410 2963 0F010000 		.4byte	0x10f
 8411 2967 2C08     		.2byte	0x82c
 8412 2969 22       		.uleb128 0x22
 8413 296a A3060000 		.4byte	.LASF639
 8414 296e 26       		.byte	0x26
 8415 296f A7       		.byte	0xa7
 8416 2970 0F010000 		.4byte	0x10f
 8417 2974 3008     		.2byte	0x830
 8418 2976 22       		.uleb128 0x22
 8419 2977 570F0000 		.4byte	.LASF640
 8420 297b 26       		.byte	0x26
 8421 297c A8       		.byte	0xa8
 8422 297d 0F010000 		.4byte	0x10f
 8423 2981 3408     		.2byte	0x834
 8424 2983 22       		.uleb128 0x22
 8425 2984 C5060000 		.4byte	.LASF641
 8426 2988 26       		.byte	0x26
 8427 2989 AA       		.byte	0xaa
 8428 298a 0F010000 		.4byte	0x10f
 8429 298e 3808     		.2byte	0x838
 8430 2990 22       		.uleb128 0x22
 8431 2991 E5060000 		.4byte	.LASF642
 8432 2995 26       		.byte	0x26
 8433 2996 AB       		.byte	0xab
 8434 2997 0F010000 		.4byte	0x10f
 8435 299b 3C08     		.2byte	0x83c
 8436 299d 22       		.uleb128 0x22
 8437 299e 60070000 		.4byte	.LASF643
 8438 29a2 26       		.byte	0x26
 8439 29a3 AC       		.byte	0xac
 8440 29a4 9A2A0000 		.4byte	0x2a9a
 8441 29a8 4008     		.2byte	0x840
 8442 29aa 22       		.uleb128 0x22
 8443 29ab 96120000 		.4byte	.LASF644
 8444 29af 26       		.byte	0x26
 8445 29b0 AD       		.byte	0xad
 8446 29b1 9A2A0000 		.4byte	0x2a9a
 8447 29b5 8008     		.2byte	0x880
 8448 29b7 22       		.uleb128 0x22
 8449 29b8 37130000 		.4byte	.LASF645
 8450 29bc 26       		.byte	0x26
 8451 29bd AE       		.byte	0xae
 8452 29be 9A2A0000 		.4byte	0x2a9a
 8453 29c2 C008     		.2byte	0x8c0
 8454 29c4 27       		.uleb128 0x27
 8455 29c5 696500   		.ascii	"ie\000"
 8456 29c8 26       		.byte	0x26
 8457 29c9 AF       		.byte	0xaf
 8458 29ca 9F2A0000 		.4byte	0x2a9f
 8459 29ce 0009     		.2byte	0x900
 8460 29d0 27       		.uleb128 0x27
 8461 29d1 6F6500   		.ascii	"oe\000"
 8462 29d4 26       		.byte	0x26
 8463 29d5 B0       		.byte	0xb0
ARM GAS  C:\Users\CHRIST~1\AppData\Local\Temp\ccVm3NB4.s 			page 160


 8464 29d6 AF2A0000 		.4byte	0x2aaf
 8465 29da 000B     		.2byte	0xb00
 8466 29dc 22       		.uleb128 0x22
 8467 29dd A60C0000 		.4byte	.LASF646
 8468 29e1 26       		.byte	0x26
 8469 29e2 B1       		.byte	0xb1
 8470 29e3 852A0000 		.4byte	0x2a85
 8471 29e7 000D     		.2byte	0xd00
 8472 29e9 22       		.uleb128 0x22
 8473 29ea 9F270000 		.4byte	.LASF647
 8474 29ee 26       		.byte	0x26
 8475 29ef B2       		.byte	0xb2
 8476 29f0 0F010000 		.4byte	0x10f
 8477 29f4 000E     		.2byte	0xe00
 8478 29f6 22       		.uleb128 0x22
 8479 29f7 E9100000 		.4byte	.LASF648
 8480 29fb 26       		.byte	0x26
 8481 29fc B4       		.byte	0xb4
 8482 29fd CF2A0000 		.4byte	0x2acf
 8483 2a01 040E     		.2byte	0xe04
 8484 2a03 22       		.uleb128 0x22
 8485 2a04 1B270000 		.4byte	.LASF649
 8486 2a08 26       		.byte	0x26
 8487 2a09 B5       		.byte	0xb5
 8488 2a0a EB2A0000 		.4byte	0x2aeb
 8489 2a0e 0010     		.2byte	0x1000
 8490 2a10 00       		.byte	0
 8491 2a11 11       		.uleb128 0x11
 8492 2a12 0F010000 		.4byte	0x10f
 8493 2a16 212A0000 		.4byte	0x2a21
 8494 2a1a 12       		.uleb128 0x12
 8495 2a1b CB040000 		.4byte	0x4cb
 8496 2a1f 2F       		.byte	0x2f
 8497 2a20 00       		.byte	0
 8498 2a21 04       		.uleb128 0x4
 8499 2a22 112A0000 		.4byte	0x2a11
 8500 2a26 11       		.uleb128 0x11
 8501 2a27 0F010000 		.4byte	0x10f
 8502 2a2b 362A0000 		.4byte	0x2a36
 8503 2a2f 12       		.uleb128 0x12
 8504 2a30 CB040000 		.4byte	0x4cb
 8505 2a34 AF       		.byte	0xaf
 8506 2a35 00       		.byte	0
 8507 2a36 04       		.uleb128 0x4
 8508 2a37 262A0000 		.4byte	0x2a26
 8509 2a3b 11       		.uleb128 0x11
 8510 2a3c 0F010000 		.4byte	0x10f
 8511 2a40 4B2A0000 		.4byte	0x2a4b
 8512 2a44 12       		.uleb128 0x12
 8513 2a45 CB040000 		.4byte	0x4cb
 8514 2a49 08       		.byte	0x8
 8515 2a4a 00       		.byte	0
 8516 2a4b 04       		.uleb128 0x4
 8517 2a4c 3B2A0000 		.4byte	0x2a3b
 8518 2a50 11       		.uleb128 0x11
 8519 2a51 0F010000 		.4byte	0x10f
 8520 2a55 602A0000 		.4byte	0x2a60
ARM GAS  C:\Users\CHRIST~1\AppData\Local\Temp\ccVm3NB4.s 			page 161


 8521 2a59 12       		.uleb128 0x12
 8522 2a5a CB040000 		.4byte	0x4cb
 8523 2a5e 2E       		.byte	0x2e
 8524 2a5f 00       		.byte	0
 8525 2a60 04       		.uleb128 0x4
 8526 2a61 502A0000 		.4byte	0x2a50
 8527 2a65 11       		.uleb128 0x11
 8528 2a66 41260000 		.4byte	0x2641
 8529 2a6a 752A0000 		.4byte	0x2a75
 8530 2a6e 12       		.uleb128 0x12
 8531 2a6f CB040000 		.4byte	0x4cb
 8532 2a73 0F       		.byte	0xf
 8533 2a74 00       		.byte	0
 8534 2a75 11       		.uleb128 0x11
 8535 2a76 0F010000 		.4byte	0x10f
 8536 2a7a 852A0000 		.4byte	0x2a85
 8537 2a7e 12       		.uleb128 0x12
 8538 2a7f CB040000 		.4byte	0x4cb
 8539 2a83 3F       		.byte	0x3f
 8540 2a84 00       		.byte	0
 8541 2a85 04       		.uleb128 0x4
 8542 2a86 752A0000 		.4byte	0x2a75
 8543 2a8a 11       		.uleb128 0x11
 8544 2a8b 0F010000 		.4byte	0x10f
 8545 2a8f 9A2A0000 		.4byte	0x2a9a
 8546 2a93 12       		.uleb128 0x12
 8547 2a94 CB040000 		.4byte	0x4cb
 8548 2a98 0F       		.byte	0xf
 8549 2a99 00       		.byte	0
 8550 2a9a 04       		.uleb128 0x4
 8551 2a9b 8A2A0000 		.4byte	0x2a8a
 8552 2a9f 11       		.uleb128 0x11
 8553 2aa0 B5260000 		.4byte	0x26b5
 8554 2aa4 AF2A0000 		.4byte	0x2aaf
 8555 2aa8 12       		.uleb128 0x12
 8556 2aa9 CB040000 		.4byte	0x4cb
 8557 2aad 0F       		.byte	0xf
 8558 2aae 00       		.byte	0
 8559 2aaf 11       		.uleb128 0x11
 8560 2ab0 29270000 		.4byte	0x2729
 8561 2ab4 BF2A0000 		.4byte	0x2abf
 8562 2ab8 12       		.uleb128 0x12
 8563 2ab9 CB040000 		.4byte	0x4cb
 8564 2abd 0F       		.byte	0xf
 8565 2abe 00       		.byte	0
 8566 2abf 11       		.uleb128 0x11
 8567 2ac0 0F010000 		.4byte	0x10f
 8568 2ac4 CF2A0000 		.4byte	0x2acf
 8569 2ac8 12       		.uleb128 0x12
 8570 2ac9 CB040000 		.4byte	0x4cb
 8571 2acd 7E       		.byte	0x7e
 8572 2ace 00       		.byte	0
 8573 2acf 04       		.uleb128 0x4
 8574 2ad0 BF2A0000 		.4byte	0x2abf
 8575 2ad4 11       		.uleb128 0x11
 8576 2ad5 0F010000 		.4byte	0x10f
 8577 2ad9 EB2A0000 		.4byte	0x2aeb
ARM GAS  C:\Users\CHRIST~1\AppData\Local\Temp\ccVm3NB4.s 			page 162


 8578 2add 12       		.uleb128 0x12
 8579 2ade CB040000 		.4byte	0x4cb
 8580 2ae2 0F       		.byte	0xf
 8581 2ae3 28       		.uleb128 0x28
 8582 2ae4 CB040000 		.4byte	0x4cb
 8583 2ae8 FF03     		.2byte	0x3ff
 8584 2aea 00       		.byte	0
 8585 2aeb 04       		.uleb128 0x4
 8586 2aec D42A0000 		.4byte	0x2ad4
 8587 2af0 05       		.uleb128 0x5
 8588 2af1 2B2A0000 		.4byte	.LASF650
 8589 2af5 26       		.byte	0x26
 8590 2af6 B6       		.byte	0xb6
 8591 2af7 34270000 		.4byte	0x2734
 8592 2afb 15       		.uleb128 0x15
 8593 2afc 0C       		.byte	0xc
 8594 2afd 25       		.byte	0x25
 8595 2afe C6       		.byte	0xc6
 8596 2aff 282B0000 		.4byte	0x2b28
 8597 2b03 08       		.uleb128 0x8
 8598 2b04 0A0A0000 		.4byte	.LASF651
 8599 2b08 25       		.byte	0x25
 8600 2b09 C7       		.byte	0xc7
 8601 2b0a 04010000 		.4byte	0x104
 8602 2b0e 00       		.byte	0
 8603 2b0f 08       		.uleb128 0x8
 8604 2b10 860C0000 		.4byte	.LASF652
 8605 2b14 25       		.byte	0x25
 8606 2b15 C8       		.byte	0xc8
 8607 2b16 04010000 		.4byte	0x104
 8608 2b1a 04       		.byte	0x4
 8609 2b1b 08       		.uleb128 0x8
 8610 2b1c F2100000 		.4byte	.LASF653
 8611 2b20 25       		.byte	0x25
 8612 2b21 C9       		.byte	0xc9
 8613 2b22 04010000 		.4byte	0x104
 8614 2b26 08       		.byte	0x8
 8615 2b27 00       		.byte	0
 8616 2b28 05       		.uleb128 0x5
 8617 2b29 930C0000 		.4byte	.LASF654
 8618 2b2d 25       		.byte	0x25
 8619 2b2e CA       		.byte	0xca
 8620 2b2f FB2A0000 		.4byte	0x2afb
 8621 2b33 06       		.uleb128 0x6
 8622 2b34 282B0000 		.4byte	0x2b28
 8623 2b38 15       		.uleb128 0x15
 8624 2b39 04       		.byte	0x4
 8625 2b3a 25       		.byte	0x25
 8626 2b3b DD       		.byte	0xdd
 8627 2b3c 4D2B0000 		.4byte	0x2b4d
 8628 2b40 08       		.uleb128 0x8
 8629 2b41 99270000 		.4byte	.LASF655
 8630 2b45 25       		.byte	0x25
 8631 2b46 E1       		.byte	0xe1
 8632 2b47 7D0F0000 		.4byte	0xf7d
 8633 2b4b 00       		.byte	0
 8634 2b4c 00       		.byte	0
ARM GAS  C:\Users\CHRIST~1\AppData\Local\Temp\ccVm3NB4.s 			page 163


 8635 2b4d 15       		.uleb128 0x15
 8636 2b4e 04       		.byte	0x4
 8637 2b4f 25       		.byte	0x25
 8638 2b50 E3       		.byte	0xe3
 8639 2b51 622B0000 		.4byte	0x2b62
 8640 2b55 08       		.uleb128 0x8
 8641 2b56 7B0A0000 		.4byte	.LASF414
 8642 2b5a 25       		.byte	0x25
 8643 2b5b E7       		.byte	0xe7
 8644 2b5c 622B0000 		.4byte	0x2b62
 8645 2b60 00       		.byte	0
 8646 2b61 00       		.byte	0
 8647 2b62 0B       		.uleb128 0xb
 8648 2b63 04       		.byte	0x4
 8649 2b64 720F0000 		.4byte	0xf72
 8650 2b68 1C       		.uleb128 0x1c
 8651 2b69 04       		.byte	0x4
 8652 2b6a 25       		.byte	0x25
 8653 2b6b DC       		.byte	0xdc
 8654 2b6c 872B0000 		.4byte	0x2b87
 8655 2b70 29       		.uleb128 0x29
 8656 2b71 75220000 		.4byte	.LASF656
 8657 2b75 25       		.byte	0x25
 8658 2b76 E2       		.byte	0xe2
 8659 2b77 382B0000 		.4byte	0x2b38
 8660 2b7b 29       		.uleb128 0x29
 8661 2b7c 60210000 		.4byte	.LASF657
 8662 2b80 25       		.byte	0x25
 8663 2b81 E8       		.byte	0xe8
 8664 2b82 4D2B0000 		.4byte	0x2b4d
 8665 2b86 00       		.byte	0
 8666 2b87 15       		.uleb128 0x15
 8667 2b88 14       		.byte	0x14
 8668 2b89 25       		.byte	0x25
 8669 2b8a CF       		.byte	0xcf
 8670 2b8b CC2B0000 		.4byte	0x2bcc
 8671 2b8f 08       		.uleb128 0x8
 8672 2b90 91070000 		.4byte	.LASF658
 8673 2b94 25       		.byte	0x25
 8674 2b95 D3       		.byte	0xd3
 8675 2b96 06160000 		.4byte	0x1606
 8676 2b9a 00       		.byte	0
 8677 2b9b 08       		.uleb128 0x8
 8678 2b9c B9140000 		.4byte	.LASF659
 8679 2ba0 25       		.byte	0x25
 8680 2ba1 D7       		.byte	0xd7
 8681 2ba2 38000000 		.4byte	0x38
 8682 2ba6 04       		.byte	0x4
 8683 2ba7 08       		.uleb128 0x8
 8684 2ba8 BD260000 		.4byte	.LASF660
 8685 2bac 25       		.byte	0x25
 8686 2bad DB       		.byte	0xdb
 8687 2bae 38000000 		.4byte	0x38
 8688 2bb2 08       		.byte	0x8
 8689 2bb3 08       		.uleb128 0x8
 8690 2bb4 58090000 		.4byte	.LASF475
 8691 2bb8 25       		.byte	0x25
ARM GAS  C:\Users\CHRIST~1\AppData\Local\Temp\ccVm3NB4.s 			page 164


 8692 2bb9 E9       		.byte	0xe9
 8693 2bba 682B0000 		.4byte	0x2b68
 8694 2bbe 0C       		.byte	0xc
 8695 2bbf 08       		.uleb128 0x8
 8696 2bc0 00110000 		.4byte	.LASF661
 8697 2bc4 25       		.byte	0x25
 8698 2bc5 ED       		.byte	0xed
 8699 2bc6 38000000 		.4byte	0x38
 8700 2bca 10       		.byte	0x10
 8701 2bcb 00       		.byte	0
 8702 2bcc 05       		.uleb128 0x5
 8703 2bcd 2A120000 		.4byte	.LASF662
 8704 2bd1 25       		.byte	0x25
 8705 2bd2 EE       		.byte	0xee
 8706 2bd3 872B0000 		.4byte	0x2b87
 8707 2bd7 17       		.uleb128 0x17
 8708 2bd8 04       		.byte	0x4
 8709 2bd9 25       		.byte	0x25
 8710 2bda 0101     		.2byte	0x101
 8711 2bdc EE2B0000 		.4byte	0x2bee
 8712 2be0 0A       		.uleb128 0xa
 8713 2be1 B60C0000 		.4byte	.LASF515
 8714 2be5 25       		.byte	0x25
 8715 2be6 0501     		.2byte	0x105
 8716 2be8 610F0000 		.4byte	0xf61
 8717 2bec 00       		.byte	0
 8718 2bed 00       		.byte	0
 8719 2bee 17       		.uleb128 0x17
 8720 2bef 04       		.byte	0x4
 8721 2bf0 25       		.byte	0x25
 8722 2bf1 0701     		.2byte	0x107
 8723 2bf3 052C0000 		.4byte	0x2c05
 8724 2bf7 0A       		.uleb128 0xa
 8725 2bf8 21220000 		.4byte	.LASF415
 8726 2bfc 25       		.byte	0x25
 8727 2bfd 0B01     		.2byte	0x10b
 8728 2bff 052C0000 		.4byte	0x2c05
 8729 2c03 00       		.byte	0
 8730 2c04 00       		.byte	0
 8731 2c05 0B       		.uleb128 0xb
 8732 2c06 04       		.byte	0x4
 8733 2c07 670F0000 		.4byte	0xf67
 8734 2c0b 2A       		.uleb128 0x2a
 8735 2c0c 04       		.byte	0x4
 8736 2c0d 25       		.byte	0x25
 8737 2c0e 0001     		.2byte	0x100
 8738 2c10 2D2C0000 		.4byte	0x2c2d
 8739 2c14 1D       		.uleb128 0x1d
 8740 2c15 75220000 		.4byte	.LASF656
 8741 2c19 25       		.byte	0x25
 8742 2c1a 0601     		.2byte	0x106
 8743 2c1c D72B0000 		.4byte	0x2bd7
 8744 2c20 1D       		.uleb128 0x1d
 8745 2c21 60210000 		.4byte	.LASF657
 8746 2c25 25       		.byte	0x25
 8747 2c26 0C01     		.2byte	0x10c
 8748 2c28 EE2B0000 		.4byte	0x2bee
ARM GAS  C:\Users\CHRIST~1\AppData\Local\Temp\ccVm3NB4.s 			page 165


 8749 2c2c 00       		.byte	0
 8750 2c2d 15       		.uleb128 0x15
 8751 2c2e 14       		.byte	0x14
 8752 2c2f 25       		.byte	0x25
 8753 2c30 F3       		.byte	0xf3
 8754 2c31 742C0000 		.4byte	0x2c74
 8755 2c35 08       		.uleb128 0x8
 8756 2c36 B4050000 		.4byte	.LASF663
 8757 2c3a 25       		.byte	0x25
 8758 2c3b F7       		.byte	0xf7
 8759 2c3c 06160000 		.4byte	0x1606
 8760 2c40 00       		.byte	0
 8761 2c41 08       		.uleb128 0x8
 8762 2c42 07160000 		.4byte	.LASF664
 8763 2c46 25       		.byte	0x25
 8764 2c47 FB       		.byte	0xfb
 8765 2c48 38000000 		.4byte	0x38
 8766 2c4c 04       		.byte	0x4
 8767 2c4d 08       		.uleb128 0x8
 8768 2c4e 3E090000 		.4byte	.LASF665
 8769 2c52 25       		.byte	0x25
 8770 2c53 FF       		.byte	0xff
 8771 2c54 38000000 		.4byte	0x38
 8772 2c58 08       		.byte	0x8
 8773 2c59 0A       		.uleb128 0xa
 8774 2c5a 58090000 		.4byte	.LASF475
 8775 2c5e 25       		.byte	0x25
 8776 2c5f 0D01     		.2byte	0x10d
 8777 2c61 0B2C0000 		.4byte	0x2c0b
 8778 2c65 0C       		.byte	0xc
 8779 2c66 0A       		.uleb128 0xa
 8780 2c67 00110000 		.4byte	.LASF661
 8781 2c6b 25       		.byte	0x25
 8782 2c6c 1101     		.2byte	0x111
 8783 2c6e 38000000 		.4byte	0x38
 8784 2c72 10       		.byte	0x10
 8785 2c73 00       		.byte	0
 8786 2c74 18       		.uleb128 0x18
 8787 2c75 39200000 		.4byte	.LASF666
 8788 2c79 25       		.byte	0x25
 8789 2c7a 1201     		.2byte	0x112
 8790 2c7c 2D2C0000 		.4byte	0x2c2d
 8791 2c80 17       		.uleb128 0x17
 8792 2c81 24       		.byte	0x24
 8793 2c82 25       		.byte	0x25
 8794 2c83 1801     		.2byte	0x118
 8795 2c85 0C2D0000 		.4byte	0x2d0c
 8796 2c89 0A       		.uleb128 0xa
 8797 2c8a 6F190000 		.4byte	.LASF667
 8798 2c8e 25       		.byte	0x25
 8799 2c8f 1C01     		.2byte	0x11c
 8800 2c91 04010000 		.4byte	0x104
 8801 2c95 00       		.byte	0
 8802 2c96 0A       		.uleb128 0xa
 8803 2c97 330A0000 		.4byte	.LASF668
 8804 2c9b 25       		.byte	0x25
 8805 2c9c 2701     		.2byte	0x127
ARM GAS  C:\Users\CHRIST~1\AppData\Local\Temp\ccVm3NB4.s 			page 166


 8806 2c9e 3D250000 		.4byte	0x253d
 8807 2ca2 04       		.byte	0x4
 8808 2ca3 0A       		.uleb128 0xa
 8809 2ca4 881A0000 		.4byte	.LASF669
 8810 2ca8 25       		.byte	0x25
 8811 2ca9 2D01     		.2byte	0x12d
 8812 2cab 3D250000 		.4byte	0x253d
 8813 2caf 08       		.byte	0x8
 8814 2cb0 0A       		.uleb128 0xa
 8815 2cb1 510D0000 		.4byte	.LASF670
 8816 2cb5 25       		.byte	0x25
 8817 2cb6 3301     		.2byte	0x133
 8818 2cb8 3D250000 		.4byte	0x253d
 8819 2cbc 0C       		.byte	0xc
 8820 2cbd 0A       		.uleb128 0xa
 8821 2cbe 4A2A0000 		.4byte	.LASF671
 8822 2cc2 25       		.byte	0x25
 8823 2cc3 3901     		.2byte	0x139
 8824 2cc5 E4000000 		.4byte	0xe4
 8825 2cc9 10       		.byte	0x10
 8826 2cca 0A       		.uleb128 0xa
 8827 2ccb CF110000 		.4byte	.LASF672
 8828 2ccf 25       		.byte	0x25
 8829 2cd0 3F01     		.2byte	0x13f
 8830 2cd2 E4000000 		.4byte	0xe4
 8831 2cd6 12       		.byte	0x12
 8832 2cd7 0A       		.uleb128 0xa
 8833 2cd8 A1280000 		.4byte	.LASF673
 8834 2cdc 25       		.byte	0x25
 8835 2cdd 4401     		.2byte	0x144
 8836 2cdf 0C2D0000 		.4byte	0x2d0c
 8837 2ce3 14       		.byte	0x14
 8838 2ce4 0A       		.uleb128 0xa
 8839 2ce5 D20F0000 		.4byte	.LASF674
 8840 2ce9 25       		.byte	0x25
 8841 2cea 4901     		.2byte	0x149
 8842 2cec 122D0000 		.4byte	0x2d12
 8843 2cf0 18       		.byte	0x18
 8844 2cf1 0A       		.uleb128 0xa
 8845 2cf2 E6130000 		.4byte	.LASF675
 8846 2cf6 25       		.byte	0x25
 8847 2cf7 5001     		.2byte	0x150
 8848 2cf9 E4000000 		.4byte	0xe4
 8849 2cfd 1C       		.byte	0x1c
 8850 2cfe 0A       		.uleb128 0xa
 8851 2cff F8270000 		.4byte	.LASF676
 8852 2d03 25       		.byte	0x25
 8853 2d04 5601     		.2byte	0x156
 8854 2d06 610F0000 		.4byte	0xf61
 8855 2d0a 20       		.byte	0x20
 8856 2d0b 00       		.byte	0
 8857 2d0c 0B       		.uleb128 0xb
 8858 2d0d 04       		.byte	0x4
 8859 2d0e CC2B0000 		.4byte	0x2bcc
 8860 2d12 0B       		.uleb128 0xb
 8861 2d13 04       		.byte	0x4
 8862 2d14 742C0000 		.4byte	0x2c74
ARM GAS  C:\Users\CHRIST~1\AppData\Local\Temp\ccVm3NB4.s 			page 167


 8863 2d18 18       		.uleb128 0x18
 8864 2d19 0F220000 		.4byte	.LASF677
 8865 2d1d 25       		.byte	0x25
 8866 2d1e 5701     		.2byte	0x157
 8867 2d20 802C0000 		.4byte	0x2c80
 8868 2d24 06       		.uleb128 0x6
 8869 2d25 182D0000 		.4byte	0x2d18
 8870 2d29 17       		.uleb128 0x17
 8871 2d2a 10       		.byte	0x10
 8872 2d2b 25       		.byte	0x25
 8873 2d2c 5C01     		.2byte	0x15c
 8874 2d2e 672D0000 		.4byte	0x2d67
 8875 2d32 0A       		.uleb128 0xa
 8876 2d33 B5040000 		.4byte	.LASF678
 8877 2d37 25       		.byte	0x25
 8878 2d38 6101     		.2byte	0x161
 8879 2d3a 5F250000 		.4byte	0x255f
 8880 2d3e 00       		.byte	0
 8881 2d3f 0A       		.uleb128 0xa
 8882 2d40 D5260000 		.4byte	.LASF679
 8883 2d44 25       		.byte	0x25
 8884 2d45 6601     		.2byte	0x166
 8885 2d47 A2250000 		.4byte	0x25a2
 8886 2d4b 04       		.byte	0x4
 8887 2d4c 0A       		.uleb128 0xa
 8888 2d4d 80140000 		.4byte	.LASF680
 8889 2d51 25       		.byte	0x25
 8890 2d52 6C01     		.2byte	0x16c
 8891 2d54 81250000 		.4byte	0x2581
 8892 2d58 08       		.byte	0x8
 8893 2d59 0A       		.uleb128 0xa
 8894 2d5a 34020000 		.4byte	.LASF681
 8895 2d5e 25       		.byte	0x25
 8896 2d5f 7001     		.2byte	0x170
 8897 2d61 1A250000 		.4byte	0x251a
 8898 2d65 0C       		.byte	0xc
 8899 2d66 00       		.byte	0
 8900 2d67 18       		.uleb128 0x18
 8901 2d68 40130000 		.4byte	.LASF682
 8902 2d6c 25       		.byte	0x25
 8903 2d6d 7201     		.2byte	0x172
 8904 2d6f 292D0000 		.4byte	0x2d29
 8905 2d73 06       		.uleb128 0x6
 8906 2d74 672D0000 		.4byte	0x2d67
 8907 2d78 0B       		.uleb128 0xb
 8908 2d79 04       		.byte	0x4
 8909 2d7a 732D0000 		.4byte	0x2d73
 8910 2d7e 11       		.uleb128 0x11
 8911 2d7f 8E2D0000 		.4byte	0x2d8e
 8912 2d83 8E2D0000 		.4byte	0x2d8e
 8913 2d87 12       		.uleb128 0x12
 8914 2d88 CB040000 		.4byte	0x4cb
 8915 2d8c 03       		.byte	0x3
 8916 2d8d 00       		.byte	0
 8917 2d8e 0B       		.uleb128 0xb
 8918 2d8f 04       		.byte	0x4
 8919 2d90 242D0000 		.4byte	0x2d24
ARM GAS  C:\Users\CHRIST~1\AppData\Local\Temp\ccVm3NB4.s 			page 168


 8920 2d94 11       		.uleb128 0x11
 8921 2d95 95030000 		.4byte	0x395
 8922 2d99 A42D0000 		.4byte	0x2da4
 8923 2d9d 12       		.uleb128 0x12
 8924 2d9e CB040000 		.4byte	0x4cb
 8925 2da2 02       		.byte	0x2
 8926 2da3 00       		.byte	0
 8927 2da4 0B       		.uleb128 0xb
 8928 2da5 04       		.byte	0x4
 8929 2da6 F02A0000 		.4byte	0x2af0
 8930 2daa 0B       		.uleb128 0xb
 8931 2dab 04       		.byte	0x4
 8932 2dac 332B0000 		.4byte	0x2b33
 8933 2db0 11       		.uleb128 0x11
 8934 2db1 A40A0000 		.4byte	0xaa4
 8935 2db5 C02D0000 		.4byte	0x2dc0
 8936 2db9 12       		.uleb128 0x12
 8937 2dba CB040000 		.4byte	0x4cb
 8938 2dbe 42       		.byte	0x42
 8939 2dbf 00       		.byte	0
 8940 2dc0 13       		.uleb128 0x13
 8941 2dc1 E9000000 		.4byte	.LASF683
 8942 2dc5 25       		.byte	0x25
 8943 2dc6 0602     		.2byte	0x206
 8944 2dc8 E9220000 		.4byte	0x22e9
 8945 2dcc 11       		.uleb128 0x11
 8946 2dcd 18110000 		.4byte	0x1118
 8947 2dd1 D72D0000 		.4byte	0x2dd7
 8948 2dd5 2B       		.uleb128 0x2b
 8949 2dd6 00       		.byte	0
 8950 2dd7 04       		.uleb128 0x4
 8951 2dd8 CC2D0000 		.4byte	0x2dcc
 8952 2ddc 14       		.uleb128 0x14
 8953 2ddd 2C1A0000 		.4byte	.LASF684
 8954 2de1 27       		.byte	0x27
 8955 2de2 4B       		.byte	0x4b
 8956 2de3 D72D0000 		.4byte	0x2dd7
 8957 2de7 14       		.uleb128 0x14
 8958 2de8 8E1A0000 		.4byte	.LASF685
 8959 2dec 27       		.byte	0x27
 8960 2ded 4C       		.byte	0x4c
 8961 2dee D72D0000 		.4byte	0x2dd7
 8962 2df2 14       		.uleb128 0x14
 8963 2df3 C0290000 		.4byte	.LASF686
 8964 2df7 27       		.byte	0x27
 8965 2df8 4D       		.byte	0x4d
 8966 2df9 D72D0000 		.4byte	0x2dd7
 8967 2dfd 14       		.uleb128 0x14
 8968 2dfe 7B100000 		.4byte	.LASF687
 8969 2e02 27       		.byte	0x27
 8970 2e03 4E       		.byte	0x4e
 8971 2e04 33000000 		.4byte	0x33
 8972 2e08 11       		.uleb128 0x11
 8973 2e09 EF000000 		.4byte	0xef
 8974 2e0d 132E0000 		.4byte	0x2e13
 8975 2e11 2B       		.uleb128 0x2b
 8976 2e12 00       		.byte	0
ARM GAS  C:\Users\CHRIST~1\AppData\Local\Temp\ccVm3NB4.s 			page 169


 8977 2e13 04       		.uleb128 0x4
 8978 2e14 082E0000 		.4byte	0x2e08
 8979 2e18 14       		.uleb128 0x14
 8980 2e19 43190000 		.4byte	.LASF688
 8981 2e1d 28       		.byte	0x28
 8982 2e1e 55       		.byte	0x55
 8983 2e1f 132E0000 		.4byte	0x2e13
 8984 2e23 11       		.uleb128 0x11
 8985 2e24 33000000 		.4byte	0x33
 8986 2e28 2E2E0000 		.4byte	0x2e2e
 8987 2e2c 2B       		.uleb128 0x2b
 8988 2e2d 00       		.byte	0
 8989 2e2e 04       		.uleb128 0x4
 8990 2e2f 232E0000 		.4byte	0x2e23
 8991 2e33 14       		.uleb128 0x14
 8992 2e34 9F130000 		.4byte	.LASF689
 8993 2e38 28       		.byte	0x28
 8994 2e39 56       		.byte	0x56
 8995 2e3a 2E2E0000 		.4byte	0x2e2e
 8996 2e3e 05       		.uleb128 0x5
 8997 2e3f 58070000 		.4byte	.LASF690
 8998 2e43 29       		.byte	0x29
 8999 2e44 22       		.byte	0x22
 9000 2e45 492E0000 		.4byte	0x2e49
 9001 2e49 0B       		.uleb128 0xb
 9002 2e4a 04       		.byte	0x4
 9003 2e4b 4F2E0000 		.4byte	0x2e4f
 9004 2e4f 2C       		.uleb128 0x2c
 9005 2e50 6B050000 		.4byte	.LASF796
 9006 2e54 05       		.uleb128 0x5
 9007 2e55 C00E0000 		.4byte	.LASF691
 9008 2e59 2A       		.byte	0x2a
 9009 2e5a 2C       		.byte	0x2c
 9010 2e5b 97000000 		.4byte	0x97
 9011 2e5f 05       		.uleb128 0x5
 9012 2e60 B01F0000 		.4byte	.LASF692
 9013 2e64 2A       		.byte	0x2a
 9014 2e65 72       		.byte	0x72
 9015 2e66 97000000 		.4byte	0x97
 9016 2e6a 18       		.uleb128 0x18
 9017 2e6b B8100000 		.4byte	.LASF693
 9018 2e6f 04       		.byte	0x4
 9019 2e70 6501     		.2byte	0x165
 9020 2e72 48000000 		.4byte	0x48
 9021 2e76 1C       		.uleb128 0x1c
 9022 2e77 04       		.byte	0x4
 9023 2e78 2A       		.byte	0x2a
 9024 2e79 A6       		.byte	0xa6
 9025 2e7a 952E0000 		.4byte	0x2e95
 9026 2e7e 29       		.uleb128 0x29
 9027 2e7f CB180000 		.4byte	.LASF694
 9028 2e83 2A       		.byte	0x2a
 9029 2e84 A8       		.byte	0xa8
 9030 2e85 6A2E0000 		.4byte	0x2e6a
 9031 2e89 29       		.uleb128 0x29
 9032 2e8a 2C100000 		.4byte	.LASF695
 9033 2e8e 2A       		.byte	0x2a
ARM GAS  C:\Users\CHRIST~1\AppData\Local\Temp\ccVm3NB4.s 			page 170


 9034 2e8f A9       		.byte	0xa9
 9035 2e90 952E0000 		.4byte	0x2e95
 9036 2e94 00       		.byte	0
 9037 2e95 11       		.uleb128 0x11
 9038 2e96 6C000000 		.4byte	0x6c
 9039 2e9a A52E0000 		.4byte	0x2ea5
 9040 2e9e 12       		.uleb128 0x12
 9041 2e9f CB040000 		.4byte	0x4cb
 9042 2ea3 03       		.byte	0x3
 9043 2ea4 00       		.byte	0
 9044 2ea5 15       		.uleb128 0x15
 9045 2ea6 08       		.byte	0x8
 9046 2ea7 2A       		.byte	0x2a
 9047 2ea8 A3       		.byte	0xa3
 9048 2ea9 C62E0000 		.4byte	0x2ec6
 9049 2ead 08       		.uleb128 0x8
 9050 2eae 070F0000 		.4byte	.LASF696
 9051 2eb2 2A       		.byte	0x2a
 9052 2eb3 A5       		.byte	0xa5
 9053 2eb4 2C000000 		.4byte	0x2c
 9054 2eb8 00       		.byte	0
 9055 2eb9 08       		.uleb128 0x8
 9056 2eba D1180000 		.4byte	.LASF697
 9057 2ebe 2A       		.byte	0x2a
 9058 2ebf AA       		.byte	0xaa
 9059 2ec0 762E0000 		.4byte	0x2e76
 9060 2ec4 04       		.byte	0x4
 9061 2ec5 00       		.byte	0
 9062 2ec6 05       		.uleb128 0x5
 9063 2ec7 67200000 		.4byte	.LASF698
 9064 2ecb 2A       		.byte	0x2a
 9065 2ecc AB       		.byte	0xab
 9066 2ecd A52E0000 		.4byte	0x2ea5
 9067 2ed1 05       		.uleb128 0x5
 9068 2ed2 59250000 		.4byte	.LASF699
 9069 2ed6 2A       		.byte	0x2a
 9070 2ed7 AF       		.byte	0xaf
 9071 2ed8 3E2E0000 		.4byte	0x2e3e
 9072 2edc 0B       		.uleb128 0xb
 9073 2edd 04       		.byte	0x4
 9074 2ede FF0C0000 		.4byte	0xcff
 9075 2ee2 05       		.uleb128 0x5
 9076 2ee3 BE150000 		.4byte	.LASF700
 9077 2ee7 2B       		.byte	0x2b
 9078 2ee8 16       		.byte	0x16
 9079 2ee9 A9000000 		.4byte	0xa9
 9080 2eed 07       		.uleb128 0x7
 9081 2eee CF1C0000 		.4byte	.LASF701
 9082 2ef2 18       		.byte	0x18
 9083 2ef3 2B       		.byte	0x2b
 9084 2ef4 2F       		.byte	0x2f
 9085 2ef5 402F0000 		.4byte	0x2f40
 9086 2ef9 08       		.uleb128 0x8
 9087 2efa 82120000 		.4byte	.LASF702
 9088 2efe 2B       		.byte	0x2b
 9089 2eff 31       		.byte	0x31
 9090 2f00 402F0000 		.4byte	0x2f40
ARM GAS  C:\Users\CHRIST~1\AppData\Local\Temp\ccVm3NB4.s 			page 171


 9091 2f04 00       		.byte	0
 9092 2f05 16       		.uleb128 0x16
 9093 2f06 5F6B00   		.ascii	"_k\000"
 9094 2f09 2B       		.byte	0x2b
 9095 2f0a 32       		.byte	0x32
 9096 2f0b 2C000000 		.4byte	0x2c
 9097 2f0f 04       		.byte	0x4
 9098 2f10 08       		.uleb128 0x8
 9099 2f11 ED1A0000 		.4byte	.LASF703
 9100 2f15 2B       		.byte	0x2b
 9101 2f16 32       		.byte	0x32
 9102 2f17 2C000000 		.4byte	0x2c
 9103 2f1b 08       		.byte	0x8
 9104 2f1c 08       		.uleb128 0x8
 9105 2f1d 0A1B0000 		.4byte	.LASF704
 9106 2f21 2B       		.byte	0x2b
 9107 2f22 32       		.byte	0x32
 9108 2f23 2C000000 		.4byte	0x2c
 9109 2f27 0C       		.byte	0xc
 9110 2f28 08       		.uleb128 0x8
 9111 2f29 CC0A0000 		.4byte	.LASF705
 9112 2f2d 2B       		.byte	0x2b
 9113 2f2e 32       		.byte	0x32
 9114 2f2f 2C000000 		.4byte	0x2c
 9115 2f33 10       		.byte	0x10
 9116 2f34 16       		.uleb128 0x16
 9117 2f35 5F7800   		.ascii	"_x\000"
 9118 2f38 2B       		.byte	0x2b
 9119 2f39 33       		.byte	0x33
 9120 2f3a 462F0000 		.4byte	0x2f46
 9121 2f3e 14       		.byte	0x14
 9122 2f3f 00       		.byte	0
 9123 2f40 0B       		.uleb128 0xb
 9124 2f41 04       		.byte	0x4
 9125 2f42 ED2E0000 		.4byte	0x2eed
 9126 2f46 11       		.uleb128 0x11
 9127 2f47 E22E0000 		.4byte	0x2ee2
 9128 2f4b 562F0000 		.4byte	0x2f56
 9129 2f4f 12       		.uleb128 0x12
 9130 2f50 CB040000 		.4byte	0x4cb
 9131 2f54 00       		.byte	0
 9132 2f55 00       		.byte	0
 9133 2f56 07       		.uleb128 0x7
 9134 2f57 991D0000 		.4byte	.LASF706
 9135 2f5b 24       		.byte	0x24
 9136 2f5c 2B       		.byte	0x2b
 9137 2f5d 37       		.byte	0x37
 9138 2f5e CF2F0000 		.4byte	0x2fcf
 9139 2f62 08       		.uleb128 0x8
 9140 2f63 2C0D0000 		.4byte	.LASF707
 9141 2f67 2B       		.byte	0x2b
 9142 2f68 39       		.byte	0x39
 9143 2f69 2C000000 		.4byte	0x2c
 9144 2f6d 00       		.byte	0
 9145 2f6e 08       		.uleb128 0x8
 9146 2f6f 1E0C0000 		.4byte	.LASF708
 9147 2f73 2B       		.byte	0x2b
ARM GAS  C:\Users\CHRIST~1\AppData\Local\Temp\ccVm3NB4.s 			page 172


 9148 2f74 3A       		.byte	0x3a
 9149 2f75 2C000000 		.4byte	0x2c
 9150 2f79 04       		.byte	0x4
 9151 2f7a 08       		.uleb128 0x8
 9152 2f7b 57100000 		.4byte	.LASF709
 9153 2f7f 2B       		.byte	0x2b
 9154 2f80 3B       		.byte	0x3b
 9155 2f81 2C000000 		.4byte	0x2c
 9156 2f85 08       		.byte	0x8
 9157 2f86 08       		.uleb128 0x8
 9158 2f87 AD110000 		.4byte	.LASF710
 9159 2f8b 2B       		.byte	0x2b
 9160 2f8c 3C       		.byte	0x3c
 9161 2f8d 2C000000 		.4byte	0x2c
 9162 2f91 0C       		.byte	0xc
 9163 2f92 08       		.uleb128 0x8
 9164 2f93 AC010000 		.4byte	.LASF711
 9165 2f97 2B       		.byte	0x2b
 9166 2f98 3D       		.byte	0x3d
 9167 2f99 2C000000 		.4byte	0x2c
 9168 2f9d 10       		.byte	0x10
 9169 2f9e 08       		.uleb128 0x8
 9170 2f9f 620C0000 		.4byte	.LASF712
 9171 2fa3 2B       		.byte	0x2b
 9172 2fa4 3E       		.byte	0x3e
 9173 2fa5 2C000000 		.4byte	0x2c
 9174 2fa9 14       		.byte	0x14
 9175 2faa 08       		.uleb128 0x8
 9176 2fab DB090000 		.4byte	.LASF713
 9177 2faf 2B       		.byte	0x2b
 9178 2fb0 3F       		.byte	0x3f
 9179 2fb1 2C000000 		.4byte	0x2c
 9180 2fb5 18       		.byte	0x18
 9181 2fb6 08       		.uleb128 0x8
 9182 2fb7 19070000 		.4byte	.LASF714
 9183 2fbb 2B       		.byte	0x2b
 9184 2fbc 40       		.byte	0x40
 9185 2fbd 2C000000 		.4byte	0x2c
 9186 2fc1 1C       		.byte	0x1c
 9187 2fc2 08       		.uleb128 0x8
 9188 2fc3 F4090000 		.4byte	.LASF715
 9189 2fc7 2B       		.byte	0x2b
 9190 2fc8 41       		.byte	0x41
 9191 2fc9 2C000000 		.4byte	0x2c
 9192 2fcd 20       		.byte	0x20
 9193 2fce 00       		.byte	0
 9194 2fcf 2D       		.uleb128 0x2d
 9195 2fd0 18140000 		.4byte	.LASF716
 9196 2fd4 0801     		.2byte	0x108
 9197 2fd6 2B       		.byte	0x2b
 9198 2fd7 4A       		.byte	0x4a
 9199 2fd8 0F300000 		.4byte	0x300f
 9200 2fdc 08       		.uleb128 0x8
 9201 2fdd EF110000 		.4byte	.LASF717
 9202 2fe1 2B       		.byte	0x2b
 9203 2fe2 4B       		.byte	0x4b
 9204 2fe3 0F300000 		.4byte	0x300f
ARM GAS  C:\Users\CHRIST~1\AppData\Local\Temp\ccVm3NB4.s 			page 173


 9205 2fe7 00       		.byte	0
 9206 2fe8 08       		.uleb128 0x8
 9207 2fe9 48030000 		.4byte	.LASF718
 9208 2fed 2B       		.byte	0x2b
 9209 2fee 4C       		.byte	0x4c
 9210 2fef 0F300000 		.4byte	0x300f
 9211 2ff3 80       		.byte	0x80
 9212 2ff4 22       		.uleb128 0x22
 9213 2ff5 B5010000 		.4byte	.LASF719
 9214 2ff9 2B       		.byte	0x2b
 9215 2ffa 4E       		.byte	0x4e
 9216 2ffb E22E0000 		.4byte	0x2ee2
 9217 2fff 0001     		.2byte	0x100
 9218 3001 22       		.uleb128 0x22
 9219 3002 45210000 		.4byte	.LASF720
 9220 3006 2B       		.byte	0x2b
 9221 3007 51       		.byte	0x51
 9222 3008 E22E0000 		.4byte	0x2ee2
 9223 300c 0401     		.2byte	0x104
 9224 300e 00       		.byte	0
 9225 300f 11       		.uleb128 0x11
 9226 3010 95030000 		.4byte	0x395
 9227 3014 1F300000 		.4byte	0x301f
 9228 3018 12       		.uleb128 0x12
 9229 3019 CB040000 		.4byte	0x4cb
 9230 301d 1F       		.byte	0x1f
 9231 301e 00       		.byte	0
 9232 301f 2D       		.uleb128 0x2d
 9233 3020 59010000 		.4byte	.LASF721
 9234 3024 9001     		.2byte	0x190
 9235 3026 2B       		.byte	0x2b
 9236 3027 5D       		.byte	0x5d
 9237 3028 5D300000 		.4byte	0x305d
 9238 302c 08       		.uleb128 0x8
 9239 302d 82120000 		.4byte	.LASF702
 9240 3031 2B       		.byte	0x2b
 9241 3032 5E       		.byte	0x5e
 9242 3033 5D300000 		.4byte	0x305d
 9243 3037 00       		.byte	0
 9244 3038 08       		.uleb128 0x8
 9245 3039 E4010000 		.4byte	.LASF722
 9246 303d 2B       		.byte	0x2b
 9247 303e 5F       		.byte	0x5f
 9248 303f 2C000000 		.4byte	0x2c
 9249 3043 04       		.byte	0x4
 9250 3044 08       		.uleb128 0x8
 9251 3045 16200000 		.4byte	.LASF723
 9252 3049 2B       		.byte	0x2b
 9253 304a 61       		.byte	0x61
 9254 304b 63300000 		.4byte	0x3063
 9255 304f 08       		.byte	0x8
 9256 3050 08       		.uleb128 0x8
 9257 3051 18140000 		.4byte	.LASF716
 9258 3055 2B       		.byte	0x2b
 9259 3056 62       		.byte	0x62
 9260 3057 CF2F0000 		.4byte	0x2fcf
 9261 305b 88       		.byte	0x88
ARM GAS  C:\Users\CHRIST~1\AppData\Local\Temp\ccVm3NB4.s 			page 174


 9262 305c 00       		.byte	0
 9263 305d 0B       		.uleb128 0xb
 9264 305e 04       		.byte	0x4
 9265 305f 1F300000 		.4byte	0x301f
 9266 3063 11       		.uleb128 0x11
 9267 3064 73300000 		.4byte	0x3073
 9268 3068 73300000 		.4byte	0x3073
 9269 306c 12       		.uleb128 0x12
 9270 306d CB040000 		.4byte	0x4cb
 9271 3071 1F       		.byte	0x1f
 9272 3072 00       		.byte	0
 9273 3073 0B       		.uleb128 0xb
 9274 3074 04       		.byte	0x4
 9275 3075 79300000 		.4byte	0x3079
 9276 3079 2E       		.uleb128 0x2e
 9277 307a 07       		.uleb128 0x7
 9278 307b 43180000 		.4byte	.LASF724
 9279 307f 08       		.byte	0x8
 9280 3080 2B       		.byte	0x2b
 9281 3081 75       		.byte	0x75
 9282 3082 9F300000 		.4byte	0x309f
 9283 3086 08       		.uleb128 0x8
 9284 3087 38140000 		.4byte	.LASF725
 9285 308b 2B       		.byte	0x2b
 9286 308c 76       		.byte	0x76
 9287 308d 9F300000 		.4byte	0x309f
 9288 3091 00       		.byte	0
 9289 3092 08       		.uleb128 0x8
 9290 3093 7C0B0000 		.4byte	.LASF726
 9291 3097 2B       		.byte	0x2b
 9292 3098 77       		.byte	0x77
 9293 3099 2C000000 		.4byte	0x2c
 9294 309d 04       		.byte	0x4
 9295 309e 00       		.byte	0
 9296 309f 0B       		.uleb128 0xb
 9297 30a0 04       		.byte	0x4
 9298 30a1 6C000000 		.4byte	0x6c
 9299 30a5 07       		.uleb128 0x7
 9300 30a6 07200000 		.4byte	.LASF727
 9301 30aa 68       		.byte	0x68
 9302 30ab 2B       		.byte	0x2b
 9303 30ac B5       		.byte	0xb5
 9304 30ad CF310000 		.4byte	0x31cf
 9305 30b1 16       		.uleb128 0x16
 9306 30b2 5F7000   		.ascii	"_p\000"
 9307 30b5 2B       		.byte	0x2b
 9308 30b6 B6       		.byte	0xb6
 9309 30b7 9F300000 		.4byte	0x309f
 9310 30bb 00       		.byte	0
 9311 30bc 16       		.uleb128 0x16
 9312 30bd 5F7200   		.ascii	"_r\000"
 9313 30c0 2B       		.byte	0x2b
 9314 30c1 B7       		.byte	0xb7
 9315 30c2 2C000000 		.4byte	0x2c
 9316 30c6 04       		.byte	0x4
 9317 30c7 16       		.uleb128 0x16
 9318 30c8 5F7700   		.ascii	"_w\000"
ARM GAS  C:\Users\CHRIST~1\AppData\Local\Temp\ccVm3NB4.s 			page 175


 9319 30cb 2B       		.byte	0x2b
 9320 30cc B8       		.byte	0xb8
 9321 30cd 2C000000 		.4byte	0x2c
 9322 30d1 08       		.byte	0x8
 9323 30d2 08       		.uleb128 0x8
 9324 30d3 44020000 		.4byte	.LASF728
 9325 30d7 2B       		.byte	0x2b
 9326 30d8 B9       		.byte	0xb9
 9327 30d9 73000000 		.4byte	0x73
 9328 30dd 0C       		.byte	0xc
 9329 30de 08       		.uleb128 0x8
 9330 30df B81F0000 		.4byte	.LASF729
 9331 30e3 2B       		.byte	0x2b
 9332 30e4 BA       		.byte	0xba
 9333 30e5 73000000 		.4byte	0x73
 9334 30e9 0E       		.byte	0xe
 9335 30ea 16       		.uleb128 0x16
 9336 30eb 5F626600 		.ascii	"_bf\000"
 9337 30ef 2B       		.byte	0x2b
 9338 30f0 BB       		.byte	0xbb
 9339 30f1 7A300000 		.4byte	0x307a
 9340 30f5 10       		.byte	0x10
 9341 30f6 08       		.uleb128 0x8
 9342 30f7 6E040000 		.4byte	.LASF730
 9343 30fb 2B       		.byte	0x2b
 9344 30fc BC       		.byte	0xbc
 9345 30fd 2C000000 		.4byte	0x2c
 9346 3101 18       		.byte	0x18
 9347 3102 08       		.uleb128 0x8
 9348 3103 D4120000 		.4byte	.LASF731
 9349 3107 2B       		.byte	0x2b
 9350 3108 C3       		.byte	0xc3
 9351 3109 95030000 		.4byte	0x395
 9352 310d 1C       		.byte	0x1c
 9353 310e 08       		.uleb128 0x8
 9354 310f 270F0000 		.4byte	.LASF732
 9355 3113 2B       		.byte	0x2b
 9356 3114 C5       		.byte	0xc5
 9357 3115 2A330000 		.4byte	0x332a
 9358 3119 20       		.byte	0x20
 9359 311a 08       		.uleb128 0x8
 9360 311b 820B0000 		.4byte	.LASF733
 9361 311f 2B       		.byte	0x2b
 9362 3120 C7       		.byte	0xc7
 9363 3121 4E330000 		.4byte	0x334e
 9364 3125 24       		.byte	0x24
 9365 3126 08       		.uleb128 0x8
 9366 3127 E7160000 		.4byte	.LASF734
 9367 312b 2B       		.byte	0x2b
 9368 312c CA       		.byte	0xca
 9369 312d 72330000 		.4byte	0x3372
 9370 3131 28       		.byte	0x28
 9371 3132 08       		.uleb128 0x8
 9372 3133 441C0000 		.4byte	.LASF735
 9373 3137 2B       		.byte	0x2b
 9374 3138 CB       		.byte	0xcb
 9375 3139 8C330000 		.4byte	0x338c
ARM GAS  C:\Users\CHRIST~1\AppData\Local\Temp\ccVm3NB4.s 			page 176


 9376 313d 2C       		.byte	0x2c
 9377 313e 16       		.uleb128 0x16
 9378 313f 5F756200 		.ascii	"_ub\000"
 9379 3143 2B       		.byte	0x2b
 9380 3144 CE       		.byte	0xce
 9381 3145 7A300000 		.4byte	0x307a
 9382 3149 30       		.byte	0x30
 9383 314a 16       		.uleb128 0x16
 9384 314b 5F757000 		.ascii	"_up\000"
 9385 314f 2B       		.byte	0x2b
 9386 3150 CF       		.byte	0xcf
 9387 3151 9F300000 		.4byte	0x309f
 9388 3155 38       		.byte	0x38
 9389 3156 16       		.uleb128 0x16
 9390 3157 5F757200 		.ascii	"_ur\000"
 9391 315b 2B       		.byte	0x2b
 9392 315c D0       		.byte	0xd0
 9393 315d 2C000000 		.4byte	0x2c
 9394 3161 3C       		.byte	0x3c
 9395 3162 08       		.uleb128 0x8
 9396 3163 B91E0000 		.4byte	.LASF736
 9397 3167 2B       		.byte	0x2b
 9398 3168 D3       		.byte	0xd3
 9399 3169 38160000 		.4byte	0x1638
 9400 316d 40       		.byte	0x40
 9401 316e 08       		.uleb128 0x8
 9402 316f EB020000 		.4byte	.LASF737
 9403 3173 2B       		.byte	0x2b
 9404 3174 D4       		.byte	0xd4
 9405 3175 92330000 		.4byte	0x3392
 9406 3179 43       		.byte	0x43
 9407 317a 16       		.uleb128 0x16
 9408 317b 5F6C6200 		.ascii	"_lb\000"
 9409 317f 2B       		.byte	0x2b
 9410 3180 D7       		.byte	0xd7
 9411 3181 7A300000 		.4byte	0x307a
 9412 3185 44       		.byte	0x44
 9413 3186 08       		.uleb128 0x8
 9414 3187 7D0C0000 		.4byte	.LASF738
 9415 318b 2B       		.byte	0x2b
 9416 318c DA       		.byte	0xda
 9417 318d 2C000000 		.4byte	0x2c
 9418 3191 4C       		.byte	0x4c
 9419 3192 08       		.uleb128 0x8
 9420 3193 1A180000 		.4byte	.LASF739
 9421 3197 2B       		.byte	0x2b
 9422 3198 DB       		.byte	0xdb
 9423 3199 542E0000 		.4byte	0x2e54
 9424 319d 50       		.byte	0x50
 9425 319e 08       		.uleb128 0x8
 9426 319f DD150000 		.4byte	.LASF740
 9427 31a3 2B       		.byte	0x2b
 9428 31a4 DE       		.byte	0xde
 9429 31a5 ED310000 		.4byte	0x31ed
 9430 31a9 54       		.byte	0x54
 9431 31aa 08       		.uleb128 0x8
 9432 31ab E5020000 		.4byte	.LASF741
ARM GAS  C:\Users\CHRIST~1\AppData\Local\Temp\ccVm3NB4.s 			page 177


 9433 31af 2B       		.byte	0x2b
 9434 31b0 E2       		.byte	0xe2
 9435 31b1 D12E0000 		.4byte	0x2ed1
 9436 31b5 58       		.byte	0x58
 9437 31b6 08       		.uleb128 0x8
 9438 31b7 50010000 		.4byte	.LASF742
 9439 31bb 2B       		.byte	0x2b
 9440 31bc E4       		.byte	0xe4
 9441 31bd C62E0000 		.4byte	0x2ec6
 9442 31c1 5C       		.byte	0x5c
 9443 31c2 08       		.uleb128 0x8
 9444 31c3 4B260000 		.4byte	.LASF743
 9445 31c7 2B       		.byte	0x2b
 9446 31c8 E5       		.byte	0xe5
 9447 31c9 2C000000 		.4byte	0x2c
 9448 31cd 64       		.byte	0x64
 9449 31ce 00       		.byte	0
 9450 31cf 25       		.uleb128 0x25
 9451 31d0 2C000000 		.4byte	0x2c
 9452 31d4 ED310000 		.4byte	0x31ed
 9453 31d8 0E       		.uleb128 0xe
 9454 31d9 ED310000 		.4byte	0x31ed
 9455 31dd 0E       		.uleb128 0xe
 9456 31de 95030000 		.4byte	0x395
 9457 31e2 0E       		.uleb128 0xe
 9458 31e3 DC2E0000 		.4byte	0x2edc
 9459 31e7 0E       		.uleb128 0xe
 9460 31e8 2C000000 		.4byte	0x2c
 9461 31ec 00       		.byte	0
 9462 31ed 0B       		.uleb128 0xb
 9463 31ee 04       		.byte	0x4
 9464 31ef F8310000 		.4byte	0x31f8
 9465 31f3 06       		.uleb128 0x6
 9466 31f4 ED310000 		.4byte	0x31ed
 9467 31f8 10       		.uleb128 0x10
 9468 31f9 83180000 		.4byte	.LASF744
 9469 31fd 2804     		.2byte	0x428
 9470 31ff 2B       		.byte	0x2b
 9471 3200 3902     		.2byte	0x239
 9472 3202 2A330000 		.4byte	0x332a
 9473 3206 0A       		.uleb128 0xa
 9474 3207 59110000 		.4byte	.LASF745
 9475 320b 2B       		.byte	0x2b
 9476 320c 3B02     		.2byte	0x23b
 9477 320e 2C000000 		.4byte	0x2c
 9478 3212 00       		.byte	0
 9479 3213 0A       		.uleb128 0xa
 9480 3214 780D0000 		.4byte	.LASF746
 9481 3218 2B       		.byte	0x2b
 9482 3219 4002     		.2byte	0x240
 9483 321b E9330000 		.4byte	0x33e9
 9484 321f 04       		.byte	0x4
 9485 3220 0A       		.uleb128 0xa
 9486 3221 4A0A0000 		.4byte	.LASF747
 9487 3225 2B       		.byte	0x2b
 9488 3226 4002     		.2byte	0x240
 9489 3228 E9330000 		.4byte	0x33e9
ARM GAS  C:\Users\CHRIST~1\AppData\Local\Temp\ccVm3NB4.s 			page 178


 9490 322c 08       		.byte	0x8
 9491 322d 0A       		.uleb128 0xa
 9492 322e 5D090000 		.4byte	.LASF748
 9493 3232 2B       		.byte	0x2b
 9494 3233 4002     		.2byte	0x240
 9495 3235 E9330000 		.4byte	0x33e9
 9496 3239 0C       		.byte	0xc
 9497 323a 0A       		.uleb128 0xa
 9498 323b DF010000 		.4byte	.LASF749
 9499 323f 2B       		.byte	0x2b
 9500 3240 4202     		.2byte	0x242
 9501 3242 2C000000 		.4byte	0x2c
 9502 3246 10       		.byte	0x10
 9503 3247 0A       		.uleb128 0xa
 9504 3248 E70F0000 		.4byte	.LASF750
 9505 324c 2B       		.byte	0x2b
 9506 324d 4302     		.2byte	0x243
 9507 324f CB350000 		.4byte	0x35cb
 9508 3253 14       		.byte	0x14
 9509 3254 0A       		.uleb128 0xa
 9510 3255 81240000 		.4byte	.LASF751
 9511 3259 2B       		.byte	0x2b
 9512 325a 4602     		.2byte	0x246
 9513 325c 2C000000 		.4byte	0x2c
 9514 3260 30       		.byte	0x30
 9515 3261 0A       		.uleb128 0xa
 9516 3262 FC260000 		.4byte	.LASF752
 9517 3266 2B       		.byte	0x2b
 9518 3267 4702     		.2byte	0x247
 9519 3269 E0350000 		.4byte	0x35e0
 9520 326d 34       		.byte	0x34
 9521 326e 0A       		.uleb128 0xa
 9522 326f FC240000 		.4byte	.LASF753
 9523 3273 2B       		.byte	0x2b
 9524 3274 4902     		.2byte	0x249
 9525 3276 2C000000 		.4byte	0x2c
 9526 327a 38       		.byte	0x38
 9527 327b 0A       		.uleb128 0xa
 9528 327c 2E140000 		.4byte	.LASF754
 9529 3280 2B       		.byte	0x2b
 9530 3281 4B02     		.2byte	0x24b
 9531 3283 F1350000 		.4byte	0x35f1
 9532 3287 3C       		.byte	0x3c
 9533 3288 0A       		.uleb128 0xa
 9534 3289 65090000 		.4byte	.LASF755
 9535 328d 2B       		.byte	0x2b
 9536 328e 4E02     		.2byte	0x24e
 9537 3290 402F0000 		.4byte	0x2f40
 9538 3294 40       		.byte	0x40
 9539 3295 0A       		.uleb128 0xa
 9540 3296 4E090000 		.4byte	.LASF756
 9541 329a 2B       		.byte	0x2b
 9542 329b 4F02     		.2byte	0x24f
 9543 329d 2C000000 		.4byte	0x2c
 9544 32a1 44       		.byte	0x44
 9545 32a2 0A       		.uleb128 0xa
 9546 32a3 98210000 		.4byte	.LASF757
ARM GAS  C:\Users\CHRIST~1\AppData\Local\Temp\ccVm3NB4.s 			page 179


 9547 32a7 2B       		.byte	0x2b
 9548 32a8 5002     		.2byte	0x250
 9549 32aa 402F0000 		.4byte	0x2f40
 9550 32ae 48       		.byte	0x48
 9551 32af 0A       		.uleb128 0xa
 9552 32b0 9C170000 		.4byte	.LASF758
 9553 32b4 2B       		.byte	0x2b
 9554 32b5 5102     		.2byte	0x251
 9555 32b7 F7350000 		.4byte	0x35f7
 9556 32bb 4C       		.byte	0x4c
 9557 32bc 0A       		.uleb128 0xa
 9558 32bd 79020000 		.4byte	.LASF759
 9559 32c1 2B       		.byte	0x2b
 9560 32c2 5402     		.2byte	0x254
 9561 32c4 2C000000 		.4byte	0x2c
 9562 32c8 50       		.byte	0x50
 9563 32c9 0A       		.uleb128 0xa
 9564 32ca CA0F0000 		.4byte	.LASF760
 9565 32ce 2B       		.byte	0x2b
 9566 32cf 5502     		.2byte	0x255
 9567 32d1 DC2E0000 		.4byte	0x2edc
 9568 32d5 54       		.byte	0x54
 9569 32d6 0A       		.uleb128 0xa
 9570 32d7 BE040000 		.4byte	.LASF761
 9571 32db 2B       		.byte	0x2b
 9572 32dc 7802     		.2byte	0x278
 9573 32de A9350000 		.4byte	0x35a9
 9574 32e2 58       		.byte	0x58
 9575 32e3 1A       		.uleb128 0x1a
 9576 32e4 59010000 		.4byte	.LASF721
 9577 32e8 2B       		.byte	0x2b
 9578 32e9 7C02     		.2byte	0x27c
 9579 32eb 5D300000 		.4byte	0x305d
 9580 32ef 4801     		.2byte	0x148
 9581 32f1 1A       		.uleb128 0x1a
 9582 32f2 2A1D0000 		.4byte	.LASF762
 9583 32f6 2B       		.byte	0x2b
 9584 32f7 7D02     		.2byte	0x27d
 9585 32f9 1F300000 		.4byte	0x301f
 9586 32fd 4C01     		.2byte	0x14c
 9587 32ff 1A       		.uleb128 0x1a
 9588 3300 A81C0000 		.4byte	.LASF763
 9589 3304 2B       		.byte	0x2b
 9590 3305 8102     		.2byte	0x281
 9591 3307 08360000 		.4byte	0x3608
 9592 330b DC02     		.2byte	0x2dc
 9593 330d 1A       		.uleb128 0x1a
 9594 330e F51E0000 		.4byte	.LASF764
 9595 3312 2B       		.byte	0x2b
 9596 3313 8602     		.2byte	0x286
 9597 3315 AE330000 		.4byte	0x33ae
 9598 3319 E002     		.2byte	0x2e0
 9599 331b 1A       		.uleb128 0x1a
 9600 331c F4050000 		.4byte	.LASF765
 9601 3320 2B       		.byte	0x2b
 9602 3321 8702     		.2byte	0x287
 9603 3323 14360000 		.4byte	0x3614
ARM GAS  C:\Users\CHRIST~1\AppData\Local\Temp\ccVm3NB4.s 			page 180


 9604 3327 EC02     		.2byte	0x2ec
 9605 3329 00       		.byte	0
 9606 332a 0B       		.uleb128 0xb
 9607 332b 04       		.byte	0x4
 9608 332c CF310000 		.4byte	0x31cf
 9609 3330 25       		.uleb128 0x25
 9610 3331 2C000000 		.4byte	0x2c
 9611 3335 4E330000 		.4byte	0x334e
 9612 3339 0E       		.uleb128 0xe
 9613 333a ED310000 		.4byte	0x31ed
 9614 333e 0E       		.uleb128 0xe
 9615 333f 95030000 		.4byte	0x395
 9616 3343 0E       		.uleb128 0xe
 9617 3344 F40C0000 		.4byte	0xcf4
 9618 3348 0E       		.uleb128 0xe
 9619 3349 2C000000 		.4byte	0x2c
 9620 334d 00       		.byte	0
 9621 334e 0B       		.uleb128 0xb
 9622 334f 04       		.byte	0x4
 9623 3350 30330000 		.4byte	0x3330
 9624 3354 25       		.uleb128 0x25
 9625 3355 5F2E0000 		.4byte	0x2e5f
 9626 3359 72330000 		.4byte	0x3372
 9627 335d 0E       		.uleb128 0xe
 9628 335e ED310000 		.4byte	0x31ed
 9629 3362 0E       		.uleb128 0xe
 9630 3363 95030000 		.4byte	0x395
 9631 3367 0E       		.uleb128 0xe
 9632 3368 5F2E0000 		.4byte	0x2e5f
 9633 336c 0E       		.uleb128 0xe
 9634 336d 2C000000 		.4byte	0x2c
 9635 3371 00       		.byte	0
 9636 3372 0B       		.uleb128 0xb
 9637 3373 04       		.byte	0x4
 9638 3374 54330000 		.4byte	0x3354
 9639 3378 25       		.uleb128 0x25
 9640 3379 2C000000 		.4byte	0x2c
 9641 337d 8C330000 		.4byte	0x338c
 9642 3381 0E       		.uleb128 0xe
 9643 3382 ED310000 		.4byte	0x31ed
 9644 3386 0E       		.uleb128 0xe
 9645 3387 95030000 		.4byte	0x395
 9646 338b 00       		.byte	0
 9647 338c 0B       		.uleb128 0xb
 9648 338d 04       		.byte	0x4
 9649 338e 78330000 		.4byte	0x3378
 9650 3392 11       		.uleb128 0x11
 9651 3393 6C000000 		.4byte	0x6c
 9652 3397 A2330000 		.4byte	0x33a2
 9653 339b 12       		.uleb128 0x12
 9654 339c CB040000 		.4byte	0x4cb
 9655 33a0 00       		.byte	0
 9656 33a1 00       		.byte	0
 9657 33a2 18       		.uleb128 0x18
 9658 33a3 4F280000 		.4byte	.LASF766
 9659 33a7 2B       		.byte	0x2b
 9660 33a8 1F01     		.2byte	0x11f
ARM GAS  C:\Users\CHRIST~1\AppData\Local\Temp\ccVm3NB4.s 			page 181


 9661 33aa A5300000 		.4byte	0x30a5
 9662 33ae 0C       		.uleb128 0xc
 9663 33af 691C0000 		.4byte	.LASF767
 9664 33b3 0C       		.byte	0xc
 9665 33b4 2B       		.byte	0x2b
 9666 33b5 2301     		.2byte	0x123
 9667 33b7 E3330000 		.4byte	0x33e3
 9668 33bb 0A       		.uleb128 0xa
 9669 33bc 82120000 		.4byte	.LASF702
 9670 33c0 2B       		.byte	0x2b
 9671 33c1 2501     		.2byte	0x125
 9672 33c3 E3330000 		.4byte	0x33e3
 9673 33c7 00       		.byte	0
 9674 33c8 0A       		.uleb128 0xa
 9675 33c9 17110000 		.4byte	.LASF768
 9676 33cd 2B       		.byte	0x2b
 9677 33ce 2601     		.2byte	0x126
 9678 33d0 2C000000 		.4byte	0x2c
 9679 33d4 04       		.byte	0x4
 9680 33d5 0A       		.uleb128 0xa
 9681 33d6 4A1A0000 		.4byte	.LASF769
 9682 33da 2B       		.byte	0x2b
 9683 33db 2701     		.2byte	0x127
 9684 33dd E9330000 		.4byte	0x33e9
 9685 33e1 08       		.byte	0x8
 9686 33e2 00       		.byte	0
 9687 33e3 0B       		.uleb128 0xb
 9688 33e4 04       		.byte	0x4
 9689 33e5 AE330000 		.4byte	0x33ae
 9690 33e9 0B       		.uleb128 0xb
 9691 33ea 04       		.byte	0x4
 9692 33eb A2330000 		.4byte	0x33a2
 9693 33ef 0C       		.uleb128 0xc
 9694 33f0 232A0000 		.4byte	.LASF770
 9695 33f4 0E       		.byte	0xe
 9696 33f5 2B       		.byte	0x2b
 9697 33f6 3F01     		.2byte	0x13f
 9698 33f8 24340000 		.4byte	0x3424
 9699 33fc 0A       		.uleb128 0xa
 9700 33fd E1160000 		.4byte	.LASF771
 9701 3401 2B       		.byte	0x2b
 9702 3402 4001     		.2byte	0x140
 9703 3404 24340000 		.4byte	0x3424
 9704 3408 00       		.byte	0
 9705 3409 0A       		.uleb128 0xa
 9706 340a 91290000 		.4byte	.LASF772
 9707 340e 2B       		.byte	0x2b
 9708 340f 4101     		.2byte	0x141
 9709 3411 24340000 		.4byte	0x3424
 9710 3415 06       		.byte	0x6
 9711 3416 0A       		.uleb128 0xa
 9712 3417 6F180000 		.4byte	.LASF773
 9713 341b 2B       		.byte	0x2b
 9714 341c 4201     		.2byte	0x142
 9715 341e 85000000 		.4byte	0x85
 9716 3422 0C       		.byte	0xc
 9717 3423 00       		.byte	0
ARM GAS  C:\Users\CHRIST~1\AppData\Local\Temp\ccVm3NB4.s 			page 182


 9718 3424 11       		.uleb128 0x11
 9719 3425 85000000 		.4byte	0x85
 9720 3429 34340000 		.4byte	0x3434
 9721 342d 12       		.uleb128 0x12
 9722 342e CB040000 		.4byte	0x4cb
 9723 3432 02       		.byte	0x2
 9724 3433 00       		.byte	0
 9725 3434 17       		.uleb128 0x17
 9726 3435 D0       		.byte	0xd0
 9727 3436 2B       		.byte	0x2b
 9728 3437 5902     		.2byte	0x259
 9729 3439 35350000 		.4byte	0x3535
 9730 343d 0A       		.uleb128 0xa
 9731 343e A0070000 		.4byte	.LASF774
 9732 3442 2B       		.byte	0x2b
 9733 3443 5B02     		.2byte	0x25b
 9734 3445 48000000 		.4byte	0x48
 9735 3449 00       		.byte	0
 9736 344a 0A       		.uleb128 0xa
 9737 344b 76160000 		.4byte	.LASF775
 9738 344f 2B       		.byte	0x2b
 9739 3450 5C02     		.2byte	0x25c
 9740 3452 DC2E0000 		.4byte	0x2edc
 9741 3456 04       		.byte	0x4
 9742 3457 0A       		.uleb128 0xa
 9743 3458 B1180000 		.4byte	.LASF776
 9744 345c 2B       		.byte	0x2b
 9745 345d 5D02     		.2byte	0x25d
 9746 345f 35350000 		.4byte	0x3535
 9747 3463 08       		.byte	0x8
 9748 3464 0A       		.uleb128 0xa
 9749 3465 DC0E0000 		.4byte	.LASF777
 9750 3469 2B       		.byte	0x2b
 9751 346a 5E02     		.2byte	0x25e
 9752 346c 562F0000 		.4byte	0x2f56
 9753 3470 24       		.byte	0x24
 9754 3471 0A       		.uleb128 0xa
 9755 3472 75230000 		.4byte	.LASF778
 9756 3476 2B       		.byte	0x2b
 9757 3477 5F02     		.2byte	0x25f
 9758 3479 2C000000 		.4byte	0x2c
 9759 347d 48       		.byte	0x48
 9760 347e 0A       		.uleb128 0xa
 9761 347f 7D1A0000 		.4byte	.LASF779
 9762 3483 2B       		.byte	0x2b
 9763 3484 6002     		.2byte	0x260
 9764 3486 C2000000 		.4byte	0xc2
 9765 348a 50       		.byte	0x50
 9766 348b 0A       		.uleb128 0xa
 9767 348c 42290000 		.4byte	.LASF780
 9768 3490 2B       		.byte	0x2b
 9769 3491 6102     		.2byte	0x261
 9770 3493 EF330000 		.4byte	0x33ef
 9771 3497 58       		.byte	0x58
 9772 3498 0A       		.uleb128 0xa
 9773 3499 E81E0000 		.4byte	.LASF781
 9774 349d 2B       		.byte	0x2b
ARM GAS  C:\Users\CHRIST~1\AppData\Local\Temp\ccVm3NB4.s 			page 183


 9775 349e 6202     		.2byte	0x262
 9776 34a0 C62E0000 		.4byte	0x2ec6
 9777 34a4 68       		.byte	0x68
 9778 34a5 0A       		.uleb128 0xa
 9779 34a6 31060000 		.4byte	.LASF782
 9780 34aa 2B       		.byte	0x2b
 9781 34ab 6302     		.2byte	0x263
 9782 34ad C62E0000 		.4byte	0x2ec6
 9783 34b1 70       		.byte	0x70
 9784 34b2 0A       		.uleb128 0xa
 9785 34b3 A7030000 		.4byte	.LASF783
 9786 34b7 2B       		.byte	0x2b
 9787 34b8 6402     		.2byte	0x264
 9788 34ba C62E0000 		.4byte	0x2ec6
 9789 34be 78       		.byte	0x78
 9790 34bf 0A       		.uleb128 0xa
 9791 34c0 98180000 		.4byte	.LASF784
 9792 34c4 2B       		.byte	0x2b
 9793 34c5 6502     		.2byte	0x265
 9794 34c7 45350000 		.4byte	0x3545
 9795 34cb 80       		.byte	0x80
 9796 34cc 0A       		.uleb128 0xa
 9797 34cd B3120000 		.4byte	.LASF785
 9798 34d1 2B       		.byte	0x2b
 9799 34d2 6602     		.2byte	0x266
 9800 34d4 55350000 		.4byte	0x3555
 9801 34d8 88       		.byte	0x88
 9802 34d9 0A       		.uleb128 0xa
 9803 34da 7C1D0000 		.4byte	.LASF786
 9804 34de 2B       		.byte	0x2b
 9805 34df 6702     		.2byte	0x267
 9806 34e1 2C000000 		.4byte	0x2c
 9807 34e5 A0       		.byte	0xa0
 9808 34e6 0A       		.uleb128 0xa
 9809 34e7 F60C0000 		.4byte	.LASF787
 9810 34eb 2B       		.byte	0x2b
 9811 34ec 6802     		.2byte	0x268
 9812 34ee C62E0000 		.4byte	0x2ec6
 9813 34f2 A4       		.byte	0xa4
 9814 34f3 0A       		.uleb128 0xa
 9815 34f4 44000000 		.4byte	.LASF788
 9816 34f8 2B       		.byte	0x2b
 9817 34f9 6902     		.2byte	0x269
 9818 34fb C62E0000 		.4byte	0x2ec6
 9819 34ff AC       		.byte	0xac
 9820 3500 0A       		.uleb128 0xa
 9821 3501 BB0A0000 		.4byte	.LASF789
 9822 3505 2B       		.byte	0x2b
 9823 3506 6A02     		.2byte	0x26a
 9824 3508 C62E0000 		.4byte	0x2ec6
 9825 350c B4       		.byte	0xb4
 9826 350d 0A       		.uleb128 0xa
 9827 350e 91140000 		.4byte	.LASF790
 9828 3512 2B       		.byte	0x2b
 9829 3513 6B02     		.2byte	0x26b
 9830 3515 C62E0000 		.4byte	0x2ec6
 9831 3519 BC       		.byte	0xbc
ARM GAS  C:\Users\CHRIST~1\AppData\Local\Temp\ccVm3NB4.s 			page 184


 9832 351a 0A       		.uleb128 0xa
 9833 351b E6180000 		.4byte	.LASF791
 9834 351f 2B       		.byte	0x2b
 9835 3520 6C02     		.2byte	0x26c
 9836 3522 C62E0000 		.4byte	0x2ec6
 9837 3526 C4       		.byte	0xc4
 9838 3527 0A       		.uleb128 0xa
 9839 3528 72200000 		.4byte	.LASF792
 9840 352c 2B       		.byte	0x2b
 9841 352d 6D02     		.2byte	0x26d
 9842 352f 2C000000 		.4byte	0x2c
 9843 3533 CC       		.byte	0xcc
 9844 3534 00       		.byte	0
 9845 3535 11       		.uleb128 0x11
 9846 3536 FF0C0000 		.4byte	0xcff
 9847 353a 45350000 		.4byte	0x3545
 9848 353e 12       		.uleb128 0x12
 9849 353f CB040000 		.4byte	0x4cb
 9850 3543 19       		.byte	0x19
 9851 3544 00       		.byte	0
 9852 3545 11       		.uleb128 0x11
 9853 3546 FF0C0000 		.4byte	0xcff
 9854 354a 55350000 		.4byte	0x3555
 9855 354e 12       		.uleb128 0x12
 9856 354f CB040000 		.4byte	0x4cb
 9857 3553 07       		.byte	0x7
 9858 3554 00       		.byte	0
 9859 3555 11       		.uleb128 0x11
 9860 3556 FF0C0000 		.4byte	0xcff
 9861 355a 65350000 		.4byte	0x3565
 9862 355e 12       		.uleb128 0x12
 9863 355f CB040000 		.4byte	0x4cb
 9864 3563 17       		.byte	0x17
 9865 3564 00       		.byte	0
 9866 3565 17       		.uleb128 0x17
 9867 3566 F0       		.byte	0xf0
 9868 3567 2B       		.byte	0x2b
 9869 3568 7202     		.2byte	0x272
 9870 356a 89350000 		.4byte	0x3589
 9871 356e 0A       		.uleb128 0xa
 9872 356f 5C260000 		.4byte	.LASF793
 9873 3573 2B       		.byte	0x2b
 9874 3574 7502     		.2byte	0x275
 9875 3576 89350000 		.4byte	0x3589
 9876 357a 00       		.byte	0
 9877 357b 0A       		.uleb128 0xa
 9878 357c 7F0D0000 		.4byte	.LASF794
 9879 3580 2B       		.byte	0x2b
 9880 3581 7602     		.2byte	0x276
 9881 3583 99350000 		.4byte	0x3599
 9882 3587 78       		.byte	0x78
 9883 3588 00       		.byte	0
 9884 3589 11       		.uleb128 0x11
 9885 358a 9F300000 		.4byte	0x309f
 9886 358e 99350000 		.4byte	0x3599
 9887 3592 12       		.uleb128 0x12
 9888 3593 CB040000 		.4byte	0x4cb
ARM GAS  C:\Users\CHRIST~1\AppData\Local\Temp\ccVm3NB4.s 			page 185


 9889 3597 1D       		.byte	0x1d
 9890 3598 00       		.byte	0
 9891 3599 11       		.uleb128 0x11
 9892 359a 48000000 		.4byte	0x48
 9893 359e A9350000 		.4byte	0x35a9
 9894 35a2 12       		.uleb128 0x12
 9895 35a3 CB040000 		.4byte	0x4cb
 9896 35a7 1D       		.byte	0x1d
 9897 35a8 00       		.byte	0
 9898 35a9 2A       		.uleb128 0x2a
 9899 35aa F0       		.byte	0xf0
 9900 35ab 2B       		.byte	0x2b
 9901 35ac 5702     		.2byte	0x257
 9902 35ae CB350000 		.4byte	0x35cb
 9903 35b2 1D       		.uleb128 0x1d
 9904 35b3 83180000 		.4byte	.LASF744
 9905 35b7 2B       		.byte	0x2b
 9906 35b8 6E02     		.2byte	0x26e
 9907 35ba 34340000 		.4byte	0x3434
 9908 35be 1D       		.uleb128 0x1d
 9909 35bf FA020000 		.4byte	.LASF795
 9910 35c3 2B       		.byte	0x2b
 9911 35c4 7702     		.2byte	0x277
 9912 35c6 65350000 		.4byte	0x3565
 9913 35ca 00       		.byte	0
 9914 35cb 11       		.uleb128 0x11
 9915 35cc FF0C0000 		.4byte	0xcff
 9916 35d0 DB350000 		.4byte	0x35db
 9917 35d4 12       		.uleb128 0x12
 9918 35d5 CB040000 		.4byte	0x4cb
 9919 35d9 18       		.byte	0x18
 9920 35da 00       		.byte	0
 9921 35db 2C       		.uleb128 0x2c
 9922 35dc FD1E0000 		.4byte	.LASF797
 9923 35e0 0B       		.uleb128 0xb
 9924 35e1 04       		.byte	0x4
 9925 35e2 DB350000 		.4byte	0x35db
 9926 35e6 0D       		.uleb128 0xd
 9927 35e7 F1350000 		.4byte	0x35f1
 9928 35eb 0E       		.uleb128 0xe
 9929 35ec ED310000 		.4byte	0x31ed
 9930 35f0 00       		.byte	0
 9931 35f1 0B       		.uleb128 0xb
 9932 35f2 04       		.byte	0x4
 9933 35f3 E6350000 		.4byte	0x35e6
 9934 35f7 0B       		.uleb128 0xb
 9935 35f8 04       		.byte	0x4
 9936 35f9 402F0000 		.4byte	0x2f40
 9937 35fd 0D       		.uleb128 0xd
 9938 35fe 08360000 		.4byte	0x3608
 9939 3602 0E       		.uleb128 0xe
 9940 3603 2C000000 		.4byte	0x2c
 9941 3607 00       		.byte	0
 9942 3608 0B       		.uleb128 0xb
 9943 3609 04       		.byte	0x4
 9944 360a 0E360000 		.4byte	0x360e
 9945 360e 0B       		.uleb128 0xb
ARM GAS  C:\Users\CHRIST~1\AppData\Local\Temp\ccVm3NB4.s 			page 186


 9946 360f 04       		.byte	0x4
 9947 3610 FD350000 		.4byte	0x35fd
 9948 3614 11       		.uleb128 0x11
 9949 3615 A2330000 		.4byte	0x33a2
 9950 3619 24360000 		.4byte	0x3624
 9951 361d 12       		.uleb128 0x12
 9952 361e CB040000 		.4byte	0x4cb
 9953 3622 02       		.byte	0x2
 9954 3623 00       		.byte	0
 9955 3624 13       		.uleb128 0x13
 9956 3625 641E0000 		.4byte	.LASF798
 9957 3629 2B       		.byte	0x2b
 9958 362a FE02     		.2byte	0x2fe
 9959 362c ED310000 		.4byte	0x31ed
 9960 3630 13       		.uleb128 0x13
 9961 3631 45220000 		.4byte	.LASF799
 9962 3635 2B       		.byte	0x2b
 9963 3636 FF02     		.2byte	0x2ff
 9964 3638 F3310000 		.4byte	0x31f3
 9965 363c 02       		.uleb128 0x2
 9966 363d 08       		.byte	0x8
 9967 363e 04       		.byte	0x4
 9968 363f 0F200000 		.4byte	.LASF800
 9969 3643 2F       		.uleb128 0x2f
 9970 3644 32190000 		.4byte	.LASF906
 9971 3648 01       		.byte	0x1
 9972 3649 5A000000 		.4byte	0x5a
 9973 364d 2C       		.byte	0x2c
 9974 364e 8202     		.2byte	0x282
 9975 3650 6D360000 		.4byte	0x366d
 9976 3654 30       		.uleb128 0x30
 9977 3655 61170000 		.4byte	.LASF801
 9978 3659 7F       		.sleb128 -1
 9979 365a 20       		.uleb128 0x20
 9980 365b 92020000 		.4byte	.LASF802
 9981 365f 00       		.byte	0
 9982 3660 20       		.uleb128 0x20
 9983 3661 1E170000 		.4byte	.LASF803
 9984 3665 01       		.byte	0x1
 9985 3666 20       		.uleb128 0x20
 9986 3667 07250000 		.4byte	.LASF804
 9987 366b 02       		.byte	0x2
 9988 366c 00       		.byte	0
 9989 366d 13       		.uleb128 0x13
 9990 366e 00290000 		.4byte	.LASF805
 9991 3672 2C       		.byte	0x2c
 9992 3673 8D02     		.2byte	0x28d
 9993 3675 43360000 		.4byte	0x3643
 9994 3679 07       		.uleb128 0x7
 9995 367a B2190000 		.4byte	.LASF806
 9996 367e 10       		.byte	0x10
 9997 367f 01       		.byte	0x1
 9998 3680 2C       		.byte	0x2c
 9999 3681 B6360000 		.4byte	0x36b6
 10000 3685 08       		.uleb128 0x8
 10001 3686 61100000 		.4byte	.LASF807
 10002 368a 01       		.byte	0x1
ARM GAS  C:\Users\CHRIST~1\AppData\Local\Temp\ccVm3NB4.s 			page 187


 10003 368b 2D       		.byte	0x2d
 10004 368c F40C0000 		.4byte	0xcf4
 10005 3690 00       		.byte	0
 10006 3691 08       		.uleb128 0x8
 10007 3692 561A0000 		.4byte	.LASF808
 10008 3696 01       		.byte	0x1
 10009 3697 2E       		.byte	0x2e
 10010 3698 F40C0000 		.4byte	0xcf4
 10011 369c 04       		.byte	0x4
 10012 369d 08       		.uleb128 0x8
 10013 369e B4210000 		.4byte	.LASF809
 10014 36a2 01       		.byte	0x1
 10015 36a3 2F       		.byte	0x2f
 10016 36a4 F40C0000 		.4byte	0xcf4
 10017 36a8 08       		.byte	0x8
 10018 36a9 16       		.uleb128 0x16
 10019 36aa 63626600 		.ascii	"cbf\000"
 10020 36ae 01       		.byte	0x1
 10021 36af 30       		.byte	0x30
 10022 36b0 CC360000 		.4byte	0x36cc
 10023 36b4 0C       		.byte	0xc
 10024 36b5 00       		.byte	0
 10025 36b6 0D       		.uleb128 0xd
 10026 36b7 C6360000 		.4byte	0x36c6
 10027 36bb 0E       		.uleb128 0xe
 10028 36bc 2C000000 		.4byte	0x2c
 10029 36c0 0E       		.uleb128 0xe
 10030 36c1 C6360000 		.4byte	0x36c6
 10031 36c5 00       		.byte	0
 10032 36c6 0B       		.uleb128 0xb
 10033 36c7 04       		.byte	0x4
 10034 36c8 F40C0000 		.4byte	0xcf4
 10035 36cc 0B       		.uleb128 0xb
 10036 36cd 04       		.byte	0x4
 10037 36ce B6360000 		.4byte	0x36b6
 10038 36d2 05       		.uleb128 0x5
 10039 36d3 86130000 		.4byte	.LASF810
 10040 36d7 01       		.byte	0x1
 10041 36d8 31       		.byte	0x31
 10042 36d9 79360000 		.4byte	0x3679
 10043 36dd 11       		.uleb128 0x11
 10044 36de 14170000 		.4byte	0x1714
 10045 36e2 ED360000 		.4byte	0x36ed
 10046 36e6 12       		.uleb128 0x12
 10047 36e7 CB040000 		.4byte	0x4cb
 10048 36eb 18       		.byte	0x18
 10049 36ec 00       		.byte	0
 10050 36ed 04       		.uleb128 0x4
 10051 36ee DD360000 		.4byte	0x36dd
 10052 36f2 31       		.uleb128 0x31
 10053 36f3 F90D0000 		.4byte	.LASF811
 10054 36f7 01       		.byte	0x1
 10055 36f8 34       		.byte	0x34
 10056 36f9 ED360000 		.4byte	0x36ed
 10057 36fd 05       		.uleb128 0x5
 10058 36fe 03       		.byte	0x3
 10059 36ff 00000000 		.4byte	fault_vec
ARM GAS  C:\Users\CHRIST~1\AppData\Local\Temp\ccVm3NB4.s 			page 188


 10060 3703 31       		.uleb128 0x31
 10061 3704 3B250000 		.4byte	.LASF812
 10062 3708 01       		.byte	0x1
 10063 3709 35       		.byte	0x35
 10064 370a 33000000 		.4byte	0x33
 10065 370e 05       		.uleb128 0x5
 10066 370f 03       		.byte	0x3
 10067 3710 00000000 		.4byte	fault_vec_write
 10068 3714 11       		.uleb128 0x11
 10069 3715 D2360000 		.4byte	0x36d2
 10070 3719 24370000 		.4byte	0x3724
 10071 371d 12       		.uleb128 0x12
 10072 371e CB040000 		.4byte	0x4cb
 10073 3722 18       		.byte	0x18
 10074 3723 00       		.byte	0
 10075 3724 31       		.uleb128 0x31
 10076 3725 5C2A0000 		.4byte	.LASF813
 10077 3729 01       		.byte	0x1
 10078 372a 36       		.byte	0x36
 10079 372b 14370000 		.4byte	0x3714
 10080 372f 05       		.uleb128 0x5
 10081 3730 03       		.byte	0x3
 10082 3731 00000000 		.4byte	callbacks
 10083 3735 31       		.uleb128 0x31
 10084 3736 A90B0000 		.4byte	.LASF814
 10085 373a 01       		.byte	0x1
 10086 373b 37       		.byte	0x37
 10087 373c 2C000000 		.4byte	0x2c
 10088 3740 05       		.uleb128 0x5
 10089 3741 03       		.byte	0x3
 10090 3742 00000000 		.4byte	callback_write
 10091 3746 32       		.uleb128 0x32
 10092 3747 83090000 		.4byte	.LASF816
 10093 374b 01       		.byte	0x1
 10094 374c D202     		.2byte	0x2d2
 10095 374e 00000000 		.4byte	.LFB259
 10096 3752 8C000000 		.4byte	.LFE259-.LFB259
 10097 3756 01       		.uleb128 0x1
 10098 3757 9C       		.byte	0x9c
 10099 3758 D1370000 		.4byte	0x37d1
 10100 375c 33       		.uleb128 0x33
 10101 375d 61100000 		.4byte	.LASF807
 10102 3761 01       		.byte	0x1
 10103 3762 D302     		.2byte	0x2d3
 10104 3764 F40C0000 		.4byte	0xcf4
 10105 3768 00000000 		.4byte	.LLST34
 10106 376c 33       		.uleb128 0x33
 10107 376d 561A0000 		.4byte	.LASF808
 10108 3771 01       		.byte	0x1
 10109 3772 D402     		.2byte	0x2d4
 10110 3774 F40C0000 		.4byte	0xcf4
 10111 3778 1E000000 		.4byte	.LLST35
 10112 377c 33       		.uleb128 0x33
 10113 377d B4210000 		.4byte	.LASF809
 10114 3781 01       		.byte	0x1
 10115 3782 D502     		.2byte	0x2d5
 10116 3784 F40C0000 		.4byte	0xcf4
ARM GAS  C:\Users\CHRIST~1\AppData\Local\Temp\ccVm3NB4.s 			page 189


 10117 3788 47000000 		.4byte	.LLST36
 10118 378c 34       		.uleb128 0x34
 10119 378d 63626600 		.ascii	"cbf\000"
 10120 3791 01       		.byte	0x1
 10121 3792 D602     		.2byte	0x2d6
 10122 3794 CC360000 		.4byte	0x36cc
 10123 3798 70000000 		.4byte	.LLST37
 10124 379c 35       		.uleb128 0x35
 10125 379d 63260000 		.4byte	.LASF815
 10126 37a1 01       		.byte	0x1
 10127 37a2 D802     		.2byte	0x2d8
 10128 37a4 2C000000 		.4byte	0x2c
 10129 37a8 A4000000 		.4byte	.LLST38
 10130 37ac 36       		.uleb128 0x36
 10131 37ad 78010000 		.4byte	.Ldebug_ranges0+0x178
 10132 37b1 37       		.uleb128 0x37
 10133 37b2 6900     		.ascii	"i\000"
 10134 37b4 01       		.byte	0x1
 10135 37b5 DA02     		.2byte	0x2da
 10136 37b7 2C000000 		.4byte	0x2c
 10137 37bb DA000000 		.4byte	.LLST39
 10138 37bf 38       		.uleb128 0x38
 10139 37c0 3A000000 		.4byte	.LVL368
 10140 37c4 9D540000 		.4byte	0x549d
 10141 37c8 39       		.uleb128 0x39
 10142 37c9 01       		.uleb128 0x1
 10143 37ca 51       		.byte	0x51
 10144 37cb 02       		.uleb128 0x2
 10145 37cc 75       		.byte	0x75
 10146 37cd 00       		.sleb128 0
 10147 37ce 00       		.byte	0
 10148 37cf 00       		.byte	0
 10149 37d0 00       		.byte	0
 10150 37d1 32       		.uleb128 0x32
 10151 37d2 901C0000 		.4byte	.LASF817
 10152 37d6 01       		.byte	0x1
 10153 37d7 BA02     		.2byte	0x2ba
 10154 37d9 00000000 		.4byte	.LFB258
 10155 37dd 44000000 		.4byte	.LFE258-.LFB258
 10156 37e1 01       		.uleb128 0x1
 10157 37e2 9C       		.byte	0x9c
 10158 37e3 F8370000 		.4byte	0x37f8
 10159 37e7 33       		.uleb128 0x33
 10160 37e8 17210000 		.4byte	.LASF818
 10161 37ec 01       		.byte	0x1
 10162 37ed BA02     		.2byte	0x2ba
 10163 37ef F8370000 		.4byte	0x37f8
 10164 37f3 1F010000 		.4byte	.LLST33
 10165 37f7 00       		.byte	0
 10166 37f8 0B       		.uleb128 0xb
 10167 37f9 04       		.byte	0x4
 10168 37fa 08170000 		.4byte	0x1708
 10169 37fe 3A       		.uleb128 0x3a
 10170 37ff 76170000 		.4byte	.LASF819
 10171 3803 01       		.byte	0x1
 10172 3804 39       		.byte	0x39
 10173 3805 00000000 		.4byte	.LFB257
ARM GAS  C:\Users\CHRIST~1\AppData\Local\Temp\ccVm3NB4.s 			page 190


 10174 3809 10110000 		.4byte	.LFE257-.LFB257
 10175 380d 01       		.uleb128 0x1
 10176 380e 9C       		.byte	0x9c
 10177 380f E8530000 		.4byte	0x53e8
 10178 3813 3B       		.uleb128 0x3b
 10179 3814 73747200 		.ascii	"str\000"
 10180 3818 01       		.byte	0x1
 10181 3819 39       		.byte	0x39
 10182 381a DC2E0000 		.4byte	0x2edc
 10183 381e 67010000 		.4byte	.LLST0
 10184 3822 1F       		.uleb128 0x1f
 10185 3823 01       		.byte	0x1
 10186 3824 6C000000 		.4byte	0x6c
 10187 3828 01       		.byte	0x1
 10188 3829 3A       		.byte	0x3a
 10189 382a 35380000 		.4byte	0x3835
 10190 382e 20       		.uleb128 0x20
 10191 382f 53260000 		.4byte	.LASF820
 10192 3833 40       		.byte	0x40
 10193 3834 00       		.byte	0
 10194 3835 3C       		.uleb128 0x3c
 10195 3836 85060000 		.4byte	.LASF821
 10196 383a 01       		.byte	0x1
 10197 383b 3B       		.byte	0x3b
 10198 383c 2C000000 		.4byte	0x2c
 10199 3840 88010000 		.4byte	.LLST1
 10200 3844 31       		.uleb128 0x31
 10201 3845 A4200000 		.4byte	.LASF822
 10202 3849 01       		.byte	0x1
 10203 384a 3C       		.byte	0x3c
 10204 384b E8530000 		.4byte	0x53e8
 10205 384f 03       		.uleb128 0x3
 10206 3850 91       		.byte	0x91
 10207 3851 C07D     		.sleb128 -320
 10208 3853 3D       		.uleb128 0x3d
 10209 3854 703200   		.ascii	"p2\000"
 10210 3857 01       		.byte	0x1
 10211 3858 3E       		.byte	0x3e
 10212 3859 DC2E0000 		.4byte	0x2edc
 10213 385d 4D020000 		.4byte	.LLST2
 10214 3861 31       		.uleb128 0x31
 10215 3862 7F210000 		.4byte	.LASF823
 10216 3866 01       		.byte	0x1
 10217 3867 49       		.byte	0x49
 10218 3868 2D160000 		.4byte	0x162d
 10219 386c 05       		.uleb128 0x5
 10220 386d 03       		.byte	0x3
 10221 386e 00000000 		.4byte	mcconf.12605
 10222 3872 31       		.uleb128 0x31
 10223 3873 BF220000 		.4byte	.LASF824
 10224 3877 01       		.byte	0x1
 10225 3878 4A       		.byte	0x4a
 10226 3879 2D160000 		.4byte	0x162d
 10227 387d 05       		.uleb128 0x5
 10228 387e 03       		.byte	0x3
 10229 387f 00000000 		.4byte	mcconf_old.12606
 10230 3883 3E       		.uleb128 0x3e
ARM GAS  C:\Users\CHRIST~1\AppData\Local\Temp\ccVm3NB4.s 			page 191


 10231 3884 C6010000 		.4byte	.LBB59
 10232 3888 24000000 		.4byte	.LBE59-.LBB59
 10233 388c 12390000 		.4byte	0x3912
 10234 3890 3D       		.uleb128 0x3d
 10235 3891 6E00     		.ascii	"n\000"
 10236 3893 01       		.byte	0x1
 10237 3894 5A       		.byte	0x5a
 10238 3895 38000000 		.4byte	0x38
 10239 3899 82020000 		.4byte	.LLST3
 10240 389d 31       		.uleb128 0x31
 10241 389e 5F1E0000 		.4byte	.LASF825
 10242 38a2 01       		.byte	0x1
 10243 38a3 5A       		.byte	0x5a
 10244 38a4 38000000 		.4byte	0x38
 10245 38a8 03       		.uleb128 0x3
 10246 38a9 91       		.byte	0x91
 10247 38aa A47D     		.sleb128 -348
 10248 38ac 3F       		.uleb128 0x3f
 10249 38ad CC010000 		.4byte	.LVL46
 10250 38b1 A8540000 		.4byte	0x54a8
 10251 38b5 C1380000 		.4byte	0x38c1
 10252 38b9 39       		.uleb128 0x39
 10253 38ba 01       		.uleb128 0x1
 10254 38bb 51       		.byte	0x51
 10255 38bc 03       		.uleb128 0x3
 10256 38bd 91       		.byte	0x91
 10257 38be A47D     		.sleb128 -348
 10258 38c0 00       		.byte	0
 10259 38c1 40       		.uleb128 0x40
 10260 38c2 D2010000 		.4byte	.LVL48
 10261 38c6 B3540000 		.4byte	0x54b3
 10262 38ca 3F       		.uleb128 0x3f
 10263 38cb DA010000 		.4byte	.LVL49
 10264 38cf BE540000 		.4byte	0x54be
 10265 38d3 E1380000 		.4byte	0x38e1
 10266 38d7 39       		.uleb128 0x39
 10267 38d8 01       		.uleb128 0x1
 10268 38d9 50       		.byte	0x50
 10269 38da 05       		.uleb128 0x5
 10270 38db 03       		.byte	0x3
 10271 38dc 08010000 		.4byte	.LC17
 10272 38e0 00       		.byte	0
 10273 38e1 3F       		.uleb128 0x3f
 10274 38e2 E2010000 		.4byte	.LVL50
 10275 38e6 BE540000 		.4byte	0x54be
 10276 38ea FE380000 		.4byte	0x38fe
 10277 38ee 39       		.uleb128 0x39
 10278 38ef 01       		.uleb128 0x1
 10279 38f0 50       		.byte	0x50
 10280 38f1 05       		.uleb128 0x5
 10281 38f2 03       		.byte	0x3
 10282 38f3 24010000 		.4byte	.LC18
 10283 38f7 39       		.uleb128 0x39
 10284 38f8 01       		.uleb128 0x1
 10285 38f9 51       		.byte	0x51
 10286 38fa 02       		.uleb128 0x2
 10287 38fb 74       		.byte	0x74
ARM GAS  C:\Users\CHRIST~1\AppData\Local\Temp\ccVm3NB4.s 			page 192


 10288 38fc 00       		.sleb128 0
 10289 38fd 00       		.byte	0
 10290 38fe 38       		.uleb128 0x38
 10291 38ff EA010000 		.4byte	.LVL51
 10292 3903 BE540000 		.4byte	0x54be
 10293 3907 39       		.uleb128 0x39
 10294 3908 01       		.uleb128 0x1
 10295 3909 50       		.byte	0x50
 10296 390a 05       		.uleb128 0x5
 10297 390b 03       		.byte	0x3
 10298 390c 3C010000 		.4byte	.LC19
 10299 3910 00       		.byte	0
 10300 3911 00       		.byte	0
 10301 3912 3E       		.uleb128 0x3e
 10302 3913 EC010000 		.4byte	.LBB60
 10303 3917 4A000000 		.4byte	.LBE60-.LBB60
 10304 391b B7390000 		.4byte	0x39b7
 10305 391f 3D       		.uleb128 0x3d
 10306 3920 747000   		.ascii	"tp\000"
 10307 3923 01       		.byte	0x1
 10308 3924 60       		.byte	0x60
 10309 3925 B8020000 		.4byte	0x2b8
 10310 3929 A0020000 		.4byte	.LLST4
 10311 392d 31       		.uleb128 0x31
 10312 392e 270C0000 		.4byte	.LASF826
 10313 3932 01       		.byte	0x1
 10314 3933 61       		.byte	0x61
 10315 3934 F8530000 		.4byte	0x53f8
 10316 3938 05       		.uleb128 0x5
 10317 3939 03       		.byte	0x3
 10318 393a 00000000 		.4byte	states.12610
 10319 393e 3F       		.uleb128 0x3f
 10320 393f F6010000 		.4byte	.LVL53
 10321 3943 BE540000 		.4byte	0x54be
 10322 3947 55390000 		.4byte	0x3955
 10323 394b 39       		.uleb128 0x39
 10324 394c 01       		.uleb128 0x1
 10325 394d 50       		.byte	0x50
 10326 394e 05       		.uleb128 0x5
 10327 394f 03       		.byte	0x3
 10328 3950 64010000 		.4byte	.LC21
 10329 3954 00       		.byte	0
 10330 3955 3F       		.uleb128 0x3f
 10331 3956 FC010000 		.4byte	.LVL54
 10332 395a BE540000 		.4byte	0x54be
 10333 395e 6C390000 		.4byte	0x396c
 10334 3962 39       		.uleb128 0x39
 10335 3963 01       		.uleb128 0x1
 10336 3964 50       		.byte	0x50
 10337 3965 05       		.uleb128 0x5
 10338 3966 03       		.byte	0x3
 10339 3967 A4010000 		.4byte	.LC22
 10340 396b 00       		.byte	0
 10341 396c 40       		.uleb128 0x40
 10342 396d 00020000 		.4byte	.LVL55
 10343 3971 C9540000 		.4byte	0x54c9
 10344 3975 3F       		.uleb128 0x3f
ARM GAS  C:\Users\CHRIST~1\AppData\Local\Temp\ccVm3NB4.s 			page 193


 10345 3976 24020000 		.4byte	.LVL58
 10346 397a BE540000 		.4byte	0x54be
 10347 397e 8F390000 		.4byte	0x398f
 10348 3982 39       		.uleb128 0x39
 10349 3983 01       		.uleb128 0x1
 10350 3984 50       		.byte	0x50
 10351 3985 02       		.uleb128 0x2
 10352 3986 75       		.byte	0x75
 10353 3987 00       		.sleb128 0
 10354 3988 39       		.uleb128 0x39
 10355 3989 01       		.uleb128 0x1
 10356 398a 51       		.byte	0x51
 10357 398b 02       		.uleb128 0x2
 10358 398c 74       		.byte	0x74
 10359 398d 00       		.sleb128 0
 10360 398e 00       		.byte	0
 10361 398f 3F       		.uleb128 0x3f
 10362 3990 2A020000 		.4byte	.LVL59
 10363 3994 D4540000 		.4byte	0x54d4
 10364 3998 A3390000 		.4byte	0x39a3
 10365 399c 39       		.uleb128 0x39
 10366 399d 01       		.uleb128 0x1
 10367 399e 50       		.byte	0x50
 10368 399f 02       		.uleb128 0x2
 10369 39a0 74       		.byte	0x74
 10370 39a1 00       		.sleb128 0
 10371 39a2 00       		.byte	0
 10372 39a3 38       		.uleb128 0x38
 10373 39a4 36020000 		.4byte	.LVL61
 10374 39a8 BE540000 		.4byte	0x54be
 10375 39ac 39       		.uleb128 0x39
 10376 39ad 01       		.uleb128 0x1
 10377 39ae 50       		.byte	0x50
 10378 39af 05       		.uleb128 0x5
 10379 39b0 03       		.byte	0x3
 10380 39b1 08020000 		.4byte	.LC24
 10381 39b5 00       		.byte	0
 10382 39b6 00       		.byte	0
 10383 39b7 3E       		.uleb128 0x3e
 10384 39b8 E6020000 		.4byte	.LBB61
 10385 39bc EC000000 		.4byte	.LBE61-.LBB61
 10386 39c0 273B0000 		.4byte	0x3b27
 10387 39c4 3D       		.uleb128 0x3d
 10388 39c5 6900     		.ascii	"i\000"
 10389 39c7 01       		.byte	0x1
 10390 39c8 74       		.byte	0x74
 10391 39c9 2C000000 		.4byte	0x2c
 10392 39cd D4020000 		.4byte	.LLST5
 10393 39d1 40       		.uleb128 0x40
 10394 39d2 0C030000 		.4byte	.LVL68
 10395 39d6 DF540000 		.4byte	0x54df
 10396 39da 3F       		.uleb128 0x3f
 10397 39db 14030000 		.4byte	.LVL69
 10398 39df BE540000 		.4byte	0x54be
 10399 39e3 EE390000 		.4byte	0x39ee
 10400 39e7 39       		.uleb128 0x39
 10401 39e8 01       		.uleb128 0x1
ARM GAS  C:\Users\CHRIST~1\AppData\Local\Temp\ccVm3NB4.s 			page 194


 10402 39e9 50       		.byte	0x50
 10403 39ea 02       		.uleb128 0x2
 10404 39eb 7A       		.byte	0x7a
 10405 39ec 00       		.sleb128 0
 10406 39ed 00       		.byte	0
 10407 39ee 3F       		.uleb128 0x3f
 10408 39ef 24030000 		.4byte	.LVL71
 10409 39f3 BE540000 		.4byte	0x54be
 10410 39f7 023A0000 		.4byte	0x3a02
 10411 39fb 39       		.uleb128 0x39
 10412 39fc 01       		.uleb128 0x1
 10413 39fd 50       		.byte	0x50
 10414 39fe 02       		.uleb128 0x2
 10415 39ff 79       		.byte	0x79
 10416 3a00 00       		.sleb128 0
 10417 3a01 00       		.byte	0
 10418 3a02 3F       		.uleb128 0x3f
 10419 3a03 34030000 		.4byte	.LVL73
 10420 3a07 BE540000 		.4byte	0x54be
 10421 3a0b 163A0000 		.4byte	0x3a16
 10422 3a0f 39       		.uleb128 0x39
 10423 3a10 01       		.uleb128 0x1
 10424 3a11 50       		.byte	0x50
 10425 3a12 02       		.uleb128 0x2
 10426 3a13 78       		.byte	0x78
 10427 3a14 00       		.sleb128 0
 10428 3a15 00       		.byte	0
 10429 3a16 3F       		.uleb128 0x3f
 10430 3a17 44030000 		.4byte	.LVL75
 10431 3a1b BE540000 		.4byte	0x54be
 10432 3a1f 2D3A0000 		.4byte	0x3a2d
 10433 3a23 39       		.uleb128 0x39
 10434 3a24 01       		.uleb128 0x1
 10435 3a25 50       		.byte	0x50
 10436 3a26 05       		.uleb128 0x5
 10437 3a27 03       		.byte	0x3
 10438 3a28 C0020000 		.4byte	.LC33
 10439 3a2c 00       		.byte	0
 10440 3a2d 3F       		.uleb128 0x3f
 10441 3a2e 54030000 		.4byte	.LVL77
 10442 3a32 BE540000 		.4byte	0x54be
 10443 3a36 443A0000 		.4byte	0x3a44
 10444 3a3a 39       		.uleb128 0x39
 10445 3a3b 01       		.uleb128 0x1
 10446 3a3c 50       		.byte	0x50
 10447 3a3d 05       		.uleb128 0x5
 10448 3a3e 03       		.byte	0x3
 10449 3a3f D8020000 		.4byte	.LC34
 10450 3a43 00       		.byte	0
 10451 3a44 3F       		.uleb128 0x3f
 10452 3a45 64030000 		.4byte	.LVL79
 10453 3a49 BE540000 		.4byte	0x54be
 10454 3a4d 5B3A0000 		.4byte	0x3a5b
 10455 3a51 39       		.uleb128 0x39
 10456 3a52 01       		.uleb128 0x1
 10457 3a53 50       		.byte	0x50
 10458 3a54 05       		.uleb128 0x5
ARM GAS  C:\Users\CHRIST~1\AppData\Local\Temp\ccVm3NB4.s 			page 195


 10459 3a55 03       		.byte	0x3
 10460 3a56 F0020000 		.4byte	.LC35
 10461 3a5a 00       		.byte	0
 10462 3a5b 3F       		.uleb128 0x3f
 10463 3a5c 6C030000 		.4byte	.LVL80
 10464 3a60 BE540000 		.4byte	0x54be
 10465 3a64 723A0000 		.4byte	0x3a72
 10466 3a68 39       		.uleb128 0x39
 10467 3a69 01       		.uleb128 0x1
 10468 3a6a 50       		.byte	0x50
 10469 3a6b 05       		.uleb128 0x5
 10470 3a6c 03       		.byte	0x3
 10471 3a6d 08030000 		.4byte	.LC36
 10472 3a71 00       		.byte	0
 10473 3a72 3F       		.uleb128 0x3f
 10474 3a73 74030000 		.4byte	.LVL81
 10475 3a77 BE540000 		.4byte	0x54be
 10476 3a7b 893A0000 		.4byte	0x3a89
 10477 3a7f 39       		.uleb128 0x39
 10478 3a80 01       		.uleb128 0x1
 10479 3a81 50       		.byte	0x50
 10480 3a82 05       		.uleb128 0x5
 10481 3a83 03       		.byte	0x3
 10482 3a84 20030000 		.4byte	.LC37
 10483 3a88 00       		.byte	0
 10484 3a89 3F       		.uleb128 0x3f
 10485 3a8a 94030000 		.4byte	.LVL83
 10486 3a8e BE540000 		.4byte	0x54be
 10487 3a92 A03A0000 		.4byte	0x3aa0
 10488 3a96 39       		.uleb128 0x39
 10489 3a97 01       		.uleb128 0x1
 10490 3a98 50       		.byte	0x50
 10491 3a99 05       		.uleb128 0x5
 10492 3a9a 03       		.byte	0x3
 10493 3a9b 38030000 		.4byte	.LC38
 10494 3a9f 00       		.byte	0
 10495 3aa0 3F       		.uleb128 0x3f
 10496 3aa1 9C030000 		.4byte	.LVL84
 10497 3aa5 BE540000 		.4byte	0x54be
 10498 3aa9 B73A0000 		.4byte	0x3ab7
 10499 3aad 39       		.uleb128 0x39
 10500 3aae 01       		.uleb128 0x1
 10501 3aaf 50       		.byte	0x50
 10502 3ab0 05       		.uleb128 0x5
 10503 3ab1 03       		.byte	0x3
 10504 3ab2 50030000 		.4byte	.LC39
 10505 3ab6 00       		.byte	0
 10506 3ab7 3F       		.uleb128 0x3f
 10507 3ab8 A4030000 		.4byte	.LVL85
 10508 3abc BE540000 		.4byte	0x54be
 10509 3ac0 CE3A0000 		.4byte	0x3ace
 10510 3ac4 39       		.uleb128 0x39
 10511 3ac5 01       		.uleb128 0x1
 10512 3ac6 50       		.byte	0x50
 10513 3ac7 05       		.uleb128 0x5
 10514 3ac8 03       		.byte	0x3
 10515 3ac9 68030000 		.4byte	.LC40
ARM GAS  C:\Users\CHRIST~1\AppData\Local\Temp\ccVm3NB4.s 			page 196


 10516 3acd 00       		.byte	0
 10517 3ace 3F       		.uleb128 0x3f
 10518 3acf AC030000 		.4byte	.LVL86
 10519 3ad3 BE540000 		.4byte	0x54be
 10520 3ad7 E53A0000 		.4byte	0x3ae5
 10521 3adb 39       		.uleb128 0x39
 10522 3adc 01       		.uleb128 0x1
 10523 3add 50       		.byte	0x50
 10524 3ade 05       		.uleb128 0x5
 10525 3adf 03       		.byte	0x3
 10526 3ae0 80030000 		.4byte	.LC41
 10527 3ae4 00       		.byte	0
 10528 3ae5 3F       		.uleb128 0x3f
 10529 3ae6 B4030000 		.4byte	.LVL87
 10530 3aea BE540000 		.4byte	0x54be
 10531 3aee FC3A0000 		.4byte	0x3afc
 10532 3af2 39       		.uleb128 0x39
 10533 3af3 01       		.uleb128 0x1
 10534 3af4 50       		.byte	0x50
 10535 3af5 05       		.uleb128 0x5
 10536 3af6 03       		.byte	0x3
 10537 3af7 98030000 		.4byte	.LC42
 10538 3afb 00       		.byte	0
 10539 3afc 3F       		.uleb128 0x3f
 10540 3afd C4030000 		.4byte	.LVL89
 10541 3b01 BE540000 		.4byte	0x54be
 10542 3b05 133B0000 		.4byte	0x3b13
 10543 3b09 39       		.uleb128 0x39
 10544 3b0a 01       		.uleb128 0x1
 10545 3b0b 50       		.byte	0x50
 10546 3b0c 05       		.uleb128 0x5
 10547 3b0d 03       		.byte	0x3
 10548 3b0e B0030000 		.4byte	.LC43
 10549 3b12 00       		.byte	0
 10550 3b13 38       		.uleb128 0x38
 10551 3b14 CA030000 		.4byte	.LVL90
 10552 3b18 BE540000 		.4byte	0x54be
 10553 3b1c 39       		.uleb128 0x39
 10554 3b1d 01       		.uleb128 0x1
 10555 3b1e 50       		.byte	0x50
 10556 3b1f 05       		.uleb128 0x5
 10557 3b20 03       		.byte	0x3
 10558 3b21 18000000 		.4byte	.LC4
 10559 3b25 00       		.byte	0
 10560 3b26 00       		.byte	0
 10561 3b27 3E       		.uleb128 0x3e
 10562 3b28 64040000 		.4byte	.LBB62
 10563 3b2c 92000000 		.4byte	.LBE62-.LBB62
 10564 3b30 8A3D0000 		.4byte	0x3d8a
 10565 3b34 31       		.uleb128 0x31
 10566 3b35 981B0000 		.4byte	.LASF827
 10567 3b39 01       		.byte	0x1
 10568 3b3a 91       		.byte	0x91
 10569 3b3b 33000000 		.4byte	0x33
 10570 3b3f 03       		.uleb128 0x3
 10571 3b40 91       		.byte	0x91
 10572 3b41 987D     		.sleb128 -360
ARM GAS  C:\Users\CHRIST~1\AppData\Local\Temp\ccVm3NB4.s 			page 197


 10573 3b43 31       		.uleb128 0x31
 10574 3b44 C2000000 		.4byte	.LASF828
 10575 3b48 01       		.byte	0x1
 10576 3b49 92       		.byte	0x92
 10577 3b4a 33000000 		.4byte	0x33
 10578 3b4e 03       		.uleb128 0x3
 10579 3b4f 91       		.byte	0x91
 10580 3b50 9C7D     		.sleb128 -356
 10581 3b52 31       		.uleb128 0x31
 10582 3b53 83160000 		.4byte	.LASF829
 10583 3b57 01       		.byte	0x1
 10584 3b58 93       		.byte	0x93
 10585 3b59 33000000 		.4byte	0x33
 10586 3b5d 03       		.uleb128 0x3
 10587 3b5e 91       		.byte	0x91
 10588 3b5f A07D     		.sleb128 -352
 10589 3b61 31       		.uleb128 0x31
 10590 3b62 94160000 		.4byte	.LASF830
 10591 3b66 01       		.byte	0x1
 10592 3b67 94       		.byte	0x94
 10593 3b68 33000000 		.4byte	0x33
 10594 3b6c 03       		.uleb128 0x3
 10595 3b6d 91       		.byte	0x91
 10596 3b6e A47D     		.sleb128 -348
 10597 3b70 3C       		.uleb128 0x3c
 10598 3b71 A1220000 		.4byte	.LASF831
 10599 3b75 01       		.byte	0x1
 10600 3b76 96       		.byte	0x96
 10601 3b77 2C000000 		.4byte	0x2c
 10602 3b7b 0B030000 		.4byte	.LLST6
 10603 3b7f 3C       		.uleb128 0x3c
 10604 3b80 A7220000 		.4byte	.LASF832
 10605 3b84 01       		.byte	0x1
 10606 3b85 97       		.byte	0x97
 10607 3b86 2C000000 		.4byte	0x2c
 10608 3b8a 1E030000 		.4byte	.LLST7
 10609 3b8e 3C       		.uleb128 0x3c
 10610 3b8f AD220000 		.4byte	.LASF833
 10611 3b93 01       		.byte	0x1
 10612 3b94 98       		.byte	0x98
 10613 3b95 2C000000 		.4byte	0x2c
 10614 3b99 31030000 		.4byte	.LLST8
 10615 3b9d 3D       		.uleb128 0x3d
 10616 3b9e 746F7000 		.ascii	"top\000"
 10617 3ba2 01       		.byte	0x1
 10618 3ba3 99       		.byte	0x99
 10619 3ba4 2C000000 		.4byte	0x2c
 10620 3ba8 44030000 		.4byte	.LLST9
 10621 3bac 3C       		.uleb128 0x3c
 10622 3bad BC2A0000 		.4byte	.LASF834
 10623 3bb1 01       		.byte	0x1
 10624 3bb2 9A       		.byte	0x9a
 10625 3bb3 2C000000 		.4byte	0x2c
 10626 3bb7 57030000 		.4byte	.LLST10
 10627 3bbb 3C       		.uleb128 0x3c
 10628 3bbc 38150000 		.4byte	.LASF835
 10629 3bc0 01       		.byte	0x1
ARM GAS  C:\Users\CHRIST~1\AppData\Local\Temp\ccVm3NB4.s 			page 198


 10630 3bc1 9B       		.byte	0x9b
 10631 3bc2 2C000000 		.4byte	0x2c
 10632 3bc6 6A030000 		.4byte	.LLST11
 10633 3bca 3C       		.uleb128 0x3c
 10634 3bcb A0140000 		.4byte	.LASF836
 10635 3bcf 01       		.byte	0x1
 10636 3bd0 9C       		.byte	0x9c
 10637 3bd1 2C000000 		.4byte	0x2c
 10638 3bd5 7D030000 		.4byte	.LLST12
 10639 3bd9 41       		.uleb128 0x41
 10640 3bda 68540000 		.4byte	0x5468
 10641 3bde 64040000 		.4byte	.LBB63
 10642 3be2 06000000 		.4byte	.LBE63-.LBB63
 10643 3be6 01       		.byte	0x1
 10644 3be7 90       		.byte	0x90
 10645 3be8 183C0000 		.4byte	0x3c18
 10646 3bec 42       		.uleb128 0x42
 10647 3bed 7A540000 		.4byte	0x547a
 10648 3bf1 64040000 		.4byte	.LBB64
 10649 3bf5 06000000 		.4byte	.LBE64-.LBB64
 10650 3bf9 2D       		.byte	0x2d
 10651 3bfa 5C01     		.2byte	0x15c
 10652 3bfc 42       		.uleb128 0x42
 10653 3bfd 83540000 		.4byte	0x5483
 10654 3c01 64040000 		.4byte	.LBB65
 10655 3c05 06000000 		.4byte	.LBE65-.LBB65
 10656 3c09 0E       		.byte	0xe
 10657 3c0a BF01     		.2byte	0x1bf
 10658 3c0c 43       		.uleb128 0x43
 10659 3c0d 90540000 		.4byte	0x5490
 10660 3c11 90030000 		.4byte	.LLST13
 10661 3c15 00       		.byte	0
 10662 3c16 00       		.byte	0
 10663 3c17 00       		.byte	0
 10664 3c18 41       		.uleb128 0x41
 10665 3c19 38540000 		.4byte	0x5438
 10666 3c1d 86040000 		.4byte	.LBB67
 10667 3c21 04000000 		.4byte	.LBE67-.LBB67
 10668 3c25 01       		.byte	0x1
 10669 3c26 95       		.byte	0x95
 10670 3c27 663C0000 		.4byte	0x3c66
 10671 3c2b 44       		.uleb128 0x44
 10672 3c2c 86040000 		.4byte	.LBB68
 10673 3c30 04000000 		.4byte	.LBE68-.LBB68
 10674 3c34 45       		.uleb128 0x45
 10675 3c35 45540000 		.4byte	0x5445
 10676 3c39 42       		.uleb128 0x42
 10677 3c3a 71540000 		.4byte	0x5471
 10678 3c3e 86040000 		.4byte	.LBB69
 10679 3c42 04000000 		.4byte	.LBE69-.LBB69
 10680 3c46 2D       		.byte	0x2d
 10681 3c47 7301     		.2byte	0x173
 10682 3c49 42       		.uleb128 0x42
 10683 3c4a 83540000 		.4byte	0x5483
 10684 3c4e 86040000 		.4byte	.LBB70
 10685 3c52 04000000 		.4byte	.LBE70-.LBB70
 10686 3c56 0E       		.byte	0xe
ARM GAS  C:\Users\CHRIST~1\AppData\Local\Temp\ccVm3NB4.s 			page 199


 10687 3c57 CD01     		.2byte	0x1cd
 10688 3c59 43       		.uleb128 0x43
 10689 3c5a 90540000 		.4byte	0x5490
 10690 3c5e A5030000 		.4byte	.LLST14
 10691 3c62 00       		.byte	0
 10692 3c63 00       		.byte	0
 10693 3c64 00       		.byte	0
 10694 3c65 00       		.byte	0
 10695 3c66 3F       		.uleb128 0x3f
 10696 3c67 A6040000 		.4byte	.LVL114
 10697 3c6b BE540000 		.4byte	0x54be
 10698 3c6f 7D3C0000 		.4byte	0x3c7d
 10699 3c73 39       		.uleb128 0x39
 10700 3c74 01       		.uleb128 0x1
 10701 3c75 50       		.byte	0x50
 10702 3c76 05       		.uleb128 0x5
 10703 3c77 03       		.byte	0x3
 10704 3c78 0C040000 		.4byte	.LC49
 10705 3c7c 00       		.byte	0
 10706 3c7d 3F       		.uleb128 0x3f
 10707 3c7e AE040000 		.4byte	.LVL115
 10708 3c82 BE540000 		.4byte	0x54be
 10709 3c86 943C0000 		.4byte	0x3c94
 10710 3c8a 39       		.uleb128 0x39
 10711 3c8b 01       		.uleb128 0x1
 10712 3c8c 50       		.byte	0x50
 10713 3c8d 05       		.uleb128 0x5
 10714 3c8e 03       		.byte	0x3
 10715 3c8f 1C040000 		.4byte	.LC50
 10716 3c93 00       		.byte	0
 10717 3c94 3F       		.uleb128 0x3f
 10718 3c95 B6040000 		.4byte	.LVL116
 10719 3c99 BE540000 		.4byte	0x54be
 10720 3c9d B13C0000 		.4byte	0x3cb1
 10721 3ca1 39       		.uleb128 0x39
 10722 3ca2 01       		.uleb128 0x1
 10723 3ca3 50       		.byte	0x50
 10724 3ca4 05       		.uleb128 0x5
 10725 3ca5 03       		.byte	0x3
 10726 3ca6 2C040000 		.4byte	.LC51
 10727 3caa 39       		.uleb128 0x39
 10728 3cab 01       		.uleb128 0x1
 10729 3cac 51       		.byte	0x51
 10730 3cad 02       		.uleb128 0x2
 10731 3cae 7A       		.byte	0x7a
 10732 3caf 00       		.sleb128 0
 10733 3cb0 00       		.byte	0
 10734 3cb1 3F       		.uleb128 0x3f
 10735 3cb2 BE040000 		.4byte	.LVL117
 10736 3cb6 BE540000 		.4byte	0x54be
 10737 3cba CE3C0000 		.4byte	0x3cce
 10738 3cbe 39       		.uleb128 0x39
 10739 3cbf 01       		.uleb128 0x1
 10740 3cc0 50       		.byte	0x50
 10741 3cc1 05       		.uleb128 0x5
 10742 3cc2 03       		.byte	0x3
 10743 3cc3 3C040000 		.4byte	.LC52
ARM GAS  C:\Users\CHRIST~1\AppData\Local\Temp\ccVm3NB4.s 			page 200


 10744 3cc7 39       		.uleb128 0x39
 10745 3cc8 01       		.uleb128 0x1
 10746 3cc9 51       		.byte	0x51
 10747 3cca 02       		.uleb128 0x2
 10748 3ccb 79       		.byte	0x79
 10749 3ccc 00       		.sleb128 0
 10750 3ccd 00       		.byte	0
 10751 3cce 3F       		.uleb128 0x3f
 10752 3ccf C6040000 		.4byte	.LVL118
 10753 3cd3 BE540000 		.4byte	0x54be
 10754 3cd7 EB3C0000 		.4byte	0x3ceb
 10755 3cdb 39       		.uleb128 0x39
 10756 3cdc 01       		.uleb128 0x1
 10757 3cdd 50       		.byte	0x50
 10758 3cde 05       		.uleb128 0x5
 10759 3cdf 03       		.byte	0x3
 10760 3ce0 4C040000 		.4byte	.LC53
 10761 3ce4 39       		.uleb128 0x39
 10762 3ce5 01       		.uleb128 0x1
 10763 3ce6 51       		.byte	0x51
 10764 3ce7 02       		.uleb128 0x2
 10765 3ce8 78       		.byte	0x78
 10766 3ce9 00       		.sleb128 0
 10767 3cea 00       		.byte	0
 10768 3ceb 3F       		.uleb128 0x3f
 10769 3cec CE040000 		.4byte	.LVL119
 10770 3cf0 BE540000 		.4byte	0x54be
 10771 3cf4 083D0000 		.4byte	0x3d08
 10772 3cf8 39       		.uleb128 0x39
 10773 3cf9 01       		.uleb128 0x1
 10774 3cfa 50       		.byte	0x50
 10775 3cfb 05       		.uleb128 0x5
 10776 3cfc 03       		.byte	0x3
 10777 3cfd 5C040000 		.4byte	.LC54
 10778 3d01 39       		.uleb128 0x39
 10779 3d02 01       		.uleb128 0x1
 10780 3d03 51       		.byte	0x51
 10781 3d04 02       		.uleb128 0x2
 10782 3d05 77       		.byte	0x77
 10783 3d06 00       		.sleb128 0
 10784 3d07 00       		.byte	0
 10785 3d08 3F       		.uleb128 0x3f
 10786 3d09 D6040000 		.4byte	.LVL120
 10787 3d0d BE540000 		.4byte	0x54be
 10788 3d11 1F3D0000 		.4byte	0x3d1f
 10789 3d15 39       		.uleb128 0x39
 10790 3d16 01       		.uleb128 0x1
 10791 3d17 50       		.byte	0x50
 10792 3d18 05       		.uleb128 0x5
 10793 3d19 03       		.byte	0x3
 10794 3d1a 64040000 		.4byte	.LC55
 10795 3d1e 00       		.byte	0
 10796 3d1f 3F       		.uleb128 0x3f
 10797 3d20 DE040000 		.4byte	.LVL121
 10798 3d24 BE540000 		.4byte	0x54be
 10799 3d28 363D0000 		.4byte	0x3d36
 10800 3d2c 39       		.uleb128 0x39
ARM GAS  C:\Users\CHRIST~1\AppData\Local\Temp\ccVm3NB4.s 			page 201


 10801 3d2d 01       		.uleb128 0x1
 10802 3d2e 50       		.byte	0x50
 10803 3d2f 05       		.uleb128 0x5
 10804 3d30 03       		.byte	0x3
 10805 3d31 70040000 		.4byte	.LC56
 10806 3d35 00       		.byte	0
 10807 3d36 3F       		.uleb128 0x3f
 10808 3d37 E6040000 		.4byte	.LVL122
 10809 3d3b BE540000 		.4byte	0x54be
 10810 3d3f 533D0000 		.4byte	0x3d53
 10811 3d43 39       		.uleb128 0x39
 10812 3d44 01       		.uleb128 0x1
 10813 3d45 50       		.byte	0x50
 10814 3d46 05       		.uleb128 0x5
 10815 3d47 03       		.byte	0x3
 10816 3d48 7C040000 		.4byte	.LC57
 10817 3d4c 39       		.uleb128 0x39
 10818 3d4d 01       		.uleb128 0x1
 10819 3d4e 51       		.byte	0x51
 10820 3d4f 02       		.uleb128 0x2
 10821 3d50 76       		.byte	0x76
 10822 3d51 00       		.sleb128 0
 10823 3d52 00       		.byte	0
 10824 3d53 3F       		.uleb128 0x3f
 10825 3d54 EE040000 		.4byte	.LVL123
 10826 3d58 BE540000 		.4byte	0x54be
 10827 3d5c 703D0000 		.4byte	0x3d70
 10828 3d60 39       		.uleb128 0x39
 10829 3d61 01       		.uleb128 0x1
 10830 3d62 50       		.byte	0x50
 10831 3d63 05       		.uleb128 0x5
 10832 3d64 03       		.byte	0x3
 10833 3d65 90040000 		.4byte	.LC58
 10834 3d69 39       		.uleb128 0x39
 10835 3d6a 01       		.uleb128 0x1
 10836 3d6b 51       		.byte	0x51
 10837 3d6c 02       		.uleb128 0x2
 10838 3d6d 75       		.byte	0x75
 10839 3d6e 00       		.sleb128 0
 10840 3d6f 00       		.byte	0
 10841 3d70 38       		.uleb128 0x38
 10842 3d71 F6040000 		.4byte	.LVL124
 10843 3d75 BE540000 		.4byte	0x54be
 10844 3d79 39       		.uleb128 0x39
 10845 3d7a 01       		.uleb128 0x1
 10846 3d7b 50       		.byte	0x50
 10847 3d7c 05       		.uleb128 0x5
 10848 3d7d 03       		.byte	0x3
 10849 3d7e A8040000 		.4byte	.LC59
 10850 3d82 39       		.uleb128 0x39
 10851 3d83 01       		.uleb128 0x1
 10852 3d84 51       		.byte	0x51
 10853 3d85 02       		.uleb128 0x2
 10854 3d86 74       		.byte	0x74
 10855 3d87 00       		.sleb128 0
 10856 3d88 00       		.byte	0
 10857 3d89 00       		.byte	0
ARM GAS  C:\Users\CHRIST~1\AppData\Local\Temp\ccVm3NB4.s 			page 202


 10858 3d8a 46       		.uleb128 0x46
 10859 3d8b 00000000 		.4byte	.Ldebug_ranges0+0
 10860 3d8f 323F0000 		.4byte	0x3f32
 10861 3d93 31       		.uleb128 0x31
 10862 3d94 59170000 		.4byte	.LASF353
 10863 3d98 01       		.byte	0x1
 10864 3d99 AD       		.byte	0xad
 10865 3d9a 25000000 		.4byte	0x25
 10866 3d9e 03       		.uleb128 0x3
 10867 3d9f 91       		.byte	0x91
 10868 3da0 8C7D     		.sleb128 -372
 10869 3da2 31       		.uleb128 0x31
 10870 3da3 C71C0000 		.4byte	.LASF837
 10871 3da7 01       		.byte	0x1
 10872 3da8 AE       		.byte	0xae
 10873 3da9 25000000 		.4byte	0x25
 10874 3dad 03       		.uleb128 0x3
 10875 3dae 91       		.byte	0x91
 10876 3daf 907D     		.sleb128 -368
 10877 3db1 31       		.uleb128 0x31
 10878 3db2 880E0000 		.4byte	.LASF838
 10879 3db6 01       		.byte	0x1
 10880 3db7 AF       		.byte	0xaf
 10881 3db8 25000000 		.4byte	0x25
 10882 3dbc 03       		.uleb128 0x3
 10883 3dbd 91       		.byte	0x91
 10884 3dbe 947D     		.sleb128 -364
 10885 3dc0 46       		.uleb128 0x46
 10886 3dc1 28000000 		.4byte	.Ldebug_ranges0+0x28
 10887 3dc5 DB3E0000 		.4byte	0x3edb
 10888 3dc9 31       		.uleb128 0x31
 10889 3dca 20270000 		.4byte	.LASF839
 10890 3dce 01       		.byte	0x1
 10891 3dcf B8       		.byte	0xb8
 10892 3dd0 25000000 		.4byte	0x25
 10893 3dd4 03       		.uleb128 0x3
 10894 3dd5 91       		.byte	0x91
 10895 3dd6 987D     		.sleb128 -360
 10896 3dd8 31       		.uleb128 0x31
 10897 3dd9 1B200000 		.4byte	.LASF840
 10898 3ddd 01       		.byte	0x1
 10899 3dde B9       		.byte	0xb9
 10900 3ddf 25000000 		.4byte	0x25
 10901 3de3 03       		.uleb128 0x3
 10902 3de4 91       		.byte	0x91
 10903 3de5 9C7D     		.sleb128 -356
 10904 3de7 31       		.uleb128 0x31
 10905 3de8 AE140000 		.4byte	.LASF294
 10906 3dec 01       		.byte	0x1
 10907 3ded BA       		.byte	0xba
 10908 3dee 0D160000 		.4byte	0x160d
 10909 3df2 03       		.uleb128 0x3
 10910 3df3 91       		.byte	0x91
 10911 3df4 A47D     		.sleb128 -348
 10912 3df6 31       		.uleb128 0x31
 10913 3df7 970F0000 		.4byte	.LASF841
 10914 3dfb 01       		.byte	0x1
ARM GAS  C:\Users\CHRIST~1\AppData\Local\Temp\ccVm3NB4.s 			page 203


 10915 3dfc BB       		.byte	0xbb
 10916 3dfd 2C000000 		.4byte	0x2c
 10917 3e01 03       		.uleb128 0x3
 10918 3e02 91       		.byte	0x91
 10919 3e03 A07D     		.sleb128 -352
 10920 3e05 3F       		.uleb128 0x3f
 10921 3e06 04070000 		.4byte	.LVL148
 10922 3e0a EA540000 		.4byte	0x54ea
 10923 3e0e 2F3E0000 		.4byte	0x3e2f
 10924 3e12 39       		.uleb128 0x39
 10925 3e13 01       		.uleb128 0x1
 10926 3e14 50       		.byte	0x50
 10927 3e15 03       		.uleb128 0x3
 10928 3e16 91       		.byte	0x91
 10929 3e17 987D     		.sleb128 -360
 10930 3e19 39       		.uleb128 0x39
 10931 3e1a 01       		.uleb128 0x1
 10932 3e1b 51       		.byte	0x51
 10933 3e1c 03       		.uleb128 0x3
 10934 3e1d 91       		.byte	0x91
 10935 3e1e 9C7D     		.sleb128 -356
 10936 3e20 39       		.uleb128 0x39
 10937 3e21 01       		.uleb128 0x1
 10938 3e22 52       		.byte	0x52
 10939 3e23 03       		.uleb128 0x3
 10940 3e24 91       		.byte	0x91
 10941 3e25 A47D     		.sleb128 -348
 10942 3e27 39       		.uleb128 0x39
 10943 3e28 01       		.uleb128 0x1
 10944 3e29 53       		.byte	0x53
 10945 3e2a 03       		.uleb128 0x3
 10946 3e2b 91       		.byte	0x91
 10947 3e2c A07D     		.sleb128 -352
 10948 3e2e 00       		.byte	0
 10949 3e2f 3F       		.uleb128 0x3f
 10950 3e30 1A070000 		.4byte	.LVL150
 10951 3e34 BE540000 		.4byte	0x54be
 10952 3e38 463E0000 		.4byte	0x3e46
 10953 3e3c 39       		.uleb128 0x39
 10954 3e3d 01       		.uleb128 0x1
 10955 3e3e 50       		.byte	0x50
 10956 3e3f 05       		.uleb128 0x5
 10957 3e40 03       		.byte	0x3
 10958 3e41 F4040000 		.4byte	.LC64
 10959 3e45 00       		.byte	0
 10960 3e46 3F       		.uleb128 0x3f
 10961 3e47 2A070000 		.4byte	.LVL152
 10962 3e4b BE540000 		.4byte	0x54be
 10963 3e4f 5D3E0000 		.4byte	0x3e5d
 10964 3e53 39       		.uleb128 0x39
 10965 3e54 01       		.uleb128 0x1
 10966 3e55 50       		.byte	0x50
 10967 3e56 05       		.uleb128 0x5
 10968 3e57 03       		.byte	0x3
 10969 3e58 14050000 		.4byte	.LC65
 10970 3e5c 00       		.byte	0
 10971 3e5d 3F       		.uleb128 0x3f
ARM GAS  C:\Users\CHRIST~1\AppData\Local\Temp\ccVm3NB4.s 			page 204


 10972 3e5e 44070000 		.4byte	.LVL153
 10973 3e62 BE540000 		.4byte	0x54be
 10974 3e66 743E0000 		.4byte	0x3e74
 10975 3e6a 39       		.uleb128 0x39
 10976 3e6b 01       		.uleb128 0x1
 10977 3e6c 50       		.byte	0x50
 10978 3e6d 05       		.uleb128 0x5
 10979 3e6e 03       		.byte	0x3
 10980 3e6f B8050000 		.4byte	.LC70
 10981 3e73 00       		.byte	0
 10982 3e74 3F       		.uleb128 0x3f
 10983 3e75 EC070000 		.4byte	.LVL167
 10984 3e79 BE540000 		.4byte	0x54be
 10985 3e7d 8B3E0000 		.4byte	0x3e8b
 10986 3e81 39       		.uleb128 0x39
 10987 3e82 01       		.uleb128 0x1
 10988 3e83 50       		.byte	0x50
 10989 3e84 05       		.uleb128 0x5
 10990 3e85 03       		.byte	0x3
 10991 3e86 88050000 		.4byte	.LC69
 10992 3e8a 00       		.byte	0
 10993 3e8b 40       		.uleb128 0x40
 10994 3e8c F4070000 		.4byte	.LVL168
 10995 3e90 BE540000 		.4byte	0x54be
 10996 3e94 3F       		.uleb128 0x3f
 10997 3e95 20080000 		.4byte	.LVL170
 10998 3e99 BE540000 		.4byte	0x54be
 10999 3e9d C73E0000 		.4byte	0x3ec7
 11000 3ea1 39       		.uleb128 0x39
 11001 3ea2 01       		.uleb128 0x1
 11002 3ea3 50       		.byte	0x50
 11003 3ea4 05       		.uleb128 0x5
 11004 3ea5 03       		.byte	0x3
 11005 3ea6 48050000 		.4byte	.LC67
 11006 3eaa 39       		.uleb128 0x39
 11007 3eab 02       		.uleb128 0x2
 11008 3eac 7D       		.byte	0x7d
 11009 3ead 04       		.sleb128 4
 11010 3eae 02       		.uleb128 0x2
 11011 3eaf 74       		.byte	0x74
 11012 3eb0 00       		.sleb128 0
 11013 3eb1 39       		.uleb128 0x39
 11014 3eb2 02       		.uleb128 0x2
 11015 3eb3 7D       		.byte	0x7d
 11016 3eb4 08       		.sleb128 8
 11017 3eb5 02       		.uleb128 0x2
 11018 3eb6 75       		.byte	0x75
 11019 3eb7 00       		.sleb128 0
 11020 3eb8 39       		.uleb128 0x39
 11021 3eb9 02       		.uleb128 0x2
 11022 3eba 7D       		.byte	0x7d
 11023 3ebb 0C       		.sleb128 12
 11024 3ebc 02       		.uleb128 0x2
 11025 3ebd 76       		.byte	0x76
 11026 3ebe 00       		.sleb128 0
 11027 3ebf 39       		.uleb128 0x39
 11028 3ec0 02       		.uleb128 0x2
ARM GAS  C:\Users\CHRIST~1\AppData\Local\Temp\ccVm3NB4.s 			page 205


 11029 3ec1 7D       		.byte	0x7d
 11030 3ec2 10       		.sleb128 16
 11031 3ec3 02       		.uleb128 0x2
 11032 3ec4 77       		.byte	0x77
 11033 3ec5 00       		.sleb128 0
 11034 3ec6 00       		.byte	0
 11035 3ec7 38       		.uleb128 0x38
 11036 3ec8 34080000 		.4byte	.LVL173
 11037 3ecc BE540000 		.4byte	0x54be
 11038 3ed0 39       		.uleb128 0x39
 11039 3ed1 01       		.uleb128 0x1
 11040 3ed2 50       		.byte	0x50
 11041 3ed3 05       		.uleb128 0x5
 11042 3ed4 03       		.byte	0x3
 11043 3ed5 E8050000 		.4byte	.LC71
 11044 3ed9 00       		.byte	0
 11045 3eda 00       		.byte	0
 11046 3edb 3F       		.uleb128 0x3f
 11047 3edc 0A050000 		.4byte	.LVL126
 11048 3ee0 F5540000 		.4byte	0x54f5
 11049 3ee4 F93E0000 		.4byte	0x3ef9
 11050 3ee8 39       		.uleb128 0x39
 11051 3ee9 01       		.uleb128 0x1
 11052 3eea 51       		.byte	0x51
 11053 3eeb 05       		.uleb128 0x5
 11054 3eec 03       		.byte	0x3
 11055 3eed F0040000 		.4byte	.LC63
 11056 3ef1 39       		.uleb128 0x39
 11057 3ef2 01       		.uleb128 0x1
 11058 3ef3 52       		.byte	0x52
 11059 3ef4 03       		.uleb128 0x3
 11060 3ef5 91       		.byte	0x91
 11061 3ef6 8C7D     		.sleb128 -372
 11062 3ef8 00       		.byte	0
 11063 3ef9 3F       		.uleb128 0x3f
 11064 3efa 14050000 		.4byte	.LVL127
 11065 3efe F5540000 		.4byte	0x54f5
 11066 3f02 173F0000 		.4byte	0x3f17
 11067 3f06 39       		.uleb128 0x39
 11068 3f07 01       		.uleb128 0x1
 11069 3f08 51       		.byte	0x51
 11070 3f09 05       		.uleb128 0x5
 11071 3f0a 03       		.byte	0x3
 11072 3f0b F0040000 		.4byte	.LC63
 11073 3f0f 39       		.uleb128 0x39
 11074 3f10 01       		.uleb128 0x1
 11075 3f11 52       		.byte	0x52
 11076 3f12 03       		.uleb128 0x3
 11077 3f13 91       		.byte	0x91
 11078 3f14 907D     		.sleb128 -368
 11079 3f16 00       		.byte	0
 11080 3f17 38       		.uleb128 0x38
 11081 3f18 1E050000 		.4byte	.LVL128
 11082 3f1c F5540000 		.4byte	0x54f5
 11083 3f20 39       		.uleb128 0x39
 11084 3f21 01       		.uleb128 0x1
 11085 3f22 51       		.byte	0x51
ARM GAS  C:\Users\CHRIST~1\AppData\Local\Temp\ccVm3NB4.s 			page 206


 11086 3f23 05       		.uleb128 0x5
 11087 3f24 03       		.byte	0x3
 11088 3f25 F0040000 		.4byte	.LC63
 11089 3f29 39       		.uleb128 0x39
 11090 3f2a 01       		.uleb128 0x1
 11091 3f2b 52       		.byte	0x52
 11092 3f2c 03       		.uleb128 0x3
 11093 3f2d 91       		.byte	0x91
 11094 3f2e 947D     		.sleb128 -364
 11095 3f30 00       		.byte	0
 11096 3f31 00       		.byte	0
 11097 3f32 3E       		.uleb128 0x3e
 11098 3f33 C0060000 		.4byte	.LBB78
 11099 3f37 36000000 		.4byte	.LBE78-.LBB78
 11100 3f3b A53F0000 		.4byte	0x3fa5
 11101 3f3f 31       		.uleb128 0x31
 11102 3f40 2A110000 		.4byte	.LASF842
 11103 3f44 01       		.byte	0x1
 11104 3f45 D9       		.byte	0xd9
 11105 3f46 22110000 		.4byte	0x1122
 11106 3f4a 03       		.uleb128 0x3
 11107 3f4b 91       		.byte	0x91
 11108 3f4c A47D     		.sleb128 -348
 11109 3f4e 3F       		.uleb128 0x3f
 11110 3f4f C6060000 		.4byte	.LVL141
 11111 3f53 00550000 		.4byte	0x5500
 11112 3f57 633F0000 		.4byte	0x3f63
 11113 3f5b 39       		.uleb128 0x39
 11114 3f5c 01       		.uleb128 0x1
 11115 3f5d 50       		.byte	0x50
 11116 3f5e 03       		.uleb128 0x3
 11117 3f5f 91       		.byte	0x91
 11118 3f60 A47D     		.sleb128 -348
 11119 3f62 00       		.byte	0
 11120 3f63 3F       		.uleb128 0x3f
 11121 3f64 D6060000 		.4byte	.LVL143
 11122 3f68 BE540000 		.4byte	0x54be
 11123 3f6c 7A3F0000 		.4byte	0x3f7a
 11124 3f70 39       		.uleb128 0x39
 11125 3f71 01       		.uleb128 0x1
 11126 3f72 50       		.byte	0x50
 11127 3f73 05       		.uleb128 0x5
 11128 3f74 03       		.byte	0x3
 11129 3f75 68060000 		.4byte	.LC75
 11130 3f79 00       		.byte	0
 11131 3f7a 3F       		.uleb128 0x3f
 11132 3f7b E6060000 		.4byte	.LVL145
 11133 3f7f BE540000 		.4byte	0x54be
 11134 3f83 913F0000 		.4byte	0x3f91
 11135 3f87 39       		.uleb128 0x39
 11136 3f88 01       		.uleb128 0x1
 11137 3f89 50       		.byte	0x50
 11138 3f8a 05       		.uleb128 0x5
 11139 3f8b 03       		.byte	0x3
 11140 3f8c 80060000 		.4byte	.LC76
 11141 3f90 00       		.byte	0
 11142 3f91 38       		.uleb128 0x38
ARM GAS  C:\Users\CHRIST~1\AppData\Local\Temp\ccVm3NB4.s 			page 207


 11143 3f92 F6060000 		.4byte	.LVL147
 11144 3f96 BE540000 		.4byte	0x54be
 11145 3f9a 39       		.uleb128 0x39
 11146 3f9b 01       		.uleb128 0x1
 11147 3f9c 50       		.byte	0x50
 11148 3f9d 05       		.uleb128 0x5
 11149 3f9e 03       		.byte	0x3
 11150 3f9f A0060000 		.4byte	.LC77
 11151 3fa3 00       		.byte	0
 11152 3fa4 00       		.byte	0
 11153 3fa5 46       		.uleb128 0x46
 11154 3fa6 78000000 		.4byte	.Ldebug_ranges0+0x78
 11155 3faa C5400000 		.4byte	0x40c5
 11156 3fae 3D       		.uleb128 0x3d
 11157 3faf 6900     		.ascii	"i\000"
 11158 3fb1 01       		.byte	0x1
 11159 3fb2 DF       		.byte	0xdf
 11160 3fb3 2C000000 		.4byte	0x2c
 11161 3fb7 B9030000 		.4byte	.LLST16
 11162 3fbb 36       		.uleb128 0x36
 11163 3fbc 90000000 		.4byte	.Ldebug_ranges0+0x90
 11164 3fc0 3D       		.uleb128 0x3d
 11165 3fc1 6D736700 		.ascii	"msg\000"
 11166 3fc5 01       		.byte	0x1
 11167 3fc6 E0       		.byte	0xe0
 11168 3fc7 08540000 		.4byte	0x5408
 11169 3fcb E5030000 		.4byte	.LLST17
 11170 3fcf 47       		.uleb128 0x47
 11171 3fd0 0E540000 		.4byte	0x540e
 11172 3fd4 38080000 		.4byte	.LBB87
 11173 3fd8 B0000000 		.4byte	.Ldebug_ranges0+0xb0
 11174 3fdc 01       		.byte	0x1
 11175 3fdd E2       		.byte	0xe2
 11176 3fde FC3F0000 		.4byte	0x3ffc
 11177 3fe2 43       		.uleb128 0x43
 11178 3fe3 1F540000 		.4byte	0x541f
 11179 3fe7 0E040000 		.4byte	.LLST18
 11180 3feb 48       		.uleb128 0x48
 11181 3fec 2C540000 		.4byte	0x542c
 11182 3ff0 38080000 		.4byte	.LBB89
 11183 3ff4 C8000000 		.4byte	.Ldebug_ranges0+0xc8
 11184 3ff8 03       		.byte	0x3
 11185 3ff9 0B01     		.2byte	0x10b
 11186 3ffb 00       		.byte	0
 11187 3ffc 41       		.uleb128 0x41
 11188 3ffd 0E540000 		.4byte	0x540e
 11189 4001 8E080000 		.4byte	.LBB95
 11190 4005 06000000 		.4byte	.LBE95-.LBB95
 11191 4009 01       		.byte	0x1
 11192 400a E5       		.byte	0xe5
 11193 400b 29400000 		.4byte	0x4029
 11194 400f 43       		.uleb128 0x43
 11195 4010 1F540000 		.4byte	0x541f
 11196 4014 22040000 		.4byte	.LLST19
 11197 4018 49       		.uleb128 0x49
 11198 4019 2C540000 		.4byte	0x542c
 11199 401d 90080000 		.4byte	.LBB97
ARM GAS  C:\Users\CHRIST~1\AppData\Local\Temp\ccVm3NB4.s 			page 208


 11200 4021 02000000 		.4byte	.LBE97-.LBB97
 11201 4025 03       		.byte	0x3
 11202 4026 0B01     		.2byte	0x10b
 11203 4028 00       		.byte	0
 11204 4029 3F       		.uleb128 0x3f
 11205 402a 54080000 		.4byte	.LVL177
 11206 402e 0B550000 		.4byte	0x550b
 11207 4032 3D400000 		.4byte	0x403d
 11208 4036 39       		.uleb128 0x39
 11209 4037 01       		.uleb128 0x1
 11210 4038 50       		.byte	0x50
 11211 4039 02       		.uleb128 0x2
 11212 403a 76       		.byte	0x76
 11213 403b 00       		.sleb128 0
 11214 403c 00       		.byte	0
 11215 403d 3F       		.uleb128 0x3f
 11216 403e 86080000 		.4byte	.LVL182
 11217 4042 BE540000 		.4byte	0x54be
 11218 4046 54400000 		.4byte	0x4054
 11219 404a 39       		.uleb128 0x39
 11220 404b 01       		.uleb128 0x1
 11221 404c 50       		.byte	0x50
 11222 404d 05       		.uleb128 0x5
 11223 404e 03       		.byte	0x3
 11224 404f F8060000 		.4byte	.LC80
 11225 4053 00       		.byte	0
 11226 4054 3F       		.uleb128 0x3f
 11227 4055 8E080000 		.4byte	.LVL183
 11228 4059 BE540000 		.4byte	0x54be
 11229 405d 6B400000 		.4byte	0x406b
 11230 4061 39       		.uleb128 0x39
 11231 4062 01       		.uleb128 0x1
 11232 4063 50       		.byte	0x50
 11233 4064 05       		.uleb128 0x5
 11234 4065 03       		.byte	0x3
 11235 4066 10070000 		.4byte	.LC81
 11236 406a 00       		.byte	0
 11237 406b 3F       		.uleb128 0x3f
 11238 406c B6080000 		.4byte	.LVL186
 11239 4070 BE540000 		.4byte	0x54be
 11240 4074 82400000 		.4byte	0x4082
 11241 4078 39       		.uleb128 0x39
 11242 4079 01       		.uleb128 0x1
 11243 407a 50       		.byte	0x50
 11244 407b 05       		.uleb128 0x5
 11245 407c 03       		.byte	0x3
 11246 407d 28070000 		.4byte	.LC82
 11247 4081 00       		.byte	0
 11248 4082 3F       		.uleb128 0x3f
 11249 4083 C6080000 		.4byte	.LVL188
 11250 4087 BE540000 		.4byte	0x54be
 11251 408b 99400000 		.4byte	0x4099
 11252 408f 39       		.uleb128 0x39
 11253 4090 01       		.uleb128 0x1
 11254 4091 50       		.byte	0x50
 11255 4092 05       		.uleb128 0x5
 11256 4093 03       		.byte	0x3
ARM GAS  C:\Users\CHRIST~1\AppData\Local\Temp\ccVm3NB4.s 			page 209


 11257 4094 44070000 		.4byte	.LC83
 11258 4098 00       		.byte	0
 11259 4099 3F       		.uleb128 0x3f
 11260 409a D6080000 		.4byte	.LVL190
 11261 409e BE540000 		.4byte	0x54be
 11262 40a2 B0400000 		.4byte	0x40b0
 11263 40a6 39       		.uleb128 0x39
 11264 40a7 01       		.uleb128 0x1
 11265 40a8 50       		.byte	0x50
 11266 40a9 05       		.uleb128 0x5
 11267 40aa 03       		.byte	0x3
 11268 40ab 60070000 		.4byte	.LC84
 11269 40af 00       		.byte	0
 11270 40b0 38       		.uleb128 0x38
 11271 40b1 E6080000 		.4byte	.LVL192
 11272 40b5 BE540000 		.4byte	0x54be
 11273 40b9 39       		.uleb128 0x39
 11274 40ba 01       		.uleb128 0x1
 11275 40bb 50       		.byte	0x50
 11276 40bc 05       		.uleb128 0x5
 11277 40bd 03       		.byte	0x3
 11278 40be 7C070000 		.4byte	.LC85
 11279 40c2 00       		.byte	0
 11280 40c3 00       		.byte	0
 11281 40c4 00       		.byte	0
 11282 40c5 46       		.uleb128 0x46
 11283 40c6 60000000 		.4byte	.Ldebug_ranges0+0x60
 11284 40ca F3410000 		.4byte	0x41f3
 11285 40ce 31       		.uleb128 0x31
 11286 40cf 59170000 		.4byte	.LASF353
 11287 40d3 01       		.byte	0x1
 11288 40d4 ED       		.byte	0xed
 11289 40d5 25000000 		.4byte	0x25
 11290 40d9 03       		.uleb128 0x3
 11291 40da 91       		.byte	0x91
 11292 40db 9C7D     		.sleb128 -356
 11293 40dd 3E       		.uleb128 0x3e
 11294 40de 7E070000 		.4byte	.LBB81
 11295 40e2 66000000 		.4byte	.LBE81-.LBB81
 11296 40e6 B8410000 		.4byte	0x41b8
 11297 40ea 3C       		.uleb128 0x3c
 11298 40eb 3B020000 		.4byte	.LASF843
 11299 40ef 01       		.byte	0x1
 11300 40f0 F2       		.byte	0xf2
 11301 40f1 44100000 		.4byte	0x1044
 11302 40f5 36040000 		.4byte	.LLST15
 11303 40f9 31       		.uleb128 0x31
 11304 40fa 35230000 		.4byte	.LASF149
 11305 40fe 01       		.byte	0x1
 11306 40ff F6       		.byte	0xf6
 11307 4100 25000000 		.4byte	0x25
 11308 4104 03       		.uleb128 0x3
 11309 4105 91       		.byte	0x91
 11310 4106 A07D     		.sleb128 -352
 11311 4108 31       		.uleb128 0x31
 11312 4109 671F0000 		.4byte	.LASF844
 11313 410d 01       		.byte	0x1
ARM GAS  C:\Users\CHRIST~1\AppData\Local\Temp\ccVm3NB4.s 			page 210


 11314 410e F7       		.byte	0xf7
 11315 410f 25000000 		.4byte	0x25
 11316 4113 03       		.uleb128 0x3
 11317 4114 91       		.byte	0x91
 11318 4115 A47D     		.sleb128 -348
 11319 4117 31       		.uleb128 0x31
 11320 4118 75270000 		.4byte	.LASF845
 11321 411c 01       		.byte	0x1
 11322 411d F8       		.byte	0xf8
 11323 411e 06160000 		.4byte	0x1606
 11324 4122 03       		.uleb128 0x3
 11325 4123 91       		.byte	0x91
 11326 4124 987D     		.sleb128 -360
 11327 4126 3F       		.uleb128 0x3f
 11328 4127 8C070000 		.4byte	.LVL158
 11329 412b 16550000 		.4byte	0x5516
 11330 412f 3A410000 		.4byte	0x413a
 11331 4133 39       		.uleb128 0x39
 11332 4134 01       		.uleb128 0x1
 11333 4135 50       		.byte	0x50
 11334 4136 02       		.uleb128 0x2
 11335 4137 74       		.byte	0x74
 11336 4138 00       		.sleb128 0
 11337 4139 00       		.byte	0
 11338 413a 3F       		.uleb128 0x3f
 11339 413b A6070000 		.4byte	.LVL159
 11340 413f 21550000 		.4byte	0x5521
 11341 4143 62410000 		.4byte	0x4162
 11342 4147 39       		.uleb128 0x39
 11343 4148 01       		.uleb128 0x1
 11344 4149 50       		.byte	0x50
 11345 414a 01       		.uleb128 0x1
 11346 414b 31       		.byte	0x31
 11347 414c 39       		.uleb128 0x39
 11348 414d 01       		.uleb128 0x1
 11349 414e 51       		.byte	0x51
 11350 414f 03       		.uleb128 0x3
 11351 4150 91       		.byte	0x91
 11352 4151 A07D     		.sleb128 -352
 11353 4153 39       		.uleb128 0x39
 11354 4154 01       		.uleb128 0x1
 11355 4155 52       		.byte	0x52
 11356 4156 03       		.uleb128 0x3
 11357 4157 91       		.byte	0x91
 11358 4158 A47D     		.sleb128 -348
 11359 415a 39       		.uleb128 0x39
 11360 415b 01       		.uleb128 0x1
 11361 415c 53       		.byte	0x53
 11362 415d 03       		.uleb128 0x3
 11363 415e 91       		.byte	0x91
 11364 415f 987D     		.sleb128 -360
 11365 4161 00       		.byte	0
 11366 4162 3F       		.uleb128 0x3f
 11367 4163 AE070000 		.4byte	.LVL160
 11368 4167 16550000 		.4byte	0x5516
 11369 416b 76410000 		.4byte	0x4176
 11370 416f 39       		.uleb128 0x39
ARM GAS  C:\Users\CHRIST~1\AppData\Local\Temp\ccVm3NB4.s 			page 211


 11371 4170 01       		.uleb128 0x1
 11372 4171 50       		.byte	0x50
 11373 4172 02       		.uleb128 0x2
 11374 4173 74       		.byte	0x74
 11375 4174 00       		.sleb128 0
 11376 4175 00       		.byte	0
 11377 4176 3F       		.uleb128 0x3f
 11378 4177 BE070000 		.4byte	.LVL162
 11379 417b BE540000 		.4byte	0x54be
 11380 417f 8D410000 		.4byte	0x418d
 11381 4183 39       		.uleb128 0x39
 11382 4184 01       		.uleb128 0x1
 11383 4185 50       		.byte	0x50
 11384 4186 05       		.uleb128 0x5
 11385 4187 03       		.byte	0x3
 11386 4188 AC070000 		.4byte	.LC87
 11387 418c 00       		.byte	0
 11388 418d 3F       		.uleb128 0x3f
 11389 418e CE070000 		.4byte	.LVL164
 11390 4192 BE540000 		.4byte	0x54be
 11391 4196 A4410000 		.4byte	0x41a4
 11392 419a 39       		.uleb128 0x39
 11393 419b 01       		.uleb128 0x1
 11394 419c 50       		.byte	0x50
 11395 419d 05       		.uleb128 0x5
 11396 419e 03       		.byte	0x3
 11397 419f BC070000 		.4byte	.LC88
 11398 41a3 00       		.byte	0
 11399 41a4 38       		.uleb128 0x38
 11400 41a5 E4070000 		.4byte	.LVL165
 11401 41a9 BE540000 		.4byte	0x54be
 11402 41ad 39       		.uleb128 0x39
 11403 41ae 01       		.uleb128 0x1
 11404 41af 50       		.byte	0x50
 11405 41b0 05       		.uleb128 0x5
 11406 41b1 03       		.byte	0x3
 11407 41b2 CC070000 		.4byte	.LC89
 11408 41b6 00       		.byte	0
 11409 41b7 00       		.byte	0
 11410 41b8 3F       		.uleb128 0x3f
 11411 41b9 54070000 		.4byte	.LVL154
 11412 41bd F5540000 		.4byte	0x54f5
 11413 41c1 D6410000 		.4byte	0x41d6
 11414 41c5 39       		.uleb128 0x39
 11415 41c6 01       		.uleb128 0x1
 11416 41c7 51       		.byte	0x51
 11417 41c8 05       		.uleb128 0x5
 11418 41c9 03       		.byte	0x3
 11419 41ca F0040000 		.4byte	.LC63
 11420 41ce 39       		.uleb128 0x39
 11421 41cf 01       		.uleb128 0x1
 11422 41d0 52       		.byte	0x52
 11423 41d1 03       		.uleb128 0x3
 11424 41d2 91       		.byte	0x91
 11425 41d3 9C7D     		.sleb128 -356
 11426 41d5 00       		.byte	0
 11427 41d6 40       		.uleb128 0x40
ARM GAS  C:\Users\CHRIST~1\AppData\Local\Temp\ccVm3NB4.s 			page 212


 11428 41d7 7A070000 		.4byte	.LVL156
 11429 41db 2C550000 		.4byte	0x552c
 11430 41df 38       		.uleb128 0x38
 11431 41e0 28080000 		.4byte	.LVL171
 11432 41e4 BE540000 		.4byte	0x54be
 11433 41e8 39       		.uleb128 0x39
 11434 41e9 01       		.uleb128 0x1
 11435 41ea 50       		.byte	0x50
 11436 41eb 05       		.uleb128 0x5
 11437 41ec 03       		.byte	0x3
 11438 41ed DC070000 		.4byte	.LC90
 11439 41f1 00       		.byte	0
 11440 41f2 00       		.byte	0
 11441 41f3 3E       		.uleb128 0x3e
 11442 41f4 9A050000 		.4byte	.LBB77
 11443 41f8 26010000 		.4byte	.LBE77-.LBB77
 11444 41fc 81420000 		.4byte	0x4281
 11445 4200 4A       		.uleb128 0x4a
 11446 4201 59170000 		.4byte	.LASF353
 11447 4205 01       		.byte	0x1
 11448 4206 0C01     		.2byte	0x10c
 11449 4208 25000000 		.4byte	0x25
 11450 420c 03       		.uleb128 0x3
 11451 420d 91       		.byte	0x91
 11452 420e A47D     		.sleb128 -348
 11453 4210 3F       		.uleb128 0x3f
 11454 4211 AA050000 		.4byte	.LVL133
 11455 4215 F5540000 		.4byte	0x54f5
 11456 4219 2D420000 		.4byte	0x422d
 11457 421d 39       		.uleb128 0x39
 11458 421e 01       		.uleb128 0x1
 11459 421f 51       		.byte	0x51
 11460 4220 05       		.uleb128 0x5
 11461 4221 03       		.byte	0x3
 11462 4222 F0040000 		.4byte	.LC63
 11463 4226 39       		.uleb128 0x39
 11464 4227 01       		.uleb128 0x1
 11465 4228 52       		.byte	0x52
 11466 4229 02       		.uleb128 0x2
 11467 422a 75       		.byte	0x75
 11468 422b 00       		.sleb128 0
 11469 422c 00       		.byte	0
 11470 422d 3F       		.uleb128 0x3f
 11471 422e D2050000 		.4byte	.LVL135
 11472 4232 16550000 		.4byte	0x5516
 11473 4236 41420000 		.4byte	0x4241
 11474 423a 39       		.uleb128 0x39
 11475 423b 01       		.uleb128 0x1
 11476 423c 50       		.byte	0x50
 11477 423d 02       		.uleb128 0x2
 11478 423e 74       		.byte	0x74
 11479 423f 00       		.sleb128 0
 11480 4240 00       		.byte	0
 11481 4241 3F       		.uleb128 0x3f
 11482 4242 DE050000 		.4byte	.LVL136
 11483 4246 37550000 		.4byte	0x5537
 11484 424a 56420000 		.4byte	0x4256
ARM GAS  C:\Users\CHRIST~1\AppData\Local\Temp\ccVm3NB4.s 			page 213


 11485 424e 39       		.uleb128 0x39
 11486 424f 01       		.uleb128 0x1
 11487 4250 50       		.byte	0x50
 11488 4251 03       		.uleb128 0x3
 11489 4252 0A       		.byte	0xa
 11490 4253 D007     		.2byte	0x7d0
 11491 4255 00       		.byte	0
 11492 4256 3F       		.uleb128 0x3f
 11493 4257 F0050000 		.4byte	.LVL138
 11494 425b BE540000 		.4byte	0x54be
 11495 425f 6D420000 		.4byte	0x426d
 11496 4263 39       		.uleb128 0x39
 11497 4264 01       		.uleb128 0x1
 11498 4265 50       		.byte	0x50
 11499 4266 05       		.uleb128 0x5
 11500 4267 03       		.byte	0x3
 11501 4268 28080000 		.4byte	.LC93
 11502 426c 00       		.byte	0
 11503 426d 38       		.uleb128 0x38
 11504 426e F6050000 		.4byte	.LVL139
 11505 4272 16550000 		.4byte	0x5516
 11506 4276 39       		.uleb128 0x39
 11507 4277 01       		.uleb128 0x1
 11508 4278 50       		.byte	0x50
 11509 4279 05       		.uleb128 0x5
 11510 427a 03       		.byte	0x3
 11511 427b 00000000 		.4byte	.LANCHOR1
 11512 427f 00       		.byte	0
 11513 4280 00       		.byte	0
 11514 4281 3E       		.uleb128 0x3e
 11515 4282 FC080000 		.4byte	.LBB102
 11516 4286 04010000 		.4byte	.LBE102-.LBB102
 11517 428a 43430000 		.4byte	0x4343
 11518 428e 4A       		.uleb128 0x4a
 11519 428f F31D0000 		.4byte	.LASF356
 11520 4293 01       		.byte	0x1
 11521 4294 1E01     		.2byte	0x11e
 11522 4296 25000000 		.4byte	0x25
 11523 429a 03       		.uleb128 0x3
 11524 429b 91       		.byte	0x91
 11525 429c A07D     		.sleb128 -352
 11526 429e 3E       		.uleb128 0x3e
 11527 429f 2A090000 		.4byte	.LBB103
 11528 42a3 44000000 		.4byte	.LBE103-.LBB103
 11529 42a7 28430000 		.4byte	0x4328
 11530 42ab 4A       		.uleb128 0x4a
 11531 42ac D2070000 		.4byte	.LASF846
 11532 42b0 01       		.byte	0x1
 11533 42b1 2601     		.2byte	0x126
 11534 42b3 25000000 		.4byte	0x25
 11535 42b7 03       		.uleb128 0x3
 11536 42b8 91       		.byte	0x91
 11537 42b9 A47D     		.sleb128 -348
 11538 42bb 37       		.uleb128 0x37
 11539 42bc 696E6400 		.ascii	"ind\000"
 11540 42c0 01       		.byte	0x1
 11541 42c1 2701     		.2byte	0x127
ARM GAS  C:\Users\CHRIST~1\AppData\Local\Temp\ccVm3NB4.s 			page 214


 11542 42c3 25000000 		.4byte	0x25
 11543 42c7 49040000 		.4byte	.LLST20
 11544 42cb 3F       		.uleb128 0x3f
 11545 42cc 3C090000 		.4byte	.LVL196
 11546 42d0 16550000 		.4byte	0x5516
 11547 42d4 E2420000 		.4byte	0x42e2
 11548 42d8 39       		.uleb128 0x39
 11549 42d9 01       		.uleb128 0x1
 11550 42da 50       		.byte	0x50
 11551 42db 05       		.uleb128 0x5
 11552 42dc 03       		.byte	0x3
 11553 42dd 00000000 		.4byte	.LANCHOR0
 11554 42e1 00       		.byte	0
 11555 42e2 3F       		.uleb128 0x3f
 11556 42e3 48090000 		.4byte	.LVL197
 11557 42e7 42550000 		.4byte	0x5542
 11558 42eb FD420000 		.4byte	0x42fd
 11559 42ef 39       		.uleb128 0x39
 11560 42f0 01       		.uleb128 0x1
 11561 42f1 50       		.byte	0x50
 11562 42f2 02       		.uleb128 0x2
 11563 42f3 08       		.byte	0x8
 11564 42f4 C8       		.byte	0xc8
 11565 42f5 39       		.uleb128 0x39
 11566 42f6 01       		.uleb128 0x1
 11567 42f7 51       		.byte	0x51
 11568 42f8 03       		.uleb128 0x3
 11569 42f9 91       		.byte	0x91
 11570 42fa A47D     		.sleb128 -348
 11571 42fc 00       		.byte	0
 11572 42fd 3F       		.uleb128 0x3f
 11573 42fe 68090000 		.4byte	.LVL201
 11574 4302 BE540000 		.4byte	0x54be
 11575 4306 14430000 		.4byte	0x4314
 11576 430a 39       		.uleb128 0x39
 11577 430b 01       		.uleb128 0x1
 11578 430c 50       		.byte	0x50
 11579 430d 05       		.uleb128 0x5
 11580 430e 03       		.byte	0x3
 11581 430f 4C080000 		.4byte	.LC95
 11582 4313 00       		.byte	0
 11583 4314 38       		.uleb128 0x38
 11584 4315 6E090000 		.4byte	.LVL202
 11585 4319 16550000 		.4byte	0x5516
 11586 431d 39       		.uleb128 0x39
 11587 431e 01       		.uleb128 0x1
 11588 431f 50       		.byte	0x50
 11589 4320 05       		.uleb128 0x5
 11590 4321 03       		.byte	0x3
 11591 4322 00000000 		.4byte	.LANCHOR1
 11592 4326 00       		.byte	0
 11593 4327 00       		.byte	0
 11594 4328 38       		.uleb128 0x38
 11595 4329 0A090000 		.4byte	.LVL195
 11596 432d F5540000 		.4byte	0x54f5
 11597 4331 39       		.uleb128 0x39
 11598 4332 01       		.uleb128 0x1
ARM GAS  C:\Users\CHRIST~1\AppData\Local\Temp\ccVm3NB4.s 			page 215


 11599 4333 51       		.byte	0x51
 11600 4334 05       		.uleb128 0x5
 11601 4335 03       		.byte	0x3
 11602 4336 F0040000 		.4byte	.LC63
 11603 433a 39       		.uleb128 0x39
 11604 433b 01       		.uleb128 0x1
 11605 433c 52       		.byte	0x52
 11606 433d 03       		.uleb128 0x3
 11607 433e 91       		.byte	0x91
 11608 433f A07D     		.sleb128 -352
 11609 4341 00       		.byte	0
 11610 4342 00       		.byte	0
 11611 4343 3E       		.uleb128 0x3e
 11612 4344 120A0000 		.4byte	.LBB104
 11613 4348 90000000 		.4byte	.LBE104-.LBB104
 11614 434c 34440000 		.4byte	0x4434
 11615 4350 4A       		.uleb128 0x4a
 11616 4351 59170000 		.4byte	.LASF353
 11617 4355 01       		.byte	0x1
 11618 4356 3301     		.2byte	0x133
 11619 4358 25000000 		.4byte	0x25
 11620 435c 03       		.uleb128 0x3
 11621 435d 91       		.byte	0x91
 11622 435e 947D     		.sleb128 -364
 11623 4360 4A       		.uleb128 0x4a
 11624 4361 F31D0000 		.4byte	.LASF356
 11625 4365 01       		.byte	0x1
 11626 4366 3401     		.2byte	0x134
 11627 4368 25000000 		.4byte	0x25
 11628 436c 03       		.uleb128 0x3
 11629 436d 91       		.byte	0x91
 11630 436e 987D     		.sleb128 -360
 11631 4370 4A       		.uleb128 0x4a
 11632 4371 21010000 		.4byte	.LASF847
 11633 4375 01       		.byte	0x1
 11634 4376 3501     		.2byte	0x135
 11635 4378 25000000 		.4byte	0x25
 11636 437c 03       		.uleb128 0x3
 11637 437d 91       		.byte	0x91
 11638 437e 9C7D     		.sleb128 -356
 11639 4380 4B       		.uleb128 0x4b
 11640 4381 72657300 		.ascii	"res\000"
 11641 4385 01       		.byte	0x1
 11642 4386 3601     		.2byte	0x136
 11643 4388 25000000 		.4byte	0x25
 11644 438c 03       		.uleb128 0x3
 11645 438d 91       		.byte	0x91
 11646 438e A07D     		.sleb128 -352
 11647 4390 3E       		.uleb128 0x3e
 11648 4391 9A0A0000 		.4byte	.LBB105
 11649 4395 08000000 		.4byte	.LBE105-.LBB105
 11650 4399 BF430000 		.4byte	0x43bf
 11651 439d 4A       		.uleb128 0x4a
 11652 439e DD060000 		.4byte	.LASF848
 11653 43a2 01       		.byte	0x1
 11654 43a3 3D01     		.2byte	0x13d
 11655 43a5 25000000 		.4byte	0x25
ARM GAS  C:\Users\CHRIST~1\AppData\Local\Temp\ccVm3NB4.s 			page 216


 11656 43a9 03       		.uleb128 0x3
 11657 43aa 91       		.byte	0x91
 11658 43ab A47D     		.sleb128 -348
 11659 43ad 38       		.uleb128 0x38
 11660 43ae A00A0000 		.4byte	.LVL209
 11661 43b2 4D550000 		.4byte	0x554d
 11662 43b6 39       		.uleb128 0x39
 11663 43b7 01       		.uleb128 0x1
 11664 43b8 50       		.byte	0x50
 11665 43b9 03       		.uleb128 0x3
 11666 43ba 91       		.byte	0x91
 11667 43bb A47D     		.sleb128 -348
 11668 43bd 00       		.byte	0
 11669 43be 00       		.byte	0
 11670 43bf 3F       		.uleb128 0x3f
 11671 43c0 260A0000 		.4byte	.LVL205
 11672 43c4 F5540000 		.4byte	0x54f5
 11673 43c8 DD430000 		.4byte	0x43dd
 11674 43cc 39       		.uleb128 0x39
 11675 43cd 01       		.uleb128 0x1
 11676 43ce 51       		.byte	0x51
 11677 43cf 05       		.uleb128 0x5
 11678 43d0 03       		.byte	0x3
 11679 43d1 F0040000 		.4byte	.LC63
 11680 43d5 39       		.uleb128 0x39
 11681 43d6 01       		.uleb128 0x1
 11682 43d7 52       		.byte	0x52
 11683 43d8 03       		.uleb128 0x3
 11684 43d9 91       		.byte	0x91
 11685 43da 947D     		.sleb128 -364
 11686 43dc 00       		.byte	0
 11687 43dd 3F       		.uleb128 0x3f
 11688 43de 300A0000 		.4byte	.LVL206
 11689 43e2 F5540000 		.4byte	0x54f5
 11690 43e6 FB430000 		.4byte	0x43fb
 11691 43ea 39       		.uleb128 0x39
 11692 43eb 01       		.uleb128 0x1
 11693 43ec 51       		.byte	0x51
 11694 43ed 05       		.uleb128 0x5
 11695 43ee 03       		.byte	0x3
 11696 43ef F0040000 		.4byte	.LC63
 11697 43f3 39       		.uleb128 0x39
 11698 43f4 01       		.uleb128 0x1
 11699 43f5 52       		.byte	0x52
 11700 43f6 03       		.uleb128 0x3
 11701 43f7 91       		.byte	0x91
 11702 43f8 987D     		.sleb128 -360
 11703 43fa 00       		.byte	0
 11704 43fb 3F       		.uleb128 0x3f
 11705 43fc 3A0A0000 		.4byte	.LVL207
 11706 4400 F5540000 		.4byte	0x54f5
 11707 4404 19440000 		.4byte	0x4419
 11708 4408 39       		.uleb128 0x39
 11709 4409 01       		.uleb128 0x1
 11710 440a 51       		.byte	0x51
 11711 440b 05       		.uleb128 0x5
 11712 440c 03       		.byte	0x3
ARM GAS  C:\Users\CHRIST~1\AppData\Local\Temp\ccVm3NB4.s 			page 217


 11713 440d F0040000 		.4byte	.LC63
 11714 4411 39       		.uleb128 0x39
 11715 4412 01       		.uleb128 0x1
 11716 4413 52       		.byte	0x52
 11717 4414 03       		.uleb128 0x3
 11718 4415 91       		.byte	0x91
 11719 4416 9C7D     		.sleb128 -356
 11720 4418 00       		.byte	0
 11721 4419 38       		.uleb128 0x38
 11722 441a 440A0000 		.4byte	.LVL208
 11723 441e F5540000 		.4byte	0x54f5
 11724 4422 39       		.uleb128 0x39
 11725 4423 01       		.uleb128 0x1
 11726 4424 51       		.byte	0x51
 11727 4425 05       		.uleb128 0x5
 11728 4426 03       		.byte	0x3
 11729 4427 F0040000 		.4byte	.LC63
 11730 442b 39       		.uleb128 0x39
 11731 442c 01       		.uleb128 0x1
 11732 442d 52       		.byte	0x52
 11733 442e 03       		.uleb128 0x3
 11734 442f 91       		.byte	0x91
 11735 4430 A07D     		.sleb128 -352
 11736 4432 00       		.byte	0
 11737 4433 00       		.byte	0
 11738 4434 3E       		.uleb128 0x3e
 11739 4435 C80B0000 		.4byte	.LBB113
 11740 4439 40000000 		.4byte	.LBE113-.LBB113
 11741 443d D6440000 		.4byte	0x44d6
 11742 4441 4B       		.uleb128 0x4b
 11743 4442 72657300 		.ascii	"res\000"
 11744 4446 01       		.byte	0x1
 11745 4447 4A01     		.2byte	0x14a
 11746 4449 25000000 		.4byte	0x25
 11747 444d 03       		.uleb128 0x3
 11748 444e 91       		.byte	0x91
 11749 444f A07D     		.sleb128 -352
 11750 4451 4B       		.uleb128 0x4b
 11751 4452 696E6400 		.ascii	"ind\000"
 11752 4456 01       		.byte	0x1
 11753 4457 4B01     		.2byte	0x14b
 11754 4459 25000000 		.4byte	0x25
 11755 445d 03       		.uleb128 0x3
 11756 445e 91       		.byte	0x91
 11757 445f A47D     		.sleb128 -348
 11758 4461 3F       		.uleb128 0x3f
 11759 4462 D40B0000 		.4byte	.LVL249
 11760 4466 16550000 		.4byte	0x5516
 11761 446a 78440000 		.4byte	0x4478
 11762 446e 39       		.uleb128 0x39
 11763 446f 01       		.uleb128 0x1
 11764 4470 50       		.byte	0x50
 11765 4471 05       		.uleb128 0x5
 11766 4472 03       		.byte	0x3
 11767 4473 00000000 		.4byte	.LANCHOR0
 11768 4477 00       		.byte	0
 11769 4478 3F       		.uleb128 0x3f
ARM GAS  C:\Users\CHRIST~1\AppData\Local\Temp\ccVm3NB4.s 			page 218


 11770 4479 E20B0000 		.4byte	.LVL250
 11771 447d 58550000 		.4byte	0x5558
 11772 4481 94440000 		.4byte	0x4494
 11773 4485 39       		.uleb128 0x39
 11774 4486 01       		.uleb128 0x1
 11775 4487 50       		.byte	0x50
 11776 4488 03       		.uleb128 0x3
 11777 4489 91       		.byte	0x91
 11778 448a A07D     		.sleb128 -352
 11779 448c 39       		.uleb128 0x39
 11780 448d 01       		.uleb128 0x1
 11781 448e 51       		.byte	0x51
 11782 448f 03       		.uleb128 0x3
 11783 4490 91       		.byte	0x91
 11784 4491 A47D     		.sleb128 -348
 11785 4493 00       		.byte	0
 11786 4494 3F       		.uleb128 0x3f
 11787 4495 F20B0000 		.4byte	.LVL252
 11788 4499 BE540000 		.4byte	0x54be
 11789 449d AB440000 		.4byte	0x44ab
 11790 44a1 39       		.uleb128 0x39
 11791 44a2 01       		.uleb128 0x1
 11792 44a3 50       		.byte	0x50
 11793 44a4 05       		.uleb128 0x5
 11794 44a5 03       		.byte	0x3
 11795 44a6 A8080000 		.4byte	.LC99
 11796 44aa 00       		.byte	0
 11797 44ab 3F       		.uleb128 0x3f
 11798 44ac 020C0000 		.4byte	.LVL254
 11799 44b0 BE540000 		.4byte	0x54be
 11800 44b4 C2440000 		.4byte	0x44c2
 11801 44b8 39       		.uleb128 0x39
 11802 44b9 01       		.uleb128 0x1
 11803 44ba 50       		.byte	0x50
 11804 44bb 05       		.uleb128 0x5
 11805 44bc 03       		.byte	0x3
 11806 44bd C0080000 		.4byte	.LC100
 11807 44c1 00       		.byte	0
 11808 44c2 38       		.uleb128 0x38
 11809 44c3 080C0000 		.4byte	.LVL255
 11810 44c7 16550000 		.4byte	0x5516
 11811 44cb 39       		.uleb128 0x39
 11812 44cc 01       		.uleb128 0x1
 11813 44cd 50       		.byte	0x50
 11814 44ce 05       		.uleb128 0x5
 11815 44cf 03       		.byte	0x3
 11816 44d0 00000000 		.4byte	.LANCHOR1
 11817 44d4 00       		.byte	0
 11818 44d5 00       		.byte	0
 11819 44d6 46       		.uleb128 0x46
 11820 44d7 E0000000 		.4byte	.Ldebug_ranges0+0xe0
 11821 44db A5460000 		.4byte	0x46a5
 11822 44df 4A       		.uleb128 0x4a
 11823 44e0 F31D0000 		.4byte	.LASF356
 11824 44e4 01       		.byte	0x1
 11825 44e5 5301     		.2byte	0x153
 11826 44e7 25000000 		.4byte	0x25
ARM GAS  C:\Users\CHRIST~1\AppData\Local\Temp\ccVm3NB4.s 			page 219


 11827 44eb 03       		.uleb128 0x3
 11828 44ec 91       		.byte	0x91
 11829 44ed A47D     		.sleb128 -348
 11830 44ef 46       		.uleb128 0x46
 11831 44f0 F8000000 		.4byte	.Ldebug_ranges0+0xf8
 11832 44f4 8B460000 		.4byte	0x468b
 11833 44f8 37       		.uleb128 0x37
 11834 44f9 72657300 		.ascii	"res\000"
 11835 44fd 01       		.byte	0x1
 11836 44fe 5901     		.2byte	0x159
 11837 4500 1D110000 		.4byte	0x111d
 11838 4504 5D040000 		.4byte	.LLST21
 11839 4508 35       		.uleb128 0x35
 11840 4509 730D0000 		.4byte	.LASF849
 11841 450d 01       		.byte	0x1
 11842 450e 5C01     		.2byte	0x15c
 11843 4510 8D010000 		.4byte	0x18d
 11844 4514 71040000 		.4byte	.LLST22
 11845 4518 35       		.uleb128 0x35
 11846 4519 D70A0000 		.4byte	.LASF850
 11847 451d 01       		.byte	0x1
 11848 451e 5D01     		.2byte	0x15d
 11849 4520 25000000 		.4byte	0x25
 11850 4524 8F040000 		.4byte	.LLST23
 11851 4528 35       		.uleb128 0x35
 11852 4529 CB020000 		.4byte	.LASF851
 11853 452d 01       		.byte	0x1
 11854 452e 6601     		.2byte	0x166
 11855 4530 25000000 		.4byte	0x25
 11856 4534 AF040000 		.4byte	.LLST24
 11857 4538 35       		.uleb128 0x35
 11858 4539 33100000 		.4byte	.LASF852
 11859 453d 01       		.byte	0x1
 11860 453e 6701     		.2byte	0x167
 11861 4540 25000000 		.4byte	0x25
 11862 4544 F3040000 		.4byte	.LLST25
 11863 4548 35       		.uleb128 0x35
 11864 4549 E9010000 		.4byte	.LASF853
 11865 454d 01       		.byte	0x1
 11866 454e 6801     		.2byte	0x168
 11867 4550 25000000 		.4byte	0x25
 11868 4554 37050000 		.4byte	.LLST26
 11869 4558 35       		.uleb128 0x35
 11870 4559 5B1B0000 		.4byte	.LASF854
 11871 455d 01       		.byte	0x1
 11872 455e 6901     		.2byte	0x169
 11873 4560 25000000 		.4byte	0x25
 11874 4564 4B050000 		.4byte	.LLST27
 11875 4568 4C       		.uleb128 0x4c
 11876 4569 DD060000 		.4byte	.LASF848
 11877 456d 01       		.byte	0x1
 11878 456e 7C01     		.2byte	0x17c
 11879 4570 25000000 		.4byte	0x25
 11880 4574 46       		.uleb128 0x46
 11881 4575 10010000 		.4byte	.Ldebug_ranges0+0x110
 11882 4579 A5450000 		.4byte	0x45a5
 11883 457d 37       		.uleb128 0x37
ARM GAS  C:\Users\CHRIST~1\AppData\Local\Temp\ccVm3NB4.s 			page 220


 11884 457e 6900     		.ascii	"i\000"
 11885 4580 01       		.byte	0x1
 11886 4581 6101     		.2byte	0x161
 11887 4583 2C000000 		.4byte	0x2c
 11888 4587 8F050000 		.4byte	.LLST28
 11889 458b 40       		.uleb128 0x40
 11890 458c 4A0B0000 		.4byte	.LVL226
 11891 4590 63550000 		.4byte	0x5563
 11892 4594 38       		.uleb128 0x38
 11893 4595 500B0000 		.4byte	.LVL227
 11894 4599 6E550000 		.4byte	0x556e
 11895 459d 39       		.uleb128 0x39
 11896 459e 01       		.uleb128 0x1
 11897 459f 50       		.byte	0x50
 11898 45a0 02       		.uleb128 0x2
 11899 45a1 08       		.byte	0x8
 11900 45a2 C8       		.byte	0xc8
 11901 45a3 00       		.byte	0
 11902 45a4 00       		.byte	0
 11903 45a5 3E       		.uleb128 0x3e
 11904 45a6 680B0000 		.4byte	.LBB110
 11905 45aa 2A000000 		.4byte	.LBE110-.LBB110
 11906 45ae EB450000 		.4byte	0x45eb
 11907 45b2 37       		.uleb128 0x37
 11908 45b3 6900     		.ascii	"i\000"
 11909 45b5 01       		.byte	0x1
 11910 45b6 6A01     		.2byte	0x16a
 11911 45b8 2C000000 		.4byte	0x2c
 11912 45bc BA050000 		.4byte	.LLST29
 11913 45c0 40       		.uleb128 0x40
 11914 45c1 700B0000 		.4byte	.LVL230
 11915 45c5 79550000 		.4byte	0x5579
 11916 45c9 40       		.uleb128 0x40
 11917 45ca 780B0000 		.4byte	.LVL232
 11918 45ce 84550000 		.4byte	0x5584
 11919 45d2 40       		.uleb128 0x40
 11920 45d3 800B0000 		.4byte	.LVL234
 11921 45d7 8F550000 		.4byte	0x558f
 11922 45db 38       		.uleb128 0x38
 11923 45dc 8A0B0000 		.4byte	.LVL236
 11924 45e0 6E550000 		.4byte	0x556e
 11925 45e4 39       		.uleb128 0x39
 11926 45e5 01       		.uleb128 0x1
 11927 45e6 50       		.byte	0x50
 11928 45e7 01       		.uleb128 0x1
 11929 45e8 3A       		.byte	0x3a
 11930 45e9 00       		.byte	0
 11931 45ea 00       		.byte	0
 11932 45eb 3F       		.uleb128 0x3f
 11933 45ec B00A0000 		.4byte	.LVL212
 11934 45f0 BE540000 		.4byte	0x54be
 11935 45f4 02460000 		.4byte	0x4602
 11936 45f8 39       		.uleb128 0x39
 11937 45f9 01       		.uleb128 0x1
 11938 45fa 50       		.byte	0x50
 11939 45fb 05       		.uleb128 0x5
 11940 45fc 03       		.byte	0x3
ARM GAS  C:\Users\CHRIST~1\AppData\Local\Temp\ccVm3NB4.s 			page 221


 11941 45fd 84080000 		.4byte	.LC97
 11942 4601 00       		.byte	0
 11943 4602 3F       		.uleb128 0x3f
 11944 4603 060B0000 		.4byte	.LVL217
 11945 4607 16550000 		.4byte	0x5516
 11946 460b 16460000 		.4byte	0x4616
 11947 460f 39       		.uleb128 0x39
 11948 4610 01       		.uleb128 0x1
 11949 4611 50       		.byte	0x50
 11950 4612 02       		.uleb128 0x2
 11951 4613 77       		.byte	0x77
 11952 4614 00       		.sleb128 0
 11953 4615 00       		.byte	0
 11954 4616 40       		.uleb128 0x40
 11955 4617 160B0000 		.4byte	.LVL219
 11956 461b 9A550000 		.4byte	0x559a
 11957 461f 40       		.uleb128 0x40
 11958 4620 1C0B0000 		.4byte	.LVL221
 11959 4624 A5550000 		.4byte	0x55a5
 11960 4628 40       		.uleb128 0x40
 11961 4629 240B0000 		.4byte	.LVL223
 11962 462d B0550000 		.4byte	0x55b0
 11963 4631 3F       		.uleb128 0x3f
 11964 4632 300B0000 		.4byte	.LVL224
 11965 4636 BB550000 		.4byte	0x55bb
 11966 463a 52460000 		.4byte	0x4652
 11967 463e 39       		.uleb128 0x39
 11968 463f 01       		.uleb128 0x1
 11969 4640 50       		.byte	0x50
 11970 4641 03       		.uleb128 0x3
 11971 4642 0A       		.byte	0xa
 11972 4643 60EA     		.2byte	0xea60
 11973 4645 39       		.uleb128 0x39
 11974 4646 02       		.uleb128 0x2
 11975 4647 90       		.byte	0x90
 11976 4648 40       		.uleb128 0x40
 11977 4649 07       		.uleb128 0x7
 11978 464a F4       		.byte	0xf4
 11979 464b 25       		.uleb128 0x25
 11980 464c 04       		.byte	0x4
 11981 464d 00000000 		.4byte	0
 11982 4651 00       		.byte	0
 11983 4652 40       		.uleb128 0x40
 11984 4653 960B0000 		.4byte	.LVL239
 11985 4657 C6550000 		.4byte	0x55c6
 11986 465b 3F       		.uleb128 0x3f
 11987 465c 9C0B0000 		.4byte	.LVL240
 11988 4660 16550000 		.4byte	0x5516
 11989 4664 72460000 		.4byte	0x4672
 11990 4668 39       		.uleb128 0x39
 11991 4669 01       		.uleb128 0x1
 11992 466a 50       		.byte	0x50
 11993 466b 05       		.uleb128 0x5
 11994 466c 03       		.byte	0x3
 11995 466d 00000000 		.4byte	.LANCHOR1
 11996 4671 00       		.byte	0
 11997 4672 38       		.uleb128 0x38
ARM GAS  C:\Users\CHRIST~1\AppData\Local\Temp\ccVm3NB4.s 			page 222


 11998 4673 A60B0000 		.4byte	.LVL241
 11999 4677 BB550000 		.4byte	0x55bb
 12000 467b 39       		.uleb128 0x39
 12001 467c 01       		.uleb128 0x1
 12002 467d 50       		.byte	0x50
 12003 467e 02       		.uleb128 0x2
 12004 467f 77       		.byte	0x77
 12005 4680 00       		.sleb128 0
 12006 4681 39       		.uleb128 0x39
 12007 4682 02       		.uleb128 0x2
 12008 4683 90       		.byte	0x90
 12009 4684 40       		.uleb128 0x40
 12010 4685 03       		.uleb128 0x3
 12011 4686 F5       		.byte	0xf5
 12012 4687 55       		.uleb128 0x55
 12013 4688 25       		.uleb128 0x25
 12014 4689 00       		.byte	0
 12015 468a 00       		.byte	0
 12016 468b 38       		.uleb128 0x38
 12017 468c E80A0000 		.4byte	.LVL216
 12018 4690 F5540000 		.4byte	0x54f5
 12019 4694 39       		.uleb128 0x39
 12020 4695 01       		.uleb128 0x1
 12021 4696 51       		.byte	0x51
 12022 4697 05       		.uleb128 0x5
 12023 4698 03       		.byte	0x3
 12024 4699 F0040000 		.4byte	.LC63
 12025 469d 39       		.uleb128 0x39
 12026 469e 01       		.uleb128 0x1
 12027 469f 52       		.byte	0x52
 12028 46a0 02       		.uleb128 0x2
 12029 46a1 75       		.byte	0x75
 12030 46a2 00       		.sleb128 0
 12031 46a3 00       		.byte	0
 12032 46a4 00       		.byte	0
 12033 46a5 46       		.uleb128 0x46
 12034 46a6 48000000 		.4byte	.Ldebug_ranges0+0x48
 12035 46aa 2B470000 		.4byte	0x472b
 12036 46ae 4A       		.uleb128 0x4a
 12037 46af 59170000 		.4byte	.LASF353
 12038 46b3 01       		.byte	0x1
 12039 46b4 2002     		.2byte	0x220
 12040 46b6 25000000 		.4byte	0x25
 12041 46ba 03       		.uleb128 0x3
 12042 46bb 91       		.byte	0x91
 12043 46bc A07D     		.sleb128 -352
 12044 46be 4A       		.uleb128 0x4a
 12045 46bf DB230000 		.4byte	.LASF855
 12046 46c3 01       		.byte	0x1
 12047 46c4 2102     		.2byte	0x221
 12048 46c6 25000000 		.4byte	0x25
 12049 46ca 03       		.uleb128 0x3
 12050 46cb 91       		.byte	0x91
 12051 46cc A47D     		.sleb128 -348
 12052 46ce 3F       		.uleb128 0x3f
 12053 46cf 84050000 		.4byte	.LVL130
 12054 46d3 BE540000 		.4byte	0x54be
ARM GAS  C:\Users\CHRIST~1\AppData\Local\Temp\ccVm3NB4.s 			page 223


 12055 46d7 E5460000 		.4byte	0x46e5
 12056 46db 39       		.uleb128 0x39
 12057 46dc 01       		.uleb128 0x1
 12058 46dd 50       		.byte	0x50
 12059 46de 05       		.uleb128 0x5
 12060 46df 03       		.byte	0x3
 12061 46e0 20060000 		.4byte	.LC72
 12062 46e4 00       		.byte	0
 12063 46e5 3F       		.uleb128 0x3f
 12064 46e6 AE0C0000 		.4byte	.LVL267
 12065 46ea F5540000 		.4byte	0x54f5
 12066 46ee 03470000 		.4byte	0x4703
 12067 46f2 39       		.uleb128 0x39
 12068 46f3 01       		.uleb128 0x1
 12069 46f4 51       		.byte	0x51
 12070 46f5 05       		.uleb128 0x5
 12071 46f6 03       		.byte	0x3
 12072 46f7 F0040000 		.4byte	.LC63
 12073 46fb 39       		.uleb128 0x39
 12074 46fc 01       		.uleb128 0x1
 12075 46fd 52       		.byte	0x52
 12076 46fe 03       		.uleb128 0x3
 12077 46ff 91       		.byte	0x91
 12078 4700 A07D     		.sleb128 -352
 12079 4702 00       		.byte	0
 12080 4703 3F       		.uleb128 0x3f
 12081 4704 B80C0000 		.4byte	.LVL268
 12082 4708 F5540000 		.4byte	0x54f5
 12083 470c 21470000 		.4byte	0x4721
 12084 4710 39       		.uleb128 0x39
 12085 4711 01       		.uleb128 0x1
 12086 4712 51       		.byte	0x51
 12087 4713 05       		.uleb128 0x5
 12088 4714 03       		.byte	0x3
 12089 4715 F0040000 		.4byte	.LC63
 12090 4719 39       		.uleb128 0x39
 12091 471a 01       		.uleb128 0x1
 12092 471b 52       		.byte	0x52
 12093 471c 03       		.uleb128 0x3
 12094 471d 91       		.byte	0x91
 12095 471e A47D     		.sleb128 -348
 12096 4720 00       		.byte	0
 12097 4721 40       		.uleb128 0x40
 12098 4722 DC0C0000 		.4byte	.LVL269
 12099 4726 D1550000 		.4byte	0x55d1
 12100 472a 00       		.byte	0
 12101 472b 46       		.uleb128 0x46
 12102 472c 58010000 		.4byte	.Ldebug_ranges0+0x158
 12103 4730 88470000 		.4byte	0x4788
 12104 4734 37       		.uleb128 0x37
 12105 4735 6900     		.ascii	"i\000"
 12106 4737 01       		.byte	0x1
 12107 4738 9A02     		.2byte	0x29a
 12108 473a 2C000000 		.4byte	0x2c
 12109 473e E4050000 		.4byte	.LLST32
 12110 4742 3F       		.uleb128 0x3f
 12111 4743 B40F0000 		.4byte	.LVL349
ARM GAS  C:\Users\CHRIST~1\AppData\Local\Temp\ccVm3NB4.s 			page 224


 12112 4747 BE540000 		.4byte	0x54be
 12113 474b 56470000 		.4byte	0x4756
 12114 474f 39       		.uleb128 0x39
 12115 4750 01       		.uleb128 0x1
 12116 4751 50       		.byte	0x50
 12117 4752 02       		.uleb128 0x2
 12118 4753 79       		.byte	0x79
 12119 4754 00       		.sleb128 0
 12120 4755 00       		.byte	0
 12121 4756 3F       		.uleb128 0x3f
 12122 4757 C00F0000 		.4byte	.LVL350
 12123 475b BE540000 		.4byte	0x54be
 12124 475f 6A470000 		.4byte	0x476a
 12125 4763 39       		.uleb128 0x39
 12126 4764 01       		.uleb128 0x1
 12127 4765 50       		.byte	0x50
 12128 4766 02       		.uleb128 0x2
 12129 4767 77       		.byte	0x77
 12130 4768 00       		.sleb128 0
 12131 4769 00       		.byte	0
 12132 476a 3F       		.uleb128 0x3f
 12133 476b DC0F0000 		.4byte	.LVL355
 12134 476f BE540000 		.4byte	0x54be
 12135 4773 7E470000 		.4byte	0x477e
 12136 4777 39       		.uleb128 0x39
 12137 4778 01       		.uleb128 0x1
 12138 4779 50       		.byte	0x50
 12139 477a 02       		.uleb128 0x2
 12140 477b 78       		.byte	0x78
 12141 477c 00       		.sleb128 0
 12142 477d 00       		.byte	0
 12143 477e 40       		.uleb128 0x40
 12144 477f E40F0000 		.4byte	.LVL356
 12145 4783 BE540000 		.4byte	0x54be
 12146 4787 00       		.byte	0
 12147 4788 46       		.uleb128 0x46
 12148 4789 28010000 		.4byte	.Ldebug_ranges0+0x128
 12149 478d FA470000 		.4byte	0x47fa
 12150 4791 35       		.uleb128 0x35
 12151 4792 CA140000 		.4byte	.LASF856
 12152 4796 01       		.byte	0x1
 12153 4797 AA02     		.2byte	0x2aa
 12154 4799 06160000 		.4byte	0x1606
 12155 479d 0E060000 		.4byte	.LLST30
 12156 47a1 46       		.uleb128 0x46
 12157 47a2 40010000 		.4byte	.Ldebug_ranges0+0x140
 12158 47a6 E0470000 		.4byte	0x47e0
 12159 47aa 37       		.uleb128 0x37
 12160 47ab 6900     		.ascii	"i\000"
 12161 47ad 01       		.byte	0x1
 12162 47ae AB02     		.2byte	0x2ab
 12163 47b0 2C000000 		.4byte	0x2c
 12164 47b4 2E060000 		.4byte	.LLST31
 12165 47b8 3F       		.uleb128 0x3f
 12166 47b9 0E0D0000 		.4byte	.LVL273
 12167 47bd 9D540000 		.4byte	0x549d
 12168 47c1 CC470000 		.4byte	0x47cc
ARM GAS  C:\Users\CHRIST~1\AppData\Local\Temp\ccVm3NB4.s 			page 225


 12169 47c5 39       		.uleb128 0x39
 12170 47c6 01       		.uleb128 0x1
 12171 47c7 50       		.byte	0x50
 12172 47c8 02       		.uleb128 0x2
 12173 47c9 75       		.byte	0x75
 12174 47ca 00       		.sleb128 0
 12175 47cb 00       		.byte	0
 12176 47cc 4D       		.uleb128 0x4d
 12177 47cd 440E0000 		.4byte	.LVL290
 12178 47d1 39       		.uleb128 0x39
 12179 47d2 01       		.uleb128 0x1
 12180 47d3 50       		.byte	0x50
 12181 47d4 02       		.uleb128 0x2
 12182 47d5 74       		.byte	0x74
 12183 47d6 00       		.sleb128 0
 12184 47d7 39       		.uleb128 0x39
 12185 47d8 01       		.uleb128 0x1
 12186 47d9 51       		.byte	0x51
 12187 47da 03       		.uleb128 0x3
 12188 47db 91       		.byte	0x91
 12189 47dc C07D     		.sleb128 -320
 12190 47de 00       		.byte	0
 12191 47df 00       		.byte	0
 12192 47e0 38       		.uleb128 0x38
 12193 47e1 220D0000 		.4byte	.LVL276
 12194 47e5 BE540000 		.4byte	0x54be
 12195 47e9 39       		.uleb128 0x39
 12196 47ea 01       		.uleb128 0x1
 12197 47eb 50       		.byte	0x50
 12198 47ec 05       		.uleb128 0x5
 12199 47ed 03       		.byte	0x3
 12200 47ee 30110000 		.4byte	.LC161
 12201 47f2 39       		.uleb128 0x39
 12202 47f3 01       		.uleb128 0x1
 12203 47f4 51       		.byte	0x51
 12204 47f5 02       		.uleb128 0x2
 12205 47f6 75       		.byte	0x75
 12206 47f7 00       		.sleb128 0
 12207 47f8 00       		.byte	0
 12208 47f9 00       		.byte	0
 12209 47fa 3F       		.uleb128 0x3f
 12210 47fb 10000000 		.4byte	.LVL1
 12211 47ff DC550000 		.4byte	0x55dc
 12212 4803 18480000 		.4byte	0x4818
 12213 4807 39       		.uleb128 0x39
 12214 4808 01       		.uleb128 0x1
 12215 4809 50       		.byte	0x50
 12216 480a 03       		.uleb128 0x3
 12217 480b F3       		.byte	0xf3
 12218 480c 01       		.uleb128 0x1
 12219 480d 50       		.byte	0x50
 12220 480e 39       		.uleb128 0x39
 12221 480f 01       		.uleb128 0x1
 12222 4810 51       		.byte	0x51
 12223 4811 05       		.uleb128 0x5
 12224 4812 03       		.byte	0x3
 12225 4813 18000000 		.4byte	.LC4
ARM GAS  C:\Users\CHRIST~1\AppData\Local\Temp\ccVm3NB4.s 			page 226


 12226 4817 00       		.byte	0
 12227 4818 3F       		.uleb128 0x3f
 12228 4819 2E000000 		.4byte	.LVL5
 12229 481d DC550000 		.4byte	0x55dc
 12230 4821 31480000 		.4byte	0x4831
 12231 4825 39       		.uleb128 0x39
 12232 4826 01       		.uleb128 0x1
 12233 4827 50       		.byte	0x50
 12234 4828 01       		.uleb128 0x1
 12235 4829 30       		.byte	0x30
 12236 482a 39       		.uleb128 0x39
 12237 482b 01       		.uleb128 0x1
 12238 482c 51       		.byte	0x51
 12239 482d 02       		.uleb128 0x2
 12240 482e 76       		.byte	0x76
 12241 482f 00       		.sleb128 0
 12242 4830 00       		.byte	0
 12243 4831 40       		.uleb128 0x40
 12244 4832 3A000000 		.4byte	.LVL7
 12245 4836 E7550000 		.4byte	0x55e7
 12246 483a 3F       		.uleb128 0x3f
 12247 483b 46000000 		.4byte	.LVL8
 12248 483f F2550000 		.4byte	0x55f2
 12249 4843 58480000 		.4byte	0x4858
 12250 4847 39       		.uleb128 0x39
 12251 4848 01       		.uleb128 0x1
 12252 4849 50       		.byte	0x50
 12253 484a 05       		.uleb128 0x5
 12254 484b 03       		.byte	0x3
 12255 484c 00000000 		.4byte	.LANCHOR0
 12256 4850 39       		.uleb128 0x39
 12257 4851 01       		.uleb128 0x1
 12258 4852 52       		.byte	0x52
 12259 4853 03       		.uleb128 0x3
 12260 4854 0A       		.byte	0xa
 12261 4855 7001     		.2byte	0x170
 12262 4857 00       		.byte	0
 12263 4858 3F       		.uleb128 0x3f
 12264 4859 52000000 		.4byte	.LVL9
 12265 485d F2550000 		.4byte	0x55f2
 12266 4861 7F480000 		.4byte	0x487f
 12267 4865 39       		.uleb128 0x39
 12268 4866 01       		.uleb128 0x1
 12269 4867 50       		.byte	0x50
 12270 4868 05       		.uleb128 0x5
 12271 4869 03       		.byte	0x3
 12272 486a 00000000 		.4byte	.LANCHOR1
 12273 486e 39       		.uleb128 0x39
 12274 486f 01       		.uleb128 0x1
 12275 4870 51       		.byte	0x51
 12276 4871 05       		.uleb128 0x5
 12277 4872 03       		.byte	0x3
 12278 4873 00000000 		.4byte	.LANCHOR0
 12279 4877 39       		.uleb128 0x39
 12280 4878 01       		.uleb128 0x1
 12281 4879 52       		.byte	0x52
 12282 487a 03       		.uleb128 0x3
ARM GAS  C:\Users\CHRIST~1\AppData\Local\Temp\ccVm3NB4.s 			page 227


 12283 487b 0A       		.byte	0xa
 12284 487c 7001     		.2byte	0x170
 12285 487e 00       		.byte	0
 12286 487f 3F       		.uleb128 0x3f
 12287 4880 5C000000 		.4byte	.LVL10
 12288 4884 9D540000 		.4byte	0x549d
 12289 4888 9C480000 		.4byte	0x489c
 12290 488c 39       		.uleb128 0x39
 12291 488d 01       		.uleb128 0x1
 12292 488e 50       		.byte	0x50
 12293 488f 02       		.uleb128 0x2
 12294 4890 75       		.byte	0x75
 12295 4891 00       		.sleb128 0
 12296 4892 39       		.uleb128 0x39
 12297 4893 01       		.uleb128 0x1
 12298 4894 51       		.byte	0x51
 12299 4895 05       		.uleb128 0x5
 12300 4896 03       		.byte	0x3
 12301 4897 34000000 		.4byte	.LC6
 12302 489b 00       		.byte	0
 12303 489c 3F       		.uleb128 0x3f
 12304 489d 68000000 		.4byte	.LVL11
 12305 48a1 9D540000 		.4byte	0x549d
 12306 48a5 B9480000 		.4byte	0x48b9
 12307 48a9 39       		.uleb128 0x39
 12308 48aa 01       		.uleb128 0x1
 12309 48ab 50       		.byte	0x50
 12310 48ac 02       		.uleb128 0x2
 12311 48ad 75       		.byte	0x75
 12312 48ae 00       		.sleb128 0
 12313 48af 39       		.uleb128 0x39
 12314 48b0 01       		.uleb128 0x1
 12315 48b1 51       		.byte	0x51
 12316 48b2 05       		.uleb128 0x5
 12317 48b3 03       		.byte	0x3
 12318 48b4 44000000 		.4byte	.LC8
 12319 48b8 00       		.byte	0
 12320 48b9 3F       		.uleb128 0x3f
 12321 48ba 74000000 		.4byte	.LVL12
 12322 48be 9D540000 		.4byte	0x549d
 12323 48c2 D6480000 		.4byte	0x48d6
 12324 48c6 39       		.uleb128 0x39
 12325 48c7 01       		.uleb128 0x1
 12326 48c8 50       		.byte	0x50
 12327 48c9 02       		.uleb128 0x2
 12328 48ca 75       		.byte	0x75
 12329 48cb 00       		.sleb128 0
 12330 48cc 39       		.uleb128 0x39
 12331 48cd 01       		.uleb128 0x1
 12332 48ce 51       		.byte	0x51
 12333 48cf 05       		.uleb128 0x5
 12334 48d0 03       		.byte	0x3
 12335 48d1 5C000000 		.4byte	.LC10
 12336 48d5 00       		.byte	0
 12337 48d6 3F       		.uleb128 0x3f
 12338 48d7 80000000 		.4byte	.LVL13
 12339 48db 9D540000 		.4byte	0x549d
ARM GAS  C:\Users\CHRIST~1\AppData\Local\Temp\ccVm3NB4.s 			page 228


 12340 48df F3480000 		.4byte	0x48f3
 12341 48e3 39       		.uleb128 0x39
 12342 48e4 01       		.uleb128 0x1
 12343 48e5 50       		.byte	0x50
 12344 48e6 02       		.uleb128 0x2
 12345 48e7 75       		.byte	0x75
 12346 48e8 00       		.sleb128 0
 12347 48e9 39       		.uleb128 0x39
 12348 48ea 01       		.uleb128 0x1
 12349 48eb 51       		.byte	0x51
 12350 48ec 05       		.uleb128 0x5
 12351 48ed 03       		.byte	0x3
 12352 48ee E0000000 		.4byte	.LC14
 12353 48f2 00       		.byte	0
 12354 48f3 3F       		.uleb128 0x3f
 12355 48f4 8C000000 		.4byte	.LVL14
 12356 48f8 9D540000 		.4byte	0x549d
 12357 48fc 10490000 		.4byte	0x4910
 12358 4900 39       		.uleb128 0x39
 12359 4901 01       		.uleb128 0x1
 12360 4902 50       		.byte	0x50
 12361 4903 02       		.uleb128 0x2
 12362 4904 75       		.byte	0x75
 12363 4905 00       		.sleb128 0
 12364 4906 39       		.uleb128 0x39
 12365 4907 01       		.uleb128 0x1
 12366 4908 51       		.byte	0x51
 12367 4909 05       		.uleb128 0x5
 12368 490a 03       		.byte	0x3
 12369 490b 04010000 		.4byte	.LC16
 12370 490f 00       		.byte	0
 12371 4910 3F       		.uleb128 0x3f
 12372 4911 9A000000 		.4byte	.LVL15
 12373 4915 9D540000 		.4byte	0x549d
 12374 4919 2D490000 		.4byte	0x492d
 12375 491d 39       		.uleb128 0x39
 12376 491e 01       		.uleb128 0x1
 12377 491f 50       		.byte	0x50
 12378 4920 02       		.uleb128 0x2
 12379 4921 75       		.byte	0x75
 12380 4922 00       		.sleb128 0
 12381 4923 39       		.uleb128 0x39
 12382 4924 01       		.uleb128 0x1
 12383 4925 51       		.byte	0x51
 12384 4926 05       		.uleb128 0x5
 12385 4927 03       		.byte	0x3
 12386 4928 5C010000 		.4byte	.LC20
 12387 492c 00       		.byte	0
 12388 492d 3F       		.uleb128 0x3f
 12389 492e A8000000 		.4byte	.LVL16
 12390 4932 9D540000 		.4byte	0x549d
 12391 4936 4A490000 		.4byte	0x494a
 12392 493a 39       		.uleb128 0x39
 12393 493b 01       		.uleb128 0x1
 12394 493c 50       		.byte	0x50
 12395 493d 02       		.uleb128 0x2
 12396 493e 75       		.byte	0x75
ARM GAS  C:\Users\CHRIST~1\AppData\Local\Temp\ccVm3NB4.s 			page 229


 12397 493f 00       		.sleb128 0
 12398 4940 39       		.uleb128 0x39
 12399 4941 01       		.uleb128 0x1
 12400 4942 51       		.byte	0x51
 12401 4943 05       		.uleb128 0x5
 12402 4944 03       		.byte	0x3
 12403 4945 0C020000 		.4byte	.LC25
 12404 4949 00       		.byte	0
 12405 494a 3F       		.uleb128 0x3f
 12406 494b B6000000 		.4byte	.LVL17
 12407 494f 9D540000 		.4byte	0x549d
 12408 4953 67490000 		.4byte	0x4967
 12409 4957 39       		.uleb128 0x39
 12410 4958 01       		.uleb128 0x1
 12411 4959 50       		.byte	0x50
 12412 495a 02       		.uleb128 0x2
 12413 495b 75       		.byte	0x75
 12414 495c 00       		.sleb128 0
 12415 495d 39       		.uleb128 0x39
 12416 495e 01       		.uleb128 0x1
 12417 495f 51       		.byte	0x51
 12418 4960 05       		.uleb128 0x5
 12419 4961 03       		.byte	0x3
 12420 4962 18020000 		.4byte	.LC27
 12421 4966 00       		.byte	0
 12422 4967 3F       		.uleb128 0x3f
 12423 4968 C4000000 		.4byte	.LVL18
 12424 496c 9D540000 		.4byte	0x549d
 12425 4970 84490000 		.4byte	0x4984
 12426 4974 39       		.uleb128 0x39
 12427 4975 01       		.uleb128 0x1
 12428 4976 50       		.byte	0x50
 12429 4977 02       		.uleb128 0x2
 12430 4978 75       		.byte	0x75
 12431 4979 00       		.sleb128 0
 12432 497a 39       		.uleb128 0x39
 12433 497b 01       		.uleb128 0x1
 12434 497c 51       		.byte	0x51
 12435 497d 05       		.uleb128 0x5
 12436 497e 03       		.byte	0x3
 12437 497f C8030000 		.4byte	.LC44
 12438 4983 00       		.byte	0
 12439 4984 3F       		.uleb128 0x3f
 12440 4985 D2000000 		.4byte	.LVL19
 12441 4989 9D540000 		.4byte	0x549d
 12442 498d A1490000 		.4byte	0x49a1
 12443 4991 39       		.uleb128 0x39
 12444 4992 01       		.uleb128 0x1
 12445 4993 50       		.byte	0x50
 12446 4994 02       		.uleb128 0x2
 12447 4995 75       		.byte	0x75
 12448 4996 00       		.sleb128 0
 12449 4997 39       		.uleb128 0x39
 12450 4998 01       		.uleb128 0x1
 12451 4999 51       		.byte	0x51
 12452 499a 05       		.uleb128 0x5
 12453 499b 03       		.byte	0x3
ARM GAS  C:\Users\CHRIST~1\AppData\Local\Temp\ccVm3NB4.s 			page 230


 12454 499c E8030000 		.4byte	.LC46
 12455 49a0 00       		.byte	0
 12456 49a1 3F       		.uleb128 0x3f
 12457 49a2 E0000000 		.4byte	.LVL20
 12458 49a6 9D540000 		.4byte	0x549d
 12459 49aa BE490000 		.4byte	0x49be
 12460 49ae 39       		.uleb128 0x39
 12461 49af 01       		.uleb128 0x1
 12462 49b0 50       		.byte	0x50
 12463 49b1 02       		.uleb128 0x2
 12464 49b2 75       		.byte	0x75
 12465 49b3 00       		.sleb128 0
 12466 49b4 39       		.uleb128 0x39
 12467 49b5 01       		.uleb128 0x1
 12468 49b6 51       		.byte	0x51
 12469 49b7 05       		.uleb128 0x5
 12470 49b8 03       		.byte	0x3
 12471 49b9 08040000 		.4byte	.LC48
 12472 49bd 00       		.byte	0
 12473 49be 3F       		.uleb128 0x3f
 12474 49bf EE000000 		.4byte	.LVL21
 12475 49c3 9D540000 		.4byte	0x549d
 12476 49c7 DB490000 		.4byte	0x49db
 12477 49cb 39       		.uleb128 0x39
 12478 49cc 01       		.uleb128 0x1
 12479 49cd 50       		.byte	0x50
 12480 49ce 02       		.uleb128 0x2
 12481 49cf 75       		.byte	0x75
 12482 49d0 00       		.sleb128 0
 12483 49d1 39       		.uleb128 0x39
 12484 49d2 01       		.uleb128 0x1
 12485 49d3 51       		.byte	0x51
 12486 49d4 05       		.uleb128 0x5
 12487 49d5 03       		.byte	0x3
 12488 49d6 C0040000 		.4byte	.LC60
 12489 49da 00       		.byte	0
 12490 49db 3F       		.uleb128 0x3f
 12491 49dc FC000000 		.4byte	.LVL22
 12492 49e0 9D540000 		.4byte	0x549d
 12493 49e4 F8490000 		.4byte	0x49f8
 12494 49e8 39       		.uleb128 0x39
 12495 49e9 01       		.uleb128 0x1
 12496 49ea 50       		.byte	0x50
 12497 49eb 02       		.uleb128 0x2
 12498 49ec 75       		.byte	0x75
 12499 49ed 00       		.sleb128 0
 12500 49ee 39       		.uleb128 0x39
 12501 49ef 01       		.uleb128 0x1
 12502 49f0 51       		.byte	0x51
 12503 49f1 05       		.uleb128 0x5
 12504 49f2 03       		.byte	0x3
 12505 49f3 E0040000 		.4byte	.LC62
 12506 49f7 00       		.byte	0
 12507 49f8 3F       		.uleb128 0x3f
 12508 49f9 0E010000 		.4byte	.LVL23
 12509 49fd BE540000 		.4byte	0x54be
 12510 4a01 0F4A0000 		.4byte	0x4a0f
ARM GAS  C:\Users\CHRIST~1\AppData\Local\Temp\ccVm3NB4.s 			page 231


 12511 4a05 39       		.uleb128 0x39
 12512 4a06 01       		.uleb128 0x1
 12513 4a07 50       		.byte	0x50
 12514 4a08 05       		.uleb128 0x5
 12515 4a09 03       		.byte	0x3
 12516 4a0a 38060000 		.4byte	.LC73
 12517 4a0e 00       		.byte	0
 12518 4a0f 3F       		.uleb128 0x3f
 12519 4a10 16010000 		.4byte	.LVL26
 12520 4a14 BE540000 		.4byte	0x54be
 12521 4a18 264A0000 		.4byte	0x4a26
 12522 4a1c 39       		.uleb128 0x39
 12523 4a1d 01       		.uleb128 0x1
 12524 4a1e 50       		.byte	0x50
 12525 4a1f 05       		.uleb128 0x5
 12526 4a20 03       		.byte	0x3
 12527 4a21 1C000000 		.4byte	.LC5
 12528 4a25 00       		.byte	0
 12529 4a26 3F       		.uleb128 0x3f
 12530 4a27 26010000 		.4byte	.LVL28
 12531 4a2b BE540000 		.4byte	0x54be
 12532 4a2f 3D4A0000 		.4byte	0x4a3d
 12533 4a33 39       		.uleb128 0x39
 12534 4a34 01       		.uleb128 0x1
 12535 4a35 50       		.byte	0x50
 12536 4a36 05       		.uleb128 0x5
 12537 4a37 03       		.byte	0x3
 12538 4a38 3C000000 		.4byte	.LC7
 12539 4a3c 00       		.byte	0
 12540 4a3d 40       		.uleb128 0x40
 12541 4a3e 34010000 		.4byte	.LVL30
 12542 4a42 FB550000 		.4byte	0x55fb
 12543 4a46 3F       		.uleb128 0x3f
 12544 4a47 46010000 		.4byte	.LVL32
 12545 4a4b BE540000 		.4byte	0x54be
 12546 4a4f 5D4A0000 		.4byte	0x4a5d
 12547 4a53 39       		.uleb128 0x39
 12548 4a54 01       		.uleb128 0x1
 12549 4a55 50       		.byte	0x50
 12550 4a56 05       		.uleb128 0x5
 12551 4a57 03       		.byte	0x3
 12552 4a58 E4000000 		.4byte	.LC15
 12553 4a5c 00       		.byte	0
 12554 4a5d 3F       		.uleb128 0x3f
 12555 4a5e 50010000 		.4byte	.LVL33
 12556 4a62 63550000 		.4byte	0x5563
 12557 4a66 774A0000 		.4byte	0x4a77
 12558 4a6a 39       		.uleb128 0x39
 12559 4a6b 02       		.uleb128 0x2
 12560 4a6c 90       		.byte	0x90
 12561 4a6d 40       		.uleb128 0x40
 12562 4a6e 07       		.uleb128 0x7
 12563 4a6f F4       		.byte	0xf4
 12564 4a70 25       		.uleb128 0x25
 12565 4a71 04       		.byte	0x4
 12566 4a72 00000000 		.4byte	0
 12567 4a76 00       		.byte	0
ARM GAS  C:\Users\CHRIST~1\AppData\Local\Temp\ccVm3NB4.s 			page 232


 12568 4a77 3F       		.uleb128 0x3f
 12569 4a78 56010000 		.4byte	.LVL34
 12570 4a7c BE540000 		.4byte	0x54be
 12571 4a80 8E4A0000 		.4byte	0x4a8e
 12572 4a84 39       		.uleb128 0x39
 12573 4a85 01       		.uleb128 0x1
 12574 4a86 50       		.byte	0x50
 12575 4a87 05       		.uleb128 0x5
 12576 4a88 03       		.byte	0x3
 12577 4a89 4C000000 		.4byte	.LC9
 12578 4a8d 00       		.byte	0
 12579 4a8e 40       		.uleb128 0x40
 12580 4a8f 64010000 		.4byte	.LVL36
 12581 4a93 06560000 		.4byte	0x5606
 12582 4a97 3F       		.uleb128 0x3f
 12583 4a98 7E010000 		.4byte	.LVL38
 12584 4a9c BE540000 		.4byte	0x54be
 12585 4aa0 AE4A0000 		.4byte	0x4aae
 12586 4aa4 39       		.uleb128 0x39
 12587 4aa5 01       		.uleb128 0x1
 12588 4aa6 50       		.byte	0x50
 12589 4aa7 05       		.uleb128 0x5
 12590 4aa8 03       		.byte	0x3
 12591 4aa9 70000000 		.4byte	.LC11
 12592 4aad 00       		.byte	0
 12593 4aae 40       		.uleb128 0x40
 12594 4aaf 82010000 		.4byte	.LVL39
 12595 4ab3 11560000 		.4byte	0x5611
 12596 4ab7 3F       		.uleb128 0x3f
 12597 4ab8 98010000 		.4byte	.LVL41
 12598 4abc BE540000 		.4byte	0x54be
 12599 4ac0 CE4A0000 		.4byte	0x4ace
 12600 4ac4 39       		.uleb128 0x39
 12601 4ac5 01       		.uleb128 0x1
 12602 4ac6 50       		.byte	0x50
 12603 4ac7 05       		.uleb128 0x5
 12604 4ac8 03       		.byte	0x3
 12605 4ac9 90000000 		.4byte	.LC12
 12606 4acd 00       		.byte	0
 12607 4ace 40       		.uleb128 0x40
 12608 4acf 9C010000 		.4byte	.LVL42
 12609 4ad3 1C560000 		.4byte	0x561c
 12610 4ad7 3F       		.uleb128 0x3f
 12611 4ad8 B2010000 		.4byte	.LVL44
 12612 4adc BE540000 		.4byte	0x54be
 12613 4ae0 EE4A0000 		.4byte	0x4aee
 12614 4ae4 39       		.uleb128 0x39
 12615 4ae5 01       		.uleb128 0x1
 12616 4ae6 50       		.byte	0x50
 12617 4ae7 05       		.uleb128 0x5
 12618 4ae8 03       		.byte	0x3
 12619 4ae9 B8000000 		.4byte	.LC13
 12620 4aed 00       		.byte	0
 12621 4aee 3F       		.uleb128 0x3f
 12622 4aef C4010000 		.4byte	.LVL45
 12623 4af3 BE540000 		.4byte	0x54be
 12624 4af7 054B0000 		.4byte	0x4b05
ARM GAS  C:\Users\CHRIST~1\AppData\Local\Temp\ccVm3NB4.s 			page 233


 12625 4afb 39       		.uleb128 0x39
 12626 4afc 01       		.uleb128 0x1
 12627 4afd 50       		.byte	0x50
 12628 4afe 05       		.uleb128 0x5
 12629 4aff 03       		.byte	0x3
 12630 4b00 20020000 		.4byte	.LC28
 12631 4b04 00       		.byte	0
 12632 4b05 40       		.uleb128 0x40
 12633 4b06 3C020000 		.4byte	.LVL63
 12634 4b0a 27560000 		.4byte	0x5627
 12635 4b0e 40       		.uleb128 0x40
 12636 4b0f 40020000 		.4byte	.LVL64
 12637 4b13 DF540000 		.4byte	0x54df
 12638 4b17 3F       		.uleb128 0x3f
 12639 4b18 48020000 		.4byte	.LVL65
 12640 4b1c BE540000 		.4byte	0x54be
 12641 4b20 2E4B0000 		.4byte	0x4b2e
 12642 4b24 39       		.uleb128 0x39
 12643 4b25 01       		.uleb128 0x1
 12644 4b26 50       		.byte	0x50
 12645 4b27 05       		.uleb128 0x5
 12646 4b28 03       		.byte	0x3
 12647 4b29 14020000 		.4byte	.LC26
 12648 4b2d 00       		.byte	0
 12649 4b2e 3F       		.uleb128 0x3f
 12650 4b2f E6020000 		.4byte	.LVL66
 12651 4b33 BE540000 		.4byte	0x54be
 12652 4b37 454B0000 		.4byte	0x4b45
 12653 4b3b 39       		.uleb128 0x39
 12654 4b3c 01       		.uleb128 0x1
 12655 4b3d 50       		.byte	0x50
 12656 4b3e 05       		.uleb128 0x5
 12657 4b3f 03       		.byte	0x3
 12658 4b40 44020000 		.4byte	.LC29
 12659 4b44 00       		.byte	0
 12660 4b45 40       		.uleb128 0x40
 12661 4b46 D6030000 		.4byte	.LVL92
 12662 4b4a 84550000 		.4byte	0x5584
 12663 4b4e 3F       		.uleb128 0x3f
 12664 4b4f E8030000 		.4byte	.LVL94
 12665 4b53 BE540000 		.4byte	0x54be
 12666 4b57 654B0000 		.4byte	0x4b65
 12667 4b5b 39       		.uleb128 0x39
 12668 4b5c 01       		.uleb128 0x1
 12669 4b5d 50       		.byte	0x50
 12670 4b5e 05       		.uleb128 0x5
 12671 4b5f 03       		.byte	0x3
 12672 4b60 CC030000 		.4byte	.LC45
 12673 4b64 00       		.byte	0
 12674 4b65 40       		.uleb128 0x40
 12675 4b66 EE030000 		.4byte	.LVL95
 12676 4b6a 32560000 		.4byte	0x5632
 12677 4b6e 3F       		.uleb128 0x3f
 12678 4b6f F6030000 		.4byte	.LVL96
 12679 4b73 BE540000 		.4byte	0x54be
 12680 4b77 854B0000 		.4byte	0x4b85
 12681 4b7b 39       		.uleb128 0x39
ARM GAS  C:\Users\CHRIST~1\AppData\Local\Temp\ccVm3NB4.s 			page 234


 12682 4b7c 01       		.uleb128 0x1
 12683 4b7d 50       		.byte	0x50
 12684 4b7e 05       		.uleb128 0x5
 12685 4b7f 03       		.byte	0x3
 12686 4b80 F0030000 		.4byte	.LC47
 12687 4b84 00       		.byte	0
 12688 4b85 3F       		.uleb128 0x3f
 12689 4b86 00040000 		.4byte	.LVL97
 12690 4b8a 9D540000 		.4byte	0x549d
 12691 4b8e A24B0000 		.4byte	0x4ba2
 12692 4b92 39       		.uleb128 0x39
 12693 4b93 01       		.uleb128 0x1
 12694 4b94 50       		.byte	0x50
 12695 4b95 02       		.uleb128 0x2
 12696 4b96 75       		.byte	0x75
 12697 4b97 00       		.sleb128 0
 12698 4b98 39       		.uleb128 0x39
 12699 4b99 01       		.uleb128 0x1
 12700 4b9a 51       		.byte	0x51
 12701 4b9b 05       		.uleb128 0x5
 12702 4b9c 03       		.byte	0x3
 12703 4b9d 60060000 		.4byte	.LC74
 12704 4ba1 00       		.byte	0
 12705 4ba2 3F       		.uleb128 0x3f
 12706 4ba3 0E040000 		.4byte	.LVL98
 12707 4ba7 9D540000 		.4byte	0x549d
 12708 4bab BF4B0000 		.4byte	0x4bbf
 12709 4baf 39       		.uleb128 0x39
 12710 4bb0 01       		.uleb128 0x1
 12711 4bb1 50       		.byte	0x50
 12712 4bb2 02       		.uleb128 0x2
 12713 4bb3 75       		.byte	0x75
 12714 4bb4 00       		.sleb128 0
 12715 4bb5 39       		.uleb128 0x39
 12716 4bb6 01       		.uleb128 0x1
 12717 4bb7 51       		.byte	0x51
 12718 4bb8 05       		.uleb128 0x5
 12719 4bb9 03       		.byte	0x3
 12720 4bba BC060000 		.4byte	.LC78
 12721 4bbe 00       		.byte	0
 12722 4bbf 3F       		.uleb128 0x3f
 12723 4bc0 1E040000 		.4byte	.LVL99
 12724 4bc4 9D540000 		.4byte	0x549d
 12725 4bc8 DC4B0000 		.4byte	0x4bdc
 12726 4bcc 39       		.uleb128 0x39
 12727 4bcd 01       		.uleb128 0x1
 12728 4bce 50       		.byte	0x50
 12729 4bcf 02       		.uleb128 0x2
 12730 4bd0 75       		.byte	0x75
 12731 4bd1 00       		.sleb128 0
 12732 4bd2 39       		.uleb128 0x39
 12733 4bd3 01       		.uleb128 0x1
 12734 4bd4 51       		.byte	0x51
 12735 4bd5 05       		.uleb128 0x5
 12736 4bd6 03       		.byte	0x3
 12737 4bd7 98070000 		.4byte	.LC86
 12738 4bdb 00       		.byte	0
ARM GAS  C:\Users\CHRIST~1\AppData\Local\Temp\ccVm3NB4.s 			page 235


 12739 4bdc 3F       		.uleb128 0x3f
 12740 4bdd 30040000 		.4byte	.LVL100
 12741 4be1 BE540000 		.4byte	0x54be
 12742 4be5 F34B0000 		.4byte	0x4bf3
 12743 4be9 39       		.uleb128 0x39
 12744 4bea 01       		.uleb128 0x1
 12745 4beb 50       		.byte	0x50
 12746 4bec 05       		.uleb128 0x5
 12747 4bed 03       		.byte	0x3
 12748 4bee F4070000 		.4byte	.LC91
 12749 4bf2 00       		.byte	0
 12750 4bf3 3F       		.uleb128 0x3f
 12751 4bf4 62040000 		.4byte	.LVL102
 12752 4bf8 BE540000 		.4byte	0x54be
 12753 4bfc 0A4C0000 		.4byte	0x4c0a
 12754 4c00 39       		.uleb128 0x39
 12755 4c01 01       		.uleb128 0x1
 12756 4c02 50       		.byte	0x50
 12757 4c03 05       		.uleb128 0x5
 12758 4c04 03       		.byte	0x3
 12759 4c05 C8040000 		.4byte	.LC61
 12760 4c09 00       		.byte	0
 12761 4c0a 3F       		.uleb128 0x3f
 12762 4c0b 8E050000 		.4byte	.LVL132
 12763 4c0f 9D540000 		.4byte	0x549d
 12764 4c13 274C0000 		.4byte	0x4c27
 12765 4c17 39       		.uleb128 0x39
 12766 4c18 01       		.uleb128 0x1
 12767 4c19 50       		.byte	0x50
 12768 4c1a 02       		.uleb128 0x2
 12769 4c1b 75       		.byte	0x75
 12770 4c1c 00       		.sleb128 0
 12771 4c1d 39       		.uleb128 0x39
 12772 4c1e 01       		.uleb128 0x1
 12773 4c1f 51       		.byte	0x51
 12774 4c20 05       		.uleb128 0x5
 12775 4c21 03       		.byte	0x3
 12776 4c22 1C080000 		.4byte	.LC92
 12777 4c26 00       		.byte	0
 12778 4c27 3F       		.uleb128 0x3f
 12779 4c28 46080000 		.4byte	.LVL174
 12780 4c2c BE540000 		.4byte	0x54be
 12781 4c30 3E4C0000 		.4byte	0x4c3e
 12782 4c34 39       		.uleb128 0x39
 12783 4c35 01       		.uleb128 0x1
 12784 4c36 50       		.byte	0x50
 12785 4c37 05       		.uleb128 0x5
 12786 4c38 03       		.byte	0x3
 12787 4c39 C8060000 		.4byte	.LC79
 12788 4c3d 00       		.byte	0
 12789 4c3e 3F       		.uleb128 0x3f
 12790 4c3f F0080000 		.4byte	.LVL194
 12791 4c43 9D540000 		.4byte	0x549d
 12792 4c47 5B4C0000 		.4byte	0x4c5b
 12793 4c4b 39       		.uleb128 0x39
 12794 4c4c 01       		.uleb128 0x1
 12795 4c4d 50       		.byte	0x50
ARM GAS  C:\Users\CHRIST~1\AppData\Local\Temp\ccVm3NB4.s 			page 236


 12796 4c4e 02       		.uleb128 0x2
 12797 4c4f 75       		.byte	0x75
 12798 4c50 00       		.sleb128 0
 12799 4c51 39       		.uleb128 0x39
 12800 4c52 01       		.uleb128 0x1
 12801 4c53 51       		.byte	0x51
 12802 4c54 05       		.uleb128 0x5
 12803 4c55 03       		.byte	0x3
 12804 4c56 40080000 		.4byte	.LC94
 12805 4c5a 00       		.byte	0
 12806 4c5b 3F       		.uleb128 0x3f
 12807 4c5c 080A0000 		.4byte	.LVL204
 12808 4c60 9D540000 		.4byte	0x549d
 12809 4c64 784C0000 		.4byte	0x4c78
 12810 4c68 39       		.uleb128 0x39
 12811 4c69 01       		.uleb128 0x1
 12812 4c6a 50       		.byte	0x50
 12813 4c6b 02       		.uleb128 0x2
 12814 4c6c 75       		.byte	0x75
 12815 4c6d 00       		.sleb128 0
 12816 4c6e 39       		.uleb128 0x39
 12817 4c6f 01       		.uleb128 0x1
 12818 4c70 51       		.byte	0x51
 12819 4c71 05       		.uleb128 0x5
 12820 4c72 03       		.byte	0x3
 12821 4c73 74080000 		.4byte	.LC96
 12822 4c77 00       		.byte	0
 12823 4c78 3F       		.uleb128 0x3f
 12824 4c79 BC0A0000 		.4byte	.LVL214
 12825 4c7d 9D540000 		.4byte	0x549d
 12826 4c81 954C0000 		.4byte	0x4c95
 12827 4c85 39       		.uleb128 0x39
 12828 4c86 01       		.uleb128 0x1
 12829 4c87 50       		.byte	0x50
 12830 4c88 02       		.uleb128 0x2
 12831 4c89 75       		.byte	0x75
 12832 4c8a 00       		.sleb128 0
 12833 4c8b 39       		.uleb128 0x39
 12834 4c8c 01       		.uleb128 0x1
 12835 4c8d 51       		.byte	0x51
 12836 4c8e 05       		.uleb128 0x5
 12837 4c8f 03       		.byte	0x3
 12838 4c90 98080000 		.4byte	.LC98
 12839 4c94 00       		.byte	0
 12840 4c95 3F       		.uleb128 0x3f
 12841 4c96 CA0A0000 		.4byte	.LVL215
 12842 4c9a 9D540000 		.4byte	0x549d
 12843 4c9e B24C0000 		.4byte	0x4cb2
 12844 4ca2 39       		.uleb128 0x39
 12845 4ca3 01       		.uleb128 0x1
 12846 4ca4 50       		.byte	0x50
 12847 4ca5 02       		.uleb128 0x2
 12848 4ca6 75       		.byte	0x75
 12849 4ca7 00       		.sleb128 0
 12850 4ca8 39       		.uleb128 0x39
 12851 4ca9 01       		.uleb128 0x1
 12852 4caa 51       		.byte	0x51
ARM GAS  C:\Users\CHRIST~1\AppData\Local\Temp\ccVm3NB4.s 			page 237


 12853 4cab 05       		.uleb128 0x5
 12854 4cac 03       		.byte	0x3
 12855 4cad E0080000 		.4byte	.LC101
 12856 4cb1 00       		.byte	0
 12857 4cb2 3F       		.uleb128 0x3f
 12858 4cb3 140C0000 		.4byte	.LVL256
 12859 4cb7 9D540000 		.4byte	0x549d
 12860 4cbb CF4C0000 		.4byte	0x4ccf
 12861 4cbf 39       		.uleb128 0x39
 12862 4cc0 01       		.uleb128 0x1
 12863 4cc1 50       		.byte	0x50
 12864 4cc2 02       		.uleb128 0x2
 12865 4cc3 75       		.byte	0x75
 12866 4cc4 00       		.sleb128 0
 12867 4cc5 39       		.uleb128 0x39
 12868 4cc6 01       		.uleb128 0x1
 12869 4cc7 51       		.byte	0x51
 12870 4cc8 05       		.uleb128 0x5
 12871 4cc9 03       		.byte	0x3
 12872 4cca F4080000 		.4byte	.LC102
 12873 4cce 00       		.byte	0
 12874 4ccf 3F       		.uleb128 0x3f
 12875 4cd0 220C0000 		.4byte	.LVL257
 12876 4cd4 9D540000 		.4byte	0x549d
 12877 4cd8 EC4C0000 		.4byte	0x4cec
 12878 4cdc 39       		.uleb128 0x39
 12879 4cdd 01       		.uleb128 0x1
 12880 4cde 50       		.byte	0x50
 12881 4cdf 02       		.uleb128 0x2
 12882 4ce0 75       		.byte	0x75
 12883 4ce1 00       		.sleb128 0
 12884 4ce2 39       		.uleb128 0x39
 12885 4ce3 01       		.uleb128 0x1
 12886 4ce4 51       		.byte	0x51
 12887 4ce5 05       		.uleb128 0x5
 12888 4ce6 03       		.byte	0x3
 12889 4ce7 00090000 		.4byte	.LC103
 12890 4ceb 00       		.byte	0
 12891 4cec 3F       		.uleb128 0x3f
 12892 4ced 300C0000 		.4byte	.LVL258
 12893 4cf1 9D540000 		.4byte	0x549d
 12894 4cf5 094D0000 		.4byte	0x4d09
 12895 4cf9 39       		.uleb128 0x39
 12896 4cfa 01       		.uleb128 0x1
 12897 4cfb 50       		.byte	0x50
 12898 4cfc 02       		.uleb128 0x2
 12899 4cfd 75       		.byte	0x75
 12900 4cfe 00       		.sleb128 0
 12901 4cff 39       		.uleb128 0x39
 12902 4d00 01       		.uleb128 0x1
 12903 4d01 51       		.byte	0x51
 12904 4d02 05       		.uleb128 0x5
 12905 4d03 03       		.byte	0x3
 12906 4d04 8C090000 		.4byte	.LC109
 12907 4d08 00       		.byte	0
 12908 4d09 3F       		.uleb128 0x3f
 12909 4d0a 3E0C0000 		.4byte	.LVL259
ARM GAS  C:\Users\CHRIST~1\AppData\Local\Temp\ccVm3NB4.s 			page 238


 12910 4d0e 9D540000 		.4byte	0x549d
 12911 4d12 264D0000 		.4byte	0x4d26
 12912 4d16 39       		.uleb128 0x39
 12913 4d17 01       		.uleb128 0x1
 12914 4d18 50       		.byte	0x50
 12915 4d19 02       		.uleb128 0x2
 12916 4d1a 75       		.byte	0x75
 12917 4d1b 00       		.sleb128 0
 12918 4d1c 39       		.uleb128 0x39
 12919 4d1d 01       		.uleb128 0x1
 12920 4d1e 51       		.byte	0x51
 12921 4d1f 05       		.uleb128 0x5
 12922 4d20 03       		.byte	0x3
 12923 4d21 C8090000 		.4byte	.LC111
 12924 4d25 00       		.byte	0
 12925 4d26 3F       		.uleb128 0x3f
 12926 4d27 4C0C0000 		.4byte	.LVL260
 12927 4d2b 9D540000 		.4byte	0x549d
 12928 4d2f 434D0000 		.4byte	0x4d43
 12929 4d33 39       		.uleb128 0x39
 12930 4d34 01       		.uleb128 0x1
 12931 4d35 50       		.byte	0x50
 12932 4d36 02       		.uleb128 0x2
 12933 4d37 75       		.byte	0x75
 12934 4d38 00       		.sleb128 0
 12935 4d39 39       		.uleb128 0x39
 12936 4d3a 01       		.uleb128 0x1
 12937 4d3b 51       		.byte	0x51
 12938 4d3c 05       		.uleb128 0x5
 12939 4d3d 03       		.byte	0x3
 12940 4d3e DC090000 		.4byte	.LC112
 12941 4d42 00       		.byte	0
 12942 4d43 3F       		.uleb128 0x3f
 12943 4d44 5A0C0000 		.4byte	.LVL261
 12944 4d48 9D540000 		.4byte	0x549d
 12945 4d4c 604D0000 		.4byte	0x4d60
 12946 4d50 39       		.uleb128 0x39
 12947 4d51 01       		.uleb128 0x1
 12948 4d52 50       		.byte	0x50
 12949 4d53 02       		.uleb128 0x2
 12950 4d54 75       		.byte	0x75
 12951 4d55 00       		.sleb128 0
 12952 4d56 39       		.uleb128 0x39
 12953 4d57 01       		.uleb128 0x1
 12954 4d58 51       		.byte	0x51
 12955 4d59 05       		.uleb128 0x5
 12956 4d5a 03       		.byte	0x3
 12957 4d5b F0090000 		.4byte	.LC113
 12958 4d5f 00       		.byte	0
 12959 4d60 3F       		.uleb128 0x3f
 12960 4d61 680C0000 		.4byte	.LVL262
 12961 4d65 9D540000 		.4byte	0x549d
 12962 4d69 7D4D0000 		.4byte	0x4d7d
 12963 4d6d 39       		.uleb128 0x39
 12964 4d6e 01       		.uleb128 0x1
 12965 4d6f 50       		.byte	0x50
 12966 4d70 02       		.uleb128 0x2
ARM GAS  C:\Users\CHRIST~1\AppData\Local\Temp\ccVm3NB4.s 			page 239


 12967 4d71 75       		.byte	0x75
 12968 4d72 00       		.sleb128 0
 12969 4d73 39       		.uleb128 0x39
 12970 4d74 01       		.uleb128 0x1
 12971 4d75 51       		.byte	0x51
 12972 4d76 05       		.uleb128 0x5
 12973 4d77 03       		.byte	0x3
 12974 4d78 080A0000 		.4byte	.LC114
 12975 4d7c 00       		.byte	0
 12976 4d7d 3F       		.uleb128 0x3f
 12977 4d7e 760C0000 		.4byte	.LVL263
 12978 4d82 9D540000 		.4byte	0x549d
 12979 4d86 9A4D0000 		.4byte	0x4d9a
 12980 4d8a 39       		.uleb128 0x39
 12981 4d8b 01       		.uleb128 0x1
 12982 4d8c 50       		.byte	0x50
 12983 4d8d 02       		.uleb128 0x2
 12984 4d8e 75       		.byte	0x75
 12985 4d8f 00       		.sleb128 0
 12986 4d90 39       		.uleb128 0x39
 12987 4d91 01       		.uleb128 0x1
 12988 4d92 51       		.byte	0x51
 12989 4d93 05       		.uleb128 0x5
 12990 4d94 03       		.byte	0x3
 12991 4d95 200A0000 		.4byte	.LC115
 12992 4d99 00       		.byte	0
 12993 4d9a 3F       		.uleb128 0x3f
 12994 4d9b 820C0000 		.4byte	.LVL264
 12995 4d9f 9D540000 		.4byte	0x549d
 12996 4da3 B74D0000 		.4byte	0x4db7
 12997 4da7 39       		.uleb128 0x39
 12998 4da8 01       		.uleb128 0x1
 12999 4da9 50       		.byte	0x50
 13000 4daa 02       		.uleb128 0x2
 13001 4dab 75       		.byte	0x75
 13002 4dac 00       		.sleb128 0
 13003 4dad 39       		.uleb128 0x39
 13004 4dae 01       		.uleb128 0x1
 13005 4daf 51       		.byte	0x51
 13006 4db0 05       		.uleb128 0x5
 13007 4db1 03       		.byte	0x3
 13008 4db2 5C0A0000 		.4byte	.LC117
 13009 4db6 00       		.byte	0
 13010 4db7 3F       		.uleb128 0x3f
 13011 4db8 8E0C0000 		.4byte	.LVL265
 13012 4dbc 9D540000 		.4byte	0x549d
 13013 4dc0 D44D0000 		.4byte	0x4dd4
 13014 4dc4 39       		.uleb128 0x39
 13015 4dc5 01       		.uleb128 0x1
 13016 4dc6 50       		.byte	0x50
 13017 4dc7 02       		.uleb128 0x2
 13018 4dc8 75       		.byte	0x75
 13019 4dc9 00       		.sleb128 0
 13020 4dca 39       		.uleb128 0x39
 13021 4dcb 01       		.uleb128 0x1
 13022 4dcc 51       		.byte	0x51
 13023 4dcd 05       		.uleb128 0x5
ARM GAS  C:\Users\CHRIST~1\AppData\Local\Temp\ccVm3NB4.s 			page 240


 13024 4dce 03       		.byte	0x3
 13025 4dcf 700A0000 		.4byte	.LC118
 13026 4dd3 00       		.byte	0
 13027 4dd4 3F       		.uleb128 0x3f
 13028 4dd5 9A0C0000 		.4byte	.LVL266
 13029 4dd9 BE540000 		.4byte	0x54be
 13030 4ddd EB4D0000 		.4byte	0x4deb
 13031 4de1 39       		.uleb128 0x39
 13032 4de2 01       		.uleb128 0x1
 13033 4de3 50       		.byte	0x50
 13034 4de4 05       		.uleb128 0x5
 13035 4de5 03       		.byte	0x3
 13036 4de6 800A0000 		.4byte	.LC119
 13037 4dea 00       		.byte	0
 13038 4deb 3F       		.uleb128 0x3f
 13039 4dec E80C0000 		.4byte	.LVL270
 13040 4df0 9D540000 		.4byte	0x549d
 13041 4df4 084E0000 		.4byte	0x4e08
 13042 4df8 39       		.uleb128 0x39
 13043 4df9 01       		.uleb128 0x1
 13044 4dfa 50       		.byte	0x50
 13045 4dfb 02       		.uleb128 0x2
 13046 4dfc 75       		.byte	0x75
 13047 4dfd 00       		.sleb128 0
 13048 4dfe 39       		.uleb128 0x39
 13049 4dff 01       		.uleb128 0x1
 13050 4e00 51       		.byte	0x51
 13051 4e01 05       		.uleb128 0x5
 13052 4e02 03       		.byte	0x3
 13053 4e03 A80A0000 		.4byte	.LC120
 13054 4e07 00       		.byte	0
 13055 4e08 3F       		.uleb128 0x3f
 13056 4e09 2C0D0000 		.4byte	.LVL278
 13057 4e0d BE540000 		.4byte	0x54be
 13058 4e11 1F4E0000 		.4byte	0x4e1f
 13059 4e15 39       		.uleb128 0x39
 13060 4e16 01       		.uleb128 0x1
 13061 4e17 50       		.byte	0x50
 13062 4e18 05       		.uleb128 0x5
 13063 4e19 03       		.byte	0x3
 13064 4e1a 340A0000 		.4byte	.LC116
 13065 4e1e 00       		.byte	0
 13066 4e1f 3F       		.uleb128 0x3f
 13067 4e20 B20D0000 		.4byte	.LVL279
 13068 4e24 BE540000 		.4byte	0x54be
 13069 4e28 404E0000 		.4byte	0x4e40
 13070 4e2c 39       		.uleb128 0x39
 13071 4e2d 01       		.uleb128 0x1
 13072 4e2e 50       		.byte	0x50
 13073 4e2f 05       		.uleb128 0x5
 13074 4e30 03       		.byte	0x3
 13075 4e31 0C090000 		.4byte	.LC104
 13076 4e35 39       		.uleb128 0x39
 13077 4e36 01       		.uleb128 0x1
 13078 4e37 51       		.byte	0x51
 13079 4e38 01       		.uleb128 0x1
 13080 4e39 33       		.byte	0x33
ARM GAS  C:\Users\CHRIST~1\AppData\Local\Temp\ccVm3NB4.s 			page 241


 13081 4e3a 39       		.uleb128 0x39
 13082 4e3b 01       		.uleb128 0x1
 13083 4e3c 52       		.byte	0x52
 13084 4e3d 01       		.uleb128 0x1
 13085 4e3e 4D       		.byte	0x4d
 13086 4e3f 00       		.byte	0
 13087 4e40 3F       		.uleb128 0x3f
 13088 4e41 BA0D0000 		.4byte	.LVL280
 13089 4e45 BE540000 		.4byte	0x54be
 13090 4e49 604E0000 		.4byte	0x4e60
 13091 4e4d 39       		.uleb128 0x39
 13092 4e4e 01       		.uleb128 0x1
 13093 4e4f 50       		.byte	0x50
 13094 4e50 05       		.uleb128 0x5
 13095 4e51 03       		.byte	0x3
 13096 4e52 20090000 		.4byte	.LC106
 13097 4e56 39       		.uleb128 0x39
 13098 4e57 01       		.uleb128 0x1
 13099 4e58 51       		.byte	0x51
 13100 4e59 05       		.uleb128 0x5
 13101 4e5a 03       		.byte	0x3
 13102 4e5b 1C090000 		.4byte	.LC105
 13103 4e5f 00       		.byte	0
 13104 4e60 3F       		.uleb128 0x3f
 13105 4e61 020E0000 		.4byte	.LVL282
 13106 4e65 BE540000 		.4byte	0x54be
 13107 4e69 7E4E0000 		.4byte	0x4e7e
 13108 4e6d 39       		.uleb128 0x39
 13109 4e6e 01       		.uleb128 0x1
 13110 4e6f 50       		.byte	0x50
 13111 4e70 05       		.uleb128 0x5
 13112 4e71 03       		.byte	0x3
 13113 4e72 30090000 		.4byte	.LC107
 13114 4e76 39       		.uleb128 0x39
 13115 4e77 02       		.uleb128 0x2
 13116 4e78 7D       		.byte	0x7d
 13117 4e79 04       		.sleb128 4
 13118 4e7a 02       		.uleb128 0x2
 13119 4e7b 74       		.byte	0x74
 13120 4e7c 00       		.sleb128 0
 13121 4e7d 00       		.byte	0
 13122 4e7e 3F       		.uleb128 0x3f
 13123 4e7f 180E0000 		.4byte	.LVL283
 13124 4e83 BE540000 		.4byte	0x54be
 13125 4e87 954E0000 		.4byte	0x4e95
 13126 4e8b 39       		.uleb128 0x39
 13127 4e8c 01       		.uleb128 0x1
 13128 4e8d 50       		.byte	0x50
 13129 4e8e 05       		.uleb128 0x5
 13130 4e8f 03       		.byte	0x3
 13131 4e90 74090000 		.4byte	.LC108
 13132 4e94 00       		.byte	0
 13133 4e95 3F       		.uleb128 0x3f
 13134 4e96 1E0E0000 		.4byte	.LVL284
 13135 4e9a BE540000 		.4byte	0x54be
 13136 4e9e AC4E0000 		.4byte	0x4eac
 13137 4ea2 39       		.uleb128 0x39
ARM GAS  C:\Users\CHRIST~1\AppData\Local\Temp\ccVm3NB4.s 			page 242


 13138 4ea3 01       		.uleb128 0x1
 13139 4ea4 50       		.byte	0x50
 13140 4ea5 05       		.uleb128 0x5
 13141 4ea6 03       		.byte	0x3
 13142 4ea7 18000000 		.4byte	.LC4
 13143 4eab 00       		.byte	0
 13144 4eac 40       		.uleb128 0x40
 13145 4ead 260E0000 		.4byte	.LVL286
 13146 4eb1 3D560000 		.4byte	0x563d
 13147 4eb5 3F       		.uleb128 0x3f
 13148 4eb6 2C0E0000 		.4byte	.LVL287
 13149 4eba BE540000 		.4byte	0x54be
 13150 4ebe CC4E0000 		.4byte	0x4ecc
 13151 4ec2 39       		.uleb128 0x39
 13152 4ec3 01       		.uleb128 0x1
 13153 4ec4 50       		.byte	0x50
 13154 4ec5 05       		.uleb128 0x5
 13155 4ec6 03       		.byte	0x3
 13156 4ec7 18000000 		.4byte	.LC4
 13157 4ecb 00       		.byte	0
 13158 4ecc 3F       		.uleb128 0x3f
 13159 4ecd 360E0000 		.4byte	.LVL288
 13160 4ed1 BE540000 		.4byte	0x54be
 13161 4ed5 E34E0000 		.4byte	0x4ee3
 13162 4ed9 39       		.uleb128 0x39
 13163 4eda 01       		.uleb128 0x1
 13164 4edb 50       		.byte	0x50
 13165 4edc 05       		.uleb128 0x5
 13166 4edd 03       		.byte	0x3
 13167 4ede A0090000 		.4byte	.LC110
 13168 4ee2 00       		.byte	0
 13169 4ee3 3F       		.uleb128 0x3f
 13170 4ee4 500E0000 		.4byte	.LVL292
 13171 4ee8 BE540000 		.4byte	0x54be
 13172 4eec FA4E0000 		.4byte	0x4efa
 13173 4ef0 39       		.uleb128 0x39
 13174 4ef1 01       		.uleb128 0x1
 13175 4ef2 50       		.byte	0x50
 13176 4ef3 05       		.uleb128 0x5
 13177 4ef4 03       		.byte	0x3
 13178 4ef5 B00A0000 		.4byte	.LC121
 13179 4ef9 00       		.byte	0
 13180 4efa 3F       		.uleb128 0x3f
 13181 4efb 560E0000 		.4byte	.LVL293
 13182 4eff BE540000 		.4byte	0x54be
 13183 4f03 114F0000 		.4byte	0x4f11
 13184 4f07 39       		.uleb128 0x39
 13185 4f08 01       		.uleb128 0x1
 13186 4f09 50       		.byte	0x50
 13187 4f0a 05       		.uleb128 0x5
 13188 4f0b 03       		.byte	0x3
 13189 4f0c A80A0000 		.4byte	.LC120
 13190 4f10 00       		.byte	0
 13191 4f11 3F       		.uleb128 0x3f
 13192 4f12 5C0E0000 		.4byte	.LVL294
 13193 4f16 BE540000 		.4byte	0x54be
 13194 4f1a 284F0000 		.4byte	0x4f28
ARM GAS  C:\Users\CHRIST~1\AppData\Local\Temp\ccVm3NB4.s 			page 243


 13195 4f1e 39       		.uleb128 0x39
 13196 4f1f 01       		.uleb128 0x1
 13197 4f20 50       		.byte	0x50
 13198 4f21 05       		.uleb128 0x5
 13199 4f22 03       		.byte	0x3
 13200 4f23 C40A0000 		.4byte	.LC122
 13201 4f27 00       		.byte	0
 13202 4f28 3F       		.uleb128 0x3f
 13203 4f29 620E0000 		.4byte	.LVL295
 13204 4f2d BE540000 		.4byte	0x54be
 13205 4f31 3F4F0000 		.4byte	0x4f3f
 13206 4f35 39       		.uleb128 0x39
 13207 4f36 01       		.uleb128 0x1
 13208 4f37 50       		.byte	0x50
 13209 4f38 05       		.uleb128 0x5
 13210 4f39 03       		.byte	0x3
 13211 4f3a 34000000 		.4byte	.LC6
 13212 4f3e 00       		.byte	0
 13213 4f3f 3F       		.uleb128 0x3f
 13214 4f40 680E0000 		.4byte	.LVL296
 13215 4f44 BE540000 		.4byte	0x54be
 13216 4f48 564F0000 		.4byte	0x4f56
 13217 4f4c 39       		.uleb128 0x39
 13218 4f4d 01       		.uleb128 0x1
 13219 4f4e 50       		.byte	0x50
 13220 4f4f 05       		.uleb128 0x5
 13221 4f50 03       		.byte	0x3
 13222 4f51 D80A0000 		.4byte	.LC123
 13223 4f55 00       		.byte	0
 13224 4f56 3F       		.uleb128 0x3f
 13225 4f57 6E0E0000 		.4byte	.LVL297
 13226 4f5b BE540000 		.4byte	0x54be
 13227 4f5f 6D4F0000 		.4byte	0x4f6d
 13228 4f63 39       		.uleb128 0x39
 13229 4f64 01       		.uleb128 0x1
 13230 4f65 50       		.byte	0x50
 13231 4f66 05       		.uleb128 0x5
 13232 4f67 03       		.byte	0x3
 13233 4f68 44000000 		.4byte	.LC8
 13234 4f6c 00       		.byte	0
 13235 4f6d 3F       		.uleb128 0x3f
 13236 4f6e 740E0000 		.4byte	.LVL298
 13237 4f72 BE540000 		.4byte	0x54be
 13238 4f76 844F0000 		.4byte	0x4f84
 13239 4f7a 39       		.uleb128 0x39
 13240 4f7b 01       		.uleb128 0x1
 13241 4f7c 50       		.byte	0x50
 13242 4f7d 05       		.uleb128 0x5
 13243 4f7e 03       		.byte	0x3
 13244 4f7f 040B0000 		.4byte	.LC124
 13245 4f83 00       		.byte	0
 13246 4f84 3F       		.uleb128 0x3f
 13247 4f85 7A0E0000 		.4byte	.LVL299
 13248 4f89 BE540000 		.4byte	0x54be
 13249 4f8d 9B4F0000 		.4byte	0x4f9b
 13250 4f91 39       		.uleb128 0x39
 13251 4f92 01       		.uleb128 0x1
ARM GAS  C:\Users\CHRIST~1\AppData\Local\Temp\ccVm3NB4.s 			page 244


 13252 4f93 50       		.byte	0x50
 13253 4f94 05       		.uleb128 0x5
 13254 4f95 03       		.byte	0x3
 13255 4f96 5C000000 		.4byte	.LC10
 13256 4f9a 00       		.byte	0
 13257 4f9b 3F       		.uleb128 0x3f
 13258 4f9c 800E0000 		.4byte	.LVL300
 13259 4fa0 BE540000 		.4byte	0x54be
 13260 4fa4 B24F0000 		.4byte	0x4fb2
 13261 4fa8 39       		.uleb128 0x39
 13262 4fa9 01       		.uleb128 0x1
 13263 4faa 50       		.byte	0x50
 13264 4fab 05       		.uleb128 0x5
 13265 4fac 03       		.byte	0x3
 13266 4fad 180B0000 		.4byte	.LC125
 13267 4fb1 00       		.byte	0
 13268 4fb2 3F       		.uleb128 0x3f
 13269 4fb3 860E0000 		.4byte	.LVL301
 13270 4fb7 BE540000 		.4byte	0x54be
 13271 4fbb C94F0000 		.4byte	0x4fc9
 13272 4fbf 39       		.uleb128 0x39
 13273 4fc0 01       		.uleb128 0x1
 13274 4fc1 50       		.byte	0x50
 13275 4fc2 05       		.uleb128 0x5
 13276 4fc3 03       		.byte	0x3
 13277 4fc4 E0000000 		.4byte	.LC14
 13278 4fc8 00       		.byte	0
 13279 4fc9 3F       		.uleb128 0x3f
 13280 4fca 8C0E0000 		.4byte	.LVL302
 13281 4fce BE540000 		.4byte	0x54be
 13282 4fd2 E04F0000 		.4byte	0x4fe0
 13283 4fd6 39       		.uleb128 0x39
 13284 4fd7 01       		.uleb128 0x1
 13285 4fd8 50       		.byte	0x50
 13286 4fd9 05       		.uleb128 0x5
 13287 4fda 03       		.byte	0x3
 13288 4fdb 480B0000 		.4byte	.LC126
 13289 4fdf 00       		.byte	0
 13290 4fe0 3F       		.uleb128 0x3f
 13291 4fe1 920E0000 		.4byte	.LVL303
 13292 4fe5 BE540000 		.4byte	0x54be
 13293 4fe9 F74F0000 		.4byte	0x4ff7
 13294 4fed 39       		.uleb128 0x39
 13295 4fee 01       		.uleb128 0x1
 13296 4fef 50       		.byte	0x50
 13297 4ff0 05       		.uleb128 0x5
 13298 4ff1 03       		.byte	0x3
 13299 4ff2 04010000 		.4byte	.LC16
 13300 4ff6 00       		.byte	0
 13301 4ff7 3F       		.uleb128 0x3f
 13302 4ff8 980E0000 		.4byte	.LVL304
 13303 4ffc BE540000 		.4byte	0x54be
 13304 5000 0E500000 		.4byte	0x500e
 13305 5004 39       		.uleb128 0x39
 13306 5005 01       		.uleb128 0x1
 13307 5006 50       		.byte	0x50
 13308 5007 05       		.uleb128 0x5
ARM GAS  C:\Users\CHRIST~1\AppData\Local\Temp\ccVm3NB4.s 			page 245


 13309 5008 03       		.byte	0x3
 13310 5009 6C0B0000 		.4byte	.LC127
 13311 500d 00       		.byte	0
 13312 500e 3F       		.uleb128 0x3f
 13313 500f 9E0E0000 		.4byte	.LVL305
 13314 5013 BE540000 		.4byte	0x54be
 13315 5017 25500000 		.4byte	0x5025
 13316 501b 39       		.uleb128 0x39
 13317 501c 01       		.uleb128 0x1
 13318 501d 50       		.byte	0x50
 13319 501e 05       		.uleb128 0x5
 13320 501f 03       		.byte	0x3
 13321 5020 5C010000 		.4byte	.LC20
 13322 5024 00       		.byte	0
 13323 5025 3F       		.uleb128 0x3f
 13324 5026 A40E0000 		.4byte	.LVL306
 13325 502a BE540000 		.4byte	0x54be
 13326 502e 3C500000 		.4byte	0x503c
 13327 5032 39       		.uleb128 0x39
 13328 5033 01       		.uleb128 0x1
 13329 5034 50       		.byte	0x50
 13330 5035 05       		.uleb128 0x5
 13331 5036 03       		.byte	0x3
 13332 5037 800B0000 		.4byte	.LC128
 13333 503b 00       		.byte	0
 13334 503c 3F       		.uleb128 0x3f
 13335 503d AA0E0000 		.4byte	.LVL307
 13336 5041 BE540000 		.4byte	0x54be
 13337 5045 53500000 		.4byte	0x5053
 13338 5049 39       		.uleb128 0x39
 13339 504a 01       		.uleb128 0x1
 13340 504b 50       		.byte	0x50
 13341 504c 05       		.uleb128 0x5
 13342 504d 03       		.byte	0x3
 13343 504e 0C020000 		.4byte	.LC25
 13344 5052 00       		.byte	0
 13345 5053 3F       		.uleb128 0x3f
 13346 5054 B00E0000 		.4byte	.LVL308
 13347 5058 BE540000 		.4byte	0x54be
 13348 505c 6A500000 		.4byte	0x506a
 13349 5060 39       		.uleb128 0x39
 13350 5061 01       		.uleb128 0x1
 13351 5062 50       		.byte	0x50
 13352 5063 05       		.uleb128 0x5
 13353 5064 03       		.byte	0x3
 13354 5065 940B0000 		.4byte	.LC129
 13355 5069 00       		.byte	0
 13356 506a 3F       		.uleb128 0x3f
 13357 506b B60E0000 		.4byte	.LVL309
 13358 506f BE540000 		.4byte	0x54be
 13359 5073 81500000 		.4byte	0x5081
 13360 5077 39       		.uleb128 0x39
 13361 5078 01       		.uleb128 0x1
 13362 5079 50       		.byte	0x50
 13363 507a 05       		.uleb128 0x5
 13364 507b 03       		.byte	0x3
 13365 507c 18020000 		.4byte	.LC27
ARM GAS  C:\Users\CHRIST~1\AppData\Local\Temp\ccVm3NB4.s 			page 246


 13366 5080 00       		.byte	0
 13367 5081 3F       		.uleb128 0x3f
 13368 5082 BC0E0000 		.4byte	.LVL310
 13369 5086 BE540000 		.4byte	0x54be
 13370 508a 98500000 		.4byte	0x5098
 13371 508e 39       		.uleb128 0x39
 13372 508f 01       		.uleb128 0x1
 13373 5090 50       		.byte	0x50
 13374 5091 05       		.uleb128 0x5
 13375 5092 03       		.byte	0x3
 13376 5093 B40B0000 		.4byte	.LC130
 13377 5097 00       		.byte	0
 13378 5098 3F       		.uleb128 0x3f
 13379 5099 C20E0000 		.4byte	.LVL311
 13380 509d BE540000 		.4byte	0x54be
 13381 50a1 AF500000 		.4byte	0x50af
 13382 50a5 39       		.uleb128 0x39
 13383 50a6 01       		.uleb128 0x1
 13384 50a7 50       		.byte	0x50
 13385 50a8 05       		.uleb128 0x5
 13386 50a9 03       		.byte	0x3
 13387 50aa C8030000 		.4byte	.LC44
 13388 50ae 00       		.byte	0
 13389 50af 3F       		.uleb128 0x3f
 13390 50b0 C80E0000 		.4byte	.LVL312
 13391 50b4 BE540000 		.4byte	0x54be
 13392 50b8 C6500000 		.4byte	0x50c6
 13393 50bc 39       		.uleb128 0x39
 13394 50bd 01       		.uleb128 0x1
 13395 50be 50       		.byte	0x50
 13396 50bf 05       		.uleb128 0x5
 13397 50c0 03       		.byte	0x3
 13398 50c1 F80B0000 		.4byte	.LC131
 13399 50c5 00       		.byte	0
 13400 50c6 3F       		.uleb128 0x3f
 13401 50c7 CE0E0000 		.4byte	.LVL313
 13402 50cb BE540000 		.4byte	0x54be
 13403 50cf DD500000 		.4byte	0x50dd
 13404 50d3 39       		.uleb128 0x39
 13405 50d4 01       		.uleb128 0x1
 13406 50d5 50       		.byte	0x50
 13407 50d6 05       		.uleb128 0x5
 13408 50d7 03       		.byte	0x3
 13409 50d8 E8030000 		.4byte	.LC46
 13410 50dc 00       		.byte	0
 13411 50dd 3F       		.uleb128 0x3f
 13412 50de D40E0000 		.4byte	.LVL314
 13413 50e2 BE540000 		.4byte	0x54be
 13414 50e6 F4500000 		.4byte	0x50f4
 13415 50ea 39       		.uleb128 0x39
 13416 50eb 01       		.uleb128 0x1
 13417 50ec 50       		.byte	0x50
 13418 50ed 05       		.uleb128 0x5
 13419 50ee 03       		.byte	0x3
 13420 50ef 1C0C0000 		.4byte	.LC132
 13421 50f3 00       		.byte	0
 13422 50f4 3F       		.uleb128 0x3f
ARM GAS  C:\Users\CHRIST~1\AppData\Local\Temp\ccVm3NB4.s 			page 247


 13423 50f5 DA0E0000 		.4byte	.LVL315
 13424 50f9 BE540000 		.4byte	0x54be
 13425 50fd 0B510000 		.4byte	0x510b
 13426 5101 39       		.uleb128 0x39
 13427 5102 01       		.uleb128 0x1
 13428 5103 50       		.byte	0x50
 13429 5104 05       		.uleb128 0x5
 13430 5105 03       		.byte	0x3
 13431 5106 08040000 		.4byte	.LC48
 13432 510a 00       		.byte	0
 13433 510b 3F       		.uleb128 0x3f
 13434 510c E00E0000 		.4byte	.LVL316
 13435 5110 BE540000 		.4byte	0x54be
 13436 5114 22510000 		.4byte	0x5122
 13437 5118 39       		.uleb128 0x39
 13438 5119 01       		.uleb128 0x1
 13439 511a 50       		.byte	0x50
 13440 511b 05       		.uleb128 0x5
 13441 511c 03       		.byte	0x3
 13442 511d 380C0000 		.4byte	.LC133
 13443 5121 00       		.byte	0
 13444 5122 3F       		.uleb128 0x3f
 13445 5123 E60E0000 		.4byte	.LVL317
 13446 5127 BE540000 		.4byte	0x54be
 13447 512b 39510000 		.4byte	0x5139
 13448 512f 39       		.uleb128 0x39
 13449 5130 01       		.uleb128 0x1
 13450 5131 50       		.byte	0x50
 13451 5132 05       		.uleb128 0x5
 13452 5133 03       		.byte	0x3
 13453 5134 C0040000 		.4byte	.LC60
 13454 5138 00       		.byte	0
 13455 5139 3F       		.uleb128 0x3f
 13456 513a EC0E0000 		.4byte	.LVL318
 13457 513e BE540000 		.4byte	0x54be
 13458 5142 50510000 		.4byte	0x5150
 13459 5146 39       		.uleb128 0x39
 13460 5147 01       		.uleb128 0x1
 13461 5148 50       		.byte	0x50
 13462 5149 05       		.uleb128 0x5
 13463 514a 03       		.byte	0x3
 13464 514b 580C0000 		.4byte	.LC134
 13465 514f 00       		.byte	0
 13466 5150 3F       		.uleb128 0x3f
 13467 5151 F20E0000 		.4byte	.LVL319
 13468 5155 BE540000 		.4byte	0x54be
 13469 5159 67510000 		.4byte	0x5167
 13470 515d 39       		.uleb128 0x39
 13471 515e 01       		.uleb128 0x1
 13472 515f 50       		.byte	0x50
 13473 5160 05       		.uleb128 0x5
 13474 5161 03       		.byte	0x3
 13475 5162 740C0000 		.4byte	.LC135
 13476 5166 00       		.byte	0
 13477 5167 3F       		.uleb128 0x3f
 13478 5168 F80E0000 		.4byte	.LVL320
 13479 516c BE540000 		.4byte	0x54be
ARM GAS  C:\Users\CHRIST~1\AppData\Local\Temp\ccVm3NB4.s 			page 248


 13480 5170 7E510000 		.4byte	0x517e
 13481 5174 39       		.uleb128 0x39
 13482 5175 01       		.uleb128 0x1
 13483 5176 50       		.byte	0x50
 13484 5177 05       		.uleb128 0x5
 13485 5178 03       		.byte	0x3
 13486 5179 A00C0000 		.4byte	.LC136
 13487 517d 00       		.byte	0
 13488 517e 3F       		.uleb128 0x3f
 13489 517f FE0E0000 		.4byte	.LVL321
 13490 5183 BE540000 		.4byte	0x54be
 13491 5187 95510000 		.4byte	0x5195
 13492 518b 39       		.uleb128 0x39
 13493 518c 01       		.uleb128 0x1
 13494 518d 50       		.byte	0x50
 13495 518e 05       		.uleb128 0x5
 13496 518f 03       		.byte	0x3
 13497 5190 E40C0000 		.4byte	.LC137
 13498 5194 00       		.byte	0
 13499 5195 3F       		.uleb128 0x3f
 13500 5196 040F0000 		.4byte	.LVL322
 13501 519a BE540000 		.4byte	0x54be
 13502 519e AC510000 		.4byte	0x51ac
 13503 51a2 39       		.uleb128 0x39
 13504 51a3 01       		.uleb128 0x1
 13505 51a4 50       		.byte	0x50
 13506 51a5 05       		.uleb128 0x5
 13507 51a6 03       		.byte	0x3
 13508 51a7 200D0000 		.4byte	.LC138
 13509 51ab 00       		.byte	0
 13510 51ac 3F       		.uleb128 0x3f
 13511 51ad 0A0F0000 		.4byte	.LVL323
 13512 51b1 BE540000 		.4byte	0x54be
 13513 51b5 C3510000 		.4byte	0x51c3
 13514 51b9 39       		.uleb128 0x39
 13515 51ba 01       		.uleb128 0x1
 13516 51bb 50       		.byte	0x50
 13517 51bc 05       		.uleb128 0x5
 13518 51bd 03       		.byte	0x3
 13519 51be 60060000 		.4byte	.LC74
 13520 51c2 00       		.byte	0
 13521 51c3 3F       		.uleb128 0x3f
 13522 51c4 100F0000 		.4byte	.LVL324
 13523 51c8 BE540000 		.4byte	0x54be
 13524 51cc DA510000 		.4byte	0x51da
 13525 51d0 39       		.uleb128 0x39
 13526 51d1 01       		.uleb128 0x1
 13527 51d2 50       		.byte	0x50
 13528 51d3 05       		.uleb128 0x5
 13529 51d4 03       		.byte	0x3
 13530 51d5 480D0000 		.4byte	.LC139
 13531 51d9 00       		.byte	0
 13532 51da 3F       		.uleb128 0x3f
 13533 51db 160F0000 		.4byte	.LVL325
 13534 51df BE540000 		.4byte	0x54be
 13535 51e3 F1510000 		.4byte	0x51f1
 13536 51e7 39       		.uleb128 0x39
ARM GAS  C:\Users\CHRIST~1\AppData\Local\Temp\ccVm3NB4.s 			page 249


 13537 51e8 01       		.uleb128 0x1
 13538 51e9 50       		.byte	0x50
 13539 51ea 05       		.uleb128 0x5
 13540 51eb 03       		.byte	0x3
 13541 51ec BC060000 		.4byte	.LC78
 13542 51f0 00       		.byte	0
 13543 51f1 3F       		.uleb128 0x3f
 13544 51f2 1C0F0000 		.4byte	.LVL326
 13545 51f6 BE540000 		.4byte	0x54be
 13546 51fa 08520000 		.4byte	0x5208
 13547 51fe 39       		.uleb128 0x39
 13548 51ff 01       		.uleb128 0x1
 13549 5200 50       		.byte	0x50
 13550 5201 05       		.uleb128 0x5
 13551 5202 03       		.byte	0x3
 13552 5203 680D0000 		.4byte	.LC140
 13553 5207 00       		.byte	0
 13554 5208 3F       		.uleb128 0x3f
 13555 5209 220F0000 		.4byte	.LVL327
 13556 520d BE540000 		.4byte	0x54be
 13557 5211 1F520000 		.4byte	0x521f
 13558 5215 39       		.uleb128 0x39
 13559 5216 01       		.uleb128 0x1
 13560 5217 50       		.byte	0x50
 13561 5218 05       		.uleb128 0x5
 13562 5219 03       		.byte	0x3
 13563 521a A40D0000 		.4byte	.LC141
 13564 521e 00       		.byte	0
 13565 521f 3F       		.uleb128 0x3f
 13566 5220 280F0000 		.4byte	.LVL328
 13567 5224 BE540000 		.4byte	0x54be
 13568 5228 36520000 		.4byte	0x5236
 13569 522c 39       		.uleb128 0x39
 13570 522d 01       		.uleb128 0x1
 13571 522e 50       		.byte	0x50
 13572 522f 05       		.uleb128 0x5
 13573 5230 03       		.byte	0x3
 13574 5231 C40D0000 		.4byte	.LC142
 13575 5235 00       		.byte	0
 13576 5236 3F       		.uleb128 0x3f
 13577 5237 2E0F0000 		.4byte	.LVL329
 13578 523b BE540000 		.4byte	0x54be
 13579 523f 4D520000 		.4byte	0x524d
 13580 5243 39       		.uleb128 0x39
 13581 5244 01       		.uleb128 0x1
 13582 5245 50       		.byte	0x50
 13583 5246 05       		.uleb128 0x5
 13584 5247 03       		.byte	0x3
 13585 5248 080E0000 		.4byte	.LC143
 13586 524c 00       		.byte	0
 13587 524d 3F       		.uleb128 0x3f
 13588 524e 340F0000 		.4byte	.LVL330
 13589 5252 BE540000 		.4byte	0x54be
 13590 5256 64520000 		.4byte	0x5264
 13591 525a 39       		.uleb128 0x39
 13592 525b 01       		.uleb128 0x1
 13593 525c 50       		.byte	0x50
ARM GAS  C:\Users\CHRIST~1\AppData\Local\Temp\ccVm3NB4.s 			page 250


 13594 525d 05       		.uleb128 0x5
 13595 525e 03       		.byte	0x3
 13596 525f 200E0000 		.4byte	.LC144
 13597 5263 00       		.byte	0
 13598 5264 3F       		.uleb128 0x3f
 13599 5265 3A0F0000 		.4byte	.LVL331
 13600 5269 BE540000 		.4byte	0x54be
 13601 526d 7B520000 		.4byte	0x527b
 13602 5271 39       		.uleb128 0x39
 13603 5272 01       		.uleb128 0x1
 13604 5273 50       		.byte	0x50
 13605 5274 05       		.uleb128 0x5
 13606 5275 03       		.byte	0x3
 13607 5276 600E0000 		.4byte	.LC145
 13608 527a 00       		.byte	0
 13609 527b 3F       		.uleb128 0x3f
 13610 527c 400F0000 		.4byte	.LVL332
 13611 5280 BE540000 		.4byte	0x54be
 13612 5284 92520000 		.4byte	0x5292
 13613 5288 39       		.uleb128 0x39
 13614 5289 01       		.uleb128 0x1
 13615 528a 50       		.byte	0x50
 13616 528b 05       		.uleb128 0x5
 13617 528c 03       		.byte	0x3
 13618 528d 740E0000 		.4byte	.LC146
 13619 5291 00       		.byte	0
 13620 5292 3F       		.uleb128 0x3f
 13621 5293 460F0000 		.4byte	.LVL333
 13622 5297 BE540000 		.4byte	0x54be
 13623 529b A9520000 		.4byte	0x52a9
 13624 529f 39       		.uleb128 0x39
 13625 52a0 01       		.uleb128 0x1
 13626 52a1 50       		.byte	0x50
 13627 52a2 05       		.uleb128 0x5
 13628 52a3 03       		.byte	0x3
 13629 52a4 C80E0000 		.4byte	.LC147
 13630 52a8 00       		.byte	0
 13631 52a9 3F       		.uleb128 0x3f
 13632 52aa 4C0F0000 		.4byte	.LVL334
 13633 52ae BE540000 		.4byte	0x54be
 13634 52b2 C0520000 		.4byte	0x52c0
 13635 52b6 39       		.uleb128 0x39
 13636 52b7 01       		.uleb128 0x1
 13637 52b8 50       		.byte	0x50
 13638 52b9 05       		.uleb128 0x5
 13639 52ba 03       		.byte	0x3
 13640 52bb 000F0000 		.4byte	.LC148
 13641 52bf 00       		.byte	0
 13642 52c0 3F       		.uleb128 0x3f
 13643 52c1 520F0000 		.4byte	.LVL335
 13644 52c5 BE540000 		.4byte	0x54be
 13645 52c9 D7520000 		.4byte	0x52d7
 13646 52cd 39       		.uleb128 0x39
 13647 52ce 01       		.uleb128 0x1
 13648 52cf 50       		.byte	0x50
 13649 52d0 05       		.uleb128 0x5
 13650 52d1 03       		.byte	0x3
ARM GAS  C:\Users\CHRIST~1\AppData\Local\Temp\ccVm3NB4.s 			page 251


 13651 52d2 400F0000 		.4byte	.LC149
 13652 52d6 00       		.byte	0
 13653 52d7 3F       		.uleb128 0x3f
 13654 52d8 580F0000 		.4byte	.LVL336
 13655 52dc BE540000 		.4byte	0x54be
 13656 52e0 EE520000 		.4byte	0x52ee
 13657 52e4 39       		.uleb128 0x39
 13658 52e5 01       		.uleb128 0x1
 13659 52e6 50       		.byte	0x50
 13660 52e7 05       		.uleb128 0x5
 13661 52e8 03       		.byte	0x3
 13662 52e9 6C0F0000 		.4byte	.LC150
 13663 52ed 00       		.byte	0
 13664 52ee 3F       		.uleb128 0x3f
 13665 52ef 5E0F0000 		.4byte	.LVL337
 13666 52f3 BE540000 		.4byte	0x54be
 13667 52f7 05530000 		.4byte	0x5305
 13668 52fb 39       		.uleb128 0x39
 13669 52fc 01       		.uleb128 0x1
 13670 52fd 50       		.byte	0x50
 13671 52fe 05       		.uleb128 0x5
 13672 52ff 03       		.byte	0x3
 13673 5300 98080000 		.4byte	.LC98
 13674 5304 00       		.byte	0
 13675 5305 3F       		.uleb128 0x3f
 13676 5306 640F0000 		.4byte	.LVL338
 13677 530a BE540000 		.4byte	0x54be
 13678 530e 1C530000 		.4byte	0x531c
 13679 5312 39       		.uleb128 0x39
 13680 5313 01       		.uleb128 0x1
 13681 5314 50       		.byte	0x50
 13682 5315 05       		.uleb128 0x5
 13683 5316 03       		.byte	0x3
 13684 5317 A40F0000 		.4byte	.LC151
 13685 531b 00       		.byte	0
 13686 531c 3F       		.uleb128 0x3f
 13687 531d 6A0F0000 		.4byte	.LVL339
 13688 5321 BE540000 		.4byte	0x54be
 13689 5325 33530000 		.4byte	0x5333
 13690 5329 39       		.uleb128 0x39
 13691 532a 01       		.uleb128 0x1
 13692 532b 50       		.byte	0x50
 13693 532c 05       		.uleb128 0x5
 13694 532d 03       		.byte	0x3
 13695 532e FC0F0000 		.4byte	.LC152
 13696 5332 00       		.byte	0
 13697 5333 3F       		.uleb128 0x3f
 13698 5334 700F0000 		.4byte	.LVL340
 13699 5338 BE540000 		.4byte	0x54be
 13700 533c 4A530000 		.4byte	0x534a
 13701 5340 39       		.uleb128 0x39
 13702 5341 01       		.uleb128 0x1
 13703 5342 50       		.byte	0x50
 13704 5343 05       		.uleb128 0x5
 13705 5344 03       		.byte	0x3
 13706 5345 18100000 		.4byte	.LC153
 13707 5349 00       		.byte	0
ARM GAS  C:\Users\CHRIST~1\AppData\Local\Temp\ccVm3NB4.s 			page 252


 13708 534a 3F       		.uleb128 0x3f
 13709 534b 760F0000 		.4byte	.LVL341
 13710 534f BE540000 		.4byte	0x54be
 13711 5353 61530000 		.4byte	0x5361
 13712 5357 39       		.uleb128 0x39
 13713 5358 01       		.uleb128 0x1
 13714 5359 50       		.byte	0x50
 13715 535a 05       		.uleb128 0x5
 13716 535b 03       		.byte	0x3
 13717 535c F4080000 		.4byte	.LC102
 13718 5360 00       		.byte	0
 13719 5361 3F       		.uleb128 0x3f
 13720 5362 7C0F0000 		.4byte	.LVL342
 13721 5366 BE540000 		.4byte	0x54be
 13722 536a 78530000 		.4byte	0x5378
 13723 536e 39       		.uleb128 0x39
 13724 536f 01       		.uleb128 0x1
 13725 5370 50       		.byte	0x50
 13726 5371 05       		.uleb128 0x5
 13727 5372 03       		.byte	0x3
 13728 5373 50100000 		.4byte	.LC154
 13729 5377 00       		.byte	0
 13730 5378 3F       		.uleb128 0x3f
 13731 5379 820F0000 		.4byte	.LVL343
 13732 537d BE540000 		.4byte	0x54be
 13733 5381 8F530000 		.4byte	0x538f
 13734 5385 39       		.uleb128 0x39
 13735 5386 01       		.uleb128 0x1
 13736 5387 50       		.byte	0x50
 13737 5388 05       		.uleb128 0x5
 13738 5389 03       		.byte	0x3
 13739 538a 00090000 		.4byte	.LC103
 13740 538e 00       		.byte	0
 13741 538f 3F       		.uleb128 0x3f
 13742 5390 880F0000 		.4byte	.LVL344
 13743 5394 BE540000 		.4byte	0x54be
 13744 5398 A6530000 		.4byte	0x53a6
 13745 539c 39       		.uleb128 0x39
 13746 539d 01       		.uleb128 0x1
 13747 539e 50       		.byte	0x50
 13748 539f 05       		.uleb128 0x5
 13749 53a0 03       		.byte	0x3
 13750 53a1 74100000 		.4byte	.LC155
 13751 53a5 00       		.byte	0
 13752 53a6 3F       		.uleb128 0x3f
 13753 53a7 8E0F0000 		.4byte	.LVL345
 13754 53ab BE540000 		.4byte	0x54be
 13755 53af BD530000 		.4byte	0x53bd
 13756 53b3 39       		.uleb128 0x39
 13757 53b4 01       		.uleb128 0x1
 13758 53b5 50       		.byte	0x50
 13759 53b6 05       		.uleb128 0x5
 13760 53b7 03       		.byte	0x3
 13761 53b8 A0100000 		.4byte	.LC156
 13762 53bc 00       		.byte	0
 13763 53bd 3F       		.uleb128 0x3f
 13764 53be 940F0000 		.4byte	.LVL346
ARM GAS  C:\Users\CHRIST~1\AppData\Local\Temp\ccVm3NB4.s 			page 253


 13765 53c2 BE540000 		.4byte	0x54be
 13766 53c6 D4530000 		.4byte	0x53d4
 13767 53ca 39       		.uleb128 0x39
 13768 53cb 01       		.uleb128 0x1
 13769 53cc 50       		.byte	0x50
 13770 53cd 05       		.uleb128 0x5
 13771 53ce 03       		.byte	0x3
 13772 53cf C0100000 		.4byte	.LC157
 13773 53d3 00       		.byte	0
 13774 53d4 38       		.uleb128 0x38
 13775 53d5 D20F0000 		.4byte	.LVL353
 13776 53d9 BE540000 		.4byte	0x54be
 13777 53dd 39       		.uleb128 0x39
 13778 53de 01       		.uleb128 0x1
 13779 53df 50       		.byte	0x50
 13780 53e0 05       		.uleb128 0x5
 13781 53e1 03       		.byte	0x3
 13782 53e2 18000000 		.4byte	.LC4
 13783 53e6 00       		.byte	0
 13784 53e7 00       		.byte	0
 13785 53e8 11       		.uleb128 0x11
 13786 53e9 DC2E0000 		.4byte	0x2edc
 13787 53ed F8530000 		.4byte	0x53f8
 13788 53f1 12       		.uleb128 0x12
 13789 53f2 CB040000 		.4byte	0x4cb
 13790 53f6 3F       		.byte	0x3f
 13791 53f7 00       		.byte	0
 13792 53f8 11       		.uleb128 0x11
 13793 53f9 F40C0000 		.4byte	0xcf4
 13794 53fd 08540000 		.4byte	0x5408
 13795 5401 12       		.uleb128 0x12
 13796 5402 CB040000 		.4byte	0x4cb
 13797 5406 0F       		.byte	0xf
 13798 5407 00       		.byte	0
 13799 5408 0B       		.uleb128 0xb
 13800 5409 04       		.byte	0x4
 13801 540a 63170000 		.4byte	0x1763
 13802 540e 4E       		.uleb128 0x4e
 13803 540f 29260000 		.4byte	.LASF907
 13804 5413 03       		.byte	0x3
 13805 5414 0901     		.2byte	0x109
 13806 5416 8D010000 		.4byte	0x18d
 13807 541a 03       		.byte	0x3
 13808 541b 2C540000 		.4byte	0x542c
 13809 541f 4F       		.uleb128 0x4f
 13810 5420 59130000 		.4byte	.LASF863
 13811 5424 03       		.byte	0x3
 13812 5425 0901     		.2byte	0x109
 13813 5427 8D010000 		.4byte	0x18d
 13814 542b 00       		.byte	0
 13815 542c 50       		.uleb128 0x50
 13816 542d 26200000 		.4byte	.LASF908
 13817 5431 03       		.byte	0x3
 13818 5432 E4       		.byte	0xe4
 13819 5433 8D010000 		.4byte	0x18d
 13820 5437 03       		.byte	0x3
 13821 5438 51       		.uleb128 0x51
ARM GAS  C:\Users\CHRIST~1\AppData\Local\Temp\ccVm3NB4.s 			page 254


 13822 5439 5C230000 		.4byte	.LASF861
 13823 543d 2D       		.byte	0x2d
 13824 543e 6601     		.2byte	0x166
 13825 5440 03       		.byte	0x3
 13826 5441 53540000 		.4byte	0x5453
 13827 5445 52       		.uleb128 0x52
 13828 5446 70000000 		.4byte	.LASF857
 13829 544a 63540000 		.4byte	0x5463
 13830 544e 5C230000 		.4byte	.LASF861
 13831 5452 00       		.byte	0
 13832 5453 11       		.uleb128 0x11
 13833 5454 060D0000 		.4byte	0xd06
 13834 5458 63540000 		.4byte	0x5463
 13835 545c 12       		.uleb128 0x12
 13836 545d CB040000 		.4byte	0x4cb
 13837 5461 0B       		.byte	0xb
 13838 5462 00       		.byte	0
 13839 5463 06       		.uleb128 0x6
 13840 5464 53540000 		.4byte	0x5453
 13841 5468 53       		.uleb128 0x53
 13842 5469 1F060000 		.4byte	.LASF858
 13843 546d 2D       		.byte	0x2d
 13844 546e 5A01     		.2byte	0x15a
 13845 5470 03       		.byte	0x3
 13846 5471 53       		.uleb128 0x53
 13847 5472 00190000 		.4byte	.LASF859
 13848 5476 0E       		.byte	0xe
 13849 5477 CA01     		.2byte	0x1ca
 13850 5479 03       		.byte	0x3
 13851 547a 53       		.uleb128 0x53
 13852 547b 251B0000 		.4byte	.LASF860
 13853 547f 0E       		.byte	0xe
 13854 5480 BC01     		.2byte	0x1bc
 13855 5482 03       		.byte	0x3
 13856 5483 51       		.uleb128 0x51
 13857 5484 B8270000 		.4byte	.LASF862
 13858 5488 02       		.byte	0x2
 13859 5489 2002     		.2byte	0x220
 13860 548b 03       		.byte	0x3
 13861 548c 9D540000 		.4byte	0x549d
 13862 5490 4F       		.uleb128 0x4f
 13863 5491 040D0000 		.4byte	.LASF864
 13864 5495 02       		.byte	0x2
 13865 5496 2002     		.2byte	0x220
 13866 5498 04010000 		.4byte	0x104
 13867 549c 00       		.byte	0
 13868 549d 54       		.uleb128 0x54
 13869 549e 6A290000 		.4byte	.LASF865
 13870 54a2 6A290000 		.4byte	.LASF865
 13871 54a6 2E       		.byte	0x2e
 13872 54a7 20       		.byte	0x20
 13873 54a8 54       		.uleb128 0x54
 13874 54a9 091D0000 		.4byte	.LASF866
 13875 54ad 091D0000 		.4byte	.LASF866
 13876 54b1 2F       		.byte	0x2f
 13877 54b2 69       		.byte	0x69
 13878 54b3 54       		.uleb128 0x54
ARM GAS  C:\Users\CHRIST~1\AppData\Local\Temp\ccVm3NB4.s 			page 255


 13879 54b4 CE1D0000 		.4byte	.LASF867
 13880 54b8 CE1D0000 		.4byte	.LASF867
 13881 54bc 30       		.byte	0x30
 13882 54bd 64       		.byte	0x64
 13883 54be 54       		.uleb128 0x54
 13884 54bf 60000000 		.4byte	.LASF868
 13885 54c3 60000000 		.4byte	.LASF868
 13886 54c7 31       		.byte	0x31
 13887 54c8 1E       		.byte	0x1e
 13888 54c9 54       		.uleb128 0x54
 13889 54ca 92060000 		.4byte	.LASF869
 13890 54ce 92060000 		.4byte	.LASF869
 13891 54d2 12       		.byte	0x12
 13892 54d3 6F       		.byte	0x6f
 13893 54d4 54       		.uleb128 0x54
 13894 54d5 35280000 		.4byte	.LASF870
 13895 54d9 35280000 		.4byte	.LASF870
 13896 54dd 12       		.byte	0x12
 13897 54de 70       		.byte	0x70
 13898 54df 54       		.uleb128 0x54
 13899 54e0 450C0000 		.4byte	.LASF871
 13900 54e4 450C0000 		.4byte	.LASF871
 13901 54e8 28       		.byte	0x28
 13902 54e9 23       		.byte	0x23
 13903 54ea 54       		.uleb128 0x54
 13904 54eb 46150000 		.4byte	.LASF872
 13905 54ef 46150000 		.4byte	.LASF872
 13906 54f3 16       		.byte	0x16
 13907 54f4 A8       		.byte	0xa8
 13908 54f5 54       		.uleb128 0x54
 13909 54f6 6C0D0000 		.4byte	.LASF873
 13910 54fa 6C0D0000 		.4byte	.LASF873
 13911 54fe 32       		.byte	0x32
 13912 54ff CC       		.byte	0xcc
 13913 5500 54       		.uleb128 0x54
 13914 5501 5A160000 		.4byte	.LASF874
 13915 5505 5A160000 		.4byte	.LASF874
 13916 5509 27       		.byte	0x27
 13917 550a 42       		.byte	0x42
 13918 550b 54       		.uleb128 0x54
 13919 550c 57270000 		.4byte	.LASF875
 13920 5510 57270000 		.4byte	.LASF875
 13921 5514 33       		.byte	0x33
 13922 5515 28       		.byte	0x28
 13923 5516 54       		.uleb128 0x54
 13924 5517 5F130000 		.4byte	.LASF876
 13925 551b 5F130000 		.4byte	.LASF876
 13926 551f 28       		.byte	0x28
 13927 5520 1D       		.byte	0x1d
 13928 5521 54       		.uleb128 0x54
 13929 5522 31270000 		.4byte	.LASF877
 13930 5526 31270000 		.4byte	.LASF877
 13931 552a 34       		.byte	0x34
 13932 552b 44       		.byte	0x44
 13933 552c 54       		.uleb128 0x54
 13934 552d A30D0000 		.4byte	.LASF878
 13935 5531 A30D0000 		.4byte	.LASF878
ARM GAS  C:\Users\CHRIST~1\AppData\Local\Temp\ccVm3NB4.s 			page 256


 13936 5535 35       		.byte	0x35
 13937 5536 1D       		.byte	0x1d
 13938 5537 54       		.uleb128 0x54
 13939 5538 DE0A0000 		.4byte	.LASF879
 13940 553c DE0A0000 		.4byte	.LASF879
 13941 5540 34       		.byte	0x34
 13942 5541 45       		.byte	0x45
 13943 5542 54       		.uleb128 0x54
 13944 5543 7F2A0000 		.4byte	.LASF880
 13945 5547 7F2A0000 		.4byte	.LASF880
 13946 554b 34       		.byte	0x34
 13947 554c 46       		.byte	0x46
 13948 554d 54       		.uleb128 0x54
 13949 554e 93000000 		.4byte	.LASF881
 13950 5552 93000000 		.4byte	.LASF881
 13951 5556 16       		.byte	0x16
 13952 5557 AA       		.byte	0xaa
 13953 5558 54       		.uleb128 0x54
 13954 5559 391F0000 		.4byte	.LASF882
 13955 555d 391F0000 		.4byte	.LASF882
 13956 5561 34       		.byte	0x34
 13957 5562 47       		.byte	0x47
 13958 5563 54       		.uleb128 0x54
 13959 5564 7E270000 		.4byte	.LASF883
 13960 5568 7E270000 		.4byte	.LASF883
 13961 556c 28       		.byte	0x28
 13962 556d 25       		.byte	0x25
 13963 556e 54       		.uleb128 0x54
 13964 556f 96220000 		.4byte	.LASF884
 13965 5573 96220000 		.4byte	.LASF884
 13966 5577 36       		.byte	0x36
 13967 5578 96       		.byte	0x96
 13968 5579 54       		.uleb128 0x54
 13969 557a B71D0000 		.4byte	.LASF885
 13970 557e B71D0000 		.4byte	.LASF885
 13971 5582 34       		.byte	0x34
 13972 5583 43       		.byte	0x43
 13973 5584 54       		.uleb128 0x54
 13974 5585 101B0000 		.4byte	.LASF886
 13975 5589 101B0000 		.4byte	.LASF886
 13976 558d 28       		.byte	0x28
 13977 558e 33       		.byte	0x33
 13978 558f 54       		.uleb128 0x54
 13979 5590 7F1E0000 		.4byte	.LASF887
 13980 5594 7F1E0000 		.4byte	.LASF887
 13981 5598 28       		.byte	0x28
 13982 5599 3A       		.byte	0x3a
 13983 559a 54       		.uleb128 0x54
 13984 559b 9F100000 		.4byte	.LASF888
 13985 559f 9F100000 		.4byte	.LASF888
 13986 55a3 37       		.byte	0x37
 13987 55a4 20       		.byte	0x20
 13988 55a5 54       		.uleb128 0x54
 13989 55a6 30010000 		.4byte	.LASF889
 13990 55aa 30010000 		.4byte	.LASF889
 13991 55ae 37       		.byte	0x37
 13992 55af 21       		.byte	0x21
ARM GAS  C:\Users\CHRIST~1\AppData\Local\Temp\ccVm3NB4.s 			page 257


 13993 55b0 54       		.uleb128 0x54
 13994 55b1 88120000 		.4byte	.LASF890
 13995 55b5 88120000 		.4byte	.LASF890
 13996 55b9 37       		.byte	0x37
 13997 55ba 1E       		.byte	0x1e
 13998 55bb 54       		.uleb128 0x54
 13999 55bc C6270000 		.4byte	.LASF891
 14000 55c0 C6270000 		.4byte	.LASF891
 14001 55c4 37       		.byte	0x37
 14002 55c5 1D       		.byte	0x1d
 14003 55c6 54       		.uleb128 0x54
 14004 55c7 6D1F0000 		.4byte	.LASF892
 14005 55cb 6D1F0000 		.4byte	.LASF892
 14006 55cf 28       		.byte	0x28
 14007 55d0 2F       		.byte	0x2f
 14008 55d1 54       		.uleb128 0x54
 14009 55d2 43160000 		.4byte	.LASF893
 14010 55d6 43160000 		.4byte	.LASF893
 14011 55da 34       		.byte	0x34
 14012 55db 2A       		.byte	0x2a
 14013 55dc 54       		.uleb128 0x54
 14014 55dd 2F1B0000 		.4byte	.LASF894
 14015 55e1 2F1B0000 		.4byte	.LASF894
 14016 55e5 2E       		.byte	0x2e
 14017 55e6 2E       		.byte	0x2e
 14018 55e7 54       		.uleb128 0x54
 14019 55e8 00240000 		.4byte	.LASF895
 14020 55ec 00240000 		.4byte	.LASF895
 14021 55f0 28       		.byte	0x28
 14022 55f1 1C       		.byte	0x1c
 14023 55f2 55       		.uleb128 0x55
 14024 55f3 18060000 		.4byte	.LASF909
 14025 55f7 18060000 		.4byte	.LASF909
 14026 55fb 54       		.uleb128 0x54
 14027 55fc CC190000 		.4byte	.LASF896
 14028 5600 CC190000 		.4byte	.LASF896
 14029 5604 27       		.byte	0x27
 14030 5605 2E       		.byte	0x2e
 14031 5606 54       		.uleb128 0x54
 14032 5607 71290000 		.4byte	.LASF897
 14033 560b 71290000 		.4byte	.LASF897
 14034 560f 27       		.byte	0x27
 14035 5610 40       		.byte	0x40
 14036 5611 54       		.uleb128 0x54
 14037 5612 92260000 		.4byte	.LASF898
 14038 5616 92260000 		.4byte	.LASF898
 14039 561a 28       		.byte	0x28
 14040 561b 40       		.byte	0x40
 14041 561c 54       		.uleb128 0x54
 14042 561d DE140000 		.4byte	.LASF899
 14043 5621 DE140000 		.4byte	.LASF899
 14044 5625 28       		.byte	0x28
 14045 5626 47       		.byte	0x47
 14046 5627 54       		.uleb128 0x54
 14047 5628 54120000 		.4byte	.LASF900
 14048 562c 54120000 		.4byte	.LASF900
 14049 5630 28       		.byte	0x28
ARM GAS  C:\Users\CHRIST~1\AppData\Local\Temp\ccVm3NB4.s 			page 258


 14050 5631 22       		.byte	0x22
 14051 5632 54       		.uleb128 0x54
 14052 5633 B90D0000 		.4byte	.LASF901
 14053 5637 B90D0000 		.4byte	.LASF901
 14054 563b 28       		.byte	0x28
 14055 563c 3E       		.byte	0x3e
 14056 563d 54       		.uleb128 0x54
 14057 563e 02060000 		.4byte	.LASF902
 14058 5642 02060000 		.4byte	.LASF902
 14059 5646 34       		.byte	0x34
 14060 5647 49       		.byte	0x49
 14061 5648 00       		.byte	0
 14062              		.section	.debug_abbrev,"",%progbits
 14063              	.Ldebug_abbrev0:
 14064 0000 01       		.uleb128 0x1
 14065 0001 11       		.uleb128 0x11
 14066 0002 01       		.byte	0x1
 14067 0003 25       		.uleb128 0x25
 14068 0004 0E       		.uleb128 0xe
 14069 0005 13       		.uleb128 0x13
 14070 0006 0B       		.uleb128 0xb
 14071 0007 03       		.uleb128 0x3
 14072 0008 0E       		.uleb128 0xe
 14073 0009 1B       		.uleb128 0x1b
 14074 000a 0E       		.uleb128 0xe
 14075 000b 55       		.uleb128 0x55
 14076 000c 17       		.uleb128 0x17
 14077 000d 11       		.uleb128 0x11
 14078 000e 01       		.uleb128 0x1
 14079 000f 10       		.uleb128 0x10
 14080 0010 17       		.uleb128 0x17
 14081 0011 00       		.byte	0
 14082 0012 00       		.byte	0
 14083 0013 02       		.uleb128 0x2
 14084 0014 24       		.uleb128 0x24
 14085 0015 00       		.byte	0
 14086 0016 0B       		.uleb128 0xb
 14087 0017 0B       		.uleb128 0xb
 14088 0018 3E       		.uleb128 0x3e
 14089 0019 0B       		.uleb128 0xb
 14090 001a 03       		.uleb128 0x3
 14091 001b 0E       		.uleb128 0xe
 14092 001c 00       		.byte	0
 14093 001d 00       		.byte	0
 14094 001e 03       		.uleb128 0x3
 14095 001f 24       		.uleb128 0x24
 14096 0020 00       		.byte	0
 14097 0021 0B       		.uleb128 0xb
 14098 0022 0B       		.uleb128 0xb
 14099 0023 3E       		.uleb128 0x3e
 14100 0024 0B       		.uleb128 0xb
 14101 0025 03       		.uleb128 0x3
 14102 0026 08       		.uleb128 0x8
 14103 0027 00       		.byte	0
 14104 0028 00       		.byte	0
 14105 0029 04       		.uleb128 0x4
 14106 002a 35       		.uleb128 0x35
ARM GAS  C:\Users\CHRIST~1\AppData\Local\Temp\ccVm3NB4.s 			page 259


 14107 002b 00       		.byte	0
 14108 002c 49       		.uleb128 0x49
 14109 002d 13       		.uleb128 0x13
 14110 002e 00       		.byte	0
 14111 002f 00       		.byte	0
 14112 0030 05       		.uleb128 0x5
 14113 0031 16       		.uleb128 0x16
 14114 0032 00       		.byte	0
 14115 0033 03       		.uleb128 0x3
 14116 0034 0E       		.uleb128 0xe
 14117 0035 3A       		.uleb128 0x3a
 14118 0036 0B       		.uleb128 0xb
 14119 0037 3B       		.uleb128 0x3b
 14120 0038 0B       		.uleb128 0xb
 14121 0039 49       		.uleb128 0x49
 14122 003a 13       		.uleb128 0x13
 14123 003b 00       		.byte	0
 14124 003c 00       		.byte	0
 14125 003d 06       		.uleb128 0x6
 14126 003e 26       		.uleb128 0x26
 14127 003f 00       		.byte	0
 14128 0040 49       		.uleb128 0x49
 14129 0041 13       		.uleb128 0x13
 14130 0042 00       		.byte	0
 14131 0043 00       		.byte	0
 14132 0044 07       		.uleb128 0x7
 14133 0045 13       		.uleb128 0x13
 14134 0046 01       		.byte	0x1
 14135 0047 03       		.uleb128 0x3
 14136 0048 0E       		.uleb128 0xe
 14137 0049 0B       		.uleb128 0xb
 14138 004a 0B       		.uleb128 0xb
 14139 004b 3A       		.uleb128 0x3a
 14140 004c 0B       		.uleb128 0xb
 14141 004d 3B       		.uleb128 0x3b
 14142 004e 0B       		.uleb128 0xb
 14143 004f 01       		.uleb128 0x1
 14144 0050 13       		.uleb128 0x13
 14145 0051 00       		.byte	0
 14146 0052 00       		.byte	0
 14147 0053 08       		.uleb128 0x8
 14148 0054 0D       		.uleb128 0xd
 14149 0055 00       		.byte	0
 14150 0056 03       		.uleb128 0x3
 14151 0057 0E       		.uleb128 0xe
 14152 0058 3A       		.uleb128 0x3a
 14153 0059 0B       		.uleb128 0xb
 14154 005a 3B       		.uleb128 0x3b
 14155 005b 0B       		.uleb128 0xb
 14156 005c 49       		.uleb128 0x49
 14157 005d 13       		.uleb128 0x13
 14158 005e 38       		.uleb128 0x38
 14159 005f 0B       		.uleb128 0xb
 14160 0060 00       		.byte	0
 14161 0061 00       		.byte	0
 14162 0062 09       		.uleb128 0x9
 14163 0063 0D       		.uleb128 0xd
ARM GAS  C:\Users\CHRIST~1\AppData\Local\Temp\ccVm3NB4.s 			page 260


 14164 0064 00       		.byte	0
 14165 0065 03       		.uleb128 0x3
 14166 0066 08       		.uleb128 0x8
 14167 0067 3A       		.uleb128 0x3a
 14168 0068 0B       		.uleb128 0xb
 14169 0069 3B       		.uleb128 0x3b
 14170 006a 05       		.uleb128 0x5
 14171 006b 49       		.uleb128 0x49
 14172 006c 13       		.uleb128 0x13
 14173 006d 38       		.uleb128 0x38
 14174 006e 0B       		.uleb128 0xb
 14175 006f 00       		.byte	0
 14176 0070 00       		.byte	0
 14177 0071 0A       		.uleb128 0xa
 14178 0072 0D       		.uleb128 0xd
 14179 0073 00       		.byte	0
 14180 0074 03       		.uleb128 0x3
 14181 0075 0E       		.uleb128 0xe
 14182 0076 3A       		.uleb128 0x3a
 14183 0077 0B       		.uleb128 0xb
 14184 0078 3B       		.uleb128 0x3b
 14185 0079 05       		.uleb128 0x5
 14186 007a 49       		.uleb128 0x49
 14187 007b 13       		.uleb128 0x13
 14188 007c 38       		.uleb128 0x38
 14189 007d 0B       		.uleb128 0xb
 14190 007e 00       		.byte	0
 14191 007f 00       		.byte	0
 14192 0080 0B       		.uleb128 0xb
 14193 0081 0F       		.uleb128 0xf
 14194 0082 00       		.byte	0
 14195 0083 0B       		.uleb128 0xb
 14196 0084 0B       		.uleb128 0xb
 14197 0085 49       		.uleb128 0x49
 14198 0086 13       		.uleb128 0x13
 14199 0087 00       		.byte	0
 14200 0088 00       		.byte	0
 14201 0089 0C       		.uleb128 0xc
 14202 008a 13       		.uleb128 0x13
 14203 008b 01       		.byte	0x1
 14204 008c 03       		.uleb128 0x3
 14205 008d 0E       		.uleb128 0xe
 14206 008e 0B       		.uleb128 0xb
 14207 008f 0B       		.uleb128 0xb
 14208 0090 3A       		.uleb128 0x3a
 14209 0091 0B       		.uleb128 0xb
 14210 0092 3B       		.uleb128 0x3b
 14211 0093 05       		.uleb128 0x5
 14212 0094 01       		.uleb128 0x1
 14213 0095 13       		.uleb128 0x13
 14214 0096 00       		.byte	0
 14215 0097 00       		.byte	0
 14216 0098 0D       		.uleb128 0xd
 14217 0099 15       		.uleb128 0x15
 14218 009a 01       		.byte	0x1
 14219 009b 27       		.uleb128 0x27
 14220 009c 19       		.uleb128 0x19
ARM GAS  C:\Users\CHRIST~1\AppData\Local\Temp\ccVm3NB4.s 			page 261


 14221 009d 01       		.uleb128 0x1
 14222 009e 13       		.uleb128 0x13
 14223 009f 00       		.byte	0
 14224 00a0 00       		.byte	0
 14225 00a1 0E       		.uleb128 0xe
 14226 00a2 05       		.uleb128 0x5
 14227 00a3 00       		.byte	0
 14228 00a4 49       		.uleb128 0x49
 14229 00a5 13       		.uleb128 0x13
 14230 00a6 00       		.byte	0
 14231 00a7 00       		.byte	0
 14232 00a8 0F       		.uleb128 0xf
 14233 00a9 0F       		.uleb128 0xf
 14234 00aa 00       		.byte	0
 14235 00ab 0B       		.uleb128 0xb
 14236 00ac 0B       		.uleb128 0xb
 14237 00ad 00       		.byte	0
 14238 00ae 00       		.byte	0
 14239 00af 10       		.uleb128 0x10
 14240 00b0 13       		.uleb128 0x13
 14241 00b1 01       		.byte	0x1
 14242 00b2 03       		.uleb128 0x3
 14243 00b3 0E       		.uleb128 0xe
 14244 00b4 0B       		.uleb128 0xb
 14245 00b5 05       		.uleb128 0x5
 14246 00b6 3A       		.uleb128 0x3a
 14247 00b7 0B       		.uleb128 0xb
 14248 00b8 3B       		.uleb128 0x3b
 14249 00b9 05       		.uleb128 0x5
 14250 00ba 01       		.uleb128 0x1
 14251 00bb 13       		.uleb128 0x13
 14252 00bc 00       		.byte	0
 14253 00bd 00       		.byte	0
 14254 00be 11       		.uleb128 0x11
 14255 00bf 01       		.uleb128 0x1
 14256 00c0 01       		.byte	0x1
 14257 00c1 49       		.uleb128 0x49
 14258 00c2 13       		.uleb128 0x13
 14259 00c3 01       		.uleb128 0x1
 14260 00c4 13       		.uleb128 0x13
 14261 00c5 00       		.byte	0
 14262 00c6 00       		.byte	0
 14263 00c7 12       		.uleb128 0x12
 14264 00c8 21       		.uleb128 0x21
 14265 00c9 00       		.byte	0
 14266 00ca 49       		.uleb128 0x49
 14267 00cb 13       		.uleb128 0x13
 14268 00cc 2F       		.uleb128 0x2f
 14269 00cd 0B       		.uleb128 0xb
 14270 00ce 00       		.byte	0
 14271 00cf 00       		.byte	0
 14272 00d0 13       		.uleb128 0x13
 14273 00d1 34       		.uleb128 0x34
 14274 00d2 00       		.byte	0
 14275 00d3 03       		.uleb128 0x3
 14276 00d4 0E       		.uleb128 0xe
 14277 00d5 3A       		.uleb128 0x3a
ARM GAS  C:\Users\CHRIST~1\AppData\Local\Temp\ccVm3NB4.s 			page 262


 14278 00d6 0B       		.uleb128 0xb
 14279 00d7 3B       		.uleb128 0x3b
 14280 00d8 05       		.uleb128 0x5
 14281 00d9 49       		.uleb128 0x49
 14282 00da 13       		.uleb128 0x13
 14283 00db 3F       		.uleb128 0x3f
 14284 00dc 19       		.uleb128 0x19
 14285 00dd 3C       		.uleb128 0x3c
 14286 00de 19       		.uleb128 0x19
 14287 00df 00       		.byte	0
 14288 00e0 00       		.byte	0
 14289 00e1 14       		.uleb128 0x14
 14290 00e2 34       		.uleb128 0x34
 14291 00e3 00       		.byte	0
 14292 00e4 03       		.uleb128 0x3
 14293 00e5 0E       		.uleb128 0xe
 14294 00e6 3A       		.uleb128 0x3a
 14295 00e7 0B       		.uleb128 0xb
 14296 00e8 3B       		.uleb128 0x3b
 14297 00e9 0B       		.uleb128 0xb
 14298 00ea 49       		.uleb128 0x49
 14299 00eb 13       		.uleb128 0x13
 14300 00ec 3F       		.uleb128 0x3f
 14301 00ed 19       		.uleb128 0x19
 14302 00ee 3C       		.uleb128 0x3c
 14303 00ef 19       		.uleb128 0x19
 14304 00f0 00       		.byte	0
 14305 00f1 00       		.byte	0
 14306 00f2 15       		.uleb128 0x15
 14307 00f3 13       		.uleb128 0x13
 14308 00f4 01       		.byte	0x1
 14309 00f5 0B       		.uleb128 0xb
 14310 00f6 0B       		.uleb128 0xb
 14311 00f7 3A       		.uleb128 0x3a
 14312 00f8 0B       		.uleb128 0xb
 14313 00f9 3B       		.uleb128 0x3b
 14314 00fa 0B       		.uleb128 0xb
 14315 00fb 01       		.uleb128 0x1
 14316 00fc 13       		.uleb128 0x13
 14317 00fd 00       		.byte	0
 14318 00fe 00       		.byte	0
 14319 00ff 16       		.uleb128 0x16
 14320 0100 0D       		.uleb128 0xd
 14321 0101 00       		.byte	0
 14322 0102 03       		.uleb128 0x3
 14323 0103 08       		.uleb128 0x8
 14324 0104 3A       		.uleb128 0x3a
 14325 0105 0B       		.uleb128 0xb
 14326 0106 3B       		.uleb128 0x3b
 14327 0107 0B       		.uleb128 0xb
 14328 0108 49       		.uleb128 0x49
 14329 0109 13       		.uleb128 0x13
 14330 010a 38       		.uleb128 0x38
 14331 010b 0B       		.uleb128 0xb
 14332 010c 00       		.byte	0
 14333 010d 00       		.byte	0
 14334 010e 17       		.uleb128 0x17
ARM GAS  C:\Users\CHRIST~1\AppData\Local\Temp\ccVm3NB4.s 			page 263


 14335 010f 13       		.uleb128 0x13
 14336 0110 01       		.byte	0x1
 14337 0111 0B       		.uleb128 0xb
 14338 0112 0B       		.uleb128 0xb
 14339 0113 3A       		.uleb128 0x3a
 14340 0114 0B       		.uleb128 0xb
 14341 0115 3B       		.uleb128 0x3b
 14342 0116 05       		.uleb128 0x5
 14343 0117 01       		.uleb128 0x1
 14344 0118 13       		.uleb128 0x13
 14345 0119 00       		.byte	0
 14346 011a 00       		.byte	0
 14347 011b 18       		.uleb128 0x18
 14348 011c 16       		.uleb128 0x16
 14349 011d 00       		.byte	0
 14350 011e 03       		.uleb128 0x3
 14351 011f 0E       		.uleb128 0xe
 14352 0120 3A       		.uleb128 0x3a
 14353 0121 0B       		.uleb128 0xb
 14354 0122 3B       		.uleb128 0x3b
 14355 0123 05       		.uleb128 0x5
 14356 0124 49       		.uleb128 0x49
 14357 0125 13       		.uleb128 0x13
 14358 0126 00       		.byte	0
 14359 0127 00       		.byte	0
 14360 0128 19       		.uleb128 0x19
 14361 0129 13       		.uleb128 0x13
 14362 012a 01       		.byte	0x1
 14363 012b 0B       		.uleb128 0xb
 14364 012c 05       		.uleb128 0x5
 14365 012d 3A       		.uleb128 0x3a
 14366 012e 0B       		.uleb128 0xb
 14367 012f 3B       		.uleb128 0x3b
 14368 0130 05       		.uleb128 0x5
 14369 0131 01       		.uleb128 0x1
 14370 0132 13       		.uleb128 0x13
 14371 0133 00       		.byte	0
 14372 0134 00       		.byte	0
 14373 0135 1A       		.uleb128 0x1a
 14374 0136 0D       		.uleb128 0xd
 14375 0137 00       		.byte	0
 14376 0138 03       		.uleb128 0x3
 14377 0139 0E       		.uleb128 0xe
 14378 013a 3A       		.uleb128 0x3a
 14379 013b 0B       		.uleb128 0xb
 14380 013c 3B       		.uleb128 0x3b
 14381 013d 05       		.uleb128 0x5
 14382 013e 49       		.uleb128 0x49
 14383 013f 13       		.uleb128 0x13
 14384 0140 38       		.uleb128 0x38
 14385 0141 05       		.uleb128 0x5
 14386 0142 00       		.byte	0
 14387 0143 00       		.byte	0
 14388 0144 1B       		.uleb128 0x1b
 14389 0145 0D       		.uleb128 0xd
 14390 0146 00       		.byte	0
 14391 0147 03       		.uleb128 0x3
ARM GAS  C:\Users\CHRIST~1\AppData\Local\Temp\ccVm3NB4.s 			page 264


 14392 0148 08       		.uleb128 0x8
 14393 0149 3A       		.uleb128 0x3a
 14394 014a 0B       		.uleb128 0xb
 14395 014b 3B       		.uleb128 0x3b
 14396 014c 05       		.uleb128 0x5
 14397 014d 49       		.uleb128 0x49
 14398 014e 13       		.uleb128 0x13
 14399 014f 38       		.uleb128 0x38
 14400 0150 05       		.uleb128 0x5
 14401 0151 00       		.byte	0
 14402 0152 00       		.byte	0
 14403 0153 1C       		.uleb128 0x1c
 14404 0154 17       		.uleb128 0x17
 14405 0155 01       		.byte	0x1
 14406 0156 0B       		.uleb128 0xb
 14407 0157 0B       		.uleb128 0xb
 14408 0158 3A       		.uleb128 0x3a
 14409 0159 0B       		.uleb128 0xb
 14410 015a 3B       		.uleb128 0x3b
 14411 015b 0B       		.uleb128 0xb
 14412 015c 01       		.uleb128 0x1
 14413 015d 13       		.uleb128 0x13
 14414 015e 00       		.byte	0
 14415 015f 00       		.byte	0
 14416 0160 1D       		.uleb128 0x1d
 14417 0161 0D       		.uleb128 0xd
 14418 0162 00       		.byte	0
 14419 0163 03       		.uleb128 0x3
 14420 0164 0E       		.uleb128 0xe
 14421 0165 3A       		.uleb128 0x3a
 14422 0166 0B       		.uleb128 0xb
 14423 0167 3B       		.uleb128 0x3b
 14424 0168 05       		.uleb128 0x5
 14425 0169 49       		.uleb128 0x49
 14426 016a 13       		.uleb128 0x13
 14427 016b 00       		.byte	0
 14428 016c 00       		.byte	0
 14429 016d 1E       		.uleb128 0x1e
 14430 016e 34       		.uleb128 0x34
 14431 016f 00       		.byte	0
 14432 0170 03       		.uleb128 0x3
 14433 0171 08       		.uleb128 0x8
 14434 0172 3A       		.uleb128 0x3a
 14435 0173 0B       		.uleb128 0xb
 14436 0174 3B       		.uleb128 0x3b
 14437 0175 05       		.uleb128 0x5
 14438 0176 49       		.uleb128 0x49
 14439 0177 13       		.uleb128 0x13
 14440 0178 3F       		.uleb128 0x3f
 14441 0179 19       		.uleb128 0x19
 14442 017a 3C       		.uleb128 0x3c
 14443 017b 19       		.uleb128 0x19
 14444 017c 00       		.byte	0
 14445 017d 00       		.byte	0
 14446 017e 1F       		.uleb128 0x1f
 14447 017f 04       		.uleb128 0x4
 14448 0180 01       		.byte	0x1
ARM GAS  C:\Users\CHRIST~1\AppData\Local\Temp\ccVm3NB4.s 			page 265


 14449 0181 0B       		.uleb128 0xb
 14450 0182 0B       		.uleb128 0xb
 14451 0183 49       		.uleb128 0x49
 14452 0184 13       		.uleb128 0x13
 14453 0185 3A       		.uleb128 0x3a
 14454 0186 0B       		.uleb128 0xb
 14455 0187 3B       		.uleb128 0x3b
 14456 0188 0B       		.uleb128 0xb
 14457 0189 01       		.uleb128 0x1
 14458 018a 13       		.uleb128 0x13
 14459 018b 00       		.byte	0
 14460 018c 00       		.byte	0
 14461 018d 20       		.uleb128 0x20
 14462 018e 28       		.uleb128 0x28
 14463 018f 00       		.byte	0
 14464 0190 03       		.uleb128 0x3
 14465 0191 0E       		.uleb128 0xe
 14466 0192 1C       		.uleb128 0x1c
 14467 0193 0B       		.uleb128 0xb
 14468 0194 00       		.byte	0
 14469 0195 00       		.byte	0
 14470 0196 21       		.uleb128 0x21
 14471 0197 13       		.uleb128 0x13
 14472 0198 01       		.byte	0x1
 14473 0199 0B       		.uleb128 0xb
 14474 019a 05       		.uleb128 0x5
 14475 019b 3A       		.uleb128 0x3a
 14476 019c 0B       		.uleb128 0xb
 14477 019d 3B       		.uleb128 0x3b
 14478 019e 0B       		.uleb128 0xb
 14479 019f 01       		.uleb128 0x1
 14480 01a0 13       		.uleb128 0x13
 14481 01a1 00       		.byte	0
 14482 01a2 00       		.byte	0
 14483 01a3 22       		.uleb128 0x22
 14484 01a4 0D       		.uleb128 0xd
 14485 01a5 00       		.byte	0
 14486 01a6 03       		.uleb128 0x3
 14487 01a7 0E       		.uleb128 0xe
 14488 01a8 3A       		.uleb128 0x3a
 14489 01a9 0B       		.uleb128 0xb
 14490 01aa 3B       		.uleb128 0x3b
 14491 01ab 0B       		.uleb128 0xb
 14492 01ac 49       		.uleb128 0x49
 14493 01ad 13       		.uleb128 0x13
 14494 01ae 38       		.uleb128 0x38
 14495 01af 05       		.uleb128 0x5
 14496 01b0 00       		.byte	0
 14497 01b1 00       		.byte	0
 14498 01b2 23       		.uleb128 0x23
 14499 01b3 0D       		.uleb128 0xd
 14500 01b4 00       		.byte	0
 14501 01b5 03       		.uleb128 0x3
 14502 01b6 08       		.uleb128 0x8
 14503 01b7 3A       		.uleb128 0x3a
 14504 01b8 0B       		.uleb128 0xb
 14505 01b9 3B       		.uleb128 0x3b
ARM GAS  C:\Users\CHRIST~1\AppData\Local\Temp\ccVm3NB4.s 			page 266


 14506 01ba 0B       		.uleb128 0xb
 14507 01bb 49       		.uleb128 0x49
 14508 01bc 13       		.uleb128 0x13
 14509 01bd 00       		.byte	0
 14510 01be 00       		.byte	0
 14511 01bf 24       		.uleb128 0x24
 14512 01c0 04       		.uleb128 0x4
 14513 01c1 01       		.byte	0x1
 14514 01c2 0B       		.uleb128 0xb
 14515 01c3 0B       		.uleb128 0xb
 14516 01c4 49       		.uleb128 0x49
 14517 01c5 13       		.uleb128 0x13
 14518 01c6 3A       		.uleb128 0x3a
 14519 01c7 0B       		.uleb128 0xb
 14520 01c8 3B       		.uleb128 0x3b
 14521 01c9 05       		.uleb128 0x5
 14522 01ca 01       		.uleb128 0x1
 14523 01cb 13       		.uleb128 0x13
 14524 01cc 00       		.byte	0
 14525 01cd 00       		.byte	0
 14526 01ce 25       		.uleb128 0x25
 14527 01cf 15       		.uleb128 0x15
 14528 01d0 01       		.byte	0x1
 14529 01d1 27       		.uleb128 0x27
 14530 01d2 19       		.uleb128 0x19
 14531 01d3 49       		.uleb128 0x49
 14532 01d4 13       		.uleb128 0x13
 14533 01d5 01       		.uleb128 0x1
 14534 01d6 13       		.uleb128 0x13
 14535 01d7 00       		.byte	0
 14536 01d8 00       		.byte	0
 14537 01d9 26       		.uleb128 0x26
 14538 01da 13       		.uleb128 0x13
 14539 01db 01       		.byte	0x1
 14540 01dc 0B       		.uleb128 0xb
 14541 01dd 06       		.uleb128 0x6
 14542 01de 3A       		.uleb128 0x3a
 14543 01df 0B       		.uleb128 0xb
 14544 01e0 3B       		.uleb128 0x3b
 14545 01e1 0B       		.uleb128 0xb
 14546 01e2 01       		.uleb128 0x1
 14547 01e3 13       		.uleb128 0x13
 14548 01e4 00       		.byte	0
 14549 01e5 00       		.byte	0
 14550 01e6 27       		.uleb128 0x27
 14551 01e7 0D       		.uleb128 0xd
 14552 01e8 00       		.byte	0
 14553 01e9 03       		.uleb128 0x3
 14554 01ea 08       		.uleb128 0x8
 14555 01eb 3A       		.uleb128 0x3a
 14556 01ec 0B       		.uleb128 0xb
 14557 01ed 3B       		.uleb128 0x3b
 14558 01ee 0B       		.uleb128 0xb
 14559 01ef 49       		.uleb128 0x49
 14560 01f0 13       		.uleb128 0x13
 14561 01f1 38       		.uleb128 0x38
 14562 01f2 05       		.uleb128 0x5
ARM GAS  C:\Users\CHRIST~1\AppData\Local\Temp\ccVm3NB4.s 			page 267


 14563 01f3 00       		.byte	0
 14564 01f4 00       		.byte	0
 14565 01f5 28       		.uleb128 0x28
 14566 01f6 21       		.uleb128 0x21
 14567 01f7 00       		.byte	0
 14568 01f8 49       		.uleb128 0x49
 14569 01f9 13       		.uleb128 0x13
 14570 01fa 2F       		.uleb128 0x2f
 14571 01fb 05       		.uleb128 0x5
 14572 01fc 00       		.byte	0
 14573 01fd 00       		.byte	0
 14574 01fe 29       		.uleb128 0x29
 14575 01ff 0D       		.uleb128 0xd
 14576 0200 00       		.byte	0
 14577 0201 03       		.uleb128 0x3
 14578 0202 0E       		.uleb128 0xe
 14579 0203 3A       		.uleb128 0x3a
 14580 0204 0B       		.uleb128 0xb
 14581 0205 3B       		.uleb128 0x3b
 14582 0206 0B       		.uleb128 0xb
 14583 0207 49       		.uleb128 0x49
 14584 0208 13       		.uleb128 0x13
 14585 0209 00       		.byte	0
 14586 020a 00       		.byte	0
 14587 020b 2A       		.uleb128 0x2a
 14588 020c 17       		.uleb128 0x17
 14589 020d 01       		.byte	0x1
 14590 020e 0B       		.uleb128 0xb
 14591 020f 0B       		.uleb128 0xb
 14592 0210 3A       		.uleb128 0x3a
 14593 0211 0B       		.uleb128 0xb
 14594 0212 3B       		.uleb128 0x3b
 14595 0213 05       		.uleb128 0x5
 14596 0214 01       		.uleb128 0x1
 14597 0215 13       		.uleb128 0x13
 14598 0216 00       		.byte	0
 14599 0217 00       		.byte	0
 14600 0218 2B       		.uleb128 0x2b
 14601 0219 21       		.uleb128 0x21
 14602 021a 00       		.byte	0
 14603 021b 00       		.byte	0
 14604 021c 00       		.byte	0
 14605 021d 2C       		.uleb128 0x2c
 14606 021e 13       		.uleb128 0x13
 14607 021f 00       		.byte	0
 14608 0220 03       		.uleb128 0x3
 14609 0221 0E       		.uleb128 0xe
 14610 0222 3C       		.uleb128 0x3c
 14611 0223 19       		.uleb128 0x19
 14612 0224 00       		.byte	0
 14613 0225 00       		.byte	0
 14614 0226 2D       		.uleb128 0x2d
 14615 0227 13       		.uleb128 0x13
 14616 0228 01       		.byte	0x1
 14617 0229 03       		.uleb128 0x3
 14618 022a 0E       		.uleb128 0xe
 14619 022b 0B       		.uleb128 0xb
ARM GAS  C:\Users\CHRIST~1\AppData\Local\Temp\ccVm3NB4.s 			page 268


 14620 022c 05       		.uleb128 0x5
 14621 022d 3A       		.uleb128 0x3a
 14622 022e 0B       		.uleb128 0xb
 14623 022f 3B       		.uleb128 0x3b
 14624 0230 0B       		.uleb128 0xb
 14625 0231 01       		.uleb128 0x1
 14626 0232 13       		.uleb128 0x13
 14627 0233 00       		.byte	0
 14628 0234 00       		.byte	0
 14629 0235 2E       		.uleb128 0x2e
 14630 0236 15       		.uleb128 0x15
 14631 0237 00       		.byte	0
 14632 0238 27       		.uleb128 0x27
 14633 0239 19       		.uleb128 0x19
 14634 023a 00       		.byte	0
 14635 023b 00       		.byte	0
 14636 023c 2F       		.uleb128 0x2f
 14637 023d 04       		.uleb128 0x4
 14638 023e 01       		.byte	0x1
 14639 023f 03       		.uleb128 0x3
 14640 0240 0E       		.uleb128 0xe
 14641 0241 0B       		.uleb128 0xb
 14642 0242 0B       		.uleb128 0xb
 14643 0243 49       		.uleb128 0x49
 14644 0244 13       		.uleb128 0x13
 14645 0245 3A       		.uleb128 0x3a
 14646 0246 0B       		.uleb128 0xb
 14647 0247 3B       		.uleb128 0x3b
 14648 0248 05       		.uleb128 0x5
 14649 0249 01       		.uleb128 0x1
 14650 024a 13       		.uleb128 0x13
 14651 024b 00       		.byte	0
 14652 024c 00       		.byte	0
 14653 024d 30       		.uleb128 0x30
 14654 024e 28       		.uleb128 0x28
 14655 024f 00       		.byte	0
 14656 0250 03       		.uleb128 0x3
 14657 0251 0E       		.uleb128 0xe
 14658 0252 1C       		.uleb128 0x1c
 14659 0253 0D       		.uleb128 0xd
 14660 0254 00       		.byte	0
 14661 0255 00       		.byte	0
 14662 0256 31       		.uleb128 0x31
 14663 0257 34       		.uleb128 0x34
 14664 0258 00       		.byte	0
 14665 0259 03       		.uleb128 0x3
 14666 025a 0E       		.uleb128 0xe
 14667 025b 3A       		.uleb128 0x3a
 14668 025c 0B       		.uleb128 0xb
 14669 025d 3B       		.uleb128 0x3b
 14670 025e 0B       		.uleb128 0xb
 14671 025f 49       		.uleb128 0x49
 14672 0260 13       		.uleb128 0x13
 14673 0261 02       		.uleb128 0x2
 14674 0262 18       		.uleb128 0x18
 14675 0263 00       		.byte	0
 14676 0264 00       		.byte	0
ARM GAS  C:\Users\CHRIST~1\AppData\Local\Temp\ccVm3NB4.s 			page 269


 14677 0265 32       		.uleb128 0x32
 14678 0266 2E       		.uleb128 0x2e
 14679 0267 01       		.byte	0x1
 14680 0268 3F       		.uleb128 0x3f
 14681 0269 19       		.uleb128 0x19
 14682 026a 03       		.uleb128 0x3
 14683 026b 0E       		.uleb128 0xe
 14684 026c 3A       		.uleb128 0x3a
 14685 026d 0B       		.uleb128 0xb
 14686 026e 3B       		.uleb128 0x3b
 14687 026f 05       		.uleb128 0x5
 14688 0270 27       		.uleb128 0x27
 14689 0271 19       		.uleb128 0x19
 14690 0272 11       		.uleb128 0x11
 14691 0273 01       		.uleb128 0x1
 14692 0274 12       		.uleb128 0x12
 14693 0275 06       		.uleb128 0x6
 14694 0276 40       		.uleb128 0x40
 14695 0277 18       		.uleb128 0x18
 14696 0278 9742     		.uleb128 0x2117
 14697 027a 19       		.uleb128 0x19
 14698 027b 01       		.uleb128 0x1
 14699 027c 13       		.uleb128 0x13
 14700 027d 00       		.byte	0
 14701 027e 00       		.byte	0
 14702 027f 33       		.uleb128 0x33
 14703 0280 05       		.uleb128 0x5
 14704 0281 00       		.byte	0
 14705 0282 03       		.uleb128 0x3
 14706 0283 0E       		.uleb128 0xe
 14707 0284 3A       		.uleb128 0x3a
 14708 0285 0B       		.uleb128 0xb
 14709 0286 3B       		.uleb128 0x3b
 14710 0287 05       		.uleb128 0x5
 14711 0288 49       		.uleb128 0x49
 14712 0289 13       		.uleb128 0x13
 14713 028a 02       		.uleb128 0x2
 14714 028b 17       		.uleb128 0x17
 14715 028c 00       		.byte	0
 14716 028d 00       		.byte	0
 14717 028e 34       		.uleb128 0x34
 14718 028f 05       		.uleb128 0x5
 14719 0290 00       		.byte	0
 14720 0291 03       		.uleb128 0x3
 14721 0292 08       		.uleb128 0x8
 14722 0293 3A       		.uleb128 0x3a
 14723 0294 0B       		.uleb128 0xb
 14724 0295 3B       		.uleb128 0x3b
 14725 0296 05       		.uleb128 0x5
 14726 0297 49       		.uleb128 0x49
 14727 0298 13       		.uleb128 0x13
 14728 0299 02       		.uleb128 0x2
 14729 029a 17       		.uleb128 0x17
 14730 029b 00       		.byte	0
 14731 029c 00       		.byte	0
 14732 029d 35       		.uleb128 0x35
 14733 029e 34       		.uleb128 0x34
ARM GAS  C:\Users\CHRIST~1\AppData\Local\Temp\ccVm3NB4.s 			page 270


 14734 029f 00       		.byte	0
 14735 02a0 03       		.uleb128 0x3
 14736 02a1 0E       		.uleb128 0xe
 14737 02a2 3A       		.uleb128 0x3a
 14738 02a3 0B       		.uleb128 0xb
 14739 02a4 3B       		.uleb128 0x3b
 14740 02a5 05       		.uleb128 0x5
 14741 02a6 49       		.uleb128 0x49
 14742 02a7 13       		.uleb128 0x13
 14743 02a8 02       		.uleb128 0x2
 14744 02a9 17       		.uleb128 0x17
 14745 02aa 00       		.byte	0
 14746 02ab 00       		.byte	0
 14747 02ac 36       		.uleb128 0x36
 14748 02ad 0B       		.uleb128 0xb
 14749 02ae 01       		.byte	0x1
 14750 02af 55       		.uleb128 0x55
 14751 02b0 17       		.uleb128 0x17
 14752 02b1 00       		.byte	0
 14753 02b2 00       		.byte	0
 14754 02b3 37       		.uleb128 0x37
 14755 02b4 34       		.uleb128 0x34
 14756 02b5 00       		.byte	0
 14757 02b6 03       		.uleb128 0x3
 14758 02b7 08       		.uleb128 0x8
 14759 02b8 3A       		.uleb128 0x3a
 14760 02b9 0B       		.uleb128 0xb
 14761 02ba 3B       		.uleb128 0x3b
 14762 02bb 05       		.uleb128 0x5
 14763 02bc 49       		.uleb128 0x49
 14764 02bd 13       		.uleb128 0x13
 14765 02be 02       		.uleb128 0x2
 14766 02bf 17       		.uleb128 0x17
 14767 02c0 00       		.byte	0
 14768 02c1 00       		.byte	0
 14769 02c2 38       		.uleb128 0x38
 14770 02c3 898201   		.uleb128 0x4109
 14771 02c6 01       		.byte	0x1
 14772 02c7 11       		.uleb128 0x11
 14773 02c8 01       		.uleb128 0x1
 14774 02c9 31       		.uleb128 0x31
 14775 02ca 13       		.uleb128 0x13
 14776 02cb 00       		.byte	0
 14777 02cc 00       		.byte	0
 14778 02cd 39       		.uleb128 0x39
 14779 02ce 8A8201   		.uleb128 0x410a
 14780 02d1 00       		.byte	0
 14781 02d2 02       		.uleb128 0x2
 14782 02d3 18       		.uleb128 0x18
 14783 02d4 9142     		.uleb128 0x2111
 14784 02d6 18       		.uleb128 0x18
 14785 02d7 00       		.byte	0
 14786 02d8 00       		.byte	0
 14787 02d9 3A       		.uleb128 0x3a
 14788 02da 2E       		.uleb128 0x2e
 14789 02db 01       		.byte	0x1
 14790 02dc 3F       		.uleb128 0x3f
ARM GAS  C:\Users\CHRIST~1\AppData\Local\Temp\ccVm3NB4.s 			page 271


 14791 02dd 19       		.uleb128 0x19
 14792 02de 03       		.uleb128 0x3
 14793 02df 0E       		.uleb128 0xe
 14794 02e0 3A       		.uleb128 0x3a
 14795 02e1 0B       		.uleb128 0xb
 14796 02e2 3B       		.uleb128 0x3b
 14797 02e3 0B       		.uleb128 0xb
 14798 02e4 27       		.uleb128 0x27
 14799 02e5 19       		.uleb128 0x19
 14800 02e6 11       		.uleb128 0x11
 14801 02e7 01       		.uleb128 0x1
 14802 02e8 12       		.uleb128 0x12
 14803 02e9 06       		.uleb128 0x6
 14804 02ea 40       		.uleb128 0x40
 14805 02eb 18       		.uleb128 0x18
 14806 02ec 9642     		.uleb128 0x2116
 14807 02ee 19       		.uleb128 0x19
 14808 02ef 01       		.uleb128 0x1
 14809 02f0 13       		.uleb128 0x13
 14810 02f1 00       		.byte	0
 14811 02f2 00       		.byte	0
 14812 02f3 3B       		.uleb128 0x3b
 14813 02f4 05       		.uleb128 0x5
 14814 02f5 00       		.byte	0
 14815 02f6 03       		.uleb128 0x3
 14816 02f7 08       		.uleb128 0x8
 14817 02f8 3A       		.uleb128 0x3a
 14818 02f9 0B       		.uleb128 0xb
 14819 02fa 3B       		.uleb128 0x3b
 14820 02fb 0B       		.uleb128 0xb
 14821 02fc 49       		.uleb128 0x49
 14822 02fd 13       		.uleb128 0x13
 14823 02fe 02       		.uleb128 0x2
 14824 02ff 17       		.uleb128 0x17
 14825 0300 00       		.byte	0
 14826 0301 00       		.byte	0
 14827 0302 3C       		.uleb128 0x3c
 14828 0303 34       		.uleb128 0x34
 14829 0304 00       		.byte	0
 14830 0305 03       		.uleb128 0x3
 14831 0306 0E       		.uleb128 0xe
 14832 0307 3A       		.uleb128 0x3a
 14833 0308 0B       		.uleb128 0xb
 14834 0309 3B       		.uleb128 0x3b
 14835 030a 0B       		.uleb128 0xb
 14836 030b 49       		.uleb128 0x49
 14837 030c 13       		.uleb128 0x13
 14838 030d 02       		.uleb128 0x2
 14839 030e 17       		.uleb128 0x17
 14840 030f 00       		.byte	0
 14841 0310 00       		.byte	0
 14842 0311 3D       		.uleb128 0x3d
 14843 0312 34       		.uleb128 0x34
 14844 0313 00       		.byte	0
 14845 0314 03       		.uleb128 0x3
 14846 0315 08       		.uleb128 0x8
 14847 0316 3A       		.uleb128 0x3a
ARM GAS  C:\Users\CHRIST~1\AppData\Local\Temp\ccVm3NB4.s 			page 272


 14848 0317 0B       		.uleb128 0xb
 14849 0318 3B       		.uleb128 0x3b
 14850 0319 0B       		.uleb128 0xb
 14851 031a 49       		.uleb128 0x49
 14852 031b 13       		.uleb128 0x13
 14853 031c 02       		.uleb128 0x2
 14854 031d 17       		.uleb128 0x17
 14855 031e 00       		.byte	0
 14856 031f 00       		.byte	0
 14857 0320 3E       		.uleb128 0x3e
 14858 0321 0B       		.uleb128 0xb
 14859 0322 01       		.byte	0x1
 14860 0323 11       		.uleb128 0x11
 14861 0324 01       		.uleb128 0x1
 14862 0325 12       		.uleb128 0x12
 14863 0326 06       		.uleb128 0x6
 14864 0327 01       		.uleb128 0x1
 14865 0328 13       		.uleb128 0x13
 14866 0329 00       		.byte	0
 14867 032a 00       		.byte	0
 14868 032b 3F       		.uleb128 0x3f
 14869 032c 898201   		.uleb128 0x4109
 14870 032f 01       		.byte	0x1
 14871 0330 11       		.uleb128 0x11
 14872 0331 01       		.uleb128 0x1
 14873 0332 31       		.uleb128 0x31
 14874 0333 13       		.uleb128 0x13
 14875 0334 01       		.uleb128 0x1
 14876 0335 13       		.uleb128 0x13
 14877 0336 00       		.byte	0
 14878 0337 00       		.byte	0
 14879 0338 40       		.uleb128 0x40
 14880 0339 898201   		.uleb128 0x4109
 14881 033c 00       		.byte	0
 14882 033d 11       		.uleb128 0x11
 14883 033e 01       		.uleb128 0x1
 14884 033f 31       		.uleb128 0x31
 14885 0340 13       		.uleb128 0x13
 14886 0341 00       		.byte	0
 14887 0342 00       		.byte	0
 14888 0343 41       		.uleb128 0x41
 14889 0344 1D       		.uleb128 0x1d
 14890 0345 01       		.byte	0x1
 14891 0346 31       		.uleb128 0x31
 14892 0347 13       		.uleb128 0x13
 14893 0348 11       		.uleb128 0x11
 14894 0349 01       		.uleb128 0x1
 14895 034a 12       		.uleb128 0x12
 14896 034b 06       		.uleb128 0x6
 14897 034c 58       		.uleb128 0x58
 14898 034d 0B       		.uleb128 0xb
 14899 034e 59       		.uleb128 0x59
 14900 034f 0B       		.uleb128 0xb
 14901 0350 01       		.uleb128 0x1
 14902 0351 13       		.uleb128 0x13
 14903 0352 00       		.byte	0
 14904 0353 00       		.byte	0
ARM GAS  C:\Users\CHRIST~1\AppData\Local\Temp\ccVm3NB4.s 			page 273


 14905 0354 42       		.uleb128 0x42
 14906 0355 1D       		.uleb128 0x1d
 14907 0356 01       		.byte	0x1
 14908 0357 31       		.uleb128 0x31
 14909 0358 13       		.uleb128 0x13
 14910 0359 11       		.uleb128 0x11
 14911 035a 01       		.uleb128 0x1
 14912 035b 12       		.uleb128 0x12
 14913 035c 06       		.uleb128 0x6
 14914 035d 58       		.uleb128 0x58
 14915 035e 0B       		.uleb128 0xb
 14916 035f 59       		.uleb128 0x59
 14917 0360 05       		.uleb128 0x5
 14918 0361 00       		.byte	0
 14919 0362 00       		.byte	0
 14920 0363 43       		.uleb128 0x43
 14921 0364 05       		.uleb128 0x5
 14922 0365 00       		.byte	0
 14923 0366 31       		.uleb128 0x31
 14924 0367 13       		.uleb128 0x13
 14925 0368 02       		.uleb128 0x2
 14926 0369 17       		.uleb128 0x17
 14927 036a 00       		.byte	0
 14928 036b 00       		.byte	0
 14929 036c 44       		.uleb128 0x44
 14930 036d 0B       		.uleb128 0xb
 14931 036e 01       		.byte	0x1
 14932 036f 11       		.uleb128 0x11
 14933 0370 01       		.uleb128 0x1
 14934 0371 12       		.uleb128 0x12
 14935 0372 06       		.uleb128 0x6
 14936 0373 00       		.byte	0
 14937 0374 00       		.byte	0
 14938 0375 45       		.uleb128 0x45
 14939 0376 34       		.uleb128 0x34
 14940 0377 00       		.byte	0
 14941 0378 31       		.uleb128 0x31
 14942 0379 13       		.uleb128 0x13
 14943 037a 00       		.byte	0
 14944 037b 00       		.byte	0
 14945 037c 46       		.uleb128 0x46
 14946 037d 0B       		.uleb128 0xb
 14947 037e 01       		.byte	0x1
 14948 037f 55       		.uleb128 0x55
 14949 0380 17       		.uleb128 0x17
 14950 0381 01       		.uleb128 0x1
 14951 0382 13       		.uleb128 0x13
 14952 0383 00       		.byte	0
 14953 0384 00       		.byte	0
 14954 0385 47       		.uleb128 0x47
 14955 0386 1D       		.uleb128 0x1d
 14956 0387 01       		.byte	0x1
 14957 0388 31       		.uleb128 0x31
 14958 0389 13       		.uleb128 0x13
 14959 038a 52       		.uleb128 0x52
 14960 038b 01       		.uleb128 0x1
 14961 038c 55       		.uleb128 0x55
ARM GAS  C:\Users\CHRIST~1\AppData\Local\Temp\ccVm3NB4.s 			page 274


 14962 038d 17       		.uleb128 0x17
 14963 038e 58       		.uleb128 0x58
 14964 038f 0B       		.uleb128 0xb
 14965 0390 59       		.uleb128 0x59
 14966 0391 0B       		.uleb128 0xb
 14967 0392 01       		.uleb128 0x1
 14968 0393 13       		.uleb128 0x13
 14969 0394 00       		.byte	0
 14970 0395 00       		.byte	0
 14971 0396 48       		.uleb128 0x48
 14972 0397 1D       		.uleb128 0x1d
 14973 0398 00       		.byte	0
 14974 0399 31       		.uleb128 0x31
 14975 039a 13       		.uleb128 0x13
 14976 039b 52       		.uleb128 0x52
 14977 039c 01       		.uleb128 0x1
 14978 039d 55       		.uleb128 0x55
 14979 039e 17       		.uleb128 0x17
 14980 039f 58       		.uleb128 0x58
 14981 03a0 0B       		.uleb128 0xb
 14982 03a1 59       		.uleb128 0x59
 14983 03a2 05       		.uleb128 0x5
 14984 03a3 00       		.byte	0
 14985 03a4 00       		.byte	0
 14986 03a5 49       		.uleb128 0x49
 14987 03a6 1D       		.uleb128 0x1d
 14988 03a7 00       		.byte	0
 14989 03a8 31       		.uleb128 0x31
 14990 03a9 13       		.uleb128 0x13
 14991 03aa 11       		.uleb128 0x11
 14992 03ab 01       		.uleb128 0x1
 14993 03ac 12       		.uleb128 0x12
 14994 03ad 06       		.uleb128 0x6
 14995 03ae 58       		.uleb128 0x58
 14996 03af 0B       		.uleb128 0xb
 14997 03b0 59       		.uleb128 0x59
 14998 03b1 05       		.uleb128 0x5
 14999 03b2 00       		.byte	0
 15000 03b3 00       		.byte	0
 15001 03b4 4A       		.uleb128 0x4a
 15002 03b5 34       		.uleb128 0x34
 15003 03b6 00       		.byte	0
 15004 03b7 03       		.uleb128 0x3
 15005 03b8 0E       		.uleb128 0xe
 15006 03b9 3A       		.uleb128 0x3a
 15007 03ba 0B       		.uleb128 0xb
 15008 03bb 3B       		.uleb128 0x3b
 15009 03bc 05       		.uleb128 0x5
 15010 03bd 49       		.uleb128 0x49
 15011 03be 13       		.uleb128 0x13
 15012 03bf 02       		.uleb128 0x2
 15013 03c0 18       		.uleb128 0x18
 15014 03c1 00       		.byte	0
 15015 03c2 00       		.byte	0
 15016 03c3 4B       		.uleb128 0x4b
 15017 03c4 34       		.uleb128 0x34
 15018 03c5 00       		.byte	0
ARM GAS  C:\Users\CHRIST~1\AppData\Local\Temp\ccVm3NB4.s 			page 275


 15019 03c6 03       		.uleb128 0x3
 15020 03c7 08       		.uleb128 0x8
 15021 03c8 3A       		.uleb128 0x3a
 15022 03c9 0B       		.uleb128 0xb
 15023 03ca 3B       		.uleb128 0x3b
 15024 03cb 05       		.uleb128 0x5
 15025 03cc 49       		.uleb128 0x49
 15026 03cd 13       		.uleb128 0x13
 15027 03ce 02       		.uleb128 0x2
 15028 03cf 18       		.uleb128 0x18
 15029 03d0 00       		.byte	0
 15030 03d1 00       		.byte	0
 15031 03d2 4C       		.uleb128 0x4c
 15032 03d3 34       		.uleb128 0x34
 15033 03d4 00       		.byte	0
 15034 03d5 03       		.uleb128 0x3
 15035 03d6 0E       		.uleb128 0xe
 15036 03d7 3A       		.uleb128 0x3a
 15037 03d8 0B       		.uleb128 0xb
 15038 03d9 3B       		.uleb128 0x3b
 15039 03da 05       		.uleb128 0x5
 15040 03db 49       		.uleb128 0x49
 15041 03dc 13       		.uleb128 0x13
 15042 03dd 00       		.byte	0
 15043 03de 00       		.byte	0
 15044 03df 4D       		.uleb128 0x4d
 15045 03e0 898201   		.uleb128 0x4109
 15046 03e3 01       		.byte	0x1
 15047 03e4 11       		.uleb128 0x11
 15048 03e5 01       		.uleb128 0x1
 15049 03e6 00       		.byte	0
 15050 03e7 00       		.byte	0
 15051 03e8 4E       		.uleb128 0x4e
 15052 03e9 2E       		.uleb128 0x2e
 15053 03ea 01       		.byte	0x1
 15054 03eb 03       		.uleb128 0x3
 15055 03ec 0E       		.uleb128 0xe
 15056 03ed 3A       		.uleb128 0x3a
 15057 03ee 0B       		.uleb128 0xb
 15058 03ef 3B       		.uleb128 0x3b
 15059 03f0 05       		.uleb128 0x5
 15060 03f1 27       		.uleb128 0x27
 15061 03f2 19       		.uleb128 0x19
 15062 03f3 49       		.uleb128 0x49
 15063 03f4 13       		.uleb128 0x13
 15064 03f5 20       		.uleb128 0x20
 15065 03f6 0B       		.uleb128 0xb
 15066 03f7 01       		.uleb128 0x1
 15067 03f8 13       		.uleb128 0x13
 15068 03f9 00       		.byte	0
 15069 03fa 00       		.byte	0
 15070 03fb 4F       		.uleb128 0x4f
 15071 03fc 05       		.uleb128 0x5
 15072 03fd 00       		.byte	0
 15073 03fe 03       		.uleb128 0x3
 15074 03ff 0E       		.uleb128 0xe
 15075 0400 3A       		.uleb128 0x3a
ARM GAS  C:\Users\CHRIST~1\AppData\Local\Temp\ccVm3NB4.s 			page 276


 15076 0401 0B       		.uleb128 0xb
 15077 0402 3B       		.uleb128 0x3b
 15078 0403 05       		.uleb128 0x5
 15079 0404 49       		.uleb128 0x49
 15080 0405 13       		.uleb128 0x13
 15081 0406 00       		.byte	0
 15082 0407 00       		.byte	0
 15083 0408 50       		.uleb128 0x50
 15084 0409 2E       		.uleb128 0x2e
 15085 040a 00       		.byte	0
 15086 040b 03       		.uleb128 0x3
 15087 040c 0E       		.uleb128 0xe
 15088 040d 3A       		.uleb128 0x3a
 15089 040e 0B       		.uleb128 0xb
 15090 040f 3B       		.uleb128 0x3b
 15091 0410 0B       		.uleb128 0xb
 15092 0411 27       		.uleb128 0x27
 15093 0412 19       		.uleb128 0x19
 15094 0413 49       		.uleb128 0x49
 15095 0414 13       		.uleb128 0x13
 15096 0415 20       		.uleb128 0x20
 15097 0416 0B       		.uleb128 0xb
 15098 0417 00       		.byte	0
 15099 0418 00       		.byte	0
 15100 0419 51       		.uleb128 0x51
 15101 041a 2E       		.uleb128 0x2e
 15102 041b 01       		.byte	0x1
 15103 041c 03       		.uleb128 0x3
 15104 041d 0E       		.uleb128 0xe
 15105 041e 3A       		.uleb128 0x3a
 15106 041f 0B       		.uleb128 0xb
 15107 0420 3B       		.uleb128 0x3b
 15108 0421 05       		.uleb128 0x5
 15109 0422 27       		.uleb128 0x27
 15110 0423 19       		.uleb128 0x19
 15111 0424 20       		.uleb128 0x20
 15112 0425 0B       		.uleb128 0xb
 15113 0426 01       		.uleb128 0x1
 15114 0427 13       		.uleb128 0x13
 15115 0428 00       		.byte	0
 15116 0429 00       		.byte	0
 15117 042a 52       		.uleb128 0x52
 15118 042b 34       		.uleb128 0x34
 15119 042c 00       		.byte	0
 15120 042d 03       		.uleb128 0x3
 15121 042e 0E       		.uleb128 0xe
 15122 042f 49       		.uleb128 0x49
 15123 0430 13       		.uleb128 0x13
 15124 0431 34       		.uleb128 0x34
 15125 0432 19       		.uleb128 0x19
 15126 0433 1C       		.uleb128 0x1c
 15127 0434 0E       		.uleb128 0xe
 15128 0435 00       		.byte	0
 15129 0436 00       		.byte	0
 15130 0437 53       		.uleb128 0x53
 15131 0438 2E       		.uleb128 0x2e
 15132 0439 00       		.byte	0
ARM GAS  C:\Users\CHRIST~1\AppData\Local\Temp\ccVm3NB4.s 			page 277


 15133 043a 03       		.uleb128 0x3
 15134 043b 0E       		.uleb128 0xe
 15135 043c 3A       		.uleb128 0x3a
 15136 043d 0B       		.uleb128 0xb
 15137 043e 3B       		.uleb128 0x3b
 15138 043f 05       		.uleb128 0x5
 15139 0440 27       		.uleb128 0x27
 15140 0441 19       		.uleb128 0x19
 15141 0442 20       		.uleb128 0x20
 15142 0443 0B       		.uleb128 0xb
 15143 0444 00       		.byte	0
 15144 0445 00       		.byte	0
 15145 0446 54       		.uleb128 0x54
 15146 0447 2E       		.uleb128 0x2e
 15147 0448 00       		.byte	0
 15148 0449 3F       		.uleb128 0x3f
 15149 044a 19       		.uleb128 0x19
 15150 044b 3C       		.uleb128 0x3c
 15151 044c 19       		.uleb128 0x19
 15152 044d 6E       		.uleb128 0x6e
 15153 044e 0E       		.uleb128 0xe
 15154 044f 03       		.uleb128 0x3
 15155 0450 0E       		.uleb128 0xe
 15156 0451 3A       		.uleb128 0x3a
 15157 0452 0B       		.uleb128 0xb
 15158 0453 3B       		.uleb128 0x3b
 15159 0454 0B       		.uleb128 0xb
 15160 0455 00       		.byte	0
 15161 0456 00       		.byte	0
 15162 0457 55       		.uleb128 0x55
 15163 0458 2E       		.uleb128 0x2e
 15164 0459 00       		.byte	0
 15165 045a 3F       		.uleb128 0x3f
 15166 045b 19       		.uleb128 0x19
 15167 045c 3C       		.uleb128 0x3c
 15168 045d 19       		.uleb128 0x19
 15169 045e 6E       		.uleb128 0x6e
 15170 045f 0E       		.uleb128 0xe
 15171 0460 03       		.uleb128 0x3
 15172 0461 0E       		.uleb128 0xe
 15173 0462 00       		.byte	0
 15174 0463 00       		.byte	0
 15175 0464 00       		.byte	0
 15176              		.section	.debug_loc,"",%progbits
 15177              	.Ldebug_loc0:
 15178              	.LLST34:
 15179 0000 00000000 		.4byte	.LVL362
 15180 0004 1C000000 		.4byte	.LVL364
 15181 0008 0100     		.2byte	0x1
 15182 000a 50       		.byte	0x50
 15183 000b 1C000000 		.4byte	.LVL364
 15184 000f 8C000000 		.4byte	.LFE259
 15185 0013 0100     		.2byte	0x1
 15186 0015 55       		.byte	0x55
 15187 0016 00000000 		.4byte	0
 15188 001a 00000000 		.4byte	0
 15189              	.LLST35:
ARM GAS  C:\Users\CHRIST~1\AppData\Local\Temp\ccVm3NB4.s 			page 278


 15190 001e 00000000 		.4byte	.LVL362
 15191 0022 24000000 		.4byte	.LVL365
 15192 0026 0100     		.2byte	0x1
 15193 0028 51       		.byte	0x51
 15194 0029 24000000 		.4byte	.LVL365
 15195 002d 7E000000 		.4byte	.LVL373
 15196 0031 0100     		.2byte	0x1
 15197 0033 5B       		.byte	0x5b
 15198 0034 7E000000 		.4byte	.LVL373
 15199 0038 8C000000 		.4byte	.LFE259
 15200 003c 0100     		.2byte	0x1
 15201 003e 51       		.byte	0x51
 15202 003f 00000000 		.4byte	0
 15203 0043 00000000 		.4byte	0
 15204              	.LLST36:
 15205 0047 00000000 		.4byte	.LVL362
 15206 004b 24000000 		.4byte	.LVL365
 15207 004f 0100     		.2byte	0x1
 15208 0051 52       		.byte	0x52
 15209 0052 24000000 		.4byte	.LVL365
 15210 0056 7E000000 		.4byte	.LVL373
 15211 005a 0100     		.2byte	0x1
 15212 005c 5A       		.byte	0x5a
 15213 005d 7E000000 		.4byte	.LVL373
 15214 0061 8C000000 		.4byte	.LFE259
 15215 0065 0100     		.2byte	0x1
 15216 0067 52       		.byte	0x52
 15217 0068 00000000 		.4byte	0
 15218 006c 00000000 		.4byte	0
 15219              	.LLST37:
 15220 0070 00000000 		.4byte	.LVL362
 15221 0074 24000000 		.4byte	.LVL365
 15222 0078 0100     		.2byte	0x1
 15223 007a 53       		.byte	0x53
 15224 007b 24000000 		.4byte	.LVL365
 15225 007f 7E000000 		.4byte	.LVL373
 15226 0083 0100     		.2byte	0x1
 15227 0085 59       		.byte	0x59
 15228 0086 7E000000 		.4byte	.LVL373
 15229 008a 80000000 		.4byte	.LVL374
 15230 008e 0100     		.2byte	0x1
 15231 0090 53       		.byte	0x53
 15232 0091 80000000 		.4byte	.LVL374
 15233 0095 8C000000 		.4byte	.LFE259
 15234 0099 0100     		.2byte	0x1
 15235 009b 59       		.byte	0x59
 15236 009c 00000000 		.4byte	0
 15237 00a0 00000000 		.4byte	0
 15238              	.LLST38:
 15239 00a4 0E000000 		.4byte	.LVL363
 15240 00a8 40000000 		.4byte	.LVL369
 15241 00ac 0100     		.2byte	0x1
 15242 00ae 57       		.byte	0x57
 15243 00af 54000000 		.4byte	.LVL370
 15244 00b3 5A000000 		.4byte	.LVL371
 15245 00b7 0100     		.2byte	0x1
 15246 00b9 57       		.byte	0x57
ARM GAS  C:\Users\CHRIST~1\AppData\Local\Temp\ccVm3NB4.s 			page 279


 15247 00ba 5A000000 		.4byte	.LVL371
 15248 00be 7E000000 		.4byte	.LVL373
 15249 00c2 0300     		.2byte	0x3
 15250 00c4 77       		.byte	0x77
 15251 00c5 7F       		.sleb128 -1
 15252 00c6 9F       		.byte	0x9f
 15253 00c7 7E000000 		.4byte	.LVL373
 15254 00cb 8C000000 		.4byte	.LFE259
 15255 00cf 0100     		.2byte	0x1
 15256 00d1 57       		.byte	0x57
 15257 00d2 00000000 		.4byte	0
 15258 00d6 00000000 		.4byte	0
 15259              	.LLST39:
 15260 00da 0E000000 		.4byte	.LVL363
 15261 00de 24000000 		.4byte	.LVL365
 15262 00e2 0200     		.2byte	0x2
 15263 00e4 30       		.byte	0x30
 15264 00e5 9F       		.byte	0x9f
 15265 00e6 24000000 		.4byte	.LVL365
 15266 00ea 26000000 		.4byte	.LVL366
 15267 00ee 0300     		.2byte	0x3
 15268 00f0 74       		.byte	0x74
 15269 00f1 01       		.sleb128 1
 15270 00f2 9F       		.byte	0x9f
 15271 00f3 26000000 		.4byte	.LVL366
 15272 00f7 34000000 		.4byte	.LVL367
 15273 00fb 0100     		.2byte	0x1
 15274 00fd 54       		.byte	0x54
 15275 00fe 3A000000 		.4byte	.LVL368
 15276 0102 40000000 		.4byte	.LVL369
 15277 0106 0300     		.2byte	0x3
 15278 0108 74       		.byte	0x74
 15279 0109 01       		.sleb128 1
 15280 010a 9F       		.byte	0x9f
 15281 010b 7E000000 		.4byte	.LVL373
 15282 010f 8C000000 		.4byte	.LFE259
 15283 0113 0200     		.2byte	0x2
 15284 0115 30       		.byte	0x30
 15285 0116 9F       		.byte	0x9f
 15286 0117 00000000 		.4byte	0
 15287 011b 00000000 		.4byte	0
 15288              	.LLST33:
 15289 011f 00000000 		.4byte	.LVL357
 15290 0123 0C000000 		.4byte	.LVL358
 15291 0127 0100     		.2byte	0x1
 15292 0129 50       		.byte	0x50
 15293 012a 0C000000 		.4byte	.LVL358
 15294 012e 20000000 		.4byte	.LVL359
 15295 0132 0300     		.2byte	0x3
 15296 0134 75       		.byte	0x75
 15297 0135 70       		.sleb128 -16
 15298 0136 9F       		.byte	0x9f
 15299 0137 20000000 		.4byte	.LVL359
 15300 013b 24000000 		.4byte	.LVL360
 15301 013f 0300     		.2byte	0x3
 15302 0141 75       		.byte	0x75
 15303 0142 60       		.sleb128 -32
ARM GAS  C:\Users\CHRIST~1\AppData\Local\Temp\ccVm3NB4.s 			page 280


 15304 0143 9F       		.byte	0x9f
 15305 0144 24000000 		.4byte	.LVL360
 15306 0148 3A000000 		.4byte	.LVL361
 15307 014c 0300     		.2byte	0x3
 15308 014e 75       		.byte	0x75
 15309 014f 50       		.sleb128 -48
 15310 0150 9F       		.byte	0x9f
 15311 0151 3A000000 		.4byte	.LVL361
 15312 0155 44000000 		.4byte	.LFE258
 15313 0159 0400     		.2byte	0x4
 15314 015b F3       		.byte	0xf3
 15315 015c 01       		.uleb128 0x1
 15316 015d 50       		.byte	0x50
 15317 015e 9F       		.byte	0x9f
 15318 015f 00000000 		.4byte	0
 15319 0163 00000000 		.4byte	0
 15320              	.LLST0:
 15321 0167 00000000 		.4byte	.LVL0
 15322 016b 0F000000 		.4byte	.LVL1-1
 15323 016f 0100     		.2byte	0x1
 15324 0171 50       		.byte	0x50
 15325 0172 0F000000 		.4byte	.LVL1-1
 15326 0176 10110000 		.4byte	.LFE257
 15327 017a 0400     		.2byte	0x4
 15328 017c F3       		.byte	0xf3
 15329 017d 01       		.uleb128 0x1
 15330 017e 50       		.byte	0x50
 15331 017f 9F       		.byte	0x9f
 15332 0180 00000000 		.4byte	0
 15333 0184 00000000 		.4byte	0
 15334              	.LLST1:
 15335 0188 00000000 		.4byte	.LVL0
 15336 018c 1E000000 		.4byte	.LVL2
 15337 0190 0200     		.2byte	0x2
 15338 0192 30       		.byte	0x30
 15339 0193 9F       		.byte	0x9f
 15340 0194 1E000000 		.4byte	.LVL2
 15341 0198 10010000 		.4byte	.LVL24
 15342 019c 0100     		.2byte	0x1
 15343 019e 54       		.byte	0x54
 15344 019f 10010000 		.4byte	.LVL24
 15345 01a3 16010000 		.4byte	.LVL26
 15346 01a7 0200     		.2byte	0x2
 15347 01a9 30       		.byte	0x30
 15348 01aa 9F       		.byte	0x9f
 15349 01ab 20010000 		.4byte	.LVL27
 15350 01af CE010000 		.4byte	.LVL47
 15351 01b3 0100     		.2byte	0x1
 15352 01b5 54       		.byte	0x54
 15353 01b6 EC010000 		.4byte	.LVL52
 15354 01ba 02020000 		.4byte	.LVL56
 15355 01be 0100     		.2byte	0x1
 15356 01c0 54       		.byte	0x54
 15357 01c1 38020000 		.4byte	.LVL62
 15358 01c5 FC020000 		.4byte	.LVL67
 15359 01c9 0100     		.2byte	0x1
 15360 01cb 54       		.byte	0x54
ARM GAS  C:\Users\CHRIST~1\AppData\Local\Temp\ccVm3NB4.s 			page 281


 15361 01cc D2030000 		.4byte	.LVL91
 15362 01d0 A0040000 		.4byte	.LVL113
 15363 01d4 0100     		.2byte	0x1
 15364 01d6 54       		.byte	0x54
 15365 01d7 F8040000 		.4byte	.LVL125
 15366 01db 7E050000 		.4byte	.LVL129
 15367 01df 0100     		.2byte	0x1
 15368 01e1 54       		.byte	0x54
 15369 01e2 86050000 		.4byte	.LVL131
 15370 01e6 BA050000 		.4byte	.LVL134
 15371 01ea 0100     		.2byte	0x1
 15372 01ec 54       		.byte	0x54
 15373 01ed C0060000 		.4byte	.LVL140
 15374 01f1 66070000 		.4byte	.LVL155
 15375 01f5 0100     		.2byte	0x1
 15376 01f7 54       		.byte	0x54
 15377 01f8 E6070000 		.4byte	.LVL166
 15378 01fc 04080000 		.4byte	.LVL169
 15379 0200 0100     		.2byte	0x1
 15380 0202 54       		.byte	0x54
 15381 0203 2A080000 		.4byte	.LVL172
 15382 0207 48080000 		.4byte	.LVL175
 15383 020b 0100     		.2byte	0x1
 15384 020d 54       		.byte	0x54
 15385 020e E8080000 		.4byte	.LVL193
 15386 0212 52090000 		.4byte	.LVL199
 15387 0216 0100     		.2byte	0x1
 15388 0218 54       		.byte	0x54
 15389 0219 000A0000 		.4byte	.LVL203
 15390 021d A20A0000 		.4byte	.LVL210
 15391 0221 0100     		.2byte	0x1
 15392 0223 54       		.byte	0x54
 15393 0224 B40A0000 		.4byte	.LVL213
 15394 0228 5C0B0000 		.4byte	.LVL228
 15395 022c 0100     		.2byte	0x1
 15396 022e 54       		.byte	0x54
 15397 022f C80B0000 		.4byte	.LVL248
 15398 0233 C40D0000 		.4byte	.LVL281
 15399 0237 0100     		.2byte	0x1
 15400 0239 54       		.byte	0x54
 15401 023a 220E0000 		.4byte	.LVL285
 15402 023e 9C0F0000 		.4byte	.LVL347
 15403 0242 0100     		.2byte	0x1
 15404 0244 54       		.byte	0x54
 15405 0245 00000000 		.4byte	0
 15406 0249 00000000 		.4byte	0
 15407              	.LLST2:
 15408 024d 10000000 		.4byte	.LVL1
 15409 0251 2A000000 		.4byte	.LVL4
 15410 0255 0100     		.2byte	0x1
 15411 0257 50       		.byte	0x50
 15412 0258 2A000000 		.4byte	.LVL4
 15413 025c 2D000000 		.4byte	.LVL5-1
 15414 0260 0200     		.2byte	0x2
 15415 0262 75       		.byte	0x75
 15416 0263 00       		.sleb128 0
 15417 0264 30000000 		.4byte	.LVL6
ARM GAS  C:\Users\CHRIST~1\AppData\Local\Temp\ccVm3NB4.s 			page 282


 15418 0268 39000000 		.4byte	.LVL7-1
 15419 026c 0100     		.2byte	0x1
 15420 026e 50       		.byte	0x50
 15421 026f 10010000 		.4byte	.LVL24
 15422 0273 12010000 		.4byte	.LVL25
 15423 0277 0100     		.2byte	0x1
 15424 0279 50       		.byte	0x50
 15425 027a 00000000 		.4byte	0
 15426 027e 00000000 		.4byte	0
 15427              	.LLST3:
 15428 0282 CE010000 		.4byte	.LVL47
 15429 0286 D1010000 		.4byte	.LVL48-1
 15430 028a 0100     		.2byte	0x1
 15431 028c 50       		.byte	0x50
 15432 028d D1010000 		.4byte	.LVL48-1
 15433 0291 EC010000 		.4byte	.LVL52
 15434 0295 0100     		.2byte	0x1
 15435 0297 54       		.byte	0x54
 15436 0298 00000000 		.4byte	0
 15437 029c 00000000 		.4byte	0
 15438              	.LLST4:
 15439 02a0 02020000 		.4byte	.LVL56
 15440 02a4 1E020000 		.4byte	.LVL57
 15441 02a8 0100     		.2byte	0x1
 15442 02aa 50       		.byte	0x50
 15443 02ab 1E020000 		.4byte	.LVL57
 15444 02af 2A020000 		.4byte	.LVL59
 15445 02b3 0100     		.2byte	0x1
 15446 02b5 54       		.byte	0x54
 15447 02b6 2A020000 		.4byte	.LVL59
 15448 02ba 32020000 		.4byte	.LVL60
 15449 02be 0100     		.2byte	0x1
 15450 02c0 50       		.byte	0x50
 15451 02c1 32020000 		.4byte	.LVL60
 15452 02c5 38020000 		.4byte	.LVL62
 15453 02c9 0100     		.2byte	0x1
 15454 02cb 54       		.byte	0x54
 15455 02cc 00000000 		.4byte	0
 15456 02d0 00000000 		.4byte	0
 15457              	.LLST5:
 15458 02d4 E6020000 		.4byte	.LVL66
 15459 02d8 FC020000 		.4byte	.LVL67
 15460 02dc 0200     		.2byte	0x2
 15461 02de 30       		.byte	0x30
 15462 02df 9F       		.byte	0x9f
 15463 02e0 FC020000 		.4byte	.LVL67
 15464 02e4 84030000 		.4byte	.LVL82
 15465 02e8 0100     		.2byte	0x1
 15466 02ea 56       		.byte	0x56
 15467 02eb 84030000 		.4byte	.LVL82
 15468 02ef CA030000 		.4byte	.LVL90
 15469 02f3 0300     		.2byte	0x3
 15470 02f5 76       		.byte	0x76
 15471 02f6 7F       		.sleb128 -1
 15472 02f7 9F       		.byte	0x9f
 15473 02f8 CA030000 		.4byte	.LVL90
 15474 02fc D2030000 		.4byte	.LVL91
ARM GAS  C:\Users\CHRIST~1\AppData\Local\Temp\ccVm3NB4.s 			page 283


 15475 0300 0100     		.2byte	0x1
 15476 0302 56       		.byte	0x56
 15477 0303 00000000 		.4byte	0
 15478 0307 00000000 		.4byte	0
 15479              	.LLST6:
 15480 030b 90040000 		.4byte	.LVL107
 15481 030f F8040000 		.4byte	.LVL125
 15482 0313 0100     		.2byte	0x1
 15483 0315 5A       		.byte	0x5a
 15484 0316 00000000 		.4byte	0
 15485 031a 00000000 		.4byte	0
 15486              	.LLST7:
 15487 031e 94040000 		.4byte	.LVL108
 15488 0322 F8040000 		.4byte	.LVL125
 15489 0326 0100     		.2byte	0x1
 15490 0328 59       		.byte	0x59
 15491 0329 00000000 		.4byte	0
 15492 032d 00000000 		.4byte	0
 15493              	.LLST8:
 15494 0331 98040000 		.4byte	.LVL109
 15495 0335 F8040000 		.4byte	.LVL125
 15496 0339 0100     		.2byte	0x1
 15497 033b 58       		.byte	0x58
 15498 033c 00000000 		.4byte	0
 15499 0340 00000000 		.4byte	0
 15500              	.LLST9:
 15501 0344 9A040000 		.4byte	.LVL110
 15502 0348 F8040000 		.4byte	.LVL125
 15503 034c 0100     		.2byte	0x1
 15504 034e 57       		.byte	0x57
 15505 034f 00000000 		.4byte	0
 15506 0353 00000000 		.4byte	0
 15507              	.LLST10:
 15508 0357 9C040000 		.4byte	.LVL111
 15509 035b F8040000 		.4byte	.LVL125
 15510 035f 0100     		.2byte	0x1
 15511 0361 56       		.byte	0x56
 15512 0362 00000000 		.4byte	0
 15513 0366 00000000 		.4byte	0
 15514              	.LLST11:
 15515 036a 9E040000 		.4byte	.LVL112
 15516 036e F8040000 		.4byte	.LVL125
 15517 0372 0100     		.2byte	0x1
 15518 0374 55       		.byte	0x55
 15519 0375 00000000 		.4byte	0
 15520 0379 00000000 		.4byte	0
 15521              	.LLST12:
 15522 037d A0040000 		.4byte	.LVL113
 15523 0381 F8040000 		.4byte	.LVL125
 15524 0385 0100     		.2byte	0x1
 15525 0387 54       		.byte	0x54
 15526 0388 00000000 		.4byte	0
 15527 038c 00000000 		.4byte	0
 15528              	.LLST13:
 15529 0390 64040000 		.4byte	.LVL103
 15530 0394 6A040000 		.4byte	.LVL104
 15531 0398 0300     		.2byte	0x3
ARM GAS  C:\Users\CHRIST~1\AppData\Local\Temp\ccVm3NB4.s 			page 284


 15532 039a 08       		.byte	0x8
 15533 039b 20       		.byte	0x20
 15534 039c 9F       		.byte	0x9f
 15535 039d 00000000 		.4byte	0
 15536 03a1 00000000 		.4byte	0
 15537              	.LLST14:
 15538 03a5 86040000 		.4byte	.LVL105
 15539 03a9 8A040000 		.4byte	.LVL106
 15540 03ad 0200     		.2byte	0x2
 15541 03af 30       		.byte	0x30
 15542 03b0 9F       		.byte	0x9f
 15543 03b1 00000000 		.4byte	0
 15544 03b5 00000000 		.4byte	0
 15545              	.LLST16:
 15546 03b9 46080000 		.4byte	.LVL174
 15547 03bd 48080000 		.4byte	.LVL175
 15548 03c1 0200     		.2byte	0x2
 15549 03c3 30       		.byte	0x30
 15550 03c4 9F       		.byte	0x9f
 15551 03c5 48080000 		.4byte	.LVL175
 15552 03c9 62080000 		.4byte	.LVL179
 15553 03cd 0100     		.2byte	0x1
 15554 03cf 56       		.byte	0x56
 15555 03d0 62080000 		.4byte	.LVL179
 15556 03d4 E8080000 		.4byte	.LVL193
 15557 03d8 0300     		.2byte	0x3
 15558 03da 76       		.byte	0x76
 15559 03db 7F       		.sleb128 -1
 15560 03dc 9F       		.byte	0x9f
 15561 03dd 00000000 		.4byte	0
 15562 03e1 00000000 		.4byte	0
 15563              	.LLST17:
 15564 03e5 48080000 		.4byte	.LVL175
 15565 03e9 4E080000 		.4byte	.LVL176
 15566 03ed 0100     		.2byte	0x1
 15567 03ef 54       		.byte	0x54
 15568 03f0 5A080000 		.4byte	.LVL178
 15569 03f4 82080000 		.4byte	.LVL181
 15570 03f8 0100     		.2byte	0x1
 15571 03fa 50       		.byte	0x50
 15572 03fb 82080000 		.4byte	.LVL181
 15573 03ff E8080000 		.4byte	.LVL193
 15574 0403 0100     		.2byte	0x1
 15575 0405 54       		.byte	0x54
 15576 0406 00000000 		.4byte	0
 15577 040a 00000000 		.4byte	0
 15578              	.LLST18:
 15579 040e 5A080000 		.4byte	.LVL178
 15580 0412 66080000 		.4byte	.LVL180
 15581 0416 0200     		.2byte	0x2
 15582 0418 70       		.byte	0x70
 15583 0419 04       		.sleb128 4
 15584 041a 00000000 		.4byte	0
 15585 041e 00000000 		.4byte	0
 15586              	.LLST19:
 15587 0422 8E080000 		.4byte	.LVL183
 15588 0426 92080000 		.4byte	.LVL184
ARM GAS  C:\Users\CHRIST~1\AppData\Local\Temp\ccVm3NB4.s 			page 285


 15589 042a 0200     		.2byte	0x2
 15590 042c 74       		.byte	0x74
 15591 042d 04       		.sleb128 4
 15592 042e 00000000 		.4byte	0
 15593 0432 00000000 		.4byte	0
 15594              	.LLST15:
 15595 0436 84070000 		.4byte	.LVL157
 15596 043a E6070000 		.4byte	.LVL166
 15597 043e 0100     		.2byte	0x1
 15598 0440 56       		.byte	0x56
 15599 0441 00000000 		.4byte	0
 15600 0445 00000000 		.4byte	0
 15601              	.LLST20:
 15602 0449 48090000 		.4byte	.LVL197
 15603 044d 4F090000 		.4byte	.LVL198-1
 15604 0451 0200     		.2byte	0x2
 15605 0453 90       		.byte	0x90
 15606 0454 40       		.uleb128 0x40
 15607 0455 00000000 		.4byte	0
 15608 0459 00000000 		.4byte	0
 15609              	.LLST21:
 15610 045d 120B0000 		.4byte	.LVL218
 15611 0461 C80B0000 		.4byte	.LVL248
 15612 0465 0200     		.2byte	0x2
 15613 0467 90       		.byte	0x90
 15614 0468 52       		.uleb128 0x52
 15615 0469 00000000 		.4byte	0
 15616 046d 00000000 		.4byte	0
 15617              	.LLST22:
 15618 0471 180B0000 		.4byte	.LVL220
 15619 0475 1B0B0000 		.4byte	.LVL221-1
 15620 0479 0100     		.2byte	0x1
 15621 047b 50       		.byte	0x50
 15622 047c 1B0B0000 		.4byte	.LVL221-1
 15623 0480 C80B0000 		.4byte	.LVL248
 15624 0484 0100     		.2byte	0x1
 15625 0486 57       		.byte	0x57
 15626 0487 00000000 		.4byte	0
 15627 048b 00000000 		.4byte	0
 15628              	.LLST23:
 15629 048f 200B0000 		.4byte	.LVL222
 15630 0493 230B0000 		.4byte	.LVL223-1
 15631 0497 0200     		.2byte	0x2
 15632 0499 90       		.byte	0x90
 15633 049a 40       		.uleb128 0x40
 15634 049b 230B0000 		.4byte	.LVL223-1
 15635 049f C80B0000 		.4byte	.LVL248
 15636 04a3 0200     		.2byte	0x2
 15637 04a5 90       		.byte	0x90
 15638 04a6 55       		.uleb128 0x55
 15639 04a7 00000000 		.4byte	0
 15640 04ab 00000000 		.4byte	0
 15641              	.LLST24:
 15642 04af 6C0B0000 		.4byte	.LVL229
 15643 04b3 A60B0000 		.4byte	.LVL241
 15644 04b7 0200     		.2byte	0x2
 15645 04b9 90       		.byte	0x90
ARM GAS  C:\Users\CHRIST~1\AppData\Local\Temp\ccVm3NB4.s 			page 286


 15646 04ba 54       		.uleb128 0x54
 15647 04bb A60B0000 		.4byte	.LVL241
 15648 04bf AE0B0000 		.4byte	.LVL243
 15649 04c3 0800     		.2byte	0x8
 15650 04c5 F5       		.byte	0xf5
 15651 04c6 54       		.uleb128 0x54
 15652 04c7 25       		.uleb128 0x25
 15653 04c8 F5       		.byte	0xf5
 15654 04c9 51       		.uleb128 0x51
 15655 04ca 25       		.uleb128 0x25
 15656 04cb 1B       		.byte	0x1b
 15657 04cc 9F       		.byte	0x9f
 15658 04cd AE0B0000 		.4byte	.LVL243
 15659 04d1 B60B0000 		.4byte	.LVL245
 15660 04d5 0200     		.2byte	0x2
 15661 04d7 90       		.byte	0x90
 15662 04d8 4E       		.uleb128 0x4e
 15663 04d9 B60B0000 		.4byte	.LVL245
 15664 04dd C80B0000 		.4byte	.LVL248
 15665 04e1 0800     		.2byte	0x8
 15666 04e3 F5       		.byte	0xf5
 15667 04e4 54       		.uleb128 0x54
 15668 04e5 25       		.uleb128 0x25
 15669 04e6 F5       		.byte	0xf5
 15670 04e7 51       		.uleb128 0x51
 15671 04e8 25       		.uleb128 0x25
 15672 04e9 1B       		.byte	0x1b
 15673 04ea 9F       		.byte	0x9f
 15674 04eb 00000000 		.4byte	0
 15675 04ef 00000000 		.4byte	0
 15676              	.LLST25:
 15677 04f3 6C0B0000 		.4byte	.LVL229
 15678 04f7 A60B0000 		.4byte	.LVL241
 15679 04fb 0200     		.2byte	0x2
 15680 04fd 90       		.byte	0x90
 15681 04fe 53       		.uleb128 0x53
 15682 04ff A60B0000 		.4byte	.LVL241
 15683 0503 B20B0000 		.4byte	.LVL244
 15684 0507 0800     		.2byte	0x8
 15685 0509 F5       		.byte	0xf5
 15686 050a 53       		.uleb128 0x53
 15687 050b 25       		.uleb128 0x25
 15688 050c F5       		.byte	0xf5
 15689 050d 51       		.uleb128 0x51
 15690 050e 25       		.uleb128 0x25
 15691 050f 1B       		.byte	0x1b
 15692 0510 9F       		.byte	0x9f
 15693 0511 B20B0000 		.4byte	.LVL244
 15694 0515 BE0B0000 		.4byte	.LVL247
 15695 0519 0200     		.2byte	0x2
 15696 051b 90       		.byte	0x90
 15697 051c 4F       		.uleb128 0x4f
 15698 051d BE0B0000 		.4byte	.LVL247
 15699 0521 C80B0000 		.4byte	.LVL248
 15700 0525 0800     		.2byte	0x8
 15701 0527 F5       		.byte	0xf5
 15702 0528 53       		.uleb128 0x53
ARM GAS  C:\Users\CHRIST~1\AppData\Local\Temp\ccVm3NB4.s 			page 287


 15703 0529 25       		.uleb128 0x25
 15704 052a F5       		.byte	0xf5
 15705 052b 51       		.uleb128 0x51
 15706 052c 25       		.uleb128 0x25
 15707 052d 1B       		.byte	0x1b
 15708 052e 9F       		.byte	0x9f
 15709 052f 00000000 		.4byte	0
 15710 0533 00000000 		.4byte	0
 15711              	.LLST26:
 15712 0537 6C0B0000 		.4byte	.LVL229
 15713 053b C80B0000 		.4byte	.LVL248
 15714 053f 0200     		.2byte	0x2
 15715 0541 90       		.byte	0x90
 15716 0542 51       		.uleb128 0x51
 15717 0543 00000000 		.4byte	0
 15718 0547 00000000 		.4byte	0
 15719              	.LLST27:
 15720 054b 6C0B0000 		.4byte	.LVL229
 15721 054f A60B0000 		.4byte	.LVL241
 15722 0553 0200     		.2byte	0x2
 15723 0555 90       		.byte	0x90
 15724 0556 50       		.uleb128 0x50
 15725 0557 A60B0000 		.4byte	.LVL241
 15726 055b AA0B0000 		.4byte	.LVL242
 15727 055f 0800     		.2byte	0x8
 15728 0561 F5       		.byte	0xf5
 15729 0562 50       		.uleb128 0x50
 15730 0563 25       		.uleb128 0x25
 15731 0564 F5       		.byte	0xf5
 15732 0565 51       		.uleb128 0x51
 15733 0566 25       		.uleb128 0x25
 15734 0567 1B       		.byte	0x1b
 15735 0568 9F       		.byte	0x9f
 15736 0569 AA0B0000 		.4byte	.LVL242
 15737 056d BA0B0000 		.4byte	.LVL246
 15738 0571 0200     		.2byte	0x2
 15739 0573 90       		.byte	0x90
 15740 0574 4D       		.uleb128 0x4d
 15741 0575 BA0B0000 		.4byte	.LVL246
 15742 0579 C80B0000 		.4byte	.LVL248
 15743 057d 0800     		.2byte	0x8
 15744 057f F5       		.byte	0xf5
 15745 0580 50       		.uleb128 0x50
 15746 0581 25       		.uleb128 0x25
 15747 0582 F5       		.byte	0xf5
 15748 0583 51       		.uleb128 0x51
 15749 0584 25       		.uleb128 0x25
 15750 0585 1B       		.byte	0x1b
 15751 0586 9F       		.byte	0x9f
 15752 0587 00000000 		.4byte	0
 15753 058b 00000000 		.4byte	0
 15754              	.LLST28:
 15755 058f 300B0000 		.4byte	.LVL224
 15756 0593 420B0000 		.4byte	.LVL225
 15757 0597 0100     		.2byte	0x1
 15758 0599 56       		.byte	0x56
 15759 059a 420B0000 		.4byte	.LVL225
ARM GAS  C:\Users\CHRIST~1\AppData\Local\Temp\ccVm3NB4.s 			page 288


 15760 059e 500B0000 		.4byte	.LVL227
 15761 05a2 0300     		.2byte	0x3
 15762 05a4 76       		.byte	0x76
 15763 05a5 7F       		.sleb128 -1
 15764 05a6 9F       		.byte	0x9f
 15765 05a7 500B0000 		.4byte	.LVL227
 15766 05ab C80B0000 		.4byte	.LVL248
 15767 05af 0100     		.2byte	0x1
 15768 05b1 56       		.byte	0x56
 15769 05b2 00000000 		.4byte	0
 15770 05b6 00000000 		.4byte	0
 15771              	.LLST29:
 15772 05ba 6C0B0000 		.4byte	.LVL229
 15773 05be 8C0B0000 		.4byte	.LVL237
 15774 05c2 0700     		.2byte	0x7
 15775 05c4 0A       		.byte	0xa
 15776 05c5 E803     		.2byte	0x3e8
 15777 05c7 74       		.byte	0x74
 15778 05c8 00       		.sleb128 0
 15779 05c9 1C       		.byte	0x1c
 15780 05ca 9F       		.byte	0x9f
 15781 05cb 8C0B0000 		.4byte	.LVL237
 15782 05cf 900B0000 		.4byte	.LVL238
 15783 05d3 0700     		.2byte	0x7
 15784 05d5 0A       		.byte	0xa
 15785 05d6 E703     		.2byte	0x3e7
 15786 05d8 74       		.byte	0x74
 15787 05d9 00       		.sleb128 0
 15788 05da 1C       		.byte	0x1c
 15789 05db 9F       		.byte	0x9f
 15790 05dc 00000000 		.4byte	0
 15791 05e0 00000000 		.4byte	0
 15792              	.LLST32:
 15793 05e4 940F0000 		.4byte	.LVL346
 15794 05e8 A60F0000 		.4byte	.LVL348
 15795 05ec 0200     		.2byte	0x2
 15796 05ee 30       		.byte	0x30
 15797 05ef 9F       		.byte	0x9f
 15798 05f0 A60F0000 		.4byte	.LVL348
 15799 05f4 CC0F0000 		.4byte	.LVL352
 15800 05f8 0100     		.2byte	0x1
 15801 05fa 56       		.byte	0x56
 15802 05fb D60F0000 		.4byte	.LVL354
 15803 05ff 10110000 		.4byte	.LFE257
 15804 0603 0100     		.2byte	0x1
 15805 0605 56       		.byte	0x56
 15806 0606 00000000 		.4byte	0
 15807 060a 00000000 		.4byte	0
 15808              	.LLST30:
 15809 060e 1A0D0000 		.4byte	.LVL275
 15810 0612 260D0000 		.4byte	.LVL277
 15811 0616 0200     		.2byte	0x2
 15812 0618 30       		.byte	0x30
 15813 0619 9F       		.byte	0x9f
 15814 061a 440E0000 		.4byte	.LVL290
 15815 061e 480E0000 		.4byte	.LVL291
 15816 0622 0200     		.2byte	0x2
ARM GAS  C:\Users\CHRIST~1\AppData\Local\Temp\ccVm3NB4.s 			page 289


 15817 0624 31       		.byte	0x31
 15818 0625 9F       		.byte	0x9f
 15819 0626 00000000 		.4byte	0
 15820 062a 00000000 		.4byte	0
 15821              	.LLST31:
 15822 062e F00C0000 		.4byte	.LVL271
 15823 0632 000D0000 		.4byte	.LVL272
 15824 0636 0200     		.2byte	0x2
 15825 0638 30       		.byte	0x30
 15826 0639 9F       		.byte	0x9f
 15827 063a 000D0000 		.4byte	.LVL272
 15828 063e 1A0D0000 		.4byte	.LVL275
 15829 0642 0100     		.2byte	0x1
 15830 0644 57       		.byte	0x57
 15831 0645 3A0E0000 		.4byte	.LVL289
 15832 0649 480E0000 		.4byte	.LVL291
 15833 064d 0100     		.2byte	0x1
 15834 064f 57       		.byte	0x57
 15835 0650 00000000 		.4byte	0
 15836 0654 00000000 		.4byte	0
 15837              		.section	.debug_aranges,"",%progbits
 15838 0000 2C000000 		.4byte	0x2c
 15839 0004 0200     		.2byte	0x2
 15840 0006 00000000 		.4byte	.Ldebug_info0
 15841 000a 04       		.byte	0x4
 15842 000b 00       		.byte	0
 15843 000c 0000     		.2byte	0
 15844 000e 0000     		.2byte	0
 15845 0010 00000000 		.4byte	.LFB257
 15846 0014 10110000 		.4byte	.LFE257-.LFB257
 15847 0018 00000000 		.4byte	.LFB258
 15848 001c 44000000 		.4byte	.LFE258-.LFB258
 15849 0020 00000000 		.4byte	.LFB259
 15850 0024 8C000000 		.4byte	.LFE259-.LFB259
 15851 0028 00000000 		.4byte	0
 15852 002c 00000000 		.4byte	0
 15853              		.section	.debug_ranges,"",%progbits
 15854              	.Ldebug_ranges0:
 15855 0000 F8040000 		.4byte	.LBB72
 15856 0004 7E050000 		.4byte	.LBE72
 15857 0008 F8060000 		.4byte	.LBB79
 15858 000c 46070000 		.4byte	.LBE79
 15859 0010 E6070000 		.4byte	.LBB82
 15860 0014 22080000 		.4byte	.LBE82
 15861 0018 2A080000 		.4byte	.LBB84
 15862 001c 36080000 		.4byte	.LBE84
 15863 0020 00000000 		.4byte	0
 15864 0024 00000000 		.4byte	0
 15865 0028 F8060000 		.4byte	.LBB73
 15866 002c 46070000 		.4byte	.LBE73
 15867 0030 E6070000 		.4byte	.LBB74
 15868 0034 22080000 		.4byte	.LBE74
 15869 0038 2A080000 		.4byte	.LBB75
 15870 003c 34080000 		.4byte	.LBE75
 15871 0040 00000000 		.4byte	0
 15872 0044 00000000 		.4byte	0
 15873 0048 7E050000 		.4byte	.LBB76
ARM GAS  C:\Users\CHRIST~1\AppData\Local\Temp\ccVm3NB4.s 			page 290


 15874 004c 86050000 		.4byte	.LBE76
 15875 0050 9E0C0000 		.4byte	.LBB114
 15876 0054 E00C0000 		.4byte	.LBE114
 15877 0058 00000000 		.4byte	0
 15878 005c 00000000 		.4byte	0
 15879 0060 46070000 		.4byte	.LBB80
 15880 0064 E6070000 		.4byte	.LBE80
 15881 0068 22080000 		.4byte	.LBB83
 15882 006c 2A080000 		.4byte	.LBE83
 15883 0070 00000000 		.4byte	0
 15884 0074 00000000 		.4byte	0
 15885 0078 38080000 		.4byte	.LBB85
 15886 007c 42080000 		.4byte	.LBE85
 15887 0080 48080000 		.4byte	.LBB101
 15888 0084 E8080000 		.4byte	.LBE101
 15889 0088 00000000 		.4byte	0
 15890 008c 00000000 		.4byte	0
 15891 0090 38080000 		.4byte	.LBB86
 15892 0094 42080000 		.4byte	.LBE86
 15893 0098 4E080000 		.4byte	.LBB99
 15894 009c 5E080000 		.4byte	.LBE99
 15895 00a0 62080000 		.4byte	.LBB100
 15896 00a4 E8080000 		.4byte	.LBE100
 15897 00a8 00000000 		.4byte	0
 15898 00ac 00000000 		.4byte	0
 15899 00b0 38080000 		.4byte	.LBB87
 15900 00b4 3A080000 		.4byte	.LBE87
 15901 00b8 64080000 		.4byte	.LBB94
 15902 00bc 6A080000 		.4byte	.LBE94
 15903 00c0 00000000 		.4byte	0
 15904 00c4 00000000 		.4byte	0
 15905 00c8 38080000 		.4byte	.LBB89
 15906 00cc 3A080000 		.4byte	.LBE89
 15907 00d0 64080000 		.4byte	.LBB92
 15908 00d4 66080000 		.4byte	.LBE92
 15909 00d8 00000000 		.4byte	0
 15910 00dc 00000000 		.4byte	0
 15911 00e0 A20A0000 		.4byte	.LBB106
 15912 00e4 B40A0000 		.4byte	.LBE106
 15913 00e8 D80A0000 		.4byte	.LBB112
 15914 00ec C80B0000 		.4byte	.LBE112
 15915 00f0 00000000 		.4byte	0
 15916 00f4 00000000 		.4byte	0
 15917 00f8 A20A0000 		.4byte	.LBB107
 15918 00fc B00A0000 		.4byte	.LBE107
 15919 0100 F80A0000 		.4byte	.LBB111
 15920 0104 C80B0000 		.4byte	.LBE111
 15921 0108 00000000 		.4byte	0
 15922 010c 00000000 		.4byte	0
 15923 0110 FA0A0000 		.4byte	.LBB108
 15924 0114 FE0A0000 		.4byte	.LBE108
 15925 0118 300B0000 		.4byte	.LBB109
 15926 011c 680B0000 		.4byte	.LBE109
 15927 0120 00000000 		.4byte	0
 15928 0124 00000000 		.4byte	0
 15929 0128 F00C0000 		.4byte	.LBB115
 15930 012c 260D0000 		.4byte	.LBE115
ARM GAS  C:\Users\CHRIST~1\AppData\Local\Temp\ccVm3NB4.s 			page 291


 15931 0130 3A0E0000 		.4byte	.LBB118
 15932 0134 480E0000 		.4byte	.LBE118
 15933 0138 00000000 		.4byte	0
 15934 013c 00000000 		.4byte	0
 15935 0140 F00C0000 		.4byte	.LBB116
 15936 0144 1A0D0000 		.4byte	.LBE116
 15937 0148 3A0E0000 		.4byte	.LBB117
 15938 014c 480E0000 		.4byte	.LBE117
 15939 0150 00000000 		.4byte	0
 15940 0154 00000000 		.4byte	0
 15941 0158 4A0E0000 		.4byte	.LBB119
 15942 015c 4C0E0000 		.4byte	.LBE119
 15943 0160 940F0000 		.4byte	.LBB120
 15944 0164 CC0F0000 		.4byte	.LBE120
 15945 0168 D60F0000 		.4byte	.LBB121
 15946 016c 10110000 		.4byte	.LBE121
 15947 0170 00000000 		.4byte	0
 15948 0174 00000000 		.4byte	0
 15949 0178 08000000 		.4byte	.LBB122
 15950 017c 0A000000 		.4byte	.LBE122
 15951 0180 0E000000 		.4byte	.LBB123
 15952 0184 10000000 		.4byte	.LBE123
 15953 0188 18000000 		.4byte	.LBB124
 15954 018c 40000000 		.4byte	.LBE124
 15955 0190 00000000 		.4byte	0
 15956 0194 00000000 		.4byte	0
 15957 0198 00000000 		.4byte	.LFB257
 15958 019c 10110000 		.4byte	.LFE257
 15959 01a0 00000000 		.4byte	.LFB258
 15960 01a4 44000000 		.4byte	.LFE258
 15961 01a8 00000000 		.4byte	.LFB259
 15962 01ac 8C000000 		.4byte	.LFE259
 15963 01b0 00000000 		.4byte	0
 15964 01b4 00000000 		.4byte	0
 15965              		.section	.debug_line,"",%progbits
 15966              	.Ldebug_line0:
 15967 0000 B60A0000 		.section	.debug_str,"MS",%progbits,1
 15967      02007A06 
 15967      00000201 
 15967      FB0E0D00 
 15967      01010101 
 15968              	.LASF548:
 15969 0000 5553425F 		.ascii	"USB_STOP\000"
 15969      53544F50 
 15969      00
 15970              	.LASF148:
 15971 0009 706F7274 		.ascii	"port_intctx\000"
 15971      5F696E74 
 15971      63747800 
 15972              	.LASF266:
 15973 0015 6C5F6D61 		.ascii	"l_max_erpm_fbrake\000"
 15973      785F6572 
 15973      706D5F66 
 15973      6272616B 
 15973      6500
 15974              	.LASF170:
 15975 0027 63685F70 		.ascii	"ch_ptrsize\000"
ARM GAS  C:\Users\CHRIST~1\AppData\Local\Temp\ccVm3NB4.s 			page 292


 15975      74727369 
 15975      7A6500
 15976              	.LASF262:
 15977 0032 6C5F6162 		.ascii	"l_abs_current_max\000"
 15977      735F6375 
 15977      7272656E 
 15977      745F6D61 
 15977      7800
 15978              	.LASF788:
 15979 0044 5F6D6272 		.ascii	"_mbrtowc_state\000"
 15979      746F7763 
 15979      5F737461 
 15979      746500
 15980              	.LASF407:
 15981 0053 43414E5F 		.ascii	"CAN_STARTING\000"
 15981      53544152 
 15981      54494E47 
 15981      00
 15982              	.LASF868:
 15983 0060 636F6D6D 		.ascii	"commands_printf\000"
 15983      616E6473 
 15983      5F707269 
 15983      6E746600 
 15984              	.LASF857:
 15985 0070 5F5F6675 		.ascii	"__func__\000"
 15985      6E635F5F 
 15985      00
 15986              	.LASF29:
 15987 0079 6D73675F 		.ascii	"msg_t\000"
 15987      7400
 15988              	.LASF433:
 15989 007f 4F504D4F 		.ascii	"OPMODE_SMBUS_DEVICE\000"
 15989      44455F53 
 15989      4D425553 
 15989      5F444556 
 15989      49434500 
 15990              	.LASF881:
 15991 0093 636F6E66 		.ascii	"conf_general_measure_flux_linkage\000"
 15991      5F67656E 
 15991      6572616C 
 15991      5F6D6561 
 15991      73757265 
 15992              	.LASF501:
 15993 00b5 55415254 		.ascii	"UART_TX_IDLE\000"
 15993      5F54585F 
 15993      49444C45 
 15993      00
 15994              	.LASF828:
 15995 00c2 74385F63 		.ascii	"t8_cnt\000"
 15995      6E7400
 15996              	.LASF307:
 15997 00c9 666F635F 		.ascii	"foc_observer_gain_slow\000"
 15997      6F627365 
 15997      72766572 
 15997      5F676169 
 15997      6E5F736C 
 15998              	.LASF607:
ARM GAS  C:\Users\CHRIST~1\AppData\Local\Temp\ccVm3NB4.s 			page 293


 15999 00e0 44494550 		.ascii	"DIEPTXF0\000"
 15999      54584630 
 15999      00
 16000              	.LASF683:
 16001 00e9 55534244 		.ascii	"USBD1\000"
 16001      3100
 16002              	.LASF406:
 16003 00ef 43414E5F 		.ascii	"CAN_STOP\000"
 16003      53544F50 
 16003      00
 16004              	.LASF183:
 16005 00f8 63665F6F 		.ascii	"cf_off_time\000"
 16005      66665F74 
 16005      696D6500 
 16006              	.LASF82:
 16007 0104 63685F73 		.ascii	"ch_system_t\000"
 16007      79737465 
 16007      6D5F7400 
 16008              	.LASF5:
 16009 0110 5F5F7569 		.ascii	"__uint8_t\000"
 16009      6E74385F 
 16009      7400
 16010              	.LASF155:
 16011 011a 77747365 		.ascii	"wtsemp\000"
 16011      6D7000
 16012              	.LASF847:
 16013 0121 6D696E5F 		.ascii	"min_erpm\000"
 16013      6572706D 
 16013      00
 16014              	.LASF350:
 16015 012a 5F426F6F 		.ascii	"_Bool\000"
 16015      6C00
 16016              	.LASF889:
 16017 0130 74696D65 		.ascii	"timeout_get_brake_current\000"
 16017      6F75745F 
 16017      6765745F 
 16017      6272616B 
 16017      655F6375 
 16018              	.LASF451:
 16019 014a 646D6172 		.ascii	"dmarx\000"
 16019      7800
 16020              	.LASF742:
 16021 0150 5F6D6273 		.ascii	"_mbstate\000"
 16021      74617465 
 16021      00
 16022              	.LASF721:
 16023 0159 5F617465 		.ascii	"_atexit\000"
 16023      78697400 
 16024              	.LASF626:
 16025 0161 72657376 		.ascii	"resvd700\000"
 16025      64373030 
 16025      00
 16026              	.LASF637:
 16027 016a 44564255 		.ascii	"DVBUSDIS\000"
 16027      53444953 
 16027      00
 16028              	.LASF445:
ARM GAS  C:\Users\CHRIST~1\AppData\Local\Temp\ccVm3NB4.s 			page 294


 16029 0173 6572726F 		.ascii	"errors\000"
 16029      727300
 16030              	.LASF491:
 16031 017a 73706963 		.ascii	"spicallback_t\000"
 16031      616C6C62 
 16031      61636B5F 
 16031      7400
 16032              	.LASF78:
 16033 0188 76745F73 		.ascii	"vt_systime\000"
 16033      79737469 
 16033      6D6500
 16034              	.LASF345:
 16035 0193 6D5F6472 		.ascii	"m_drv8301_oc_adj\000"
 16035      76383330 
 16035      315F6F63 
 16035      5F61646A 
 16035      00
 16036              	.LASF546:
 16037 01a4 75736265 		.ascii	"usbep_t\000"
 16037      705F7400 
 16038              	.LASF711:
 16039 01ac 5F5F746D 		.ascii	"__tm_mon\000"
 16039      5F6D6F6E 
 16039      00
 16040              	.LASF719:
 16041 01b5 5F666E74 		.ascii	"_fntypes\000"
 16041      79706573 
 16041      00
 16042              	.LASF164:
 16043 01be 6D5F6E65 		.ascii	"m_next\000"
 16043      787400
 16044              	.LASF395:
 16045 01c5 50434461 		.ascii	"PCData\000"
 16045      746100
 16046              	.LASF272:
 16047 01cc 6C5F736C 		.ascii	"l_slow_abs_current\000"
 16047      6F775F61 
 16047      62735F63 
 16047      75727265 
 16047      6E7400
 16048              	.LASF749:
 16049 01df 5F696E63 		.ascii	"_inc\000"
 16049      00
 16050              	.LASF722:
 16051 01e4 5F696E64 		.ascii	"_ind\000"
 16051      00
 16052              	.LASF853:
 16053 01e9 73616D70 		.ascii	"samples\000"
 16053      6C657300 
 16054              	.LASF611:
 16055 01f1 47434346 		.ascii	"GCCFG\000"
 16055      4700
 16056              	.LASF261:
 16057 01f7 6C5F696E 		.ascii	"l_in_current_min\000"
 16057      5F637572 
 16057      72656E74 
 16057      5F6D696E 
ARM GAS  C:\Users\CHRIST~1\AppData\Local\Temp\ccVm3NB4.s 			page 295


 16057      00
 16058              	.LASF140:
 16059 0208 42445452 		.ascii	"BDTR\000"
 16059      00
 16060              	.LASF244:
 16061 020d 636F6D6D 		.ascii	"comm_time_sum\000"
 16061      5F74696D 
 16061      655F7375 
 16061      6D00
 16062              	.LASF443:
 16063 021b 49324343 		.ascii	"I2CConfig\000"
 16063      6F6E6669 
 16063      6700
 16064              	.LASF19:
 16065 0225 75696E74 		.ascii	"uint16_t\000"
 16065      31365F74 
 16065      00
 16066              	.LASF452:
 16067 022e 646D6174 		.ascii	"dmatx\000"
 16067      7800
 16068              	.LASF681:
 16069 0234 736F665F 		.ascii	"sof_cb\000"
 16069      636200
 16070              	.LASF843:
 16071 023b 74797065 		.ascii	"type_old\000"
 16071      5F6F6C64 
 16071      00
 16072              	.LASF728:
 16073 0244 5F666C61 		.ascii	"_flags\000"
 16073      677300
 16074              	.LASF388:
 16075 024b 6F737065 		.ascii	"ospeedr\000"
 16075      65647200 
 16076              	.LASF614:
 16077 0253 44494550 		.ascii	"DIEPTXF\000"
 16077      54584600 
 16078              	.LASF189:
 16079 025b 656C5F6E 		.ascii	"el_next\000"
 16079      65787400 
 16080              	.LASF334:
 16081 0263 63635F73 		.ascii	"cc_startup_boost_duty\000"
 16081      74617274 
 16081      75705F62 
 16081      6F6F7374 
 16081      5F647574 
 16082              	.LASF759:
 16083 0279 5F637674 		.ascii	"_cvtlen\000"
 16083      6C656E00 
 16084              	.LASF59:
 16085 0281 63685F74 		.ascii	"ch_threads_queue\000"
 16085      68726561 
 16085      64735F71 
 16085      75657565 
 16085      00
 16086              	.LASF802:
 16087 0292 5F5F6664 		.ascii	"__fdlibm_svid\000"
 16087      6C69626D 
ARM GAS  C:\Users\CHRIST~1\AppData\Local\Temp\ccVm3NB4.s 			page 296


 16087      5F737669 
 16087      6400
 16088              	.LASF263:
 16089 02a0 6C5F6D69 		.ascii	"l_min_erpm\000"
 16089      6E5F6572 
 16089      706D00
 16090              	.LASF39:
 16091 02ab 705F6E65 		.ascii	"p_newer\000"
 16091      77657200 
 16092              	.LASF624:
 16093 02b3 48505254 		.ascii	"HPRT\000"
 16093      00
 16094              	.LASF300:
 16095 02b8 666F635F 		.ascii	"foc_encoder_offset\000"
 16095      656E636F 
 16095      6465725F 
 16095      6F666673 
 16095      657400
 16096              	.LASF851:
 16097 02cb 76715F61 		.ascii	"vq_avg\000"
 16097      766700
 16098              	.LASF578:
 16099 02d2 4843494E 		.ascii	"HCINT\000"
 16099      5400
 16100              	.LASF180:
 16101 02d8 63665F6F 		.ascii	"cf_off_flags\000"
 16101      66665F66 
 16101      6C616773 
 16101      00
 16102              	.LASF741:
 16103 02e5 5F6C6F63 		.ascii	"_lock\000"
 16103      6B00
 16104              	.LASF737:
 16105 02eb 5F6E6275 		.ascii	"_nbuf\000"
 16105      6600
 16106              	.LASF485:
 16107 02f1 5350495F 		.ascii	"SPI_STOP\000"
 16107      53544F50 
 16107      00
 16108              	.LASF795:
 16109 02fa 5F756E75 		.ascii	"_unused\000"
 16109      73656400 
 16110              	.LASF394:
 16111 0302 50424461 		.ascii	"PBData\000"
 16111      746100
 16112              	.LASF168:
 16113 0309 63685F73 		.ascii	"ch_size\000"
 16113      697A6500 
 16114              	.LASF620:
 16115 0311 48505458 		.ascii	"HPTXSTS\000"
 16115      53545300 
 16116              	.LASF387:
 16117 0319 6F747970 		.ascii	"otyper\000"
 16117      657200
 16118              	.LASF274:
 16119 0320 6C5F7465 		.ascii	"l_temp_fet_end\000"
 16119      6D705F66 
ARM GAS  C:\Users\CHRIST~1\AppData\Local\Temp\ccVm3NB4.s 			page 297


 16119      65745F65 
 16119      6E6400
 16120              	.LASF378:
 16121 032f 4F545950 		.ascii	"OTYPER\000"
 16121      455200
 16122              	.LASF489:
 16123 0336 73706973 		.ascii	"spistate_t\000"
 16123      74617465 
 16123      5F7400
 16124              	.LASF576:
 16125 0341 48434348 		.ascii	"HCCHAR\000"
 16125      415200
 16126              	.LASF718:
 16127 0348 5F64736F 		.ascii	"_dso_handle\000"
 16127      5F68616E 
 16127      646C6500 
 16128              	.LASF427:
 16129 0354 4932435F 		.ascii	"I2C_ACTIVE_RX\000"
 16129      41435449 
 16129      56455F52 
 16129      5800
 16130              	.LASF34:
 16131 0362 74687265 		.ascii	"thread_t\000"
 16131      61645F74 
 16131      00
 16132              	.LASF191:
 16133 036b 656C5F65 		.ascii	"el_events\000"
 16133      76656E74 
 16133      7300
 16134              	.LASF419:
 16135 0375 736C6565 		.ascii	"sleep_event\000"
 16135      705F6576 
 16135      656E7400 
 16136              	.LASF77:
 16137 0381 63685F76 		.ascii	"ch_virtual_timers_list\000"
 16137      69727475 
 16137      616C5F74 
 16137      696D6572 
 16137      735F6C69 
 16138              	.LASF373:
 16139 0398 76656374 		.ascii	"vector\000"
 16139      6F7200
 16140              	.LASF20:
 16141 039f 696E7433 		.ascii	"int32_t\000"
 16141      325F7400 
 16142              	.LASF783:
 16143 03a7 5F776374 		.ascii	"_wctomb_state\000"
 16143      6F6D625F 
 16143      73746174 
 16143      6500
 16144              	.LASF441:
 16145 03b5 636C6F63 		.ascii	"clock_speed\000"
 16145      6B5F7370 
 16145      65656400 
 16146              	.LASF33:
 16147 03c1 73797374 		.ascii	"systime_t\000"
 16147      696D655F 
ARM GAS  C:\Users\CHRIST~1\AppData\Local\Temp\ccVm3NB4.s 			page 298


 16147      7400
 16148              	.LASF421:
 16149 03cb 43414E44 		.ascii	"CANDriver\000"
 16149      72697665 
 16149      7200
 16150              	.LASF178:
 16151 03d5 63665F6F 		.ascii	"cf_off_stklimit\000"
 16151      66665F73 
 16151      746B6C69 
 16151      6D697400 
 16152              	.LASF117:
 16153 03e5 4D304152 		.ascii	"M0AR\000"
 16153      00
 16154              	.LASF249:
 16155 03ea 44525638 		.ascii	"DRV8301_OC_LIMIT\000"
 16155      3330315F 
 16155      4F435F4C 
 16155      494D4954 
 16155      00
 16156              	.LASF431:
 16157 03fb 69326366 		.ascii	"i2cflags_t\000"
 16157      6C616773 
 16157      5F7400
 16158              	.LASF621:
 16159 0406 4841494E 		.ascii	"HAINT\000"
 16159      5400
 16160              	.LASF234:
 16161 040c 4641554C 		.ascii	"FAULT_CODE_OVER_TEMP_FET\000"
 16161      545F434F 
 16161      44455F4F 
 16161      5645525F 
 16161      54454D50 
 16162              	.LASF112:
 16163 0425 46413152 		.ascii	"FA1R\000"
 16163      00
 16164              	.LASF212:
 16165 042a 50574D5F 		.ascii	"PWM_MODE_BIPOLAR\000"
 16165      4D4F4445 
 16165      5F424950 
 16165      4F4C4152 
 16165      00
 16166              	.LASF213:
 16167 043b 6D635F70 		.ascii	"mc_pwm_mode\000"
 16167      776D5F6D 
 16167      6F646500 
 16168              	.LASF518:
 16169 0447 75617274 		.ascii	"uartecb_t\000"
 16169      6563625F 
 16169      7400
 16170              	.LASF618:
 16171 0451 48464E55 		.ascii	"HFNUM\000"
 16171      4D00
 16172              	.LASF207:
 16173 0457 716E6F74 		.ascii	"qnotify_t\000"
 16173      6966795F 
 16173      7400
 16174              	.LASF371:
ARM GAS  C:\Users\CHRIST~1\AppData\Local\Temp\ccVm3NB4.s 			page 299


 16175 0461 69736869 		.ascii	"ishift\000"
 16175      667400
 16176              	.LASF202:
 16177 0468 715F746F 		.ascii	"q_top\000"
 16177      7000
 16178              	.LASF730:
 16179 046e 5F6C6266 		.ascii	"_lbfsize\000"
 16179      73697A65 
 16179      00
 16180              	.LASF569:
 16181 0477 75645F73 		.ascii	"ud_string\000"
 16181      7472696E 
 16181      6700
 16182              	.LASF444:
 16183 0481 49324344 		.ascii	"I2CDriver\000"
 16183      72697665 
 16183      7200
 16184              	.LASF426:
 16185 048b 4932435F 		.ascii	"I2C_ACTIVE_TX\000"
 16185      41435449 
 16185      56455F54 
 16185      5800
 16186              	.LASF374:
 16187 0499 73746D33 		.ascii	"stm32_dma_stream_t\000"
 16187      325F646D 
 16187      615F7374 
 16187      7265616D 
 16187      5F7400
 16188              	.LASF630:
 16189 04ac 72657376 		.ascii	"resvd80C\000"
 16189      64383043 
 16189      00
 16190              	.LASF678:
 16191 04b5 6576656E 		.ascii	"event_cb\000"
 16191      745F6362 
 16191      00
 16192              	.LASF761:
 16193 04be 5F6E6577 		.ascii	"_new\000"
 16193      00
 16194              	.LASF597:
 16195 04c3 474F5447 		.ascii	"GOTGCTL\000"
 16195      43544C00 
 16196              	.LASF534:
 16197 04cb 6570306E 		.ascii	"ep0next\000"
 16197      65787400 
 16198              	.LASF572:
 16199 04d3 75736265 		.ascii	"usbepcallback_t\000"
 16199      7063616C 
 16199      6C626163 
 16199      6B5F7400 
 16200              	.LASF430:
 16201 04e3 69326361 		.ascii	"i2caddr_t\000"
 16201      6464725F 
 16201      7400
 16202              	.LASF85:
 16203 04ed 76746C69 		.ascii	"vtlist\000"
 16203      737400
ARM GAS  C:\Users\CHRIST~1\AppData\Local\Temp\ccVm3NB4.s 			page 300


 16204              	.LASF456:
 16205 04f4 4943555F 		.ascii	"ICU_READY\000"
 16205      52454144 
 16205      5900
 16206              	.LASF122:
 16207 04fe 54524953 		.ascii	"TRISE\000"
 16207      4500
 16208              	.LASF636:
 16209 0504 72657376 		.ascii	"resvd824\000"
 16209      64383234 
 16209      00
 16210              	.LASF47:
 16211 050d 705F7761 		.ascii	"p_waiting\000"
 16211      6974696E 
 16211      6700
 16212              	.LASF463:
 16213 0517 70636372 		.ascii	"pccrp\000"
 16213      7000
 16214              	.LASF199:
 16215 051d 715F7761 		.ascii	"q_waiting\000"
 16215      6974696E 
 16215      6700
 16216              	.LASF94:
 16217 0527 43414E5F 		.ascii	"CAN_TxMailBox_TypeDef\000"
 16217      54784D61 
 16217      696C426F 
 16217      785F5479 
 16217      70654465 
 16218              	.LASF84:
 16219 053d 726C6973 		.ascii	"rlist\000"
 16219      7400
 16220              	.LASF55:
 16221 0543 74687265 		.ascii	"threads_list_t\000"
 16221      6164735F 
 16221      6C697374 
 16221      5F7400
 16222              	.LASF174:
 16223 0552 63665F6F 		.ascii	"cf_off_ctx\000"
 16223      66665F63 
 16223      747800
 16224              	.LASF208:
 16225 055d 696E7075 		.ascii	"input_queue_t\000"
 16225      745F7175 
 16225      6575655F 
 16225      7400
 16226              	.LASF796:
 16227 056b 5F5F6C6F 		.ascii	"__lock\000"
 16227      636B00
 16228              	.LASF288:
 16229 0572 736C5F6D 		.ascii	"sl_min_erpm_cycle_int_limit\000"
 16229      696E5F65 
 16229      72706D5F 
 16229      6379636C 
 16229      655F696E 
 16230              	.LASF408:
 16231 058e 43414E5F 		.ascii	"CAN_READY\000"
 16231      52454144 
ARM GAS  C:\Users\CHRIST~1\AppData\Local\Temp\ccVm3NB4.s 			page 301


 16231      5900
 16232              	.LASF176:
 16233 0598 63665F6F 		.ascii	"cf_off_older\000"
 16233      66665F6F 
 16233      6C646572 
 16233      00
 16234              	.LASF297:
 16235 05a5 666F635F 		.ascii	"foc_current_ki\000"
 16235      63757272 
 16235      656E745F 
 16235      6B6900
 16236              	.LASF663:
 16237 05b4 72787175 		.ascii	"rxqueued\000"
 16237      65756564 
 16237      00
 16238              	.LASF296:
 16239 05bd 666F635F 		.ascii	"foc_current_kp\000"
 16239      63757272 
 16239      656E745F 
 16239      6B7000
 16240              	.LASF474:
 16241 05cc 69637563 		.ascii	"icuchannel_t\000"
 16241      68616E6E 
 16241      656C5F74 
 16241      00
 16242              	.LASF410:
 16243 05d9 63616E73 		.ascii	"canstate_t\000"
 16243      74617465 
 16243      5F7400
 16244              	.LASF114:
 16245 05e4 7346696C 		.ascii	"sFilterRegister\000"
 16245      74657252 
 16245      65676973 
 16245      74657200 
 16246              	.LASF765:
 16247 05f4 5F5F7366 		.ascii	"__sf\000"
 16247      00
 16248              	.LASF635:
 16249 05f9 72657376 		.ascii	"resvd820\000"
 16249      64383230 
 16249      00
 16250              	.LASF902:
 16251 0602 6D637077 		.ascii	"mcpwm_foc_print_state\000"
 16251      6D5F666F 
 16251      635F7072 
 16251      696E745F 
 16251      73746174 
 16252              	.LASF909:
 16253 0618 6D656D63 		.ascii	"memcpy\000"
 16253      707900
 16254              	.LASF858:
 16255 061f 63685379 		.ascii	"chSysLock\000"
 16255      734C6F63 
 16255      6B00
 16256              	.LASF440:
 16257 0629 6F705F6D 		.ascii	"op_mode\000"
 16257      6F646500 
ARM GAS  C:\Users\CHRIST~1\AppData\Local\Temp\ccVm3NB4.s 			page 302


 16258              	.LASF782:
 16259 0631 5F6D6274 		.ascii	"_mbtowc_state\000"
 16259      6F77635F 
 16259      73746174 
 16259      6500
 16260              	.LASF349:
 16261 063f 6D5F6E74 		.ascii	"m_ntc_motor_beta\000"
 16261      635F6D6F 
 16261      746F725F 
 16261      62657461 
 16261      00
 16262              	.LASF423:
 16263 0650 4932435F 		.ascii	"I2C_UNINIT\000"
 16263      554E494E 
 16263      495400
 16264              	.LASF905:
 16265 065b 433A5C55 		.ascii	"C:\\Users\\christian\\eclipse-workspace\\bldc\000"
 16265      73657273 
 16265      5C636872 
 16265      69737469 
 16265      616E5C65 
 16266              	.LASF821:
 16267 0685 61726763 		.ascii	"argc\000"
 16267      00
 16268              	.LASF28:
 16269 068a 74707269 		.ascii	"tprio_t\000"
 16269      6F5F7400 
 16270              	.LASF869:
 16271 0692 63685265 		.ascii	"chRegFirstThread\000"
 16271      67466972 
 16271      73745468 
 16271      72656164 
 16271      00
 16272              	.LASF639:
 16273 06a3 72657376 		.ascii	"resvd830\000"
 16273      64383330 
 16273      00
 16274              	.LASF425:
 16275 06ac 4932435F 		.ascii	"I2C_READY\000"
 16275      52454144 
 16275      5900
 16276              	.LASF367:
 16277 06b6 63616E5F 		.ascii	"can_status_msg\000"
 16277      73746174 
 16277      75735F6D 
 16277      736700
 16278              	.LASF641:
 16279 06c5 72657376 		.ascii	"resvd838\000"
 16279      64383338 
 16279      00
 16280              	.LASF439:
 16281 06ce 69326364 		.ascii	"i2cdutycycle_t\000"
 16281      75747963 
 16281      79636C65 
 16281      5F7400
 16282              	.LASF848:
 16283 06dd 6C696E6B 		.ascii	"linkage\000"
ARM GAS  C:\Users\CHRIST~1\AppData\Local\Temp\ccVm3NB4.s 			page 303


 16283      61676500 
 16284              	.LASF642:
 16285 06e5 72657376 		.ascii	"resvd83C\000"
 16285      64383343 
 16285      00
 16286              	.LASF447:
 16287 06ee 74687265 		.ascii	"thread\000"
 16287      616400
 16288              	.LASF638:
 16289 06f5 44564255 		.ascii	"DVBUSPULSE\000"
 16289      5350554C 
 16289      534500
 16290              	.LASF537:
 16291 0700 73657475 		.ascii	"setup\000"
 16291      7000
 16292              	.LASF484:
 16293 0706 5350495F 		.ascii	"SPI_UNINIT\000"
 16293      554E494E 
 16293      495400
 16294              	.LASF590:
 16295 0711 44545846 		.ascii	"DTXFSTS\000"
 16295      53545300 
 16296              	.LASF714:
 16297 0719 5F5F746D 		.ascii	"__tm_yday\000"
 16297      5F796461 
 16297      7900
 16298              	.LASF531:
 16299 0723 696E5F70 		.ascii	"in_params\000"
 16299      6172616D 
 16299      7300
 16300              	.LASF135:
 16301 072d 43434552 		.ascii	"CCER\000"
 16301      00
 16302              	.LASF129:
 16303 0732 49325350 		.ascii	"I2SPR\000"
 16303      5200
 16304              	.LASF222:
 16305 0738 464F435F 		.ascii	"FOC_SENSOR_MODE_ENCODER\000"
 16305      53454E53 
 16305      4F525F4D 
 16305      4F44455F 
 16305      454E434F 
 16306              	.LASF599:
 16307 0750 47414842 		.ascii	"GAHBCFG\000"
 16307      43464700 
 16308              	.LASF690:
 16309 0758 5F4C4F43 		.ascii	"_LOCK_T\000"
 16309      4B5F5400 
 16310              	.LASF643:
 16311 0760 72657376 		.ascii	"resvd840\000"
 16311      64383430 
 16311      00
 16312              	.LASF125:
 16313 0769 43524350 		.ascii	"CRCPR\000"
 16313      5200
 16314              	.LASF251:
 16315 076f 44525638 		.ascii	"DRV8301_OC_REPORT_ONLY\000"
ARM GAS  C:\Users\CHRIST~1\AppData\Local\Temp\ccVm3NB4.s 			page 304


 16315      3330315F 
 16315      4F435F52 
 16315      45504F52 
 16315      545F4F4E 
 16316              	.LASF8:
 16317 0786 5F5F7569 		.ascii	"__uint16_t\000"
 16317      6E743136 
 16317      5F7400
 16318              	.LASF658:
 16319 0791 74787175 		.ascii	"txqueued\000"
 16319      65756564 
 16319      00
 16320              	.LASF49:
 16321 079a 705F6D73 		.ascii	"p_msg\000"
 16321      6700
 16322              	.LASF774:
 16323 07a0 5F756E75 		.ascii	"_unused_rand\000"
 16323      7365645F 
 16323      72616E64 
 16323      00
 16324              	.LASF338:
 16325 07ad 6D5F6661 		.ascii	"m_fault_stop_time_ms\000"
 16325      756C745F 
 16325      73746F70 
 16325      5F74696D 
 16325      655F6D73 
 16326              	.LASF605:
 16327 07c2 47525853 		.ascii	"GRXSTSP\000"
 16327      54535000 
 16328              	.LASF604:
 16329 07ca 47525853 		.ascii	"GRXSTSR\000"
 16329      54535200 
 16330              	.LASF846:
 16331 07d2 63757272 		.ascii	"curr\000"
 16331      00
 16332              	.LASF118:
 16333 07d7 4D314152 		.ascii	"M1AR\000"
 16333      00
 16334              	.LASF544:
 16335 07dc 77616974 		.ascii	"wait\000"
 16335      00
 16336              	.LASF119:
 16337 07e1 444D415F 		.ascii	"DMA_Stream_TypeDef\000"
 16337      53747265 
 16337      616D5F54 
 16337      79706544 
 16337      656600
 16338              	.LASF551:
 16339 07f4 5553425F 		.ascii	"USB_ACTIVE\000"
 16339      41435449 
 16339      564500
 16340              	.LASF903:
 16341 07ff 474E5520 		.ascii	"GNU C99 6.3.1 20170620 (release) [ARM/embedded-6-br"
 16341      43393920 
 16341      362E332E 
 16341      31203230 
 16341      31373036 
ARM GAS  C:\Users\CHRIST~1\AppData\Local\Temp\ccVm3NB4.s 			page 305


 16342 0832 616E6368 		.ascii	"anch revision 249437] -mcpu=cortex-m4 -mfloat-abi=h"
 16342      20726576 
 16342      6973696F 
 16342      6E203234 
 16342      39343337 
 16343 0865 61726420 		.ascii	"ard -mfpu=fpv4-sp-d16 -mno-thumb-interwork -mthumb "
 16343      2D6D6670 
 16343      753D6670 
 16343      76342D73 
 16343      702D6431 
 16344 0898 2D676764 		.ascii	"-ggdb -O2 -std=gnu99 -fomit-frame-pointer -falign-f"
 16344      62202D4F 
 16344      32202D73 
 16344      74643D67 
 16344      6E753939 
 16345 08cb 756E6374 		.ascii	"unctions=16 -ffunction-sections -fdata-sections -fn"
 16345      696F6E73 
 16345      3D313620 
 16345      2D666675 
 16345      6E637469 
 16346 08fe 6F2D636F 		.ascii	"o-common -fsingle-precision-constant\000"
 16346      6D6D6F6E 
 16346      202D6673 
 16346      696E676C 
 16346      652D7072 
 16347              	.LASF327:
 16348 0923 735F7069 		.ascii	"s_pid_kd\000"
 16348      645F6B64 
 16348      00
 16349              	.LASF592:
 16350 092c 73746D33 		.ascii	"stm32_otg_in_ep_t\000"
 16350      325F6F74 
 16350      675F696E 
 16350      5F65705F 
 16350      7400
 16351              	.LASF665:
 16352 093e 7278636E 		.ascii	"rxcnt\000"
 16352      7400
 16353              	.LASF449:
 16354 0944 7278646D 		.ascii	"rxdmamode\000"
 16354      616D6F64 
 16354      6500
 16355              	.LASF756:
 16356 094e 5F726573 		.ascii	"_result_k\000"
 16356      756C745F 
 16356      6B00
 16357              	.LASF475:
 16358 0958 6D6F6465 		.ascii	"mode\000"
 16358      00
 16359              	.LASF748:
 16360 095d 5F737464 		.ascii	"_stderr\000"
 16360      65727200 
 16361              	.LASF755:
 16362 0965 5F726573 		.ascii	"_result\000"
 16362      756C7400 
 16363              	.LASF468:
 16364 096d 4943555F 		.ascii	"ICU_INPUT_ACTIVE_HIGH\000"
ARM GAS  C:\Users\CHRIST~1\AppData\Local\Temp\ccVm3NB4.s 			page 306


 16364      494E5055 
 16364      545F4143 
 16364      54495645 
 16364      5F484947 
 16365              	.LASF816:
 16366 0983 7465726D 		.ascii	"terminal_register_command_callback\000"
 16366      696E616C 
 16366      5F726567 
 16366      69737465 
 16366      725F636F 
 16367              	.LASF179:
 16368 09a6 63665F6F 		.ascii	"cf_off_state\000"
 16368      66665F73 
 16368      74617465 
 16368      00
 16369              	.LASF494:
 16370 09b3 73737061 		.ascii	"sspad\000"
 16370      6400
 16371              	.LASF450:
 16372 09b9 7478646D 		.ascii	"txdmamode\000"
 16372      616D6F64 
 16372      6500
 16373              	.LASF303:
 16374 09c3 666F635F 		.ascii	"foc_motor_l\000"
 16374      6D6F746F 
 16374      725F6C00 
 16375              	.LASF304:
 16376 09cf 666F635F 		.ascii	"foc_motor_r\000"
 16376      6D6F746F 
 16376      725F7200 
 16377              	.LASF713:
 16378 09db 5F5F746D 		.ascii	"__tm_wday\000"
 16378      5F776461 
 16378      7900
 16379              	.LASF232:
 16380 09e5 4641554C 		.ascii	"FAULT_CODE_DRV\000"
 16380      545F434F 
 16380      44455F44 
 16380      525600
 16381              	.LASF715:
 16382 09f4 5F5F746D 		.ascii	"__tm_isdst\000"
 16382      5F697364 
 16382      737400
 16383              	.LASF146:
 16384 09ff 73746B61 		.ascii	"stkalign_t\000"
 16384      6C69676E 
 16384      5F7400
 16385              	.LASF651:
 16386 0a0a 72785F66 		.ascii	"rx_fifo_size\000"
 16386      69666F5F 
 16386      73697A65 
 16386      00
 16387              	.LASF420:
 16388 0a17 77616B65 		.ascii	"wakeup_event\000"
 16388      75705F65 
 16388      76656E74 
 16388      00
ARM GAS  C:\Users\CHRIST~1\AppData\Local\Temp\ccVm3NB4.s 			page 307


 16389              	.LASF72:
 16390 0a24 76745F70 		.ascii	"vt_prev\000"
 16390      72657600 
 16391              	.LASF492:
 16392 0a2c 656E645F 		.ascii	"end_cb\000"
 16392      636200
 16393              	.LASF668:
 16394 0a33 73657475 		.ascii	"setup_cb\000"
 16394      705F6362 
 16394      00
 16395              	.LASF6:
 16396 0a3c 756E7369 		.ascii	"unsigned char\000"
 16396      676E6564 
 16396      20636861 
 16396      7200
 16397              	.LASF747:
 16398 0a4a 5F737464 		.ascii	"_stdout\000"
 16398      6F757400 
 16399              	.LASF904:
 16400 0a52 7465726D 		.ascii	"terminal.c\000"
 16400      696E616C 
 16400      2E6300
 16401              	.LASF188:
 16402 0a5d 6576656E 		.ascii	"event_listener\000"
 16402      745F6C69 
 16402      7374656E 
 16402      657200
 16403              	.LASF328:
 16404 0a6c 735F7069 		.ascii	"s_pid_min_erpm\000"
 16404      645F6D69 
 16404      6E5F6572 
 16404      706D00
 16405              	.LASF414:
 16406 0a7b 74787175 		.ascii	"txqueue\000"
 16406      65756500 
 16407              	.LASF160:
 16408 0a83 735F636E 		.ascii	"s_cnt\000"
 16408      7400
 16409              	.LASF60:
 16410 0a89 72656164 		.ascii	"ready_list_t\000"
 16410      795F6C69 
 16410      73745F74 
 16410      00
 16411              	.LASF56:
 16412 0a96 63685F74 		.ascii	"ch_thread\000"
 16412      68726561 
 16412      6400
 16413              	.LASF434:
 16414 0aa0 4F504D4F 		.ascii	"OPMODE_SMBUS_HOST\000"
 16414      44455F53 
 16414      4D425553 
 16414      5F484F53 
 16414      5400
 16415              	.LASF533:
 16416 0ab2 65703073 		.ascii	"ep0state\000"
 16416      74617465 
 16416      00
ARM GAS  C:\Users\CHRIST~1\AppData\Local\Temp\ccVm3NB4.s 			page 308


 16417              	.LASF789:
 16418 0abb 5F6D6273 		.ascii	"_mbsrtowcs_state\000"
 16418      72746F77 
 16418      63735F73 
 16418      74617465 
 16418      00
 16419              	.LASF705:
 16420 0acc 5F776473 		.ascii	"_wds\000"
 16420      00
 16421              	.LASF0:
 16422 0ad1 666C6F61 		.ascii	"float\000"
 16422      7400
 16423              	.LASF850:
 16424 0ad7 746F7574 		.ascii	"tout_c\000"
 16424      5F6300
 16425              	.LASF879:
 16426 0ade 6D637077 		.ascii	"mcpwm_foc_measure_resistance\000"
 16426      6D5F666F 
 16426      635F6D65 
 16426      61737572 
 16426      655F7265 
 16427              	.LASF279:
 16428 0afb 6C5F7761 		.ascii	"l_watt_max\000"
 16428      74745F6D 
 16428      617800
 16429              	.LASF409:
 16430 0b06 43414E5F 		.ascii	"CAN_SLEEP\000"
 16430      534C4545 
 16430      5000
 16431              	.LASF298:
 16432 0b10 666F635F 		.ascii	"foc_f_sw\000"
 16432      665F7377 
 16432      00
 16433              	.LASF265:
 16434 0b19 6C5F6572 		.ascii	"l_erpm_start\000"
 16434      706D5F73 
 16434      74617274 
 16434      00
 16435              	.LASF405:
 16436 0b26 43414E5F 		.ascii	"CAN_UNINIT\000"
 16436      554E494E 
 16436      495400
 16437              	.LASF79:
 16438 0b31 73797374 		.ascii	"system_debug_t\000"
 16438      656D5F64 
 16438      65627567 
 16438      5F7400
 16439              	.LASF273:
 16440 0b40 6C5F7465 		.ascii	"l_temp_fet_start\000"
 16440      6D705F66 
 16440      65745F73 
 16440      74617274 
 16440      00
 16441              	.LASF132:
 16442 0b51 44494552 		.ascii	"DIER\000"
 16442      00
 16443              	.LASF38:
ARM GAS  C:\Users\CHRIST~1\AppData\Local\Temp\ccVm3NB4.s 			page 309


 16444 0b56 705F6374 		.ascii	"p_ctx\000"
 16444      7800
 16445              	.LASF75:
 16446 0b5c 76745F70 		.ascii	"vt_par\000"
 16446      617200
 16447              	.LASF506:
 16448 0b63 55415254 		.ascii	"UART_RX_ACTIVE\000"
 16448      5F52585F 
 16448      41435449 
 16448      564500
 16449              	.LASF67:
 16450 0b72 725F6375 		.ascii	"r_current\000"
 16450      7272656E 
 16450      7400
 16451              	.LASF726:
 16452 0b7c 5F73697A 		.ascii	"_size\000"
 16452      6500
 16453              	.LASF733:
 16454 0b82 5F777269 		.ascii	"_write\000"
 16454      746500
 16455              	.LASF127:
 16456 0b89 54584352 		.ascii	"TXCRCR\000"
 16456      435200
 16457              	.LASF255:
 16458 0b90 636F6D6D 		.ascii	"comm_mode\000"
 16458      5F6D6F64 
 16458      6500
 16459              	.LASF502:
 16460 0b9a 55415254 		.ascii	"UART_TX_ACTIVE\000"
 16460      5F54585F 
 16460      41435449 
 16460      564500
 16461              	.LASF814:
 16462 0ba9 63616C6C 		.ascii	"callback_write\000"
 16462      6261636B 
 16462      5F777269 
 16462      746500
 16463              	.LASF233:
 16464 0bb8 4641554C 		.ascii	"FAULT_CODE_ABS_OVER_CURRENT\000"
 16464      545F434F 
 16464      44455F41 
 16464      42535F4F 
 16464      5645525F 
 16465              	.LASF306:
 16466 0bd4 666F635F 		.ascii	"foc_observer_gain\000"
 16466      6F627365 
 16466      72766572 
 16466      5F676169 
 16466      6E00
 16467              	.LASF438:
 16468 0be6 46415354 		.ascii	"FAST_DUTY_CYCLE_16_9\000"
 16468      5F445554 
 16468      595F4359 
 16468      434C455F 
 16468      31365F39 
 16469              	.LASF479:
 16470 0bfb 6F766572 		.ascii	"overflow_cb\000"
ARM GAS  C:\Users\CHRIST~1\AppData\Local\Temp\ccVm3NB4.s 			page 310


 16470      666C6F77 
 16470      5F636200 
 16471              	.LASF22:
 16472 0c07 75696E74 		.ascii	"uint64_t\000"
 16472      36345F74 
 16472      00
 16473              	.LASF185:
 16474 0c10 63685F64 		.ascii	"ch_debug\000"
 16474      65627567 
 16474      00
 16475              	.LASF106:
 16476 0c19 464D3152 		.ascii	"FM1R\000"
 16476      00
 16477              	.LASF708:
 16478 0c1e 5F5F746D 		.ascii	"__tm_min\000"
 16478      5F6D696E 
 16478      00
 16479              	.LASF826:
 16480 0c27 73746174 		.ascii	"states\000"
 16480      657300
 16481              	.LASF402:
 16482 0c2e 50414C43 		.ascii	"PALConfig\000"
 16482      6F6E6669 
 16482      6700
 16483              	.LASF573:
 16484 0c38 75736265 		.ascii	"usbeventcb_t\000"
 16484      76656E74 
 16484      63625F74 
 16484      00
 16485              	.LASF871:
 16486 0c45 6D635F69 		.ascii	"mc_interface_fault_to_string\000"
 16486      6E746572 
 16486      66616365 
 16486      5F666175 
 16486      6C745F74 
 16487              	.LASF712:
 16488 0c62 5F5F746D 		.ascii	"__tm_year\000"
 16488      5F796561 
 16488      7200
 16489              	.LASF187:
 16490 0c6c 6576656E 		.ascii	"event_listener_t\000"
 16490      745F6C69 
 16490      7374656E 
 16490      65725F74 
 16490      00
 16491              	.LASF738:
 16492 0c7d 5F626C6B 		.ascii	"_blksize\000"
 16492      73697A65 
 16492      00
 16493              	.LASF652:
 16494 0c86 6F74675F 		.ascii	"otg_ram_size\000"
 16494      72616D5F 
 16494      73697A65 
 16494      00
 16495              	.LASF654:
 16496 0c93 73746D33 		.ascii	"stm32_otg_params_t\000"
 16496      325F6F74 
ARM GAS  C:\Users\CHRIST~1\AppData\Local\Temp\ccVm3NB4.s 			page 311


 16496      675F7061 
 16496      72616D73 
 16496      5F7400
 16497              	.LASF646:
 16498 0ca6 72657376 		.ascii	"resvdD00\000"
 16498      64443030 
 16498      00
 16499              	.LASF126:
 16500 0caf 52584352 		.ascii	"RXCRCR\000"
 16500      435200
 16501              	.LASF515:
 16502 0cb6 72786275 		.ascii	"rxbuf\000"
 16502      6600
 16503              	.LASF602:
 16504 0cbc 47494E54 		.ascii	"GINTSTS\000"
 16504      53545300 
 16505              	.LASF161:
 16506 0cc4 63685F6D 		.ascii	"ch_mutex\000"
 16506      75746578 
 16506      00
 16507              	.LASF417:
 16508 0ccd 7478656D 		.ascii	"txempty_event\000"
 16508      7074795F 
 16508      6576656E 
 16508      7400
 16509              	.LASF329:
 16510 0cdb 735F7069 		.ascii	"s_pid_allow_braking\000"
 16510      645F616C 
 16510      6C6F775F 
 16510      6272616B 
 16510      696E6700 
 16511              	.LASF399:
 16512 0cef 50474461 		.ascii	"PGData\000"
 16512      746100
 16513              	.LASF787:
 16514 0cf6 5F6D6272 		.ascii	"_mbrlen_state\000"
 16514      6C656E5F 
 16514      73746174 
 16514      6500
 16515              	.LASF864:
 16516 0d04 76616C75 		.ascii	"value\000"
 16516      6500
 16517              	.LASF218:
 16518 0d0a 53454E53 		.ascii	"SENSOR_MODE_SENSORED\000"
 16518      4F525F4D 
 16518      4F44455F 
 16518      53454E53 
 16518      4F524544 
 16519              	.LASF175:
 16520 0d1f 63665F6F 		.ascii	"cf_off_newer\000"
 16520      66665F6E 
 16520      65776572 
 16520      00
 16521              	.LASF707:
 16522 0d2c 5F5F746D 		.ascii	"__tm_sec\000"
 16522      5F736563 
 16522      00
ARM GAS  C:\Users\CHRIST~1\AppData\Local\Temp\ccVm3NB4.s 			page 312


 16523              	.LASF631:
 16524 0d35 44494550 		.ascii	"DIEPMSK\000"
 16524      4D534B00 
 16525              	.LASF598:
 16526 0d3d 474F5447 		.ascii	"GOTGINT\000"
 16526      494E5400 
 16527              	.LASF497:
 16528 0d45 55415254 		.ascii	"UART_UNINIT\000"
 16528      5F554E49 
 16528      4E495400 
 16529              	.LASF670:
 16530 0d51 6F75745F 		.ascii	"out_cb\000"
 16530      636200
 16531              	.LASF622:
 16532 0d58 4841494E 		.ascii	"HAINTMSK\000"
 16532      544D534B 
 16532      00
 16533              	.LASF532:
 16534 0d61 6F75745F 		.ascii	"out_params\000"
 16534      70617261 
 16534      6D7300
 16535              	.LASF873:
 16536 0d6c 73736361 		.ascii	"sscanf\000"
 16536      6E6600
 16537              	.LASF849:
 16538 0d73 746F7574 		.ascii	"tout\000"
 16538      00
 16539              	.LASF746:
 16540 0d78 5F737464 		.ascii	"_stdin\000"
 16540      696E00
 16541              	.LASF794:
 16542 0d7f 5F6E6D61 		.ascii	"_nmalloc\000"
 16542      6C6C6F63 
 16542      00
 16543              	.LASF481:
 16544 0d88 64696572 		.ascii	"dier\000"
 16544      00
 16545              	.LASF619:
 16546 0d8d 72657376 		.ascii	"resvd40C\000"
 16546      64343043 
 16546      00
 16547              	.LASF359:
 16548 0d96 74696D5F 		.ascii	"tim_val_samp\000"
 16548      76616C5F 
 16548      73616D70 
 16548      00
 16549              	.LASF878:
 16550 0da3 656E636F 		.ascii	"encoder_is_configured\000"
 16550      6465725F 
 16550      69735F63 
 16550      6F6E6669 
 16550      67757265 
 16551              	.LASF901:
 16552 0db9 6D635F69 		.ascii	"mc_interface_get_tachometer_value\000"
 16552      6E746572 
 16552      66616365 
 16552      5F676574 
ARM GAS  C:\Users\CHRIST~1\AppData\Local\Temp\ccVm3NB4.s 			page 313


 16552      5F746163 
 16553              	.LASF69:
 16554 0ddb 76697274 		.ascii	"virtual_timer_t\000"
 16554      75616C5F 
 16554      74696D65 
 16554      725F7400 
 16555              	.LASF64:
 16556 0deb 725F6374 		.ascii	"r_ctx\000"
 16556      7800
 16557              	.LASF71:
 16558 0df1 76745F6E 		.ascii	"vt_next\000"
 16558      65787400 
 16559              	.LASF811:
 16560 0df9 6661756C 		.ascii	"fault_vec\000"
 16560      745F7665 
 16560      6300
 16561              	.LASF23:
 16562 0e03 7274636E 		.ascii	"rtcnt_t\000"
 16562      745F7400 
 16563              	.LASF446:
 16564 0e0b 6D757465 		.ascii	"mutex\000"
 16564      7800
 16565              	.LASF219:
 16566 0e11 53454E53 		.ascii	"SENSOR_MODE_HYBRID\000"
 16566      4F525F4D 
 16566      4F44455F 
 16566      48594252 
 16566      494400
 16567              	.LASF344:
 16568 0e24 6D5F6472 		.ascii	"m_drv8301_oc_mode\000"
 16568      76383330 
 16568      315F6F63 
 16568      5F6D6F64 
 16568      6500
 16569              	.LASF281:
 16570 0e36 6C6F5F63 		.ascii	"lo_current_max\000"
 16570      75727265 
 16570      6E745F6D 
 16570      617800
 16571              	.LASF301:
 16572 0e45 666F635F 		.ascii	"foc_encoder_inverted\000"
 16572      656E636F 
 16572      6465725F 
 16572      696E7665 
 16572      72746564 
 16573              	.LASF335:
 16574 0e5a 63635F6D 		.ascii	"cc_min_current\000"
 16574      696E5F63 
 16574      75727265 
 16574      6E7400
 16575              	.LASF543:
 16576 0e69 74787065 		.ascii	"txpending\000"
 16576      6E64696E 
 16576      6700
 16577              	.LASF238:
 16578 0e73 53454E53 		.ascii	"SENSOR_PORT_MODE_ABI\000"
 16578      4F525F50 
ARM GAS  C:\Users\CHRIST~1\AppData\Local\Temp\ccVm3NB4.s 			page 314


 16578      4F52545F 
 16578      4D4F4445 
 16578      5F414249 
 16579              	.LASF838:
 16580 0e88 6C6F775F 		.ascii	"low_duty\000"
 16580      64757479 
 16580      00
 16581              	.LASF376:
 16582 0e91 636C6561 		.ascii	"clear\000"
 16582      7200
 16583              	.LASF242:
 16584 0e97 6379636C 		.ascii	"cycle_int_limit_running\000"
 16584      655F696E 
 16584      745F6C69 
 16584      6D69745F 
 16584      72756E6E 
 16585              	.LASF466:
 16586 0eaf 43435852 		.ascii	"CCXR\000"
 16586      00
 16587              	.LASF115:
 16588 0eb4 43414E5F 		.ascii	"CAN_TypeDef\000"
 16588      54797065 
 16588      44656600 
 16589              	.LASF691:
 16590 0ec0 5F6F6666 		.ascii	"_off_t\000"
 16590      5F7400
 16591              	.LASF586:
 16592 0ec7 72657376 		.ascii	"resvd4\000"
 16592      643400
 16593              	.LASF577:
 16594 0ece 72657376 		.ascii	"resvd8\000"
 16594      643800
 16595              	.LASF2:
 16596 0ed5 73697A65 		.ascii	"size_t\000"
 16596      5F7400
 16597              	.LASF777:
 16598 0edc 5F6C6F63 		.ascii	"_localtime_buf\000"
 16598      616C7469 
 16598      6D655F62 
 16598      756600
 16599              	.LASF239:
 16600 0eeb 53454E53 		.ascii	"SENSOR_PORT_MODE_AS5047_SPI\000"
 16600      4F525F50 
 16600      4F52545F 
 16600      4D4F4445 
 16600      5F415335 
 16601              	.LASF696:
 16602 0f07 5F5F636F 		.ascii	"__count\000"
 16602      756E7400 
 16603              	.LASF18:
 16604 0f0f 75696E74 		.ascii	"uint8_t\000"
 16604      385F7400 
 16605              	.LASF581:
 16606 0f17 72657376 		.ascii	"resvd14\000"
 16606      64313400 
 16607              	.LASF582:
 16608 0f1f 72657376 		.ascii	"resvd18\000"
ARM GAS  C:\Users\CHRIST~1\AppData\Local\Temp\ccVm3NB4.s 			page 315


 16608      64313800 
 16609              	.LASF732:
 16610 0f27 5F726561 		.ascii	"_read\000"
 16610      6400
 16611              	.LASF66:
 16612 0f2d 725F6F6C 		.ascii	"r_older\000"
 16612      64657200 
 16613              	.LASF436:
 16614 0f35 5354445F 		.ascii	"STD_DUTY_CYCLE\000"
 16614      44555459 
 16614      5F435943 
 16614      4C4500
 16615              	.LASF36:
 16616 0f44 705F7072 		.ascii	"p_prev\000"
 16616      657600
 16617              	.LASF177:
 16618 0f4b 63665F6F 		.ascii	"cf_off_name\000"
 16618      66665F6E 
 16618      616D6500 
 16619              	.LASF640:
 16620 0f57 44494550 		.ascii	"DIEPEMPMSK\000"
 16620      454D504D 
 16620      534B00
 16621              	.LASF286:
 16622 0f62 6C6F5F63 		.ascii	"lo_current_motor_min_now\000"
 16622      75727265 
 16622      6E745F6D 
 16622      6F746F72 
 16622      5F6D696E 
 16623              	.LASF585:
 16624 0f7b 44494550 		.ascii	"DIEPCTL\000"
 16624      43544C00 
 16625              	.LASF269:
 16626 0f83 6C5F6D61 		.ascii	"l_max_vin\000"
 16626      785F7669 
 16626      6E00
 16627              	.LASF193:
 16628 0f8d 656C5F77 		.ascii	"el_wflags\000"
 16628      666C6167 
 16628      7300
 16629              	.LASF841:
 16630 0f97 68616C6C 		.ascii	"hall_res\000"
 16630      5F726573 
 16630      00
 16631              	.LASF541:
 16632 0fa0 6F746770 		.ascii	"otgparams\000"
 16632      6172616D 
 16632      7300
 16633              	.LASF152:
 16634 0faa 65786974 		.ascii	"exitcode\000"
 16634      636F6465 
 16634      00
 16635              	.LASF396:
 16636 0fb3 50444461 		.ascii	"PDData\000"
 16636      746100
 16637              	.LASF241:
 16638 0fba 6379636C 		.ascii	"cycle_int_limit\000"
ARM GAS  C:\Users\CHRIST~1\AppData\Local\Temp\ccVm3NB4.s 			page 316


 16638      655F696E 
 16638      745F6C69 
 16638      6D697400 
 16639              	.LASF760:
 16640 0fca 5F637674 		.ascii	"_cvtbuf\000"
 16640      62756600 
 16641              	.LASF674:
 16642 0fd2 6F75745F 		.ascii	"out_state\000"
 16642      73746174 
 16642      6500
 16643              	.LASF197:
 16644 0fdc 696F5F71 		.ascii	"io_queue_t\000"
 16644      75657565 
 16644      5F7400
 16645              	.LASF750:
 16646 0fe7 5F656D65 		.ascii	"_emergency\000"
 16646      7267656E 
 16646      637900
 16647              	.LASF424:
 16648 0ff2 4932435F 		.ascii	"I2C_STOP\000"
 16648      53544F50 
 16648      00
 16649              	.LASF448:
 16650 0ffb 61646472 		.ascii	"addr\000"
 16650      00
 16651              	.LASF432:
 16652 1000 4F504D4F 		.ascii	"OPMODE_I2C\000"
 16652      44455F49 
 16652      324300
 16653              	.LASF100:
 16654 100b 52463052 		.ascii	"RF0R\000"
 16654      00
 16655              	.LASF418:
 16656 1010 6572726F 		.ascii	"error_event\000"
 16656      725F6576 
 16656      656E7400 
 16657              	.LASF379:
 16658 101c 4F535045 		.ascii	"OSPEEDR\000"
 16658      45445200 
 16659              	.LASF609:
 16660 1024 72657376 		.ascii	"resvd30\000"
 16660      64333000 
 16661              	.LASF695:
 16662 102c 5F5F7763 		.ascii	"__wchb\000"
 16662      686200
 16663              	.LASF852:
 16664 1033 72706D5F 		.ascii	"rpm_avg\000"
 16664      61766700 
 16665              	.LASF610:
 16666 103b 72657376 		.ascii	"resvd34\000"
 16666      64333400 
 16667              	.LASF270:
 16668 1043 6C5F6261 		.ascii	"l_battery_cut_start\000"
 16668      74746572 
 16668      795F6375 
 16668      745F7374 
 16668      61727400 
ARM GAS  C:\Users\CHRIST~1\AppData\Local\Temp\ccVm3NB4.s 			page 317


 16669              	.LASF709:
 16670 1057 5F5F746D 		.ascii	"__tm_hour\000"
 16670      5F686F75 
 16670      7200
 16671              	.LASF807:
 16672 1061 636F6D6D 		.ascii	"command\000"
 16672      616E6400 
 16673              	.LASF271:
 16674 1069 6C5F6261 		.ascii	"l_battery_cut_end\000"
 16674      74746572 
 16674      795F6375 
 16674      745F656E 
 16674      6400
 16675              	.LASF687:
 16676 107b 6D637077 		.ascii	"mcpwm_vzero\000"
 16676      6D5F767A 
 16676      65726F00 
 16677              	.LASF268:
 16678 1087 6C5F6D69 		.ascii	"l_min_vin\000"
 16678      6E5F7669 
 16678      6E00
 16679              	.LASF559:
 16680 1091 5553425F 		.ascii	"USB_EP0_ERROR\000"
 16680      4550305F 
 16680      4552524F 
 16680      5200
 16681              	.LASF888:
 16682 109f 74696D65 		.ascii	"timeout_get_timeout_msec\000"
 16682      6F75745F 
 16682      6765745F 
 16682      74696D65 
 16682      6F75745F 
 16683              	.LASF693:
 16684 10b8 77696E74 		.ascii	"wint_t\000"
 16684      5F7400
 16685              	.LASF318:
 16686 10bf 666F635F 		.ascii	"foc_hall_table\000"
 16686      68616C6C 
 16686      5F746162 
 16686      6C6500
 16687              	.LASF101:
 16688 10ce 52463152 		.ascii	"RF1R\000"
 16688      00
 16689              	.LASF245:
 16690 10d3 636F6D6D 		.ascii	"comm_time_sum_min_rpm\000"
 16690      5F74696D 
 16690      655F7375 
 16690      6D5F6D69 
 16690      6E5F7270 
 16691              	.LASF648:
 16692 10e9 72657376 		.ascii	"resvdE04\000"
 16692      64453034 
 16692      00
 16693              	.LASF653:
 16694 10f2 6E756D5F 		.ascii	"num_endpoints\000"
 16694      656E6470 
 16694      6F696E74 
ARM GAS  C:\Users\CHRIST~1\AppData\Local\Temp\ccVm3NB4.s 			page 318


 16694      7300
 16695              	.LASF661:
 16696 1100 746F7473 		.ascii	"totsize\000"
 16696      697A6500 
 16697              	.LASF227:
 16698 1108 4D4F544F 		.ascii	"MOTOR_TYPE_FOC\000"
 16698      525F5459 
 16698      50455F46 
 16698      4F4300
 16699              	.LASF768:
 16700 1117 5F6E696F 		.ascii	"_niobs\000"
 16700      627300
 16701              	.LASF287:
 16702 111e 736C5F6D 		.ascii	"sl_min_erpm\000"
 16702      696E5F65 
 16702      72706D00 
 16703              	.LASF842:
 16704 112a 72706D5F 		.ascii	"rpm_dep\000"
 16704      64657000 
 16705              	.LASF136:
 16706 1132 43435231 		.ascii	"CCR1\000"
 16706      00
 16707              	.LASF137:
 16708 1137 43435232 		.ascii	"CCR2\000"
 16708      00
 16709              	.LASF138:
 16710 113c 43435233 		.ascii	"CCR3\000"
 16710      00
 16711              	.LASF139:
 16712 1141 43435234 		.ascii	"CCR4\000"
 16712      00
 16713              	.LASF575:
 16714 1146 75736267 		.ascii	"usbgetdescriptor_t\000"
 16714      65746465 
 16714      73637269 
 16714      70746F72 
 16714      5F7400
 16715              	.LASF745:
 16716 1159 5F657272 		.ascii	"_errno\000"
 16716      6E6F00
 16717              	.LASF342:
 16718 1160 6D5F7365 		.ascii	"m_sensor_port_mode\000"
 16718      6E736F72 
 16718      5F706F72 
 16718      745F6D6F 
 16718      646500
 16719              	.LASF554:
 16720 1173 5553425F 		.ascii	"USB_EP0_TX\000"
 16720      4550305F 
 16720      545800
 16721              	.LASF230:
 16722 117e 4641554C 		.ascii	"FAULT_CODE_OVER_VOLTAGE\000"
 16722      545F434F 
 16722      44455F4F 
 16722      5645525F 
 16722      564F4C54 
 16723              	.LASF340:
ARM GAS  C:\Users\CHRIST~1\AppData\Local\Temp\ccVm3NB4.s 			page 319


 16724 1196 6D5F6375 		.ascii	"m_current_backoff_gain\000"
 16724      7272656E 
 16724      745F6261 
 16724      636B6F66 
 16724      665F6761 
 16725              	.LASF710:
 16726 11ad 5F5F746D 		.ascii	"__tm_mday\000"
 16726      5F6D6461 
 16726      7900
 16727              	.LASF343:
 16728 11b7 6D5F696E 		.ascii	"m_invert_direction\000"
 16728      76657274 
 16728      5F646972 
 16728      65637469 
 16728      6F6E00
 16729              	.LASF370:
 16730 11ca 69666372 		.ascii	"ifcr\000"
 16730      00
 16731              	.LASF672:
 16732 11cf 6F75745F 		.ascii	"out_maxsize\000"
 16732      6D617873 
 16732      697A6500 
 16733              	.LASF385:
 16734 11db 73746D33 		.ascii	"stm32_gpio_t\000"
 16734      325F6770 
 16734      696F5F74 
 16734      00
 16735              	.LASF151:
 16736 11e8 7264796D 		.ascii	"rdymsg\000"
 16736      736700
 16737              	.LASF717:
 16738 11ef 5F666E61 		.ascii	"_fnargs\000"
 16738      72677300 
 16739              	.LASF91:
 16740 11f7 54445452 		.ascii	"TDTR\000"
 16740      00
 16741              	.LASF278:
 16742 11fc 6C5F6D61 		.ascii	"l_max_duty\000"
 16742      785F6475 
 16742      747900
 16743              	.LASF99:
 16744 1207 43414E5F 		.ascii	"CAN_FilterRegister_TypeDef\000"
 16744      46696C74 
 16744      65725265 
 16744      67697374 
 16744      65725F54 
 16745              	.LASF612:
 16746 1222 72657376 		.ascii	"resvd58\000"
 16746      64353800 
 16747              	.LASF662:
 16748 122a 55534249 		.ascii	"USBInEndpointState\000"
 16748      6E456E64 
 16748      706F696E 
 16748      74537461 
 16748      746500
 16749              	.LASF37:
 16750 123d 705F7072 		.ascii	"p_prio\000"
ARM GAS  C:\Users\CHRIST~1\AppData\Local\Temp\ccVm3NB4.s 			page 320


 16750      696F00
 16751              	.LASF198:
 16752 1244 696F5F71 		.ascii	"io_queue\000"
 16752      75657565 
 16752      00
 16753              	.LASF393:
 16754 124d 50414461 		.ascii	"PAData\000"
 16754      746100
 16755              	.LASF900:
 16756 1254 6D635F69 		.ascii	"mc_interface_get_fault\000"
 16756      6E746572 
 16756      66616365 
 16756      5F676574 
 16756      5F666175 
 16757              	.LASF15:
 16758 126b 5F5F7569 		.ascii	"__uint64_t\000"
 16758      6E743634 
 16758      5F7400
 16759              	.LASF319:
 16760 1276 666F635F 		.ascii	"foc_sl_erpm\000"
 16760      736C5F65 
 16760      72706D00 
 16761              	.LASF702:
 16762 1282 5F6E6578 		.ascii	"_next\000"
 16762      7400
 16763              	.LASF890:
 16764 1288 74696D65 		.ascii	"timeout_reset\000"
 16764      6F75745F 
 16764      72657365 
 16764      7400
 16765              	.LASF644:
 16766 1296 72657376 		.ascii	"resvd880\000"
 16766      64383830 
 16766      00
 16767              	.LASF558:
 16768 129f 5553425F 		.ascii	"USB_EP0_SENDING_STS\000"
 16768      4550305F 
 16768      53454E44 
 16768      494E475F 
 16768      53545300 
 16769              	.LASF785:
 16770 12b3 5F736967 		.ascii	"_signal_buf\000"
 16770      6E616C5F 
 16770      62756600 
 16771              	.LASF478:
 16772 12bf 70657269 		.ascii	"period_cb\000"
 16772      6F645F63 
 16772      6200
 16773              	.LASF429:
 16774 12c9 69326373 		.ascii	"i2cstate_t\000"
 16774      74617465 
 16774      5F7400
 16775              	.LASF731:
 16776 12d4 5F636F6F 		.ascii	"_cookie\000"
 16776      6B696500 
 16777              	.LASF291:
 16778 12dc 736C5F70 		.ascii	"sl_phase_advance_at_br\000"
ARM GAS  C:\Users\CHRIST~1\AppData\Local\Temp\ccVm3NB4.s 			page 321


 16778      68617365 
 16778      5F616476 
 16778      616E6365 
 16778      5F61745F 
 16779              	.LASF560:
 16780 12f3 75736265 		.ascii	"usbep0state_t\000"
 16780      70307374 
 16780      6174655F 
 16780      7400
 16781              	.LASF103:
 16782 1301 7354784D 		.ascii	"sTxMailBox\000"
 16782      61696C42 
 16782      6F7800
 16783              	.LASF487:
 16784 130c 5350495F 		.ascii	"SPI_ACTIVE\000"
 16784      41435449 
 16784      564500
 16785              	.LASF201:
 16786 1317 715F6275 		.ascii	"q_buffer\000"
 16786      66666572 
 16786      00
 16787              	.LASF35:
 16788 1320 705F6E65 		.ascii	"p_next\000"
 16788      787400
 16789              	.LASF453:
 16790 1327 49324344 		.ascii	"I2CD2\000"
 16790      3200
 16791              	.LASF528:
 16792 132d 55534244 		.ascii	"USBDriver\000"
 16792      72697665 
 16792      7200
 16793              	.LASF645:
 16794 1337 72657376 		.ascii	"resvd8C0\000"
 16794      64384330 
 16794      00
 16795              	.LASF682:
 16796 1340 55534243 		.ascii	"USBConfig\000"
 16796      6F6E6669 
 16796      6700
 16797              	.LASF588:
 16798 134a 72657376 		.ascii	"resvdC\000"
 16798      644300
 16799              	.LASF480:
 16800 1351 6368616E 		.ascii	"channel\000"
 16800      6E656C00 
 16801              	.LASF863:
 16802 1359 73746172 		.ascii	"start\000"
 16802      7400
 16803              	.LASF876:
 16804 135f 6D635F69 		.ascii	"mc_interface_set_configuration\000"
 16804      6E746572 
 16804      66616365 
 16804      5F736574 
 16804      5F636F6E 
 16805              	.LASF336:
 16806 137e 63635F67 		.ascii	"cc_gain\000"
 16806      61696E00 
ARM GAS  C:\Users\CHRIST~1\AppData\Local\Temp\ccVm3NB4.s 			page 322


 16807              	.LASF810:
 16808 1386 7465726D 		.ascii	"terminal_callback_struct\000"
 16808      696E616C 
 16808      5F63616C 
 16808      6C626163 
 16808      6B5F7374 
 16809              	.LASF689:
 16810 139f 4144435F 		.ascii	"ADC_curr_norm_value\000"
 16810      63757272 
 16810      5F6E6F72 
 16810      6D5F7661 
 16810      6C756500 
 16811              	.LASF26:
 16812 13b3 74726566 		.ascii	"trefs_t\000"
 16812      735F7400 
 16813              	.LASF53:
 16814 13bb 705F6D70 		.ascii	"p_mpool\000"
 16814      6F6F6C00 
 16815              	.LASF254:
 16816 13c3 70776D5F 		.ascii	"pwm_mode\000"
 16816      6D6F6465 
 16816      00
 16817              	.LASF256:
 16818 13cc 6D6F746F 		.ascii	"motor_type\000"
 16818      725F7479 
 16818      706500
 16819              	.LASF282:
 16820 13d7 6C6F5F63 		.ascii	"lo_current_min\000"
 16820      75727265 
 16820      6E745F6D 
 16820      696E00
 16821              	.LASF675:
 16822 13e6 696E5F6D 		.ascii	"in_multiplier\000"
 16822      756C7469 
 16822      706C6965 
 16822      7200
 16823              	.LASF289:
 16824 13f4 736C5F6D 		.ascii	"sl_max_fullbreak_current_dir_change\000"
 16824      61785F66 
 16824      756C6C62 
 16824      7265616B 
 16824      5F637572 
 16825              	.LASF716:
 16826 1418 5F6F6E5F 		.ascii	"_on_exit_args\000"
 16826      65786974 
 16826      5F617267 
 16826      7300
 16827              	.LASF24:
 16828 1426 746D6F64 		.ascii	"tmode_t\000"
 16828      655F7400 
 16829              	.LASF754:
 16830 142e 5F5F636C 		.ascii	"__cleanup\000"
 16830      65616E75 
 16830      7000
 16831              	.LASF725:
 16832 1438 5F626173 		.ascii	"_base\000"
 16832      6500
ARM GAS  C:\Users\CHRIST~1\AppData\Local\Temp\ccVm3NB4.s 			page 323


 16833              	.LASF629:
 16834 143e 44535453 		.ascii	"DSTS\000"
 16834      00
 16835              	.LASF315:
 16836 1443 666F635F 		.ascii	"foc_sl_d_current_duty\000"
 16836      736C5F64 
 16836      5F637572 
 16836      72656E74 
 16836      5F647574 
 16837              	.LASF510:
 16838 1459 55415254 		.ascii	"UARTDriver\000"
 16838      44726976 
 16838      657200
 16839              	.LASF381:
 16840 1464 42535252 		.ascii	"BSRR\000"
 16840      00
 16841              	.LASF525:
 16842 1469 55415254 		.ascii	"UARTConfig\000"
 16842      436F6E66 
 16842      696700
 16843              	.LASF142:
 16844 1474 54494D5F 		.ascii	"TIM_TypeDef\000"
 16844      54797065 
 16844      44656600 
 16845              	.LASF680:
 16846 1480 72657175 		.ascii	"requests_hook_cb\000"
 16846      65737473 
 16846      5F686F6F 
 16846      6B5F6362 
 16846      00
 16847              	.LASF790:
 16848 1491 5F776372 		.ascii	"_wcrtomb_state\000"
 16848      746F6D62 
 16848      5F737461 
 16848      746500
 16849              	.LASF836:
 16850 14a0 63757272 		.ascii	"current2_samp\000"
 16850      656E7432 
 16850      5F73616D 
 16850      7000
 16851              	.LASF294:
 16852 14ae 68616C6C 		.ascii	"hall_table\000"
 16852      5F746162 
 16852      6C6500
 16853              	.LASF659:
 16854 14b9 74787369 		.ascii	"txsize\000"
 16854      7A6500
 16855              	.LASF519:
 16856 14c0 7478656E 		.ascii	"txend1_cb\000"
 16856      64315F63 
 16856      6200
 16857              	.LASF856:
 16858 14ca 666F756E 		.ascii	"found\000"
 16858      6400
 16859              	.LASF526:
 16860 14d0 55415254 		.ascii	"UARTD3\000"
 16860      443300
ARM GAS  C:\Users\CHRIST~1\AppData\Local\Temp\ccVm3NB4.s 			page 324


 16861              	.LASF527:
 16862 14d7 55415254 		.ascii	"UARTD6\000"
 16862      443600
 16863              	.LASF899:
 16864 14de 6D635F69 		.ascii	"mc_interface_get_last_sample_adc_isr_duration\000"
 16864      6E746572 
 16864      66616365 
 16864      5F676574 
 16864      5F6C6173 
 16865              	.LASF522:
 16866 150c 72786368 		.ascii	"rxchar_cb\000"
 16866      61725F63 
 16866      6200
 16867              	.LASF428:
 16868 1516 4932435F 		.ascii	"I2C_LOCKED\000"
 16868      4C4F434B 
 16868      454400
 16869              	.LASF477:
 16870 1521 77696474 		.ascii	"width_cb\000"
 16870      685F6362 
 16870      00
 16871              	.LASF226:
 16872 152a 4D4F544F 		.ascii	"MOTOR_TYPE_DC\000"
 16872      525F5459 
 16872      50455F44 
 16872      4300
 16873              	.LASF835:
 16874 1538 63757272 		.ascii	"current1_samp\000"
 16874      656E7431 
 16874      5F73616D 
 16874      7000
 16875              	.LASF872:
 16876 1546 636F6E66 		.ascii	"conf_general_detect_motor_param\000"
 16876      5F67656E 
 16876      6572616C 
 16876      5F646574 
 16876      6563745F 
 16877              	.LASF549:
 16878 1566 5553425F 		.ascii	"USB_READY\000"
 16878      52454144 
 16878      5900
 16879              	.LASF305:
 16880 1570 666F635F 		.ascii	"foc_motor_flux_linkage\000"
 16880      6D6F746F 
 16880      725F666C 
 16880      75785F6C 
 16880      696E6B61 
 16881              	.LASF601:
 16882 1587 47525354 		.ascii	"GRSTCTL\000"
 16882      43544C00 
 16883              	.LASF517:
 16884 158f 75617274 		.ascii	"uartccb_t\000"
 16884      6363625F 
 16884      7400
 16885              	.LASF290:
 16886 1599 736C5F63 		.ascii	"sl_cycle_int_limit\000"
 16886      79636C65 
ARM GAS  C:\Users\CHRIST~1\AppData\Local\Temp\ccVm3NB4.s 			page 325


 16886      5F696E74 
 16886      5F6C696D 
 16886      697400
 16887              	.LASF17:
 16888 15ac 696E7438 		.ascii	"int8_t\000"
 16888      5F7400
 16889              	.LASF499:
 16890 15b3 55415254 		.ascii	"UART_READY\000"
 16890      5F524541 
 16890      445900
 16891              	.LASF700:
 16892 15be 5F5F554C 		.ascii	"__ULong\000"
 16892      6F6E6700 
 16893              	.LASF81:
 16894 15c6 70616E69 		.ascii	"panic_msg\000"
 16894      635F6D73 
 16894      6700
 16895              	.LASF488:
 16896 15d0 5350495F 		.ascii	"SPI_COMPLETE\000"
 16896      434F4D50 
 16896      4C455445 
 16896      00
 16897              	.LASF740:
 16898 15dd 5F646174 		.ascii	"_data\000"
 16898      6100
 16899              	.LASF65:
 16900 15e3 725F6E65 		.ascii	"r_newer\000"
 16900      77657200 
 16901              	.LASF566:
 16902 15eb 5553425F 		.ascii	"USB_EVENT_STALLED\000"
 16902      4556454E 
 16902      545F5354 
 16902      414C4C45 
 16902      4400
 16903              	.LASF184:
 16904 15fd 63686465 		.ascii	"chdebug_t\000"
 16904      6275675F 
 16904      7400
 16905              	.LASF664:
 16906 1607 72787369 		.ascii	"rxsize\000"
 16906      7A6500
 16907              	.LASF457:
 16908 160e 4943555F 		.ascii	"ICU_WAITING\000"
 16908      57414954 
 16908      494E4700 
 16909              	.LASF243:
 16910 161a 6379636C 		.ascii	"cycle_int_limit_max\000"
 16910      655F696E 
 16910      745F6C69 
 16910      6D69745F 
 16910      6D617800 
 16911              	.LASF563:
 16912 162e 5553425F 		.ascii	"USB_EVENT_CONFIGURED\000"
 16912      4556454E 
 16912      545F434F 
 16912      4E464947 
 16912      55524544 
ARM GAS  C:\Users\CHRIST~1\AppData\Local\Temp\ccVm3NB4.s 			page 326


 16913              	.LASF893:
 16914 1643 6D637077 		.ascii	"mcpwm_foc_set_openloop\000"
 16914      6D5F666F 
 16914      635F7365 
 16914      745F6F70 
 16914      656E6C6F 
 16915              	.LASF874:
 16916 165a 6D637077 		.ascii	"mcpwm_get_rpm_dep\000"
 16916      6D5F6765 
 16916      745F7270 
 16916      6D5F6465 
 16916      7000
 16917              	.LASF27:
 16918 166c 74736C69 		.ascii	"tslices_t\000"
 16918      6365735F 
 16918      7400
 16919              	.LASF775:
 16920 1676 5F737472 		.ascii	"_strtok_last\000"
 16920      746F6B5F 
 16920      6C617374 
 16920      00
 16921              	.LASF829:
 16922 1683 64697231 		.ascii	"dir1\000"
 16922      00
 16923              	.LASF171:
 16924 1688 63685F74 		.ascii	"ch_timesize\000"
 16924      696D6573 
 16924      697A6500 
 16925              	.LASF830:
 16926 1694 64697238 		.ascii	"dir8\000"
 16926      00
 16927              	.LASF358:
 16928 1699 6379636C 		.ascii	"cycles_running\000"
 16928      65735F72 
 16928      756E6E69 
 16928      6E6700
 16929              	.LASF545:
 16930 16a8 77615F70 		.ascii	"wa_pump\000"
 16930      756D7000 
 16931              	.LASF196:
 16932 16b0 6576656E 		.ascii	"event_source_t\000"
 16932      745F736F 
 16932      75726365 
 16932      5F7400
 16933              	.LASF615:
 16934 16bf 72657376 		.ascii	"resvd140\000"
 16934      64313430 
 16934      00
 16935              	.LASF73:
 16936 16c8 76745F64 		.ascii	"vt_delta\000"
 16936      656C7461 
 16936      00
 16937              	.LASF88:
 16938 16d1 73697A65 		.ascii	"sizetype\000"
 16938      74797065 
 16938      00
 16939              	.LASF580:
ARM GAS  C:\Users\CHRIST~1\AppData\Local\Temp\ccVm3NB4.s 			page 327


 16940 16da 48435453 		.ascii	"HCTSIZ\000"
 16940      495A00
 16941              	.LASF771:
 16942 16e1 5F736565 		.ascii	"_seed\000"
 16942      6400
 16943              	.LASF734:
 16944 16e7 5F736565 		.ascii	"_seek\000"
 16944      6B00
 16945              	.LASF564:
 16946 16ed 5553425F 		.ascii	"USB_EVENT_SUSPEND\000"
 16946      4556454E 
 16946      545F5355 
 16946      5350454E 
 16946      4400
 16947              	.LASF9:
 16948 16ff 73686F72 		.ascii	"short unsigned int\000"
 16948      7420756E 
 16948      7369676E 
 16948      65642069 
 16948      6E7400
 16949              	.LASF4:
 16950 1712 7369676E 		.ascii	"signed char\000"
 16950      65642063 
 16950      68617200 
 16951              	.LASF803:
 16952 171e 5F5F6664 		.ascii	"__fdlibm_xopen\000"
 16952      6C69626D 
 16952      5F786F70 
 16952      656E00
 16953              	.LASF45:
 16954 172d 705F7072 		.ascii	"p_preempt\000"
 16954      65656D70 
 16954      7400
 16955              	.LASF264:
 16956 1737 6C5F6D61 		.ascii	"l_max_erpm\000"
 16956      785F6572 
 16956      706D00
 16957              	.LASF46:
 16958 1742 705F7469 		.ascii	"p_time\000"
 16958      6D6500
 16959              	.LASF93:
 16960 1749 54444852 		.ascii	"TDHR\000"
 16960      00
 16961              	.LASF557:
 16962 174e 5553425F 		.ascii	"USB_EP0_RX\000"
 16962      4550305F 
 16962      525800
 16963              	.LASF353:
 16964 1759 63757272 		.ascii	"current\000"
 16964      656E7400 
 16965              	.LASF801:
 16966 1761 5F5F6664 		.ascii	"__fdlibm_ieee\000"
 16966      6C69626D 
 16966      5F696565 
 16966      6500
 16967              	.LASF538:
 16968 176f 73746174 		.ascii	"status\000"
ARM GAS  C:\Users\CHRIST~1\AppData\Local\Temp\ccVm3NB4.s 			page 328


 16968      757300
 16969              	.LASF819:
 16970 1776 7465726D 		.ascii	"terminal_process_string\000"
 16970      696E616C 
 16970      5F70726F 
 16970      63657373 
 16970      5F737472 
 16971              	.LASF570:
 16972 178e 55534244 		.ascii	"USBDescriptor\000"
 16972      65736372 
 16972      6970746F 
 16972      7200
 16973              	.LASF758:
 16974 179c 5F667265 		.ascii	"_freelist\000"
 16974      656C6973 
 16974      7400
 16975              	.LASF512:
 16976 17a6 72787374 		.ascii	"rxstate\000"
 16976      61746500 
 16977              	.LASF235:
 16978 17ae 4641554C 		.ascii	"FAULT_CODE_OVER_TEMP_MOTOR\000"
 16978      545F434F 
 16978      44455F4F 
 16978      5645525F 
 16978      54454D50 
 16979              	.LASF539:
 16980 17c9 61646472 		.ascii	"address\000"
 16980      65737300 
 16981              	.LASF48:
 16982 17d1 705F6D73 		.ascii	"p_msgqueue\000"
 16982      67717565 
 16982      756500
 16983              	.LASF181:
 16984 17dc 63665F6F 		.ascii	"cf_off_refs\000"
 16984      66665F72 
 16984      65667300 
 16985              	.LASF311:
 16986 17e8 666F635F 		.ascii	"foc_duty_dowmramp_ki\000"
 16986      64757479 
 16986      5F646F77 
 16986      6D72616D 
 16986      705F6B69 
 16987              	.LASF163:
 16988 17fd 6D5F6F77 		.ascii	"m_owner\000"
 16988      6E657200 
 16989              	.LASF310:
 16990 1805 666F635F 		.ascii	"foc_duty_dowmramp_kp\000"
 16990      64757479 
 16990      5F646F77 
 16990      6D72616D 
 16990      705F6B70 
 16991              	.LASF739:
 16992 181a 5F6F6666 		.ascii	"_offset\000"
 16992      73657400 
 16993              	.LASF90:
 16994 1822 53797374 		.ascii	"SystemCoreClock\000"
 16994      656D436F 
ARM GAS  C:\Users\CHRIST~1\AppData\Local\Temp\ccVm3NB4.s 			page 329


 16994      7265436C 
 16994      6F636B00 
 16995              	.LASF412:
 16996 1832 73746174 		.ascii	"state\000"
 16996      6500
 16997              	.LASF169:
 16998 1838 63685F76 		.ascii	"ch_version\000"
 16998      65727369 
 16998      6F6E00
 16999              	.LASF724:
 17000 1843 5F5F7362 		.ascii	"__sbuf\000"
 17000      756600
 17001              	.LASF556:
 17002 184a 5553425F 		.ascii	"USB_EP0_WAITING_STS\000"
 17002      4550305F 
 17002      57414954 
 17002      494E475F 
 17002      53545300 
 17003              	.LASF124:
 17004 185e 4932435F 		.ascii	"I2C_TypeDef\000"
 17004      54797065 
 17004      44656600 
 17005              	.LASF97:
 17006 186a 52444852 		.ascii	"RDHR\000"
 17006      00
 17007              	.LASF773:
 17008 186f 5F616464 		.ascii	"_add\000"
 17008      00
 17009              	.LASF141:
 17010 1874 444D4152 		.ascii	"DMAR\000"
 17010      00
 17011              	.LASF83:
 17012 1879 63685F73 		.ascii	"ch_system\000"
 17012      79737465 
 17012      6D00
 17013              	.LASF744:
 17014 1883 5F726565 		.ascii	"_reent\000"
 17014      6E7400
 17015              	.LASF258:
 17016 188a 6C5F6375 		.ascii	"l_current_max\000"
 17016      7272656E 
 17016      745F6D61 
 17016      7800
 17017              	.LASF784:
 17018 1898 5F6C3634 		.ascii	"_l64a_buf\000"
 17018      615F6275 
 17018      6600
 17019              	.LASF364:
 17020 18a2 64727638 		.ascii	"drv8301_faults\000"
 17020      3330315F 
 17020      6661756C 
 17020      747300
 17021              	.LASF776:
 17022 18b1 5F617363 		.ascii	"_asctime_buf\000"
 17022      74696D65 
 17022      5F627566 
 17022      00
ARM GAS  C:\Users\CHRIST~1\AppData\Local\Temp\ccVm3NB4.s 			page 330


 17023              	.LASF505:
 17024 18be 55415254 		.ascii	"UART_RX_IDLE\000"
 17024      5F52585F 
 17024      49444C45 
 17024      00
 17025              	.LASF694:
 17026 18cb 5F5F7763 		.ascii	"__wch\000"
 17026      6800
 17027              	.LASF697:
 17028 18d1 5F5F7661 		.ascii	"__value\000"
 17028      6C756500 
 17029              	.LASF158:
 17030 18d9 63685F73 		.ascii	"ch_semaphore\000"
 17030      656D6170 
 17030      686F7265 
 17030      00
 17031              	.LASF791:
 17032 18e6 5F776373 		.ascii	"_wcsrtombs_state\000"
 17032      72746F6D 
 17032      62735F73 
 17032      74617465 
 17032      00
 17033              	.LASF589:
 17034 18f7 44494550 		.ascii	"DIEPTSIZ\000"
 17034      5453495A 
 17034      00
 17035              	.LASF859:
 17036 1900 706F7274 		.ascii	"port_unlock\000"
 17036      5F756E6C 
 17036      6F636B00 
 17037              	.LASF58:
 17038 190c 74687265 		.ascii	"threads_queue_t\000"
 17038      6164735F 
 17038      71756575 
 17038      655F7400 
 17039              	.LASF237:
 17040 191c 53454E53 		.ascii	"SENSOR_PORT_MODE_HALL\000"
 17040      4F525F50 
 17040      4F52545F 
 17040      4D4F4445 
 17040      5F48414C 
 17041              	.LASF906:
 17042 1932 5F5F6664 		.ascii	"__fdlibm_version\000"
 17042      6C69626D 
 17042      5F766572 
 17042      73696F6E 
 17042      00
 17043              	.LASF688:
 17044 1943 4144435F 		.ascii	"ADC_Value\000"
 17044      56616C75 
 17044      6500
 17045              	.LASF221:
 17046 194d 464F435F 		.ascii	"FOC_SENSOR_MODE_SENSORLESS\000"
 17046      53454E53 
 17046      4F525F4D 
 17046      4F44455F 
 17046      53454E53 
ARM GAS  C:\Users\CHRIST~1\AppData\Local\Temp\ccVm3NB4.s 			page 331


 17047              	.LASF44:
 17048 1968 705F7265 		.ascii	"p_refs\000"
 17048      667300
 17049              	.LASF667:
 17050 196f 65705F6D 		.ascii	"ep_mode\000"
 17050      6F646500 
 17051              	.LASF596:
 17052 1977 73746D33 		.ascii	"stm32_otg_out_ep_t\000"
 17052      325F6F74 
 17052      675F6F75 
 17052      745F6570 
 17052      5F7400
 17053              	.LASF220:
 17054 198a 6D635F73 		.ascii	"mc_sensor_mode\000"
 17054      656E736F 
 17054      725F6D6F 
 17054      646500
 17055              	.LASF92:
 17056 1999 54444C52 		.ascii	"TDLR\000"
 17056      00
 17057              	.LASF11:
 17058 199e 6C6F6E67 		.ascii	"long int\000"
 17058      20696E74 
 17058      00
 17059              	.LASF86:
 17060 19a7 6D61696E 		.ascii	"mainthread\000"
 17060      74687265 
 17060      616400
 17061              	.LASF806:
 17062 19b2 5F746572 		.ascii	"_terminal_callback_struct\000"
 17062      6D696E61 
 17062      6C5F6361 
 17062      6C6C6261 
 17062      636B5F73 
 17063              	.LASF896:
 17064 19cc 6D637077 		.ascii	"mcpwm_get_kv_filtered\000"
 17064      6D5F6765 
 17064      745F6B76 
 17064      5F66696C 
 17064      74657265 
 17065              	.LASF535:
 17066 19e2 6570306E 		.ascii	"ep0n\000"
 17066      00
 17067              	.LASF248:
 17068 19e7 6D635F72 		.ascii	"mc_rpm_dep_struct\000"
 17068      706D5F64 
 17068      65705F73 
 17068      74727563 
 17068      7400
 17069              	.LASF162:
 17070 19f9 6D5F7175 		.ascii	"m_queue\000"
 17070      65756500 
 17071              	.LASF400:
 17072 1a01 50484461 		.ascii	"PHData\000"
 17072      746100
 17073              	.LASF403:
 17074 1a08 696F706F 		.ascii	"ioportid_t\000"
ARM GAS  C:\Users\CHRIST~1\AppData\Local\Temp\ccVm3NB4.s 			page 332


 17074      72746964 
 17074      5F7400
 17075              	.LASF214:
 17076 1a13 434F4D4D 		.ascii	"COMM_MODE_INTEGRATE\000"
 17076      5F4D4F44 
 17076      455F494E 
 17076      54454752 
 17076      41544500 
 17077              	.LASF616:
 17078 1a27 48434647 		.ascii	"HCFG\000"
 17078      00
 17079              	.LASF684:
 17080 1a2c 6D637077 		.ascii	"mcpwm_detect_currents\000"
 17080      6D5F6465 
 17080      74656374 
 17080      5F637572 
 17080      72656E74 
 17081              	.LASF514:
 17082 1a42 646D616D 		.ascii	"dmamode\000"
 17082      6F646500 
 17083              	.LASF769:
 17084 1a4a 5F696F62 		.ascii	"_iobs\000"
 17084      7300
 17085              	.LASF496:
 17086 1a50 53504944 		.ascii	"SPID1\000"
 17086      3100
 17087              	.LASF808:
 17088 1a56 68656C70 		.ascii	"help\000"
 17088      00
 17089              	.LASF500:
 17090 1a5b 75617274 		.ascii	"uartstate_t\000"
 17090      73746174 
 17090      655F7400 
 17091              	.LASF154:
 17092 1a67 77747472 		.ascii	"wttrp\000"
 17092      7000
 17093              	.LASF204:
 17094 1a6d 715F7264 		.ascii	"q_rdptr\000"
 17094      70747200 
 17095              	.LASF147:
 17096 1a75 636F6E74 		.ascii	"context\000"
 17096      65787400 
 17097              	.LASF779:
 17098 1a7d 5F72616E 		.ascii	"_rand_next\000"
 17098      645F6E65 
 17098      787400
 17099              	.LASF669:
 17100 1a88 696E5F63 		.ascii	"in_cb\000"
 17100      6200
 17101              	.LASF685:
 17102 1a8e 6D637077 		.ascii	"mcpwm_detect_voltages\000"
 17102      6D5F6465 
 17102      74656374 
 17102      5F766F6C 
 17102      74616765 
 17103              	.LASF594:
 17104 1aa4 444F4550 		.ascii	"DOEPINT\000"
ARM GAS  C:\Users\CHRIST~1\AppData\Local\Temp\ccVm3NB4.s 			page 333


 17104      494E5400 
 17105              	.LASF382:
 17106 1aac 4C434B52 		.ascii	"LCKR\000"
 17106      00
 17107              	.LASF302:
 17108 1ab1 666F635F 		.ascii	"foc_encoder_ratio\000"
 17108      656E636F 
 17108      6465725F 
 17108      72617469 
 17108      6F00
 17109              	.LASF21:
 17110 1ac3 75696E74 		.ascii	"uint32_t\000"
 17110      33325F74 
 17110      00
 17111              	.LASF368:
 17112 1acc 636F6E66 		.ascii	"conf_general_permanent_nrf_found\000"
 17112      5F67656E 
 17112      6572616C 
 17112      5F706572 
 17112      6D616E65 
 17113              	.LASF703:
 17114 1aed 5F6D6178 		.ascii	"_maxwds\000"
 17114      77647300 
 17115              	.LASF574:
 17116 1af5 75736272 		.ascii	"usbreqhandler_t\000"
 17116      65716861 
 17116      6E646C65 
 17116      725F7400 
 17117              	.LASF96:
 17118 1b05 52444C52 		.ascii	"RDLR\000"
 17118      00
 17119              	.LASF704:
 17120 1b0a 5F736967 		.ascii	"_sign\000"
 17120      6E00
 17121              	.LASF886:
 17122 1b10 6D635F69 		.ascii	"mc_interface_get_rpm\000"
 17122      6E746572 
 17122      66616365 
 17122      5F676574 
 17122      5F72706D 
 17123              	.LASF860:
 17124 1b25 706F7274 		.ascii	"port_lock\000"
 17124      5F6C6F63 
 17124      6B00
 17125              	.LASF894:
 17126 1b2f 73747274 		.ascii	"strtok\000"
 17126      6F6B00
 17127              	.LASF145:
 17128 1b36 72656761 		.ascii	"regarm_t\000"
 17128      726D5F74 
 17128      00
 17129              	.LASF30:
 17130 1b3f 6576656E 		.ascii	"eventmask_t\000"
 17130      746D6173 
 17130      6B5F7400 
 17131              	.LASF561:
 17132 1b4b 5553425F 		.ascii	"USB_EVENT_RESET\000"
ARM GAS  C:\Users\CHRIST~1\AppData\Local\Temp\ccVm3NB4.s 			page 334


 17132      4556454E 
 17132      545F5245 
 17132      53455400 
 17133              	.LASF854:
 17134 1b5b 69715F61 		.ascii	"iq_avg\000"
 17134      766700
 17135              	.LASF110:
 17136 1b62 46464131 		.ascii	"FFA1R\000"
 17136      5200
 17137              	.LASF550:
 17138 1b68 5553425F 		.ascii	"USB_SELECTED\000"
 17138      53454C45 
 17138      43544544 
 17138      00
 17139              	.LASF13:
 17140 1b75 6C6F6E67 		.ascii	"long unsigned int\000"
 17140      20756E73 
 17140      69676E65 
 17140      6420696E 
 17140      7400
 17141              	.LASF337:
 17142 1b87 63635F72 		.ascii	"cc_ramp_step_max\000"
 17142      616D705F 
 17142      73746570 
 17142      5F6D6178 
 17142      00
 17143              	.LASF827:
 17144 1b98 74315F63 		.ascii	"t1_cnt\000"
 17144      6E7400
 17145              	.LASF332:
 17146 1b9f 705F7069 		.ascii	"p_pid_kd\000"
 17146      645F6B64 
 17146      00
 17147              	.LASF331:
 17148 1ba8 705F7069 		.ascii	"p_pid_ki\000"
 17148      645F6B69 
 17148      00
 17149              	.LASF203:
 17150 1bb1 715F7772 		.ascii	"q_wrptr\000"
 17150      70747200 
 17151              	.LASF330:
 17152 1bb9 705F7069 		.ascii	"p_pid_kp\000"
 17152      645F6B70 
 17152      00
 17153              	.LASF460:
 17154 1bc2 49435544 		.ascii	"ICUDriver\000"
 17154      72697665 
 17154      7200
 17155              	.LASF362:
 17156 1bcc 636F6D6D 		.ascii	"comm_step\000"
 17156      5F737465 
 17156      7000
 17157              	.LASF482:
 17158 1bd6 49435543 		.ascii	"ICUConfig\000"
 17158      6F6E6669 
 17158      6700
 17159              	.LASF211:
ARM GAS  C:\Users\CHRIST~1\AppData\Local\Temp\ccVm3NB4.s 			page 335


 17160 1be0 50574D5F 		.ascii	"PWM_MODE_SYNCHRONOUS\000"
 17160      4D4F4445 
 17160      5F53594E 
 17160      4348524F 
 17160      4E4F5553 
 17161              	.LASF347:
 17162 1bf5 6D5F626C 		.ascii	"m_bldc_f_sw_max\000"
 17162      64635F66 
 17162      5F73775F 
 17162      6D617800 
 17163              	.LASF253:
 17164 1c05 64727638 		.ascii	"drv8301_oc_mode\000"
 17164      3330315F 
 17164      6F635F6D 
 17164      6F646500 
 17165              	.LASF516:
 17166 1c15 75617274 		.ascii	"uartcb_t\000"
 17166      63625F74 
 17166      00
 17167              	.LASF323:
 17168 1c1e 666F635F 		.ascii	"foc_temp_comp\000"
 17168      74656D70 
 17168      5F636F6D 
 17168      7000
 17169              	.LASF416:
 17170 1c2c 72786675 		.ascii	"rxfull_event\000"
 17170      6C6C5F65 
 17170      76656E74 
 17170      00
 17171              	.LASF567:
 17172 1c39 75736265 		.ascii	"usbevent_t\000"
 17172      76656E74 
 17172      5F7400
 17173              	.LASF735:
 17174 1c44 5F636C6F 		.ascii	"_close\000"
 17174      736500
 17175              	.LASF165:
 17176 1c4b 63686172 		.ascii	"char\000"
 17176      00
 17177              	.LASF411:
 17178 1c50 43414E43 		.ascii	"CANConfig\000"
 17178      6F6E6669 
 17178      6700
 17179              	.LASF397:
 17180 1c5a 50454461 		.ascii	"PEData\000"
 17180      746100
 17181              	.LASF62:
 17182 1c61 725F7175 		.ascii	"r_queue\000"
 17182      65756500 
 17183              	.LASF767:
 17184 1c69 5F676C75 		.ascii	"_glue\000"
 17184      6500
 17185              	.LASF293:
 17186 1c6f 736C5F62 		.ascii	"sl_bemf_coupling_k\000"
 17186      656D665F 
 17186      636F7570 
 17186      6C696E67 
ARM GAS  C:\Users\CHRIST~1\AppData\Local\Temp\ccVm3NB4.s 			page 336


 17186      5F6B00
 17187              	.LASF606:
 17188 1c82 47525846 		.ascii	"GRXFSIZ\000"
 17188      53495A00 
 17189              	.LASF513:
 17190 1c8a 75736172 		.ascii	"usart\000"
 17190      7400
 17191              	.LASF817:
 17192 1c90 7465726D 		.ascii	"terminal_add_fault_data\000"
 17192      696E616C 
 17192      5F616464 
 17192      5F666175 
 17192      6C745F64 
 17193              	.LASF763:
 17194 1ca8 5F736967 		.ascii	"_sig_func\000"
 17194      5F66756E 
 17194      6300
 17195              	.LASF206:
 17196 1cb2 715F6C69 		.ascii	"q_link\000"
 17196      6E6B00
 17197              	.LASF472:
 17198 1cb9 4943555F 		.ascii	"ICU_CHANNEL_1\000"
 17198      4348414E 
 17198      4E454C5F 
 17198      3100
 17199              	.LASF837:
 17200 1cc7 6D696E5F 		.ascii	"min_rpm\000"
 17200      72706D00 
 17201              	.LASF701:
 17202 1ccf 5F426967 		.ascii	"_Bigint\000"
 17202      696E7400 
 17203              	.LASF275:
 17204 1cd7 6C5F7465 		.ascii	"l_temp_motor_start\000"
 17204      6D705F6D 
 17204      6F746F72 
 17204      5F737461 
 17204      727400
 17205              	.LASF603:
 17206 1cea 47494E54 		.ascii	"GINTMSK\000"
 17206      4D534B00 
 17207              	.LASF464:
 17208 1cf2 69637563 		.ascii	"icucallback_t\000"
 17208      616C6C62 
 17208      61636B5F 
 17208      7400
 17209              	.LASF608:
 17210 1d00 484E5054 		.ascii	"HNPTXSTS\000"
 17210      58535453 
 17210      00
 17211              	.LASF866:
 17212 1d09 63684865 		.ascii	"chHeapStatus\000"
 17212      61705374 
 17212      61747573 
 17212      00
 17213              	.LASF352:
 17214 1d16 6661756C 		.ascii	"fault\000"
 17214      7400
ARM GAS  C:\Users\CHRIST~1\AppData\Local\Temp\ccVm3NB4.s 			page 337


 17215              	.LASF540:
 17216 1d1c 636F6E66 		.ascii	"configuration\000"
 17216      69677572 
 17216      6174696F 
 17216      6E00
 17217              	.LASF762:
 17218 1d2a 5F617465 		.ascii	"_atexit0\000"
 17218      78697430 
 17218      00
 17219              	.LASF392:
 17220 1d33 73746D33 		.ascii	"stm32_gpio_setup_t\000"
 17220      325F6770 
 17220      696F5F73 
 17220      65747570 
 17220      5F7400
 17221              	.LASF469:
 17222 1d46 4943555F 		.ascii	"ICU_INPUT_ACTIVE_LOW\000"
 17222      494E5055 
 17222      545F4143 
 17222      54495645 
 17222      5F4C4F57 
 17223              	.LASF259:
 17224 1d5b 6C5F6375 		.ascii	"l_current_min\000"
 17224      7272656E 
 17224      745F6D69 
 17224      6E00
 17225              	.LASF375:
 17226 1d69 5F73746D 		.ascii	"_stm32_dma_streams\000"
 17226      33325F64 
 17226      6D615F73 
 17226      74726561 
 17226      6D7300
 17227              	.LASF786:
 17228 1d7c 5F676574 		.ascii	"_getdate_err\000"
 17228      64617465 
 17228      5F657272 
 17228      00
 17229              	.LASF357:
 17230 1d89 74616368 		.ascii	"tacho\000"
 17230      6F00
 17231              	.LASF471:
 17232 1d8f 69637566 		.ascii	"icufreq_t\000"
 17232      7265715F 
 17232      7400
 17233              	.LASF706:
 17234 1d99 5F5F746D 		.ascii	"__tm\000"
 17234      00
 17235              	.LASF231:
 17236 1d9e 4641554C 		.ascii	"FAULT_CODE_UNDER_VOLTAGE\000"
 17236      545F434F 
 17236      44455F55 
 17236      4E444552 
 17236      5F564F4C 
 17237              	.LASF885:
 17238 1db7 6D637077 		.ascii	"mcpwm_foc_get_vq\000"
 17238      6D5F666F 
 17238      635F6765 
ARM GAS  C:\Users\CHRIST~1\AppData\Local\Temp\ccVm3NB4.s 			page 338


 17238      745F7671 
 17238      00
 17239              	.LASF32:
 17240 1dc8 636E745F 		.ascii	"cnt_t\000"
 17240      7400
 17241              	.LASF867:
 17242 1dce 6368436F 		.ascii	"chCoreGetStatusX\000"
 17242      72654765 
 17242      74537461 
 17242      74757358 
 17242      00
 17243              	.LASF555:
 17244 1ddf 5553425F 		.ascii	"USB_EP0_WAITING_TX0\000"
 17244      4550305F 
 17244      57414954 
 17244      494E475F 
 17244      54583000 
 17245              	.LASF356:
 17246 1df3 64757479 		.ascii	"duty\000"
 17246      00
 17247              	.LASF229:
 17248 1df8 4641554C 		.ascii	"FAULT_CODE_NONE\000"
 17248      545F434F 
 17248      44455F4E 
 17248      4F4E4500 
 17249              	.LASF326:
 17250 1e08 735F7069 		.ascii	"s_pid_ki\000"
 17250      645F6B69 
 17250      00
 17251              	.LASF584:
 17252 1e11 73746D33 		.ascii	"stm32_otg_host_chn_t\000"
 17252      325F6F74 
 17252      675F686F 
 17252      73745F63 
 17252      686E5F74 
 17253              	.LASF295:
 17254 1e26 68616C6C 		.ascii	"hall_sl_erpm\000"
 17254      5F736C5F 
 17254      6572706D 
 17254      00
 17255              	.LASF325:
 17256 1e33 735F7069 		.ascii	"s_pid_kp\000"
 17256      645F6B70 
 17256      00
 17257              	.LASF384:
 17258 1e3c 41465248 		.ascii	"AFRH\000"
 17258      00
 17259              	.LASF383:
 17260 1e41 4146524C 		.ascii	"AFRL\000"
 17260      00
 17261              	.LASF285:
 17262 1e46 6C6F5F63 		.ascii	"lo_current_motor_max_now\000"
 17262      75727265 
 17262      6E745F6D 
 17262      6F746F72 
 17262      5F6D6178 
 17263              	.LASF825:
ARM GAS  C:\Users\CHRIST~1\AppData\Local\Temp\ccVm3NB4.s 			page 339


 17264 1e5f 73697A65 		.ascii	"size\000"
 17264      00
 17265              	.LASF798:
 17266 1e64 5F696D70 		.ascii	"_impure_ptr\000"
 17266      7572655F 
 17266      70747200 
 17267              	.LASF182:
 17268 1e70 63665F6F 		.ascii	"cf_off_preempt\000"
 17268      66665F70 
 17268      7265656D 
 17268      707400
 17269              	.LASF887:
 17270 1e7f 6D635F69 		.ascii	"mc_interface_get_tot_current_directional\000"
 17270      6E746572 
 17270      66616365 
 17270      5F676574 
 17270      5F746F74 
 17271              	.LASF593:
 17272 1ea8 444F4550 		.ascii	"DOEPCTL\000"
 17272      43544C00 
 17273              	.LASF579:
 17274 1eb0 4843494E 		.ascii	"HCINTMSK\000"
 17274      544D534B 
 17274      00
 17275              	.LASF736:
 17276 1eb9 5F756275 		.ascii	"_ubuf\000"
 17276      6600
 17277              	.LASF312:
 17278 1ebf 666F635F 		.ascii	"foc_openloop_rpm\000"
 17278      6F70656E 
 17278      6C6F6F70 
 17278      5F72706D 
 17278      00
 17279              	.LASF316:
 17280 1ed0 666F635F 		.ascii	"foc_sl_d_current_factor\000"
 17280      736C5F64 
 17280      5F637572 
 17280      72656E74 
 17280      5F666163 
 17281              	.LASF781:
 17282 1ee8 5F6D626C 		.ascii	"_mblen_state\000"
 17282      656E5F73 
 17282      74617465 
 17282      00
 17283              	.LASF764:
 17284 1ef5 5F5F7367 		.ascii	"__sglue\000"
 17284      6C756500 
 17285              	.LASF797:
 17286 1efd 5F5F6C6F 		.ascii	"__locale_t\000"
 17286      63616C65 
 17286      5F7400
 17287              	.LASF309:
 17288 1f08 666F635F 		.ascii	"foc_pll_ki\000"
 17288      706C6C5F 
 17288      6B6900
 17289              	.LASF509:
 17290 1f13 75617274 		.ascii	"uartflags_t\000"
ARM GAS  C:\Users\CHRIST~1\AppData\Local\Temp\ccVm3NB4.s 			page 340


 17290      666C6167 
 17290      735F7400 
 17291              	.LASF308:
 17292 1f1f 666F635F 		.ascii	"foc_pll_kp\000"
 17292      706C6C5F 
 17292      6B7000
 17293              	.LASF627:
 17294 1f2a 44434647 		.ascii	"DCFG\000"
 17294      00
 17295              	.LASF498:
 17296 1f2f 55415254 		.ascii	"UART_STOP\000"
 17296      5F53544F 
 17296      5000
 17297              	.LASF882:
 17298 1f39 6D637077 		.ascii	"mcpwm_foc_measure_res_ind\000"
 17298      6D5F666F 
 17298      635F6D65 
 17298      61737572 
 17298      655F7265 
 17299              	.LASF458:
 17300 1f53 4943555F 		.ascii	"ICU_ACTIVE\000"
 17300      41435449 
 17300      564500
 17301              	.LASF521:
 17302 1f5e 7278656E 		.ascii	"rxend_cb\000"
 17302      645F6362 
 17302      00
 17303              	.LASF844:
 17304 1f67 72617469 		.ascii	"ratio\000"
 17304      6F00
 17305              	.LASF892:
 17306 1f6d 6D635F69 		.ascii	"mc_interface_release_motor\000"
 17306      6E746572 
 17306      66616365 
 17306      5F72656C 
 17306      65617365 
 17307              	.LASF68:
 17308 1f88 76746675 		.ascii	"vtfunc_t\000"
 17308      6E635F74 
 17308      00
 17309              	.LASF98:
 17310 1f91 43414E5F 		.ascii	"CAN_FIFOMailBox_TypeDef\000"
 17310      4649464F 
 17310      4D61696C 
 17310      426F785F 
 17310      54797065 
 17311              	.LASF153:
 17312 1fa9 77746F62 		.ascii	"wtobjp\000"
 17312      6A7000
 17313              	.LASF692:
 17314 1fb0 5F66706F 		.ascii	"_fpos_t\000"
 17314      735F7400 
 17315              	.LASF729:
 17316 1fb8 5F66696C 		.ascii	"_file\000"
 17316      6500
 17317              	.LASF246:
 17318 1fbe 636F6D6D 		.ascii	"comms\000"
ARM GAS  C:\Users\CHRIST~1\AppData\Local\Temp\ccVm3NB4.s 			page 341


 17318      7300
 17319              	.LASF250:
 17320 1fc4 44525638 		.ascii	"DRV8301_OC_LATCH_SHUTDOWN\000"
 17320      3330315F 
 17320      4F435F4C 
 17320      41544348 
 17320      5F534855 
 17321              	.LASF52:
 17322 1fde 705F7265 		.ascii	"p_realprio\000"
 17322      616C7072 
 17322      696F00
 17323              	.LASF205:
 17324 1fe9 715F6E6F 		.ascii	"q_notify\000"
 17324      74696679 
 17324      00
 17325              	.LASF156:
 17326 1ff2 77746D74 		.ascii	"wtmtxp\000"
 17326      787000
 17327              	.LASF228:
 17328 1ff9 6D635F6D 		.ascii	"mc_motor_type\000"
 17328      6F746F72 
 17328      5F747970 
 17328      6500
 17329              	.LASF727:
 17330 2007 5F5F7346 		.ascii	"__sFILE\000"
 17330      494C4500 
 17331              	.LASF800:
 17332 200f 646F7562 		.ascii	"double\000"
 17332      6C6500
 17333              	.LASF723:
 17334 2016 5F666E73 		.ascii	"_fns\000"
 17334      00
 17335              	.LASF840:
 17336 201b 636F7570 		.ascii	"coupling_k\000"
 17336      6C696E67 
 17336      5F6B00
 17337              	.LASF908:
 17338 2026 63685654 		.ascii	"chVTGetSystemTimeX\000"
 17338      47657453 
 17338      79737465 
 17338      6D54696D 
 17338      655800
 17339              	.LASF666:
 17340 2039 5553424F 		.ascii	"USBOutEndpointState\000"
 17340      7574456E 
 17340      64706F69 
 17340      6E745374 
 17340      61746500 
 17341              	.LASF623:
 17342 204d 72657376 		.ascii	"resvd41C\000"
 17342      64343143 
 17342      00
 17343              	.LASF276:
 17344 2056 6C5F7465 		.ascii	"l_temp_motor_end\000"
 17344      6D705F6D 
 17344      6F746F72 
 17344      5F656E64 
ARM GAS  C:\Users\CHRIST~1\AppData\Local\Temp\ccVm3NB4.s 			page 342


 17344      00
 17345              	.LASF698:
 17346 2067 5F6D6273 		.ascii	"_mbstate_t\000"
 17346      74617465 
 17346      5F7400
 17347              	.LASF792:
 17348 2072 5F685F65 		.ascii	"_h_errno\000"
 17348      72726E6F 
 17348      00
 17349              	.LASF324:
 17350 207b 666F635F 		.ascii	"foc_temp_comp_base_temp\000"
 17350      74656D70 
 17350      5F636F6D 
 17350      705F6261 
 17350      73655F74 
 17351              	.LASF95:
 17352 2093 52445452 		.ascii	"RDTR\000"
 17352      00
 17353              	.LASF257:
 17354 2098 73656E73 		.ascii	"sensor_mode\000"
 17354      6F725F6D 
 17354      6F646500 
 17355              	.LASF822:
 17356 20a4 61726776 		.ascii	"argv\000"
 17356      00
 17357              	.LASF217:
 17358 20a9 53454E53 		.ascii	"SENSOR_MODE_SENSORLESS\000"
 17358      4F525F4D 
 17358      4F44455F 
 17358      53454E53 
 17358      4F524C45 
 17359              	.LASF524:
 17360 20c0 73706565 		.ascii	"speed\000"
 17360      6400
 17361              	.LASF61:
 17362 20c6 63685F72 		.ascii	"ch_ready_list\000"
 17362      65616479 
 17362      5F6C6973 
 17362      7400
 17363              	.LASF520:
 17364 20d4 7478656E 		.ascii	"txend2_cb\000"
 17364      64325F63 
 17364      6200
 17365              	.LASF380:
 17366 20de 50555044 		.ascii	"PUPDR\000"
 17366      5200
 17367              	.LASF10:
 17368 20e4 5F5F696E 		.ascii	"__int32_t\000"
 17368      7433325F 
 17368      7400
 17369              	.LASF12:
 17370 20ee 5F5F7569 		.ascii	"__uint32_t\000"
 17370      6E743332 
 17370      5F7400
 17371              	.LASF462:
 17372 20f9 77636372 		.ascii	"wccrp\000"
 17372      7000
ARM GAS  C:\Users\CHRIST~1\AppData\Local\Temp\ccVm3NB4.s 			page 343


 17373              	.LASF80:
 17374 20ff 63685F73 		.ascii	"ch_system_debug\000"
 17374      79737465 
 17374      6D5F6465 
 17374      62756700 
 17375              	.LASF361:
 17376 210f 74696D5F 		.ascii	"tim_top\000"
 17376      746F7000 
 17377              	.LASF818:
 17378 2117 64617461 		.ascii	"data\000"
 17378      00
 17379              	.LASF634:
 17380 211c 4441494E 		.ascii	"DAINTMSK\000"
 17380      544D534B 
 17380      00
 17381              	.LASF200:
 17382 2125 715F636F 		.ascii	"q_counter\000"
 17382      756E7465 
 17382      7200
 17383              	.LASF553:
 17384 212f 5553425F 		.ascii	"USB_EP0_WAITING_SETUP\000"
 17384      4550305F 
 17384      57414954 
 17384      494E475F 
 17384      53455455 
 17385              	.LASF720:
 17386 2145 5F69735F 		.ascii	"_is_cxa\000"
 17386      63786100 
 17387              	.LASF391:
 17388 214d 61667268 		.ascii	"afrh\000"
 17388      00
 17389              	.LASF455:
 17390 2152 4943555F 		.ascii	"ICU_STOP\000"
 17390      53544F50 
 17390      00
 17391              	.LASF390:
 17392 215b 6166726C 		.ascii	"afrl\000"
 17392      00
 17393              	.LASF657:
 17394 2160 71756575 		.ascii	"queue\000"
 17394      6500
 17395              	.LASF346:
 17396 2166 6D5F626C 		.ascii	"m_bldc_f_sw_min\000"
 17396      64635F66 
 17396      5F73775F 
 17396      6D696E00 
 17397              	.LASF536:
 17398 2176 65703065 		.ascii	"ep0endcb\000"
 17398      6E646362 
 17398      00
 17399              	.LASF823:
 17400 217f 6D63636F 		.ascii	"mcconf\000"
 17400      6E6600
 17401              	.LASF372:
 17402 2186 73656C66 		.ascii	"selfindex\000"
 17402      696E6465 
 17402      7800
ARM GAS  C:\Users\CHRIST~1\AppData\Local\Temp\ccVm3NB4.s 			page 344


 17403              	.LASF186:
 17404 2190 6D757465 		.ascii	"mutex_t\000"
 17404      785F7400 
 17405              	.LASF757:
 17406 2198 5F703573 		.ascii	"_p5s\000"
 17406      00
 17407              	.LASF50:
 17408 219d 705F6570 		.ascii	"p_epending\000"
 17408      656E6469 
 17408      6E6700
 17409              	.LASF377:
 17410 21a8 4D4F4445 		.ascii	"MODER\000"
 17410      5200
 17411              	.LASF461:
 17412 21ae 636C6F63 		.ascii	"clock\000"
 17412      6B00
 17413              	.LASF809:
 17414 21b4 6172675F 		.ascii	"arg_names\000"
 17414      6E616D65 
 17414      7300
 17415              	.LASF313:
 17416 21be 666F635F 		.ascii	"foc_sl_openloop_hyst\000"
 17416      736C5F6F 
 17416      70656E6C 
 17416      6F6F705F 
 17416      68797374 
 17417              	.LASF102:
 17418 21d3 52455345 		.ascii	"RESERVED0\000"
 17418      52564544 
 17418      3000
 17419              	.LASF105:
 17420 21dd 52455345 		.ascii	"RESERVED1\000"
 17420      52564544 
 17420      3100
 17421              	.LASF107:
 17422 21e7 52455345 		.ascii	"RESERVED2\000"
 17422      52564544 
 17422      3200
 17423              	.LASF109:
 17424 21f1 52455345 		.ascii	"RESERVED3\000"
 17424      52564544 
 17424      3300
 17425              	.LASF111:
 17426 21fb 52455345 		.ascii	"RESERVED4\000"
 17426      52564544 
 17426      3400
 17427              	.LASF113:
 17428 2205 52455345 		.ascii	"RESERVED5\000"
 17428      52564544 
 17428      3500
 17429              	.LASF677:
 17430 220f 55534245 		.ascii	"USBEndpointConfig\000"
 17430      6E64706F 
 17430      696E7443 
 17430      6F6E6669 
 17430      6700
 17431              	.LASF415:
ARM GAS  C:\Users\CHRIST~1\AppData\Local\Temp\ccVm3NB4.s 			page 345


 17432 2221 72787175 		.ascii	"rxqueue\000"
 17432      65756500 
 17433              	.LASF625:
 17434 2229 72657376 		.ascii	"resvd444\000"
 17434      64343434 
 17434      00
 17435              	.LASF404:
 17436 2232 70616C5F 		.ascii	"pal_default_config\000"
 17436      64656661 
 17436      756C745F 
 17436      636F6E66 
 17436      696700
 17437              	.LASF799:
 17438 2245 5F676C6F 		.ascii	"_global_impure_ptr\000"
 17438      62616C5F 
 17438      696D7075 
 17438      72655F70 
 17438      747200
 17439              	.LASF507:
 17440 2258 55415254 		.ascii	"UART_RX_COMPLETE\000"
 17440      5F52585F 
 17440      434F4D50 
 17440      4C455445 
 17440      00
 17441              	.LASF190:
 17442 2269 656C5F6C 		.ascii	"el_listener\000"
 17442      69737465 
 17442      6E657200 
 17443              	.LASF656:
 17444 2275 6C696E65 		.ascii	"linear\000"
 17444      617200
 17445              	.LASF355:
 17446 227c 766F6C74 		.ascii	"voltage\000"
 17446      61676500 
 17447              	.LASF283:
 17448 2284 6C6F5F69 		.ascii	"lo_in_current_max\000"
 17448      6E5F6375 
 17448      7272656E 
 17448      745F6D61 
 17448      7800
 17449              	.LASF884:
 17450 2296 63685468 		.ascii	"chThdSleep\000"
 17450      64536C65 
 17450      657000
 17451              	.LASF831:
 17452 22a1 64757479 		.ascii	"duty1\000"
 17452      3100
 17453              	.LASF832:
 17454 22a7 64757479 		.ascii	"duty2\000"
 17454      3200
 17455              	.LASF833:
 17456 22ad 64757479 		.ascii	"duty3\000"
 17456      3300
 17457              	.LASF467:
 17458 22b3 73746D33 		.ascii	"stm32_tim_t\000"
 17458      325F7469 
 17458      6D5F7400 
ARM GAS  C:\Users\CHRIST~1\AppData\Local\Temp\ccVm3NB4.s 			page 346


 17459              	.LASF824:
 17460 22bf 6D63636F 		.ascii	"mcconf_old\000"
 17460      6E665F6F 
 17460      6C6400
 17461              	.LASF63:
 17462 22ca 725F7072 		.ascii	"r_prio\000"
 17462      696F00
 17463              	.LASF542:
 17464 22d1 706D6E65 		.ascii	"pmnext\000"
 17464      787400
 17465              	.LASF317:
 17466 22d8 666F635F 		.ascii	"foc_sensor_mode\000"
 17466      73656E73 
 17466      6F725F6D 
 17466      6F646500 
 17467              	.LASF483:
 17468 22e8 49435544 		.ascii	"ICUD3\000"
 17468      3300
 17469              	.LASF89:
 17470 22ee 49544D5F 		.ascii	"ITM_RxBuffer\000"
 17470      52784275 
 17470      66666572 
 17470      00
 17471              	.LASF473:
 17472 22fb 4943555F 		.ascii	"ICU_CHANNEL_2\000"
 17472      4348414E 
 17472      4E454C5F 
 17472      3200
 17473              	.LASF223:
 17474 2309 464F435F 		.ascii	"FOC_SENSOR_MODE_HALL\000"
 17474      53454E53 
 17474      4F525F4D 
 17474      4F44455F 
 17474      48414C4C 
 17475              	.LASF16:
 17476 231e 6C6F6E67 		.ascii	"long long unsigned int\000"
 17476      206C6F6E 
 17476      6720756E 
 17476      7369676E 
 17476      65642069 
 17477              	.LASF149:
 17478 2335 6F666673 		.ascii	"offset\000"
 17478      657400
 17479              	.LASF299:
 17480 233c 666F635F 		.ascii	"foc_dt_us\000"
 17480      64745F75 
 17480      7300
 17481              	.LASF523:
 17482 2346 72786572 		.ascii	"rxerr_cb\000"
 17482      725F6362 
 17482      00
 17483              	.LASF322:
 17484 234f 666F635F 		.ascii	"foc_sat_comp\000"
 17484      7361745F 
 17484      636F6D70 
 17484      00
 17485              	.LASF861:
ARM GAS  C:\Users\CHRIST~1\AppData\Local\Temp\ccVm3NB4.s 			page 347


 17486 235c 63685379 		.ascii	"chSysUnlock\000"
 17486      73556E6C 
 17486      6F636B00 
 17487              	.LASF116:
 17488 2368 4E445452 		.ascii	"NDTR\000"
 17488      00
 17489              	.LASF195:
 17490 236d 65735F6E 		.ascii	"es_next\000"
 17490      65787400 
 17491              	.LASF778:
 17492 2375 5F67616D 		.ascii	"_gamma_signgam\000"
 17492      6D615F73 
 17492      69676E67 
 17492      616D00
 17493              	.LASF591:
 17494 2384 72657376 		.ascii	"resvd1C\000"
 17494      64314300 
 17495              	.LASF87:
 17496 238c 69646C65 		.ascii	"idle_thread_wa\000"
 17496      5F746872 
 17496      6561645F 
 17496      776100
 17497              	.LASF587:
 17498 239b 44494550 		.ascii	"DIEPINT\000"
 17498      494E5400 
 17499              	.LASF459:
 17500 23a3 69637573 		.ascii	"icustate_t\000"
 17500      74617465 
 17500      5F7400
 17501              	.LASF130:
 17502 23ae 5350495F 		.ascii	"SPI_TypeDef\000"
 17502      54797065 
 17502      44656600 
 17503              	.LASF74:
 17504 23ba 76745F66 		.ascii	"vt_func\000"
 17504      756E6300 
 17505              	.LASF131:
 17506 23c2 534D4352 		.ascii	"SMCR\000"
 17506      00
 17507              	.LASF363:
 17508 23c7 74656D70 		.ascii	"temperature\000"
 17508      65726174 
 17508      75726500 
 17509              	.LASF632:
 17510 23d3 444F4550 		.ascii	"DOEPMSK\000"
 17510      4D534B00 
 17511              	.LASF855:
 17512 23db 6572706D 		.ascii	"erpm\000"
 17512      00
 17513              	.LASF70:
 17514 23e0 63685F76 		.ascii	"ch_virtual_timer\000"
 17514      69727475 
 17514      616C5F74 
 17514      696D6572 
 17514      00
 17515              	.LASF43:
 17516 23f1 705F666C 		.ascii	"p_flags\000"
ARM GAS  C:\Users\CHRIST~1\AppData\Local\Temp\ccVm3NB4.s 			page 348


 17516      61677300 
 17517              	.LASF157:
 17518 23f9 65776D61 		.ascii	"ewmask\000"
 17518      736B00
 17519              	.LASF895:
 17520 2400 6D635F69 		.ascii	"mc_interface_get_configuration\000"
 17520      6E746572 
 17520      66616365 
 17520      5F676574 
 17520      5F636F6E 
 17521              	.LASF192:
 17522 241f 656C5F66 		.ascii	"el_flags\000"
 17522      6C616773 
 17522      00
 17523              	.LASF194:
 17524 2428 6576656E 		.ascii	"event_source\000"
 17524      745F736F 
 17524      75726365 
 17524      00
 17525              	.LASF51:
 17526 2435 705F6D74 		.ascii	"p_mtxlist\000"
 17526      786C6973 
 17526      7400
 17527              	.LASF292:
 17528 243f 736C5F63 		.ascii	"sl_cycle_int_rpm_br\000"
 17528      79636C65 
 17528      5F696E74 
 17528      5F72706D 
 17528      5F627200 
 17529              	.LASF422:
 17530 2453 43414E44 		.ascii	"CAND1\000"
 17530      3100
 17531              	.LASF108:
 17532 2459 46533152 		.ascii	"FS1R\000"
 17532      00
 17533              	.LASF25:
 17534 245e 74737461 		.ascii	"tstate_t\000"
 17534      74655F74 
 17534      00
 17535              	.LASF490:
 17536 2467 53504944 		.ascii	"SPIDriver\000"
 17536      72697665 
 17536      7200
 17537              	.LASF633:
 17538 2471 4441494E 		.ascii	"DAINT\000"
 17538      5400
 17539              	.LASF495:
 17540 2477 53504943 		.ascii	"SPIConfig\000"
 17540      6F6E6669 
 17540      6700
 17541              	.LASF751:
 17542 2481 5F756E73 		.ascii	"_unspecified_locale_info\000"
 17542      70656369 
 17542      66696564 
 17542      5F6C6F63 
 17542      616C655F 
 17543              	.LASF389:
ARM GAS  C:\Users\CHRIST~1\AppData\Local\Temp\ccVm3NB4.s 			page 349


 17544 249a 70757064 		.ascii	"pupdr\000"
 17544      7200
 17545              	.LASF348:
 17546 24a0 6D5F6463 		.ascii	"m_dc_f_sw\000"
 17546      5F665F73 
 17546      7700
 17547              	.LASF321:
 17548 24aa 666F635F 		.ascii	"foc_sample_high_current\000"
 17548      73616D70 
 17548      6C655F68 
 17548      6967685F 
 17548      63757272 
 17549              	.LASF583:
 17550 24c2 72657376 		.ascii	"resvd1c\000"
 17550      64316300 
 17551              	.LASF529:
 17552 24ca 7472616E 		.ascii	"transmitting\000"
 17552      736D6974 
 17552      74696E67 
 17552      00
 17553              	.LASF216:
 17554 24d7 6D635F63 		.ascii	"mc_comm_mode\000"
 17554      6F6D6D5F 
 17554      6D6F6465 
 17554      00
 17555              	.LASF360:
 17556 24e4 74696D5F 		.ascii	"tim_current_samp\000"
 17556      63757272 
 17556      656E745F 
 17556      73616D70 
 17556      00
 17557              	.LASF41:
 17558 24f5 705F6E61 		.ascii	"p_name\000"
 17558      6D6500
 17559              	.LASF753:
 17560 24fc 5F5F7364 		.ascii	"__sdidinit\000"
 17560      6964696E 
 17560      697400
 17561              	.LASF804:
 17562 2507 5F5F6664 		.ascii	"__fdlibm_posix\000"
 17562      6C69626D 
 17562      5F706F73 
 17562      697800
 17563              	.LASF552:
 17564 2516 75736273 		.ascii	"usbstate_t\000"
 17564      74617465 
 17564      5F7400
 17565              	.LASF595:
 17566 2521 444F4550 		.ascii	"DOEPTSIZ\000"
 17566      5453495A 
 17566      00
 17567              	.LASF354:
 17568 252a 63757272 		.ascii	"current_filtered\000"
 17568      656E745F 
 17568      66696C74 
 17568      65726564 
 17568      00
ARM GAS  C:\Users\CHRIST~1\AppData\Local\Temp\ccVm3NB4.s 			page 350


 17569              	.LASF812:
 17570 253b 6661756C 		.ascii	"fault_vec_write\000"
 17570      745F7665 
 17570      635F7772 
 17570      69746500 
 17571              	.LASF508:
 17572 254b 75617274 		.ascii	"uartrxstate_t\000"
 17572      72787374 
 17572      6174655F 
 17572      7400
 17573              	.LASF699:
 17574 2559 5F666C6F 		.ascii	"_flock_t\000"
 17574      636B5F74 
 17574      00
 17575              	.LASF76:
 17576 2562 76697274 		.ascii	"virtual_timers_list_t\000"
 17576      75616C5F 
 17576      74696D65 
 17576      72735F6C 
 17576      6973745F 
 17577              	.LASF210:
 17578 2578 50574D5F 		.ascii	"PWM_MODE_NONSYNCHRONOUS_HISW\000"
 17578      4D4F4445 
 17578      5F4E4F4E 
 17578      53594E43 
 17578      48524F4E 
 17579              	.LASF504:
 17580 2595 75617274 		.ascii	"uarttxstate_t\000"
 17580      74787374 
 17580      6174655F 
 17580      7400
 17581              	.LASF252:
 17582 25a3 44525638 		.ascii	"DRV8301_OC_DISABLED\000"
 17582      3330315F 
 17582      4F435F44 
 17582      49534142 
 17582      4C454400 
 17583              	.LASF386:
 17584 25b7 6D6F6465 		.ascii	"moder\000"
 17584      7200
 17585              	.LASF159:
 17586 25bd 735F7175 		.ascii	"s_queue\000"
 17586      65756500 
 17587              	.LASF128:
 17588 25c5 49325343 		.ascii	"I2SCFGR\000"
 17588      46475200 
 17589              	.LASF236:
 17590 25cd 6D635F66 		.ascii	"mc_fault_code\000"
 17590      61756C74 
 17590      5F636F64 
 17590      6500
 17591              	.LASF339:
 17592 25db 6D5F6475 		.ascii	"m_duty_ramp_step\000"
 17592      74795F72 
 17592      616D705F 
 17592      73746570 
 17592      00
ARM GAS  C:\Users\CHRIST~1\AppData\Local\Temp\ccVm3NB4.s 			page 351


 17593              	.LASF351:
 17594 25ec 6D635F63 		.ascii	"mc_configuration\000"
 17594      6F6E6669 
 17594      67757261 
 17594      74696F6E 
 17594      00
 17595              	.LASF413:
 17596 25fd 636F6E66 		.ascii	"config\000"
 17596      696700
 17597              	.LASF166:
 17598 2604 63685F69 		.ascii	"ch_identifier\000"
 17598      64656E74 
 17598      69666965 
 17598      7200
 17599              	.LASF14:
 17600 2612 6C6F6E67 		.ascii	"long long int\000"
 17600      206C6F6E 
 17600      6720696E 
 17600      7400
 17601              	.LASF613:
 17602 2620 48505458 		.ascii	"HPTXFSIZ\000"
 17602      4653495A 
 17602      00
 17603              	.LASF907:
 17604 2629 63685654 		.ascii	"chVTTimeElapsedSinceX\000"
 17604      54696D65 
 17604      456C6170 
 17604      73656453 
 17604      696E6365 
 17605              	.LASF173:
 17606 263f 63665F6F 		.ascii	"cf_off_prio\000"
 17606      66665F70 
 17606      72696F00 
 17607              	.LASF743:
 17608 264b 5F666C61 		.ascii	"_flags2\000"
 17608      67733200 
 17609              	.LASF820:
 17610 2653 6B4D6178 		.ascii	"kMaxArgs\000"
 17610      41726773 
 17610      00
 17611              	.LASF793:
 17612 265c 5F6E6578 		.ascii	"_nextf\000"
 17612      746600
 17613              	.LASF815:
 17614 2663 63616C6C 		.ascii	"callback_num\000"
 17614      6261636B 
 17614      5F6E756D 
 17614      00
 17615              	.LASF247:
 17616 2670 74696D65 		.ascii	"time_at_comm\000"
 17616      5F61745F 
 17616      636F6D6D 
 17616      00
 17617              	.LASF280:
 17618 267d 6C5F7761 		.ascii	"l_watt_min\000"
 17618      74745F6D 
 17618      696E00
ARM GAS  C:\Users\CHRIST~1\AppData\Local\Temp\ccVm3NB4.s 			page 352


 17619              	.LASF470:
 17620 2688 6963756D 		.ascii	"icumode_t\000"
 17620      6F64655F 
 17620      7400
 17621              	.LASF898:
 17622 2692 6D635F69 		.ascii	"mc_interface_get_last_inj_adc_isr_duration\000"
 17622      6E746572 
 17622      66616365 
 17622      5F676574 
 17622      5F6C6173 
 17623              	.LASF660:
 17624 26bd 7478636E 		.ascii	"txcnt\000"
 17624      7400
 17625              	.LASF562:
 17626 26c3 5553425F 		.ascii	"USB_EVENT_ADDRESS\000"
 17626      4556454E 
 17626      545F4144 
 17626      44524553 
 17626      5300
 17627              	.LASF679:
 17628 26d5 6765745F 		.ascii	"get_descriptor_cb\000"
 17628      64657363 
 17628      72697074 
 17628      6F725F63 
 17628      6200
 17629              	.LASF267:
 17630 26e7 6C5F6D61 		.ascii	"l_max_erpm_fbrake_cc\000"
 17630      785F6572 
 17630      706D5F66 
 17630      6272616B 
 17630      655F6363 
 17631              	.LASF752:
 17632 26fc 5F6C6F63 		.ascii	"_locale\000"
 17632      616C6500 
 17633              	.LASF31:
 17634 2704 6576656E 		.ascii	"eventflags_t\000"
 17634      74666C61 
 17634      67735F74 
 17634      00
 17635              	.LASF486:
 17636 2711 5350495F 		.ascii	"SPI_READY\000"
 17636      52454144 
 17636      5900
 17637              	.LASF649:
 17638 271b 4649464F 		.ascii	"FIFO\000"
 17638      00
 17639              	.LASF839:
 17640 2720 6379636C 		.ascii	"cycle_integrator\000"
 17640      655F696E 
 17640      74656772 
 17640      61746F72 
 17640      00
 17641              	.LASF877:
 17642 2731 6D637077 		.ascii	"mcpwm_foc_encoder_detect\000"
 17642      6D5F666F 
 17642      635F656E 
 17642      636F6465 
ARM GAS  C:\Users\CHRIST~1\AppData\Local\Temp\ccVm3NB4.s 			page 353


 17642      725F6465 
 17643              	.LASF104:
 17644 274a 73464946 		.ascii	"sFIFOMailBox\000"
 17644      4F4D6169 
 17644      6C426F78 
 17644      00
 17645              	.LASF875:
 17646 2757 636F6D6D 		.ascii	"comm_can_get_status_msg_index\000"
 17646      5F63616E 
 17646      5F676574 
 17646      5F737461 
 17646      7475735F 
 17647              	.LASF845:
 17648 2775 696E7665 		.ascii	"inverted\000"
 17648      72746564 
 17648      00
 17649              	.LASF883:
 17650 277e 6D635F69 		.ascii	"mc_interface_set_duty\000"
 17650      6E746572 
 17650      66616365 
 17650      5F736574 
 17650      5F647574 
 17651              	.LASF628:
 17652 2794 4443544C 		.ascii	"DCTL\000"
 17652      00
 17653              	.LASF655:
 17654 2799 74786275 		.ascii	"txbuf\000"
 17654      6600
 17655              	.LASF647:
 17656 279f 50434743 		.ascii	"PCGCCTL\000"
 17656      43544C00 
 17657              	.LASF565:
 17658 27a7 5553425F 		.ascii	"USB_EVENT_WAKEUP\000"
 17658      4556454E 
 17658      545F5741 
 17658      4B455550 
 17658      00
 17659              	.LASF862:
 17660 27b8 5F5F7365 		.ascii	"__set_BASEPRI\000"
 17660      745F4241 
 17660      53455052 
 17660      4900
 17661              	.LASF891:
 17662 27c6 74696D65 		.ascii	"timeout_configure\000"
 17662      6F75745F 
 17662      636F6E66 
 17662      69677572 
 17662      6500
 17663              	.LASF260:
 17664 27d8 6C5F696E 		.ascii	"l_in_current_max\000"
 17664      5F637572 
 17664      72656E74 
 17664      5F6D6178 
 17664      00
 17665              	.LASF40:
 17666 27e9 705F6F6C 		.ascii	"p_older\000"
 17666      64657200 
ARM GAS  C:\Users\CHRIST~1\AppData\Local\Temp\ccVm3NB4.s 			page 354


 17667              	.LASF401:
 17668 27f1 50494461 		.ascii	"PIData\000"
 17668      746100
 17669              	.LASF676:
 17670 27f8 73657475 		.ascii	"setup_buf\000"
 17670      705F6275 
 17670      6600
 17671              	.LASF493:
 17672 2802 7373706F 		.ascii	"ssport\000"
 17672      727400
 17673              	.LASF454:
 17674 2809 4943555F 		.ascii	"ICU_UNINIT\000"
 17674      554E494E 
 17674      495400
 17675              	.LASF54:
 17676 2814 74687265 		.ascii	"thread_reference_t\000"
 17676      61645F72 
 17676      65666572 
 17676      656E6365 
 17676      5F7400
 17677              	.LASF333:
 17678 2827 705F7069 		.ascii	"p_pid_ang_div\000"
 17678      645F616E 
 17678      675F6469 
 17678      7600
 17679              	.LASF870:
 17680 2835 63685265 		.ascii	"chRegNextThread\000"
 17680      674E6578 
 17680      74546872 
 17680      65616400 
 17681              	.LASF530:
 17682 2845 72656365 		.ascii	"receiving\000"
 17682      6976696E 
 17682      6700
 17683              	.LASF766:
 17684 284f 5F5F4649 		.ascii	"__FILE\000"
 17684      4C4500
 17685              	.LASF476:
 17686 2856 66726571 		.ascii	"frequency\000"
 17686      75656E63 
 17686      7900
 17687              	.LASF314:
 17688 2860 666F635F 		.ascii	"foc_sl_openloop_time\000"
 17688      736C5F6F 
 17688      70656E6C 
 17688      6F6F705F 
 17688      74696D65 
 17689              	.LASF150:
 17690 2875 746D5F63 		.ascii	"tm_calibration_t\000"
 17690      616C6962 
 17690      72617469 
 17690      6F6E5F74 
 17690      00
 17691              	.LASF3:
 17692 2886 5F5F696E 		.ascii	"__int8_t\000"
 17692      74385F74 
 17692      00
ARM GAS  C:\Users\CHRIST~1\AppData\Local\Temp\ccVm3NB4.s 			page 355


 17693              	.LASF284:
 17694 288f 6C6F5F69 		.ascii	"lo_in_current_min\000"
 17694      6E5F6375 
 17694      7272656E 
 17694      745F6D69 
 17694      6E00
 17695              	.LASF673:
 17696 28a1 696E5F73 		.ascii	"in_state\000"
 17696      74617465 
 17696      00
 17697              	.LASF366:
 17698 28aa 72785F74 		.ascii	"rx_time\000"
 17698      696D6500 
 17699              	.LASF143:
 17700 28b2 47545052 		.ascii	"GTPR\000"
 17700      00
 17701              	.LASF167:
 17702 28b7 63685F7A 		.ascii	"ch_zero\000"
 17702      65726F00 
 17703              	.LASF277:
 17704 28bf 6C5F6D69 		.ascii	"l_min_duty\000"
 17704      6E5F6475 
 17704      747900
 17705              	.LASF437:
 17706 28ca 46415354 		.ascii	"FAST_DUTY_CYCLE_2\000"
 17706      5F445554 
 17706      595F4359 
 17706      434C455F 
 17706      3200
 17707              	.LASF172:
 17708 28dc 63685F74 		.ascii	"ch_threadsize\000"
 17708      68726561 
 17708      6473697A 
 17708      6500
 17709              	.LASF123:
 17710 28ea 464C5452 		.ascii	"FLTR\000"
 17710      00
 17711              	.LASF240:
 17712 28ef 73656E73 		.ascii	"sensor_port_mode\000"
 17712      6F725F70 
 17712      6F72745F 
 17712      6D6F6465 
 17712      00
 17713              	.LASF805:
 17714 2900 5F5F6664 		.ascii	"__fdlib_version\000"
 17714      6C69625F 
 17714      76657273 
 17714      696F6E00 
 17715              	.LASF133:
 17716 2910 43434D52 		.ascii	"CCMR1\000"
 17716      3100
 17717              	.LASF134:
 17718 2916 43434D52 		.ascii	"CCMR2\000"
 17718      3200
 17719              	.LASF465:
 17720 291c 43434D52 		.ascii	"CCMR3\000"
 17720      3300
ARM GAS  C:\Users\CHRIST~1\AppData\Local\Temp\ccVm3NB4.s 			page 356


 17721              	.LASF224:
 17722 2922 6D635F66 		.ascii	"mc_foc_sensor_mode\000"
 17722      6F635F73 
 17722      656E736F 
 17722      725F6D6F 
 17722      646500
 17723              	.LASF1:
 17724 2935 756E7369 		.ascii	"unsigned int\000"
 17724      676E6564 
 17724      20696E74 
 17724      00
 17725              	.LASF780:
 17726 2942 5F723438 		.ascii	"_r48\000"
 17726      00
 17727              	.LASF617:
 17728 2947 48464952 		.ascii	"HFIR\000"
 17728      00
 17729              	.LASF547:
 17730 294c 5553425F 		.ascii	"USB_UNINIT\000"
 17730      554E494E 
 17730      495400
 17731              	.LASF369:
 17732 2957 73747265 		.ascii	"stream\000"
 17732      616D00
 17733              	.LASF435:
 17734 295e 6932636F 		.ascii	"i2copmode_t\000"
 17734      706D6F64 
 17734      655F7400 
 17735              	.LASF865:
 17736 296a 73747263 		.ascii	"strcmp\000"
 17736      6D7000
 17737              	.LASF897:
 17738 2971 6D637077 		.ascii	"mcpwm_get_last_adc_isr_duration\000"
 17738      6D5F6765 
 17738      745F6C61 
 17738      73745F61 
 17738      64635F69 
 17739              	.LASF772:
 17740 2991 5F6D756C 		.ascii	"_mult\000"
 17740      7400
 17741              	.LASF7:
 17742 2997 73686F72 		.ascii	"short int\000"
 17742      7420696E 
 17742      7400
 17743              	.LASF320:
 17744 29a1 666F635F 		.ascii	"foc_sample_v0_v7\000"
 17744      73616D70 
 17744      6C655F76 
 17744      305F7637 
 17744      00
 17745              	.LASF571:
 17746 29b2 75736263 		.ascii	"usbcallback_t\000"
 17746      616C6C62 
 17746      61636B5F 
 17746      7400
 17747              	.LASF686:
 17748 29c0 6D637077 		.ascii	"mcpwm_detect_currents_diff\000"
ARM GAS  C:\Users\CHRIST~1\AppData\Local\Temp\ccVm3NB4.s 			page 357


 17748      6D5F6465 
 17748      74656374 
 17748      5F637572 
 17748      72656E74 
 17749              	.LASF600:
 17750 29db 47555342 		.ascii	"GUSBCFG\000"
 17750      43464700 
 17751              	.LASF144:
 17752 29e3 55534152 		.ascii	"USART_TypeDef\000"
 17752      545F5479 
 17752      70654465 
 17752      6600
 17753              	.LASF511:
 17754 29f1 74787374 		.ascii	"txstate\000"
 17754      61746500 
 17755              	.LASF209:
 17756 29f9 6F757470 		.ascii	"output_queue_t\000"
 17756      75745F71 
 17756      75657565 
 17756      5F7400
 17757              	.LASF365:
 17758 2a08 6661756C 		.ascii	"fault_data\000"
 17758      745F6461 
 17758      746100
 17759              	.LASF225:
 17760 2a13 4D4F544F 		.ascii	"MOTOR_TYPE_BLDC\000"
 17760      525F5459 
 17760      50455F42 
 17760      4C444300 
 17761              	.LASF770:
 17762 2a23 5F72616E 		.ascii	"_rand48\000"
 17762      64343800 
 17763              	.LASF650:
 17764 2a2b 73746D33 		.ascii	"stm32_otg_t\000"
 17764      325F6F74 
 17764      675F7400 
 17765              	.LASF442:
 17766 2a37 64757479 		.ascii	"duty_cycle\000"
 17766      5F637963 
 17766      6C6500
 17767              	.LASF568:
 17768 2a42 75645F73 		.ascii	"ud_size\000"
 17768      697A6500 
 17769              	.LASF671:
 17770 2a4a 696E5F6D 		.ascii	"in_maxsize\000"
 17770      61787369 
 17770      7A6500
 17771              	.LASF398:
 17772 2a55 50464461 		.ascii	"PFData\000"
 17772      746100
 17773              	.LASF813:
 17774 2a5c 63616C6C 		.ascii	"callbacks\000"
 17774      6261636B 
 17774      7300
 17775              	.LASF503:
 17776 2a66 55415254 		.ascii	"UART_TX_COMPLETE\000"
 17776      5F54585F 
ARM GAS  C:\Users\CHRIST~1\AppData\Local\Temp\ccVm3NB4.s 			page 358


 17776      434F4D50 
 17776      4C455445 
 17776      00
 17777              	.LASF42:
 17778 2a77 705F7374 		.ascii	"p_state\000"
 17778      61746500 
 17779              	.LASF880:
 17780 2a7f 6D637077 		.ascii	"mcpwm_foc_measure_inductance\000"
 17780      6D5F666F 
 17780      635F6D65 
 17780      61737572 
 17780      655F696E 
 17781              	.LASF57:
 17782 2a9c 63685F74 		.ascii	"ch_threads_list\000"
 17782      68726561 
 17782      64735F6C 
 17782      69737400 
 17783              	.LASF215:
 17784 2aac 434F4D4D 		.ascii	"COMM_MODE_DELAY\000"
 17784      5F4D4F44 
 17784      455F4445 
 17784      4C415900 
 17785              	.LASF834:
 17786 2abc 766F6C74 		.ascii	"voltage_samp\000"
 17786      6167655F 
 17786      73616D70 
 17786      00
 17787              	.LASF120:
 17788 2ac9 4F415231 		.ascii	"OAR1\000"
 17788      00
 17789              	.LASF121:
 17790 2ace 4F415232 		.ascii	"OAR2\000"
 17790      00
 17791              	.LASF341:
 17792 2ad3 6D5F656E 		.ascii	"m_encoder_counts\000"
 17792      636F6465 
 17792      725F636F 
 17792      756E7473 
 17792      00
 17793              		.ident	"GCC: (GNU Tools for ARM Embedded Processors 6-2017-q2-update) 6.3.1 20170620 (release) [AR
ARM GAS  C:\Users\CHRIST~1\AppData\Local\Temp\ccVm3NB4.s 			page 359


DEFINED SYMBOLS
                            *ABS*:00000000 terminal.c
C:\Users\CHRIST~1\AppData\Local\Temp\ccVm3NB4.s:19     .text.terminal_process_string:00000000 $t
C:\Users\CHRIST~1\AppData\Local\Temp\ccVm3NB4.s:27     .text.terminal_process_string:00000000 terminal_process_string
C:\Users\CHRIST~1\AppData\Local\Temp\ccVm3NB4.s:451    .text.terminal_process_string:0000024c $d
C:\Users\CHRIST~1\AppData\Local\Temp\ccVm3NB4.s:490    .text.terminal_process_string:000002e0 $t
C:\Users\CHRIST~1\AppData\Local\Temp\ccVm3NB4.s:980    .text.terminal_process_string:000005f8 $d
C:\Users\CHRIST~1\AppData\Local\Temp\ccVm3NB4.s:1035   .text.terminal_process_string:000006c0 $t
C:\Users\CHRIST~1\AppData\Local\Temp\ccVm3NB4.s:1499   .text.terminal_process_string:00000974 $d
C:\Users\CHRIST~1\AppData\Local\Temp\ccVm3NB4.s:1538   .text.terminal_process_string:00000a00 $t
C:\Users\CHRIST~1\AppData\Local\Temp\ccVm3NB4.s:2027   .text.terminal_process_string:00000d30 $d
C:\Users\CHRIST~1\AppData\Local\Temp\ccVm3NB4.s:2059   .text.terminal_process_string:00000da8 $t
C:\Users\CHRIST~1\AppData\Local\Temp\ccVm3NB4.s:2448   .text.terminal_process_string:00000fe8 $d
C:\Users\CHRIST~1\AppData\Local\Temp\ccVm3NB4.s:2527   .text.terminal_add_fault_data:00000000 $t
C:\Users\CHRIST~1\AppData\Local\Temp\ccVm3NB4.s:2535   .text.terminal_add_fault_data:00000000 terminal_add_fault_data
C:\Users\CHRIST~1\AppData\Local\Temp\ccVm3NB4.s:2581   .text.terminal_add_fault_data:0000003c $d
C:\Users\CHRIST~1\AppData\Local\Temp\ccVm3NB4.s:2587   .text.terminal_register_command_callback:00000000 $t
C:\Users\CHRIST~1\AppData\Local\Temp\ccVm3NB4.s:2595   .text.terminal_register_command_callback:00000000 terminal_register_command_callback
C:\Users\CHRIST~1\AppData\Local\Temp\ccVm3NB4.s:2716   .text.terminal_register_command_callback:00000084 $d
C:\Users\CHRIST~1\AppData\Local\Temp\ccVm3NB4.s:2722   .bss.callback_write:00000000 $d
C:\Users\CHRIST~1\AppData\Local\Temp\ccVm3NB4.s:2726   .bss.callback_write:00000000 callback_write
C:\Users\CHRIST~1\AppData\Local\Temp\ccVm3NB4.s:2729   .bss.callbacks:00000000 $d
C:\Users\CHRIST~1\AppData\Local\Temp\ccVm3NB4.s:2733   .bss.callbacks:00000000 callbacks
C:\Users\CHRIST~1\AppData\Local\Temp\ccVm3NB4.s:2736   .bss.fault_vec:00000000 $d
C:\Users\CHRIST~1\AppData\Local\Temp\ccVm3NB4.s:2740   .bss.fault_vec:00000000 fault_vec
C:\Users\CHRIST~1\AppData\Local\Temp\ccVm3NB4.s:2743   .bss.fault_vec_write:00000000 $d
C:\Users\CHRIST~1\AppData\Local\Temp\ccVm3NB4.s:2747   .bss.fault_vec_write:00000000 fault_vec_write
C:\Users\CHRIST~1\AppData\Local\Temp\ccVm3NB4.s:2750   .bss.mcconf.12605:00000000 $d
C:\Users\CHRIST~1\AppData\Local\Temp\ccVm3NB4.s:2754   .bss.mcconf.12605:00000000 mcconf.12605
C:\Users\CHRIST~1\AppData\Local\Temp\ccVm3NB4.s:2757   .bss.mcconf_old.12606:00000000 $d
C:\Users\CHRIST~1\AppData\Local\Temp\ccVm3NB4.s:2761   .bss.mcconf_old.12606:00000000 mcconf_old.12606
C:\Users\CHRIST~1\AppData\Local\Temp\ccVm3NB4.s:2764   .rodata.states.12610:00000000 $d
C:\Users\CHRIST~1\AppData\Local\Temp\ccVm3NB4.s:2768   .rodata.states.12610:00000000 states.12610
C:\Users\CHRIST~1\AppData\Local\Temp\ccVm3NB4.s:2786   .rodata.str1.4:00000000 $d
C:\Users\CHRIST~1\AppData\Local\Temp\ccVm3NB4.s:2831   .rodata.terminal_process_string.str1.4:00000000 $d
                     .debug_frame:00000010 $d

UNDEFINED SYMBOLS
__aeabi_f2d
strtok
mc_interface_get_configuration
memcpy
strcmp
commands_printf
mcpwm_get_kv_filtered
mc_interface_set_duty
mcpwm_get_last_adc_isr_duration
mc_interface_get_last_inj_adc_isr_duration
mc_interface_get_last_sample_adc_isr_duration
chHeapStatus
chCoreGetStatusX
chRegFirstThread
chRegNextThread
mc_interface_get_fault
mc_interface_fault_to_string
mc_interface_get_rpm
mc_interface_get_tachometer_value
ARM GAS  C:\Users\CHRIST~1\AppData\Local\Temp\ccVm3NB4.s 			page 360


sscanf
mc_interface_set_configuration
mcpwm_foc_measure_resistance
ADC_Value
mcpwm_get_rpm_dep
conf_general_detect_motor_param
encoder_is_configured
mcpwm_foc_encoder_detect
comm_can_get_status_msg_index
mcpwm_foc_measure_inductance
ch
conf_general_measure_flux_linkage
timeout_get_timeout_msec
timeout_get_brake_current
timeout_reset
timeout_configure
chThdSleep
mcpwm_foc_get_vq
mc_interface_get_tot_current_directional
mc_interface_release_motor
mcpwm_foc_measure_res_ind
mcpwm_foc_set_openloop
mcpwm_foc_print_state
conf_general_permanent_nrf_found
