ARM GAS  C:\Users\CHRIST~1\AppData\Local\Temp\ccVm3NB4.s 			page 1


   1              		.cpu cortex-m4
   2              		.eabi_attribute 27, 1
   3              		.eabi_attribute 28, 1
   4              		.eabi_attribute 20, 1
   5              		.eabi_attribute 21, 1
   6              		.eabi_attribute 23, 3
   7              		.eabi_attribute 24, 1
   8              		.eabi_attribute 25, 1
   9              		.eabi_attribute 26, 1
  10              		.eabi_attribute 30, 2
  11              		.eabi_attribute 34, 1
  12              		.eabi_attribute 18, 4
  13              		.file	"terminal.c"
  14              		.text
  15              	.Ltext0:
  16              		.cfi_sections	.debug_frame
  17              		.global	__aeabi_f2d
  18              		.section	.text.terminal_process_string,"ax",%progbits
  19              		.align	1
  20              		.p2align 4,,15
  21              		.global	terminal_process_string
  22              		.syntax unified
  23              		.thumb
  24              		.thumb_func
  25              		.fpu fpv4-sp-d16
  26              		.type	terminal_process_string, %function
  27              	terminal_process_string:
  28              	.LFB257:
  29              		.file 1 "terminal.c"
  30              		.loc 1 57 0
  31              		.cfi_startproc
  32              		@ args = 0, pretend = 0, frame = 312
  33              		@ frame_needed = 0, uses_anonymous_args = 0
  34              	.LVL0:
  35 0000 2DE9F047 		push	{r4, r5, r6, r7, r8, r9, r10, lr}
  36              		.cfi_def_cfa_offset 32
  37              		.cfi_offset 4, -32
  38              		.cfi_offset 5, -28
  39              		.cfi_offset 6, -24
  40              		.cfi_offset 7, -20
  41              		.cfi_offset 8, -16
  42              		.cfi_offset 9, -12
  43              		.cfi_offset 10, -8
  44              		.cfi_offset 14, -4
  45 0004 2DED088B 		vpush.64	{d8, d9, d10, d11}
  46              		.cfi_def_cfa_offset 64
  47              		.cfi_offset 80, -64
  48              		.cfi_offset 81, -60
  49              		.cfi_offset 82, -56
  50              		.cfi_offset 83, -52
  51              		.cfi_offset 84, -48
  52              		.cfi_offset 85, -44
  53              		.cfi_offset 86, -40
  54              		.cfi_offset 87, -36
  55              		.loc 1 62 0
  56 0008 9049     		ldr	r1, .L182
  57              		.loc 1 57 0
ARM GAS  C:\Users\CHRIST~1\AppData\Local\Temp\ccVm3NB4.s 			page 2


  58 000a D8B0     		sub	sp, sp, #352
  59              		.cfi_def_cfa_offset 416
  60              		.loc 1 62 0
  61 000c FFF7FEFF 		bl	strtok
  62              	.LVL1:
  63              		.loc 1 63 0
  64 0010 0028     		cmp	r0, #0
  65 0012 7DD0     		beq	.L155
  66 0014 0346     		mov	r3, r0
  67              		.loc 1 65 0
  68 0016 8D4E     		ldr	r6, .L182
  69 0018 17AD     		add	r5, sp, #92
  70              		.loc 1 63 0
  71 001a 0024     		movs	r4, #0
  72 001c 01E0     		b	.L5
  73              	.LVL2:
  74              	.L156:
  75              		.loc 1 63 0 is_stmt 0 discriminator 1
  76 001e 402C     		cmp	r4, #64
  77 0020 09D0     		beq	.L4
  78              	.LVL3:
  79              	.L5:
  80              		.loc 1 64 0 is_stmt 1
  81 0022 45F8043F 		str	r3, [r5, #4]!
  82              		.loc 1 65 0
  83 0026 3146     		mov	r1, r6
  84 0028 0020     		movs	r0, #0
  85              	.LVL4:
  86 002a FFF7FEFF 		bl	strtok
  87              	.LVL5:
  88              		.loc 1 64 0
  89 002e 0134     		adds	r4, r4, #1
  90              	.LVL6:
  91              		.loc 1 63 0
  92 0030 0346     		mov	r3, r0
  93 0032 0028     		cmp	r0, #0
  94 0034 F3D1     		bne	.L156
  95              	.L4:
  96              		.loc 1 75 0
  97 0036 FFF7FEFF 		bl	mc_interface_get_configuration
  98              	.LVL7:
  99 003a 4FF4B872 		mov	r2, #368
 100 003e 0146     		mov	r1, r0
 101 0040 8348     		ldr	r0, .L182+4
 102 0042 FFF7FEFF 		bl	memcpy
 103              	.LVL8:
 104              		.loc 1 76 0
 105 0046 8249     		ldr	r1, .L182+4
 106 0048 8248     		ldr	r0, .L182+8
 107 004a 4FF4B872 		mov	r2, #368
 108 004e FFF7FEFF 		bl	memcpy
 109              	.LVL9:
 110              		.loc 1 78 0
 111 0052 189D     		ldr	r5, [sp, #96]
 112 0054 8049     		ldr	r1, .L182+12
 113 0056 2846     		mov	r0, r5
 114 0058 FFF7FEFF 		bl	strcmp
ARM GAS  C:\Users\CHRIST~1\AppData\Local\Temp\ccVm3NB4.s 			page 3


 115              	.LVL10:
 116 005c 0028     		cmp	r0, #0
 117 005e 5FD0     		beq	.L157
 118              		.loc 1 80 0
 119 0060 7E49     		ldr	r1, .L182+16
 120 0062 2846     		mov	r0, r5
 121 0064 FFF7FEFF 		bl	strcmp
 122              	.LVL11:
 123 0068 0028     		cmp	r0, #0
 124 006a 6DD0     		beq	.L158
 125              		.loc 1 83 0
 126 006c 7C49     		ldr	r1, .L182+20
 127 006e 2846     		mov	r0, r5
 128 0070 FFF7FEFF 		bl	strcmp
 129              	.LVL12:
 130 0074 0028     		cmp	r0, #0
 131 0076 73D0     		beq	.L159
 132              		.loc 1 87 0
 133 0078 7A49     		ldr	r1, .L182+24
 134 007a 2846     		mov	r0, r5
 135 007c FFF7FEFF 		bl	strcmp
 136              	.LVL13:
 137 0080 0028     		cmp	r0, #0
 138 0082 55D0     		beq	.L160
 139              		.loc 1 89 0
 140 0084 7849     		ldr	r1, .L182+28
 141 0086 2846     		mov	r0, r5
 142 0088 FFF7FEFF 		bl	strcmp
 143              	.LVL14:
 144 008c 0028     		cmp	r0, #0
 145 008e 00F09A80 		beq	.L161
 146              		.loc 1 95 0
 147 0092 7649     		ldr	r1, .L182+32
 148 0094 2846     		mov	r0, r5
 149 0096 FFF7FEFF 		bl	strcmp
 150              	.LVL15:
 151 009a 0028     		cmp	r0, #0
 152 009c 00F0A680 		beq	.L162
 153              		.loc 1 109 0
 154 00a0 7349     		ldr	r1, .L182+36
 155 00a2 2846     		mov	r0, r5
 156 00a4 FFF7FEFF 		bl	strcmp
 157              	.LVL16:
 158 00a8 0028     		cmp	r0, #0
 159 00aa 00F0C580 		beq	.L163
 160              		.loc 1 111 0
 161 00ae 7149     		ldr	r1, .L182+40
 162 00b0 2846     		mov	r0, r5
 163 00b2 FFF7FEFF 		bl	strcmp
 164              	.LVL17:
 165 00b6 0646     		mov	r6, r0
 166 00b8 0028     		cmp	r0, #0
 167 00ba 7BD0     		beq	.L164
 168              		.loc 1 139 0
 169 00bc 6E49     		ldr	r1, .L182+44
 170 00be 2846     		mov	r0, r5
 171 00c0 FFF7FEFF 		bl	strcmp
ARM GAS  C:\Users\CHRIST~1\AppData\Local\Temp\ccVm3NB4.s 			page 4


 172              	.LVL18:
 173 00c4 0028     		cmp	r0, #0
 174 00c6 00F08481 		beq	.L165
 175              		.loc 1 141 0
 176 00ca 6C49     		ldr	r1, .L182+48
 177 00cc 2846     		mov	r0, r5
 178 00ce FFF7FEFF 		bl	strcmp
 179              	.LVL19:
 180 00d2 0028     		cmp	r0, #0
 181 00d4 00F08981 		beq	.L166
 182              		.loc 1 143 0
 183 00d8 6949     		ldr	r1, .L182+52
 184 00da 2846     		mov	r0, r5
 185 00dc FFF7FEFF 		bl	strcmp
 186              	.LVL20:
 187 00e0 0028     		cmp	r0, #0
 188 00e2 00F0BF81 		beq	.L167
 189              		.loc 1 168 0
 190 00e6 6749     		ldr	r1, .L182+56
 191 00e8 2846     		mov	r0, r5
 192 00ea FFF7FEFF 		bl	strcmp
 193              	.LVL21:
 194 00ee 0028     		cmp	r0, #0
 195 00f0 00F09F81 		beq	.L168
 196              		.loc 1 170 0
 197 00f4 6449     		ldr	r1, .L182+60
 198 00f6 2846     		mov	r0, r5
 199 00f8 FFF7FEFF 		bl	strcmp
 200              	.LVL22:
 201 00fc 0028     		cmp	r0, #0
 202 00fe 40F07B81 		bne	.L23
 203              		.loc 1 172 0
 204 0102 042C     		cmp	r4, #4
 205 0104 00F0F881 		beq	.L169
 206              		.loc 1 214 0
 207 0108 6048     		ldr	r0, .L182+64
 208 010a FFF7FEFF 		bl	commands_printf
 209              	.LVL23:
 210 010e 02E0     		b	.L1
 211              	.LVL24:
 212              	.L155:
 213              		.loc 1 69 0
 214 0110 5F48     		ldr	r0, .L182+68
 215              	.LVL25:
 216 0112 FFF7FEFF 		bl	commands_printf
 217              	.LVL26:
 218              	.L1:
 219              		.loc 1 696 0
 220 0116 58B0     		add	sp, sp, #352
 221              		.cfi_remember_state
 222              		.cfi_def_cfa_offset 64
 223              		@ sp needed
 224 0118 BDEC088B 		vldm	sp!, {d8-d11}
 225              		.cfi_restore 86
 226              		.cfi_restore 87
 227              		.cfi_restore 84
 228              		.cfi_restore 85
ARM GAS  C:\Users\CHRIST~1\AppData\Local\Temp\ccVm3NB4.s 			page 5


 229              		.cfi_restore 82
 230              		.cfi_restore 83
 231              		.cfi_restore 80
 232              		.cfi_restore 81
 233              		.cfi_def_cfa_offset 32
 234 011c BDE8F087 		pop	{r4, r5, r6, r7, r8, r9, r10, pc}
 235              	.LVL27:
 236              	.L157:
 237              		.cfi_restore_state
 238              		.loc 1 79 0
 239 0120 5C48     		ldr	r0, .L182+72
 240 0122 FFF7FEFF 		bl	commands_printf
 241              	.LVL28:
 242              		.loc 1 696 0
 243 0126 58B0     		add	sp, sp, #352
 244              		.cfi_remember_state
 245              		.cfi_def_cfa_offset 64
 246              		@ sp needed
 247 0128 BDEC088B 		vldm	sp!, {d8-d11}
 248              		.cfi_restore 80
 249              		.cfi_restore 81
 250              		.cfi_restore 82
 251              		.cfi_restore 83
 252              		.cfi_restore 84
 253              		.cfi_restore 85
 254              		.cfi_restore 86
 255              		.cfi_restore 87
 256              		.cfi_def_cfa_offset 32
 257 012c BDE8F087 		pop	{r4, r5, r6, r7, r8, r9, r10, pc}
 258              	.LVL29:
 259              	.L160:
 260              		.cfi_restore_state
 261              		.loc 1 88 0
 262 0130 FFF7FEFF 		bl	mcpwm_get_kv_filtered
 263              	.LVL30:
 264 0134 10EE100A 		vmov	r0, s0
 265 0138 FFF7FEFF 		bl	__aeabi_f2d
 266              	.LVL31:
 267 013c 0246     		mov	r2, r0
 268 013e 0B46     		mov	r3, r1
 269 0140 5548     		ldr	r0, .L182+76
 270 0142 FFF7FEFF 		bl	commands_printf
 271              	.LVL32:
 272 0146 E6E7     		b	.L1
 273              	.L158:
 274              		.loc 1 81 0
 275 0148 9FED540A 		vldr.32	s0, .L182+80
 276 014c FFF7FEFF 		bl	mc_interface_set_duty
 277              	.LVL33:
 278              		.loc 1 82 0
 279 0150 5348     		ldr	r0, .L182+84
 280 0152 FFF7FEFF 		bl	commands_printf
 281              	.LVL34:
 282              		.loc 1 696 0
 283 0156 58B0     		add	sp, sp, #352
 284              		.cfi_remember_state
 285              		.cfi_def_cfa_offset 64
ARM GAS  C:\Users\CHRIST~1\AppData\Local\Temp\ccVm3NB4.s 			page 6


 286              		@ sp needed
 287 0158 BDEC088B 		vldm	sp!, {d8-d11}
 288              		.cfi_restore 80
 289              		.cfi_restore 81
 290              		.cfi_restore 82
 291              		.cfi_restore 83
 292              		.cfi_restore 84
 293              		.cfi_restore 85
 294              		.cfi_restore 86
 295              		.cfi_restore 87
 296              		.cfi_def_cfa_offset 32
 297 015c BDE8F087 		pop	{r4, r5, r6, r7, r8, r9, r10, pc}
 298              	.LVL35:
 299              	.L159:
 300              		.cfi_restore_state
 301              		.loc 1 84 0
 302 0160 FFF7FEFF 		bl	mcpwm_get_last_adc_isr_duration
 303              	.LVL36:
 304 0164 9FED4F8A 		vldr.32	s16, .L182+88
 305 0168 60EE087A 		vmul.f32	s15, s0, s16
 306 016c 17EE900A 		vmov	r0, s15
 307 0170 FFF7FEFF 		bl	__aeabi_f2d
 308              	.LVL37:
 309 0174 0246     		mov	r2, r0
 310 0176 0B46     		mov	r3, r1
 311 0178 4B48     		ldr	r0, .L182+92
 312 017a FFF7FEFF 		bl	commands_printf
 313              	.LVL38:
 314              		.loc 1 85 0
 315 017e FFF7FEFF 		bl	mc_interface_get_last_inj_adc_isr_duration
 316              	.LVL39:
 317 0182 60EE087A 		vmul.f32	s15, s0, s16
 318 0186 17EE900A 		vmov	r0, s15
 319 018a FFF7FEFF 		bl	__aeabi_f2d
 320              	.LVL40:
 321 018e 0246     		mov	r2, r0
 322 0190 0B46     		mov	r3, r1
 323 0192 4648     		ldr	r0, .L182+96
 324 0194 FFF7FEFF 		bl	commands_printf
 325              	.LVL41:
 326              		.loc 1 86 0
 327 0198 FFF7FEFF 		bl	mc_interface_get_last_sample_adc_isr_duration
 328              	.LVL42:
 329 019c 60EE087A 		vmul.f32	s15, s0, s16
 330 01a0 17EE900A 		vmov	r0, s15
 331 01a4 FFF7FEFF 		bl	__aeabi_f2d
 332              	.LVL43:
 333 01a8 0246     		mov	r2, r0
 334 01aa 0B46     		mov	r3, r1
 335 01ac 4048     		ldr	r0, .L182+100
 336 01ae FFF7FEFF 		bl	commands_printf
 337              	.LVL44:
 338 01b2 B0E7     		b	.L1
 339              	.L164:
 340              		.loc 1 112 0
 341 01b4 3F4F     		ldr	r7, .L182+104
 342 01b6 3B68     		ldr	r3, [r7]
ARM GAS  C:\Users\CHRIST~1\AppData\Local\Temp\ccVm3NB4.s 			page 7


 343 01b8 002B     		cmp	r3, #0
 344 01ba 40F09180 		bne	.L16
 345              		.loc 1 113 0
 346 01be 3E48     		ldr	r0, .L182+108
 347 01c0 FFF7FEFF 		bl	commands_printf
 348              	.LVL45:
 349 01c4 A7E7     		b	.L1
 350              	.L161:
 351              	.LBB59:
 352              		.loc 1 91 0
 353 01c6 11A9     		add	r1, sp, #68
 354 01c8 FFF7FEFF 		bl	chHeapStatus
 355              	.LVL46:
 356 01cc 0446     		mov	r4, r0
 357              	.LVL47:
 358              		.loc 1 92 0
 359 01ce FFF7FEFF 		bl	chCoreGetStatusX
 360              	.LVL48:
 361 01d2 0146     		mov	r1, r0
 362 01d4 3948     		ldr	r0, .L182+112
 363 01d6 FFF7FEFF 		bl	commands_printf
 364              	.LVL49:
 365              		.loc 1 93 0
 366 01da 2146     		mov	r1, r4
 367 01dc 3848     		ldr	r0, .L182+116
 368 01de FFF7FEFF 		bl	commands_printf
 369              	.LVL50:
 370              		.loc 1 94 0
 371 01e2 1199     		ldr	r1, [sp, #68]
 372 01e4 3748     		ldr	r0, .L182+120
 373 01e6 FFF7FEFF 		bl	commands_printf
 374              	.LVL51:
 375              	.LBE59:
 376 01ea 94E7     		b	.L1
 377              	.LVL52:
 378              	.L162:
 379              	.LBB60:
 380              		.loc 1 98 0
 381 01ec 3648     		ldr	r0, .L182+124
 382 01ee 374E     		ldr	r6, .L182+128
 383              		.loc 1 102 0
 384 01f0 374D     		ldr	r5, .L182+132
 385              		.loc 1 98 0
 386 01f2 FFF7FEFF 		bl	commands_printf
 387              	.LVL53:
 388              		.loc 1 99 0
 389 01f6 3748     		ldr	r0, .L182+136
 390 01f8 FFF7FEFF 		bl	commands_printf
 391              	.LVL54:
 392              		.loc 1 100 0
 393 01fc FFF7FEFF 		bl	chRegFirstThread
 394              	.LVL55:
 395 0200 0446     		mov	r4, r0
 396              	.LVL56:
 397              	.L13:
 398              		.loc 1 105 0 discriminator 1
 399 0202 216A     		ldr	r1, [r4, #32]
ARM GAS  C:\Users\CHRIST~1\AppData\Local\Temp\ccVm3NB4.s 			page 8


 400              		.loc 1 102 0 discriminator 1
 401 0204 A368     		ldr	r3, [r4, #8]
 402 0206 E268     		ldr	r2, [r4, #12]
 403 0208 0391     		str	r1, [sp, #12]
 404 020a A169     		ldr	r1, [r4, #24]
 405 020c 0291     		str	r1, [sp, #8]
 406              		.loc 1 105 0 discriminator 1
 407 020e 217F     		ldrb	r1, [r4, #28]	@ zero_extendqisi2
 408              		.loc 1 102 0 discriminator 1
 409 0210 56F82110 		ldr	r1, [r6, r1, lsl #2]
 410 0214 0191     		str	r1, [sp, #4]
 411              		.loc 1 104 0 discriminator 1
 412 0216 A17F     		ldrb	r1, [r4, #30]	@ zero_extendqisi2
 413 0218 0139     		subs	r1, r1, #1
 414              		.loc 1 102 0 discriminator 1
 415 021a 0091     		str	r1, [sp]
 416 021c 2846     		mov	r0, r5
 417              	.LVL57:
 418 021e 2146     		mov	r1, r4
 419 0220 FFF7FEFF 		bl	commands_printf
 420              	.LVL58:
 421              		.loc 1 106 0 discriminator 1
 422 0224 2046     		mov	r0, r4
 423 0226 FFF7FEFF 		bl	chRegNextThread
 424              	.LVL59:
 425              		.loc 1 107 0 discriminator 1
 426 022a 0446     		mov	r4, r0
 427 022c 0028     		cmp	r0, #0
 428 022e E8D1     		bne	.L13
 429              		.loc 1 108 0
 430 0230 2948     		ldr	r0, .L182+140
 431              	.LVL60:
 432 0232 FFF7FEFF 		bl	commands_printf
 433              	.LVL61:
 434              	.LBE60:
 435 0236 6EE7     		b	.L1
 436              	.LVL62:
 437              	.L163:
 438              		.loc 1 110 0
 439 0238 FFF7FEFF 		bl	mc_interface_get_fault
 440              	.LVL63:
 441 023c FFF7FEFF 		bl	mc_interface_fault_to_string
 442              	.LVL64:
 443 0240 0146     		mov	r1, r0
 444 0242 2648     		ldr	r0, .L182+144
 445 0244 FFF7FEFF 		bl	commands_printf
 446              	.LVL65:
 447 0248 65E7     		b	.L1
 448              	.L183:
 449 024a 00BF     		.align	2
 450              	.L182:
 451 024c 18000000 		.word	.LC4
 452 0250 00000000 		.word	.LANCHOR0
 453 0254 00000000 		.word	.LANCHOR1
 454 0258 34000000 		.word	.LC6
 455 025c 44000000 		.word	.LC8
 456 0260 5C000000 		.word	.LC10
ARM GAS  C:\Users\CHRIST~1\AppData\Local\Temp\ccVm3NB4.s 			page 9


 457 0264 E0000000 		.word	.LC14
 458 0268 04010000 		.word	.LC16
 459 026c 5C010000 		.word	.LC20
 460 0270 0C020000 		.word	.LC25
 461 0274 18020000 		.word	.LC27
 462 0278 C8030000 		.word	.LC44
 463 027c E8030000 		.word	.LC46
 464 0280 08040000 		.word	.LC48
 465 0284 C0040000 		.word	.LC60
 466 0288 E0040000 		.word	.LC62
 467 028c 38060000 		.word	.LC73
 468 0290 1C000000 		.word	.LC5
 469 0294 3C000000 		.word	.LC7
 470 0298 E4000000 		.word	.LC15
 471 029c 00000000 		.word	0
 472 02a0 4C000000 		.word	.LC9
 473 02a4 00007A44 		.word	1148846080
 474 02a8 70000000 		.word	.LC11
 475 02ac 90000000 		.word	.LC12
 476 02b0 B8000000 		.word	.LC13
 477 02b4 00000000 		.word	.LANCHOR3
 478 02b8 20020000 		.word	.LC28
 479 02bc 08010000 		.word	.LC17
 480 02c0 24010000 		.word	.LC18
 481 02c4 3C010000 		.word	.LC19
 482 02c8 64010000 		.word	.LC21
 483 02cc 00000000 		.word	.LANCHOR2
 484 02d0 E4010000 		.word	.LC23
 485 02d4 A4010000 		.word	.LC22
 486 02d8 08020000 		.word	.LC24
 487 02dc 14020000 		.word	.LC26
 488              	.L16:
 489              		.loc 1 115 0
 490 02e0 C548     		ldr	r0, .L184
 491 02e2 FFF7FEFF 		bl	commands_printf
 492              	.LVL66:
 493              	.LBB61:
 494              		.loc 1 116 0
 495 02e6 3B68     		ldr	r3, [r7]
 496 02e8 002B     		cmp	r3, #0
 497 02ea 7FF714AF 		ble	.L1
 498 02ee C34D     		ldr	r5, .L184+4
 499              		.loc 1 117 0 discriminator 3
 500 02f0 DFF8C0A3 		ldr	r10, .L184+188
 501              		.loc 1 118 0 discriminator 3
 502 02f4 DFF8C093 		ldr	r9, .L184+192
 503              		.loc 1 119 0 discriminator 3
 504 02f8 DFF8C083 		ldr	r8, .L184+196
 505              	.LVL67:
 506              	.L18:
 507              		.loc 1 117 0 discriminator 3
 508 02fc C6EBC603 		rsb	r3, r6, r6, lsl #3
 509 0300 05EBC304 		add	r4, r5, r3, lsl #3
 510 0304 15F83300 		ldrb	r0, [r5, r3, lsl #3]	@ zero_extendqisi2
 511 0308 FFF7FEFF 		bl	mc_interface_fault_to_string
 512              	.LVL68:
 513 030c 0146     		mov	r1, r0
ARM GAS  C:\Users\CHRIST~1\AppData\Local\Temp\ccVm3NB4.s 			page 10


 514 030e 5046     		mov	r0, r10
 515 0310 FFF7FEFF 		bl	commands_printf
 516              	.LVL69:
 517              		.loc 1 118 0 discriminator 3
 518 0314 6068     		ldr	r0, [r4, #4]	@ float
 519 0316 FFF7FEFF 		bl	__aeabi_f2d
 520              	.LVL70:
 521 031a 0246     		mov	r2, r0
 522 031c 0B46     		mov	r3, r1
 523 031e 4846     		mov	r0, r9
 524 0320 FFF7FEFF 		bl	commands_printf
 525              	.LVL71:
 526              		.loc 1 119 0 discriminator 3
 527 0324 A068     		ldr	r0, [r4, #8]	@ float
 528 0326 FFF7FEFF 		bl	__aeabi_f2d
 529              	.LVL72:
 530 032a 0246     		mov	r2, r0
 531 032c 0B46     		mov	r3, r1
 532 032e 4046     		mov	r0, r8
 533 0330 FFF7FEFF 		bl	commands_printf
 534              	.LVL73:
 535              		.loc 1 120 0 discriminator 3
 536 0334 E068     		ldr	r0, [r4, #12]	@ float
 537 0336 FFF7FEFF 		bl	__aeabi_f2d
 538              	.LVL74:
 539 033a 0246     		mov	r2, r0
 540 033c 0B46     		mov	r3, r1
 541 033e B048     		ldr	r0, .L184+8
 542 0340 FFF7FEFF 		bl	commands_printf
 543              	.LVL75:
 544              		.loc 1 121 0 discriminator 3
 545 0344 2069     		ldr	r0, [r4, #16]	@ float
 546 0346 FFF7FEFF 		bl	__aeabi_f2d
 547              	.LVL76:
 548 034a 0246     		mov	r2, r0
 549 034c 0B46     		mov	r3, r1
 550 034e AD48     		ldr	r0, .L184+12
 551 0350 FFF7FEFF 		bl	commands_printf
 552              	.LVL77:
 553              		.loc 1 122 0 discriminator 3
 554 0354 6069     		ldr	r0, [r4, #20]	@ float
 555 0356 FFF7FEFF 		bl	__aeabi_f2d
 556              	.LVL78:
 557 035a 0246     		mov	r2, r0
 558 035c 0B46     		mov	r3, r1
 559 035e AA48     		ldr	r0, .L184+16
 560 0360 FFF7FEFF 		bl	commands_printf
 561              	.LVL79:
 562              		.loc 1 123 0 discriminator 3
 563 0364 A169     		ldr	r1, [r4, #24]
 564 0366 A948     		ldr	r0, .L184+20
 565 0368 FFF7FEFF 		bl	commands_printf
 566              	.LVL80:
 567              		.loc 1 124 0 discriminator 3
 568 036c E169     		ldr	r1, [r4, #28]
 569 036e A848     		ldr	r0, .L184+24
 570 0370 FFF7FEFF 		bl	commands_printf
ARM GAS  C:\Users\CHRIST~1\AppData\Local\Temp\ccVm3NB4.s 			page 11


 571              	.LVL81:
 572              		.loc 1 125 0 discriminator 3
 573 0374 D4ED0A7A 		vldr.32	s15, [r4, #40]	@ int
 574 0378 94ED047A 		vldr.32	s14, [r4, #16]
 575 037c A548     		ldr	r0, .L184+28
 576 037e F8EEE77A 		vcvt.f32.s32	s15, s15
 577              		.loc 1 116 0 discriminator 3
 578 0382 0136     		adds	r6, r6, #1
 579              	.LVL82:
 580              		.loc 1 125 0 discriminator 3
 581 0384 67EE877A 		vmul.f32	s15, s15, s14
 582 0388 FDEEE77A 		vcvt.s32.f32	s15, s15
 583 038c 17EE901A 		vmov	r1, s15	@ int
 584 0390 FFF7FEFF 		bl	commands_printf
 585              	.LVL83:
 586              		.loc 1 126 0 discriminator 3
 587 0394 216A     		ldr	r1, [r4, #32]
 588 0396 A048     		ldr	r0, .L184+32
 589 0398 FFF7FEFF 		bl	commands_printf
 590              	.LVL84:
 591              		.loc 1 127 0 discriminator 3
 592 039c 616A     		ldr	r1, [r4, #36]
 593 039e 9F48     		ldr	r0, .L184+36
 594 03a0 FFF7FEFF 		bl	commands_printf
 595              	.LVL85:
 596              		.loc 1 128 0 discriminator 3
 597 03a4 A16A     		ldr	r1, [r4, #40]
 598 03a6 9E48     		ldr	r0, .L184+40
 599 03a8 FFF7FEFF 		bl	commands_printf
 600              	.LVL86:
 601              		.loc 1 129 0 discriminator 3
 602 03ac E16A     		ldr	r1, [r4, #44]
 603 03ae 9D48     		ldr	r0, .L184+44
 604 03b0 FFF7FEFF 		bl	commands_printf
 605              	.LVL87:
 606              		.loc 1 130 0 discriminator 3
 607 03b4 206B     		ldr	r0, [r4, #48]	@ float
 608 03b6 FFF7FEFF 		bl	__aeabi_f2d
 609              	.LVL88:
 610 03ba 0246     		mov	r2, r0
 611 03bc 0B46     		mov	r3, r1
 612 03be 9A48     		ldr	r0, .L184+48
 613 03c0 FFF7FEFF 		bl	commands_printf
 614              	.LVL89:
 615              		.loc 1 136 0 discriminator 3
 616 03c4 9948     		ldr	r0, .L184+52
 617 03c6 FFF7FEFF 		bl	commands_printf
 618              	.LVL90:
 619              		.loc 1 116 0 discriminator 3
 620 03ca 3B68     		ldr	r3, [r7]
 621 03cc B342     		cmp	r3, r6
 622 03ce 95DC     		bgt	.L18
 623 03d0 A1E6     		b	.L1
 624              	.LVL91:
 625              	.L165:
 626              	.LBE61:
 627              		.loc 1 140 0
ARM GAS  C:\Users\CHRIST~1\AppData\Local\Temp\ccVm3NB4.s 			page 12


 628 03d2 FFF7FEFF 		bl	mc_interface_get_rpm
 629              	.LVL92:
 630 03d6 10EE100A 		vmov	r0, s0
 631 03da FFF7FEFF 		bl	__aeabi_f2d
 632              	.LVL93:
 633 03de 0246     		mov	r2, r0
 634 03e0 0B46     		mov	r3, r1
 635 03e2 9348     		ldr	r0, .L184+56
 636 03e4 FFF7FEFF 		bl	commands_printf
 637              	.LVL94:
 638 03e8 95E6     		b	.L1
 639              	.L166:
 640              		.loc 1 142 0
 641 03ea FFF7FEFF 		bl	mc_interface_get_tachometer_value
 642              	.LVL95:
 643 03ee 0146     		mov	r1, r0
 644 03f0 9048     		ldr	r0, .L184+60
 645 03f2 FFF7FEFF 		bl	commands_printf
 646              	.LVL96:
 647 03f6 8EE6     		b	.L1
 648              	.L23:
 649              		.loc 1 216 0
 650 03f8 8F49     		ldr	r1, .L184+64
 651 03fa 2846     		mov	r0, r5
 652 03fc FFF7FEFF 		bl	strcmp
 653              	.LVL97:
 654 0400 0028     		cmp	r0, #0
 655 0402 00F05D81 		beq	.L170
 656              		.loc 1 221 0
 657 0406 8D49     		ldr	r1, .L184+68
 658 0408 2846     		mov	r0, r5
 659 040a FFF7FEFF 		bl	strcmp
 660              	.LVL98:
 661 040e 0646     		mov	r6, r0
 662 0410 0028     		cmp	r0, #0
 663 0412 00F01082 		beq	.L171
 664              		.loc 1 235 0
 665 0416 8A49     		ldr	r1, .L184+72
 666 0418 2846     		mov	r0, r5
 667 041a FFF7FEFF 		bl	strcmp
 668              	.LVL99:
 669 041e 0028     		cmp	r0, #0
 670 0420 40F0B180 		bne	.L43
 671              		.loc 1 236 0
 672 0424 022C     		cmp	r4, #2
 673 0426 00F08E81 		beq	.L172
 674              	.L44:
 675              		.loc 1 264 0
 676 042a 8648     		ldr	r0, .L184+76
 677 042c FFF7FEFF 		bl	commands_printf
 678              	.LVL100:
 679 0430 71E6     		b	.L1
 680              	.L168:
 681              		.loc 1 169 0
 682 0432 854B     		ldr	r3, .L184+80
 683 0434 DFED856A 		vldr.32	s13, .L184+84
 684 0438 1B8A     		ldrh	r3, [r3, #16]
ARM GAS  C:\Users\CHRIST~1\AppData\Local\Temp\ccVm3NB4.s 			page 13


 685 043a 9FED857A 		vldr.32	s14, .L184+88
 686 043e 9BB2     		uxth	r3, r3
 687 0440 07EE903A 		vmov	s15, r3	@ int
 688 0444 F8EE677A 		vcvt.f32.u32	s15, s15
 689 0448 67EEA67A 		vmul.f32	s15, s15, s13
 690 044c 67EE877A 		vmul.f32	s15, s15, s14
 691 0450 17EE900A 		vmov	r0, s15
 692 0454 FFF7FEFF 		bl	__aeabi_f2d
 693              	.LVL101:
 694 0458 0246     		mov	r2, r0
 695 045a 0B46     		mov	r3, r1
 696 045c 7D48     		ldr	r0, .L184+92
 697 045e FFF7FEFF 		bl	commands_printf
 698              	.LVL102:
 699 0462 58E6     		b	.L1
 700              	.L167:
 701              	.LVL103:
 702              	.LBB62:
 703              	.LBB63:
 704              	.LBB64:
 705              	.LBB65:
 706              	.LBB66:
 707              		.file 2 "ChibiOS_3.0.2/os/ext/CMSIS/include/core_cmFunc.h"
 708              		.loc 2 546 0
 709 0464 2023     		movs	r3, #32
 710              		.syntax unified
 711              	@ 546 "ChibiOS_3.0.2/os/ext/CMSIS/include/core_cmFunc.h" 1
 712 0466 83F31188 		MSR basepri, r3
 713              	@ 0 "" 2
 714              	.LVL104:
 715              		.thumb
 716              		.syntax unified
 717              	.LBE66:
 718              	.LBE65:
 719              	.LBE64:
 720              	.LBE63:
 721              		.loc 1 145 0
 722 046a 7B4B     		ldr	r3, .L184+96
 723              		.loc 1 146 0
 724 046c 7B4A     		ldr	r2, .L184+100
 725              		.loc 1 145 0
 726 046e 596A     		ldr	r1, [r3, #36]
 727 0470 0E91     		str	r1, [sp, #56]
 728              		.loc 1 146 0
 729 0472 516A     		ldr	r1, [r2, #36]
 730 0474 0F91     		str	r1, [sp, #60]
 731              		.loc 1 147 0
 732 0476 1968     		ldr	r1, [r3]
 733 0478 C1F30011 		ubfx	r1, r1, #4, #1
 734 047c 1091     		str	r1, [sp, #64]
 735              		.loc 1 148 0
 736 047e 1168     		ldr	r1, [r2]
 737 0480 C1F30011 		ubfx	r1, r1, #4, #1
 738 0484 1191     		str	r1, [sp, #68]
 739              	.LVL105:
 740              	.LBB67:
 741              	.LBB68:
ARM GAS  C:\Users\CHRIST~1\AppData\Local\Temp\ccVm3NB4.s 			page 14


 742              	.LBB69:
 743              	.LBB70:
 744              	.LBB71:
 745              		.loc 2 546 0
 746              		.syntax unified
 747              	@ 546 "ChibiOS_3.0.2/os/ext/CMSIS/include/core_cmFunc.h" 1
 748 0486 80F31188 		MSR basepri, r0
 749              	@ 0 "" 2
 750              	.LVL106:
 751              		.thumb
 752              		.syntax unified
 753              	.LBE71:
 754              	.LBE70:
 755              	.LBE69:
 756              	.LBE68:
 757              	.LBE67:
 758              		.loc 1 157 0
 759 048a 7548     		ldr	r0, .L184+104
 760              		.loc 1 150 0
 761 048c D3F834A0 		ldr	r10, [r3, #52]
 762              	.LVL107:
 763              		.loc 1 151 0
 764 0490 D3F83890 		ldr	r9, [r3, #56]
 765              	.LVL108:
 766              		.loc 1 152 0
 767 0494 D3F83C80 		ldr	r8, [r3, #60]
 768              	.LVL109:
 769              		.loc 1 153 0
 770 0498 DF6A     		ldr	r7, [r3, #44]
 771              	.LVL110:
 772              		.loc 1 154 0
 773 049a 566B     		ldr	r6, [r2, #52]
 774              	.LVL111:
 775              		.loc 1 155 0
 776 049c 1D6C     		ldr	r5, [r3, #64]
 777              	.LVL112:
 778              		.loc 1 156 0
 779 049e 946B     		ldr	r4, [r2, #56]
 780              	.LVL113:
 781              		.loc 1 157 0
 782 04a0 0E99     		ldr	r1, [sp, #56]
 783 04a2 FFF7FEFF 		bl	commands_printf
 784              	.LVL114:
 785              		.loc 1 158 0
 786 04a6 0F99     		ldr	r1, [sp, #60]
 787 04a8 6E48     		ldr	r0, .L184+108
 788 04aa FFF7FEFF 		bl	commands_printf
 789              	.LVL115:
 790              		.loc 1 159 0
 791 04ae 5146     		mov	r1, r10
 792 04b0 6D48     		ldr	r0, .L184+112
 793 04b2 FFF7FEFF 		bl	commands_printf
 794              	.LVL116:
 795              		.loc 1 160 0
 796 04b6 4946     		mov	r1, r9
 797 04b8 6C48     		ldr	r0, .L184+116
 798 04ba FFF7FEFF 		bl	commands_printf
ARM GAS  C:\Users\CHRIST~1\AppData\Local\Temp\ccVm3NB4.s 			page 15


 799              	.LVL117:
 800              		.loc 1 161 0
 801 04be 4146     		mov	r1, r8
 802 04c0 6B48     		ldr	r0, .L184+120
 803 04c2 FFF7FEFF 		bl	commands_printf
 804              	.LVL118:
 805              		.loc 1 162 0
 806 04c6 3946     		mov	r1, r7
 807 04c8 6A48     		ldr	r0, .L184+124
 808 04ca FFF7FEFF 		bl	commands_printf
 809              	.LVL119:
 810              		.loc 1 163 0
 811 04ce 1099     		ldr	r1, [sp, #64]
 812 04d0 6948     		ldr	r0, .L184+128
 813 04d2 FFF7FEFF 		bl	commands_printf
 814              	.LVL120:
 815              		.loc 1 164 0
 816 04d6 1199     		ldr	r1, [sp, #68]
 817 04d8 6848     		ldr	r0, .L184+132
 818 04da FFF7FEFF 		bl	commands_printf
 819              	.LVL121:
 820              		.loc 1 165 0
 821 04de 3146     		mov	r1, r6
 822 04e0 6748     		ldr	r0, .L184+136
 823 04e2 FFF7FEFF 		bl	commands_printf
 824              	.LVL122:
 825              		.loc 1 166 0
 826 04e6 2946     		mov	r1, r5
 827 04e8 6648     		ldr	r0, .L184+140
 828 04ea FFF7FEFF 		bl	commands_printf
 829              	.LVL123:
 830              		.loc 1 167 0
 831 04ee 2146     		mov	r1, r4
 832 04f0 6548     		ldr	r0, .L184+144
 833 04f2 FFF7FEFF 		bl	commands_printf
 834              	.LVL124:
 835              	.LBE62:
 836 04f6 0EE6     		b	.L1
 837              	.LVL125:
 838              	.L169:
 839              	.LBB72:
 840              		.loc 1 173 0
 841 04f8 644B     		ldr	r3, .L184+148
 842              		.loc 1 176 0
 843 04fa 6549     		ldr	r1, .L184+152
 844 04fc 1998     		ldr	r0, [sp, #100]
 845              		.loc 1 173 0
 846 04fe 0B93     		str	r3, [sp, #44]	@ float
 847              		.loc 1 176 0
 848 0500 0BAA     		add	r2, sp, #44
 849              		.loc 1 174 0
 850 0502 0C93     		str	r3, [sp, #48]	@ float
 851              		.loc 1 175 0
 852 0504 0D93     		str	r3, [sp, #52]	@ float
 853              		.loc 1 176 0
 854 0506 FFF7FEFF 		bl	sscanf
 855              	.LVL126:
ARM GAS  C:\Users\CHRIST~1\AppData\Local\Temp\ccVm3NB4.s 			page 16


 856              		.loc 1 177 0
 857 050a 0CAA     		add	r2, sp, #48
 858 050c 6049     		ldr	r1, .L184+152
 859 050e 1A98     		ldr	r0, [sp, #104]
 860 0510 FFF7FEFF 		bl	sscanf
 861              	.LVL127:
 862              		.loc 1 178 0
 863 0514 0DAA     		add	r2, sp, #52
 864 0516 1B98     		ldr	r0, [sp, #108]
 865 0518 5D49     		ldr	r1, .L184+152
 866 051a FFF7FEFF 		bl	sscanf
 867              	.LVL128:
 868              		.loc 1 180 0
 869 051e 9DED0B0A 		vldr.32	s0, [sp, #44]
 870 0522 B5EEC00A 		vcmpe.f32	s0, #0
 871 0526 F1EE10FA 		vmrs	APSR_nzcv, FPSCR
 872 052a 28DD     		ble	.L85
 873              		.loc 1 180 0 is_stmt 0 discriminator 1
 874 052c 594B     		ldr	r3, .L184+156
 875 052e D3ED017A 		vldr.32	s15, [r3, #4]
 876 0532 B4EEE70A 		vcmpe.f32	s0, s15
 877 0536 F1EE10FA 		vmrs	APSR_nzcv, FPSCR
 878 053a 20D5     		bpl	.L85
 879              		.loc 1 181 0 is_stmt 1 discriminator 2
 880 053c DDED0C0A 		vldr.32	s1, [sp, #48]
 881              		.loc 1 180 0 discriminator 2
 882 0540 F2EE047A 		vmov.f32	s15, #1.0e+1
 883 0544 F4EEE70A 		vcmpe.f32	s1, s15
 884 0548 F1EE10FA 		vmrs	APSR_nzcv, FPSCR
 885 054c 17DD     		ble	.L85
 886              		.loc 1 181 0
 887 054e DFED527A 		vldr.32	s15, .L184+160
 888 0552 F4EEE70A 		vcmpe.f32	s1, s15
 889 0556 F1EE10FA 		vmrs	APSR_nzcv, FPSCR
 890 055a 10D5     		bpl	.L85
 891              		.loc 1 182 0 discriminator 1
 892 055c 9DED0D1A 		vldr.32	s2, [sp, #52]
 893              		.loc 1 181 0 discriminator 1
 894 0560 DFED4E7A 		vldr.32	s15, .L184+164
 895 0564 B4EEE71A 		vcmpe.f32	s2, s15
 896 0568 F1EE10FA 		vmrs	APSR_nzcv, FPSCR
 897 056c 07DD     		ble	.L85
 898              		.loc 1 182 0
 899 056e DFED4C7A 		vldr.32	s15, .L184+168
 900 0572 B4EEE71A 		vcmpe.f32	s2, s15
 901 0576 F1EE10FA 		vmrs	APSR_nzcv, FPSCR
 902 057a 00F1BD80 		bmi	.L173
 903              	.LVL129:
 904              	.L85:
 905              	.LBE72:
 906              	.LBB76:
 907              		.loc 1 552 0
 908 057e 4948     		ldr	r0, .L184+172
 909 0580 FFF7FEFF 		bl	commands_printf
 910              	.LVL130:
 911 0584 C7E5     		b	.L1
 912              	.LVL131:
ARM GAS  C:\Users\CHRIST~1\AppData\Local\Temp\ccVm3NB4.s 			page 17


 913              	.L43:
 914              	.LBE76:
 915              		.loc 1 266 0
 916 0586 4849     		ldr	r1, .L184+176
 917 0588 2846     		mov	r0, r5
 918 058a FFF7FEFF 		bl	strcmp
 919              	.LVL132:
 920 058e 0028     		cmp	r0, #0
 921 0590 40F0AA81 		bne	.L51
 922              		.loc 1 267 0
 923 0594 022C     		cmp	r4, #2
 924 0596 7FF448AF 		bne	.L44
 925              	.LBB77:
 926              		.loc 1 268 0
 927 059a 11AD     		add	r5, sp, #68
 928 059c 3B4B     		ldr	r3, .L184+148
 929              		.loc 1 269 0
 930 059e 1998     		ldr	r0, [sp, #100]
 931 05a0 3B49     		ldr	r1, .L184+152
 932              		.loc 1 268 0
 933 05a2 1193     		str	r3, [sp, #68]	@ float
 934              		.loc 1 269 0
 935 05a4 2A46     		mov	r2, r5
 936 05a6 FFF7FEFF 		bl	sscanf
 937              	.LVL133:
 938              		.loc 1 271 0
 939 05aa D5ED007A 		vldr.32	s15, [r5]
 940 05ae F5EEC07A 		vcmpe.f32	s15, #0
 941 05b2 F1EE10FA 		vmrs	APSR_nzcv, FPSCR
 942 05b6 E2DD     		ble	.L85
 943              		.loc 1 271 0 is_stmt 0 discriminator 1
 944 05b8 364C     		ldr	r4, .L184+156
 945              	.LVL134:
 946 05ba 94ED017A 		vldr.32	s14, [r4, #4]
 947 05be F4EEC77A 		vcmpe.f32	s15, s14
 948 05c2 F1EE10FA 		vmrs	APSR_nzcv, FPSCR
 949 05c6 DAD8     		bhi	.L85
 950              		.loc 1 272 0 is_stmt 1
 951 05c8 0223     		movs	r3, #2
 952              		.loc 1 273 0
 953 05ca 2046     		mov	r0, r4
 954              		.loc 1 272 0
 955 05cc A370     		strb	r3, [r4, #2]
 956              		.loc 1 273 0
 957 05ce FFF7FEFF 		bl	mc_interface_set_configuration
 958              	.LVL135:
 959              		.loc 1 275 0
 960 05d2 4FF4FA60 		mov	r0, #2000
 961 05d6 95ED000A 		vldr.32	s0, [r5]
 962 05da FFF7FEFF 		bl	mcpwm_foc_measure_resistance
 963              	.LVL136:
 964 05de 10EE100A 		vmov	r0, s0
 965 05e2 FFF7FEFF 		bl	__aeabi_f2d
 966              	.LVL137:
 967 05e6 0246     		mov	r2, r0
 968 05e8 0B46     		mov	r3, r1
 969 05ea 3048     		ldr	r0, .L184+180
ARM GAS  C:\Users\CHRIST~1\AppData\Local\Temp\ccVm3NB4.s 			page 18


 970 05ec FFF7FEFF 		bl	commands_printf
 971              	.LVL138:
 972              		.loc 1 277 0
 973 05f0 2F48     		ldr	r0, .L184+184
 974 05f2 FFF7FEFF 		bl	mc_interface_set_configuration
 975              	.LVL139:
 976 05f6 8EE5     		b	.L1
 977              	.L185:
 978              		.align	2
 979              	.L184:
 980 05f8 44020000 		.word	.LC29
 981 05fc 00000000 		.word	.LANCHOR4
 982 0600 C0020000 		.word	.LC33
 983 0604 D8020000 		.word	.LC34
 984 0608 F0020000 		.word	.LC35
 985 060c 08030000 		.word	.LC36
 986 0610 20030000 		.word	.LC37
 987 0614 38030000 		.word	.LC38
 988 0618 50030000 		.word	.LC39
 989 061c 68030000 		.word	.LC40
 990 0620 80030000 		.word	.LC41
 991 0624 98030000 		.word	.LC42
 992 0628 B0030000 		.word	.LC43
 993 062c 18000000 		.word	.LC4
 994 0630 CC030000 		.word	.LC45
 995 0634 F0030000 		.word	.LC47
 996 0638 60060000 		.word	.LC74
 997 063c BC060000 		.word	.LC78
 998 0640 98070000 		.word	.LC86
 999 0644 F4070000 		.word	.LC91
 1000 0648 00000000 		.word	ADC_Value
 1001 064c 6740533A 		.word	978534503
 1002 0650 74D19541 		.word	1100337524
 1003 0654 C8040000 		.word	.LC61
 1004 0658 00000140 		.word	1073807360
 1005 065c 00040140 		.word	1073808384
 1006 0660 0C040000 		.word	.LC49
 1007 0664 1C040000 		.word	.LC50
 1008 0668 2C040000 		.word	.LC51
 1009 066c 3C040000 		.word	.LC52
 1010 0670 4C040000 		.word	.LC53
 1011 0674 5C040000 		.word	.LC54
 1012 0678 64040000 		.word	.LC55
 1013 067c 70040000 		.word	.LC56
 1014 0680 7C040000 		.word	.LC57
 1015 0684 90040000 		.word	.LC58
 1016 0688 A8040000 		.word	.LC59
 1017 068c 000080BF 		.word	-1082130432
 1018 0690 F0040000 		.word	.LC63
 1019 0694 00000000 		.word	.LANCHOR0
 1020 0698 00803B45 		.word	1161527296
 1021 069c 0AD7A33C 		.word	1017370378
 1022 06a0 CDCC4C3F 		.word	1061997773
 1023 06a4 20060000 		.word	.LC72
 1024 06a8 1C080000 		.word	.LC92
 1025 06ac 28080000 		.word	.LC93
 1026 06b0 00000000 		.word	.LANCHOR1
ARM GAS  C:\Users\CHRIST~1\AppData\Local\Temp\ccVm3NB4.s 			page 19


 1027 06b4 78020000 		.word	.LC30
 1028 06b8 90020000 		.word	.LC31
 1029 06bc A8020000 		.word	.LC32
 1030              	.LVL140:
 1031              	.L170:
 1032              	.LBE77:
 1033              	.LBB78:
 1034              		.loc 1 217 0 discriminator 7
 1035 06c0 11A8     		add	r0, sp, #68
 1036 06c2 FFF7FEFF 		bl	mcpwm_get_rpm_dep
 1037              	.LVL141:
 1038              		.loc 1 218 0 discriminator 7
 1039 06c6 1198     		ldr	r0, [sp, #68]	@ float
 1040 06c8 FFF7FEFF 		bl	__aeabi_f2d
 1041              	.LVL142:
 1042 06cc 0246     		mov	r2, r0
 1043 06ce 0B46     		mov	r3, r1
 1044 06d0 A848     		ldr	r0, .L186
 1045 06d2 FFF7FEFF 		bl	commands_printf
 1046              	.LVL143:
 1047              		.loc 1 219 0 discriminator 7
 1048 06d6 1298     		ldr	r0, [sp, #72]	@ float
 1049 06d8 FFF7FEFF 		bl	__aeabi_f2d
 1050              	.LVL144:
 1051 06dc 0246     		mov	r2, r0
 1052 06de 0B46     		mov	r3, r1
 1053 06e0 A548     		ldr	r0, .L186+4
 1054 06e2 FFF7FEFF 		bl	commands_printf
 1055              	.LVL145:
 1056              		.loc 1 220 0 discriminator 7
 1057 06e6 1398     		ldr	r0, [sp, #76]	@ float
 1058 06e8 FFF7FEFF 		bl	__aeabi_f2d
 1059              	.LVL146:
 1060 06ec 0246     		mov	r2, r0
 1061 06ee 0B46     		mov	r3, r1
 1062 06f0 A248     		ldr	r0, .L186+8
 1063 06f2 FFF7FEFF 		bl	commands_printf
 1064              	.LVL147:
 1065              	.LBE78:
 1066 06f6 0EE5     		b	.L1
 1067              	.L173:
 1068              	.LBB79:
 1069              	.LBB73:
 1070              		.loc 1 188 0
 1071 06f8 10AB     		add	r3, sp, #64
 1072 06fa 11AA     		add	r2, sp, #68
 1073 06fc 0FA9     		add	r1, sp, #60
 1074 06fe 0EA8     		add	r0, sp, #56
 1075 0700 FFF7FEFF 		bl	conf_general_detect_motor_param
 1076              	.LVL148:
 1077 0704 0028     		cmp	r0, #0
 1078 0706 00F09280 		beq	.L32
 1079              		.loc 1 189 0
 1080 070a 0E98     		ldr	r0, [sp, #56]	@ float
 1081 070c FFF7FEFF 		bl	__aeabi_f2d
 1082              	.LVL149:
 1083 0710 0246     		mov	r2, r0
ARM GAS  C:\Users\CHRIST~1\AppData\Local\Temp\ccVm3NB4.s 			page 20


 1084 0712 0B46     		mov	r3, r1
 1085 0714 9A48     		ldr	r0, .L186+12
 1086 0716 FFF7FEFF 		bl	commands_printf
 1087              	.LVL150:
 1088              		.loc 1 190 0
 1089 071a 0F98     		ldr	r0, [sp, #60]	@ float
 1090 071c FFF7FEFF 		bl	__aeabi_f2d
 1091              	.LVL151:
 1092 0720 0246     		mov	r2, r0
 1093 0722 0B46     		mov	r3, r1
 1094 0724 9748     		ldr	r0, .L186+16
 1095 0726 FFF7FEFF 		bl	commands_printf
 1096              	.LVL152:
 1097              		.loc 1 192 0
 1098 072a 109B     		ldr	r3, [sp, #64]
 1099 072c 002B     		cmp	r3, #0
 1100 072e 7CD0     		beq	.L174
 1101              		.loc 1 197 0
 1102 0730 591C     		adds	r1, r3, #1
 1103 0732 5CD0     		beq	.L175
 1104              		.loc 1 202 0
 1105 0734 9A1C     		adds	r2, r3, #2
 1106 0736 56D0     		beq	.L176
 1107              		.loc 1 204 0
 1108 0738 0333     		adds	r3, r3, #3
 1109 073a 7FF4ECAC 		bne	.L1
 1110              		.loc 1 205 0
 1111 073e 9248     		ldr	r0, .L186+20
 1112 0740 FFF7FEFF 		bl	commands_printf
 1113              	.LVL153:
 1114 0744 E7E4     		b	.L1
 1115              	.L172:
 1116              	.LBE73:
 1117              	.LBE79:
 1118              	.LBB80:
 1119              		.loc 1 237 0
 1120 0746 914B     		ldr	r3, .L186+24
 1121              		.loc 1 238 0
 1122 0748 1998     		ldr	r0, [sp, #100]
 1123 074a 9149     		ldr	r1, .L186+28
 1124              		.loc 1 237 0
 1125 074c 0F93     		str	r3, [sp, #60]	@ float
 1126              		.loc 1 238 0
 1127 074e 0FAA     		add	r2, sp, #60
 1128 0750 FFF7FEFF 		bl	sscanf
 1129              	.LVL154:
 1130              		.loc 1 240 0
 1131 0754 DDED0F7A 		vldr.32	s15, [sp, #60]
 1132 0758 F5EEC07A 		vcmpe.f32	s15, #0
 1133 075c F1EE10FA 		vmrs	APSR_nzcv, FPSCR
 1134 0760 7FF70DAF 		ble	.L85
 1135              		.loc 1 240 0 is_stmt 0 discriminator 1
 1136 0764 8B4C     		ldr	r4, .L186+32
 1137              	.LVL155:
 1138 0766 94ED017A 		vldr.32	s14, [r4, #4]
 1139 076a F4EEC77A 		vcmpe.f32	s15, s14
 1140 076e F1EE10FA 		vmrs	APSR_nzcv, FPSCR
ARM GAS  C:\Users\CHRIST~1\AppData\Local\Temp\ccVm3NB4.s 			page 21


 1141 0772 3FF604AF 		bhi	.L85
 1142              		.loc 1 241 0 is_stmt 1
 1143 0776 FFF7FEFF 		bl	encoder_is_configured
 1144              	.LVL156:
 1145 077a 0028     		cmp	r0, #0
 1146 077c 51D0     		beq	.L48
 1147              	.LBB81:
 1148              		.loc 1 243 0
 1149 077e 0223     		movs	r3, #2
 1150              		.loc 1 244 0
 1151 0780 2046     		mov	r0, r4
 1152              		.loc 1 242 0
 1153 0782 A678     		ldrb	r6, [r4, #2]	@ zero_extendqisi2
 1154              	.LVL157:
 1155              		.loc 1 243 0
 1156 0784 A370     		strb	r3, [r4, #2]
 1157              		.loc 1 246 0
 1158 0786 0025     		movs	r5, #0
 1159              		.loc 1 244 0
 1160 0788 FFF7FEFF 		bl	mc_interface_set_configuration
 1161              	.LVL158:
 1162              		.loc 1 248 0
 1163 078c 0027     		movs	r7, #0
 1164              		.loc 1 249 0
 1165 078e 9DED0F0A 		vldr.32	s0, [sp, #60]
 1166              		.loc 1 246 0
 1167 0792 1095     		str	r5, [sp, #64]	@ float
 1168              		.loc 1 249 0
 1169 0794 11AA     		add	r2, sp, #68
 1170 0796 0EAB     		add	r3, sp, #56
 1171 0798 10A9     		add	r1, sp, #64
 1172 079a 0120     		movs	r0, #1
 1173              		.loc 1 247 0
 1174 079c 1195     		str	r5, [sp, #68]	@ float
 1175              		.loc 1 248 0
 1176 079e 8DF83870 		strb	r7, [sp, #56]
 1177              		.loc 1 249 0
 1178 07a2 FFF7FEFF 		bl	mcpwm_foc_encoder_detect
 1179              	.LVL159:
 1180              		.loc 1 252 0
 1181 07a6 2046     		mov	r0, r4
 1182              		.loc 1 251 0
 1183 07a8 A670     		strb	r6, [r4, #2]
 1184              		.loc 1 252 0
 1185 07aa FFF7FEFF 		bl	mc_interface_set_configuration
 1186              	.LVL160:
 1187              		.loc 1 254 0
 1188 07ae 1098     		ldr	r0, [sp, #64]	@ float
 1189 07b0 FFF7FEFF 		bl	__aeabi_f2d
 1190              	.LVL161:
 1191 07b4 0246     		mov	r2, r0
 1192 07b6 0B46     		mov	r3, r1
 1193 07b8 7748     		ldr	r0, .L186+36
 1194 07ba FFF7FEFF 		bl	commands_printf
 1195              	.LVL162:
 1196              		.loc 1 255 0
 1197 07be 1198     		ldr	r0, [sp, #68]	@ float
ARM GAS  C:\Users\CHRIST~1\AppData\Local\Temp\ccVm3NB4.s 			page 22


 1198 07c0 FFF7FEFF 		bl	__aeabi_f2d
 1199              	.LVL163:
 1200 07c4 0246     		mov	r2, r0
 1201 07c6 0B46     		mov	r3, r1
 1202 07c8 7448     		ldr	r0, .L186+40
 1203 07ca FFF7FEFF 		bl	commands_printf
 1204              	.LVL164:
 1205              		.loc 1 256 0
 1206 07ce 9DF83810 		ldrb	r1, [sp, #56]	@ zero_extendqisi2
 1207 07d2 734A     		ldr	r2, .L186+44
 1208 07d4 734B     		ldr	r3, .L186+48
 1209 07d6 7448     		ldr	r0, .L186+52
 1210 07d8 B942     		cmp	r1, r7
 1211 07da 14BF     		ite	ne
 1212 07dc 1146     		movne	r1, r2
 1213 07de 1946     		moveq	r1, r3
 1214 07e0 FFF7FEFF 		bl	commands_printf
 1215              	.LVL165:
 1216              	.LBE81:
 1217 07e4 97E4     		b	.L1
 1218              	.LVL166:
 1219              	.L176:
 1220              	.LBE80:
 1221              	.LBB82:
 1222              	.LBB74:
 1223              		.loc 1 203 0
 1224 07e6 7148     		ldr	r0, .L186+56
 1225 07e8 FFF7FEFF 		bl	commands_printf
 1226              	.LVL167:
 1227 07ec 93E4     		b	.L1
 1228              	.L175:
 1229              		.loc 1 198 0
 1230 07ee 7048     		ldr	r0, .L186+60
 1231              	.L152:
 1232 07f0 FFF7FEFF 		bl	commands_printf
 1233              	.LVL168:
 1234              		.loc 1 199 0
 1235 07f4 9DF94700 		ldrsb	r0, [sp, #71]
 1236 07f8 9DF94A60 		ldrsb	r6, [sp, #74]
 1237 07fc 9DF94950 		ldrsb	r5, [sp, #73]
 1238 0800 9DF94840 		ldrsb	r4, [sp, #72]
 1239              	.LVL169:
 1240 0804 9DF94B70 		ldrsb	r7, [sp, #75]
 1241 0808 9DF94630 		ldrsb	r3, [sp, #70]
 1242 080c 9DF94520 		ldrsb	r2, [sp, #69]
 1243 0810 9DF94410 		ldrsb	r1, [sp, #68]
 1244 0814 0497     		str	r7, [sp, #16]
 1245 0816 8DE87100 		stm	sp, {r0, r4, r5, r6}
 1246 081a 6648     		ldr	r0, .L186+64
 1247 081c FFF7FEFF 		bl	commands_printf
 1248              	.LVL170:
 1249 0820 79E4     		b	.L1
 1250              	.L48:
 1251              	.LBE74:
 1252              	.LBE82:
 1253              	.LBB83:
 1254              		.loc 1 258 0
ARM GAS  C:\Users\CHRIST~1\AppData\Local\Temp\ccVm3NB4.s 			page 23


 1255 0822 6548     		ldr	r0, .L186+68
 1256 0824 FFF7FEFF 		bl	commands_printf
 1257              	.LVL171:
 1258 0828 75E4     		b	.L1
 1259              	.LVL172:
 1260              	.L174:
 1261              	.LBE83:
 1262              	.LBB84:
 1263              	.LBB75:
 1264              		.loc 1 193 0
 1265 082a 6448     		ldr	r0, .L186+72
 1266 082c E0E7     		b	.L152
 1267              	.L32:
 1268              		.loc 1 208 0
 1269 082e 6448     		ldr	r0, .L186+76
 1270 0830 FFF7FEFF 		bl	commands_printf
 1271              	.LVL173:
 1272              	.LBE75:
 1273              		.loc 1 182 0
 1274 0834 6FE4     		b	.L1
 1275              	.L171:
 1276              	.LBE84:
 1277              		.loc 1 222 0
 1278 0836 6348     		ldr	r0, .L186+80
 1279              	.LBB85:
 1280              	.LBB86:
 1281              	.LBB87:
 1282              	.LBB88:
 1283              	.LBB89:
 1284              	.LBB90:
 1285              		.file 3 "ChibiOS_3.0.2/os/rt/include/chvt.h"
 1286              		.loc 3 231 0
 1287 0838 634D     		ldr	r5, .L186+84
 1288              	.LBE90:
 1289              	.LBE89:
 1290              	.LBE88:
 1291              	.LBE87:
 1292              		.loc 1 226 0
 1293 083a 9FED648A 		vldr.32	s16, .L186+88
 1294              		.loc 1 229 0
 1295 083e DFED648A 		vldr.32	s17, .L186+92
 1296              	.LBE86:
 1297              	.LBE85:
 1298              		.loc 1 222 0
 1299 0842 FFF7FEFF 		bl	commands_printf
 1300              	.LVL174:
 1301 0846 02E0     		b	.L42
 1302              	.LVL175:
 1303              	.L40:
 1304              	.LBB101:
 1305              		.loc 1 223 0 discriminator 2
 1306 0848 0A2E     		cmp	r6, #10
 1307 084a 3FF464AC 		beq	.L1
 1308              	.LVL176:
 1309              	.L42:
 1310              	.LBB99:
 1311              		.loc 1 224 0
ARM GAS  C:\Users\CHRIST~1\AppData\Local\Temp\ccVm3NB4.s 			page 24


 1312 084e 3046     		mov	r0, r6
 1313 0850 FFF7FEFF 		bl	comm_can_get_status_msg_index
 1314              	.LVL177:
 1315              		.loc 1 226 0
 1316 0854 0168     		ldr	r1, [r0]
 1317 0856 0029     		cmp	r1, #0
 1318              		.loc 1 224 0
 1319 0858 0446     		mov	r4, r0
 1320              	.LVL178:
 1321              		.loc 1 226 0
 1322 085a B7EE007A 		vmov.f32	s14, #1.0e+0
 1323              	.LBE99:
 1324              		.loc 1 223 0
 1325 085e 06F10106 		add	r6, r6, #1
 1326              	.LVL179:
 1327              	.LBB100:
 1328              		.loc 1 226 0
 1329 0862 F1DB     		blt	.L40
 1330              	.LBB94:
 1331              	.LBB93:
 1332              	.LBB92:
 1333              	.LBB91:
 1334              		.loc 3 231 0 discriminator 1
 1335 0864 AB6A     		ldr	r3, [r5, #40]
 1336              	.LVL180:
 1337              	.LBE91:
 1338              	.LBE92:
 1339              		.loc 3 267 0 discriminator 1
 1340 0866 4268     		ldr	r2, [r0, #4]
 1341 0868 9B1A     		subs	r3, r3, r2
 1342              	.LBE93:
 1343              	.LBE94:
 1344              		.loc 1 226 0 discriminator 1
 1345 086a 07EE903A 		vmov	s15, r3	@ int
 1346 086e F8EE677A 		vcvt.f32.u32	s15, s15
 1347 0872 C7EE886A 		vdiv.f32	s13, s15, s16
 1348 0876 F4EEC76A 		vcmpe.f32	s13, s14
 1349 087a F1EE10FA 		vmrs	APSR_nzcv, FPSCR
 1350 087e E3D5     		bpl	.L40
 1351              		.loc 1 227 0
 1352 0880 5448     		ldr	r0, .L186+96
 1353              	.LVL181:
 1354 0882 FFF7FEFF 		bl	commands_printf
 1355              	.LVL182:
 1356              		.loc 1 228 0
 1357 0886 6168     		ldr	r1, [r4, #4]
 1358 0888 5348     		ldr	r0, .L186+100
 1359 088a FFF7FEFF 		bl	commands_printf
 1360              	.LVL183:
 1361              	.LBB95:
 1362              	.LBB96:
 1363              		.loc 3 267 0
 1364 088e 6268     		ldr	r2, [r4, #4]
 1365              	.LBB97:
 1366              	.LBB98:
 1367              		.loc 3 231 0
 1368 0890 AB6A     		ldr	r3, [r5, #40]
ARM GAS  C:\Users\CHRIST~1\AppData\Local\Temp\ccVm3NB4.s 			page 25


 1369              	.LVL184:
 1370              	.LBE98:
 1371              	.LBE97:
 1372              		.loc 3 267 0
 1373 0892 9B1A     		subs	r3, r3, r2
 1374              	.LBE96:
 1375              	.LBE95:
 1376              		.loc 1 229 0
 1377 0894 07EE903A 		vmov	s15, r3	@ int
 1378 0898 F8EE677A 		vcvt.f32.u32	s15, s15
 1379 089c 87EE887A 		vdiv.f32	s14, s15, s16
 1380 08a0 67EE287A 		vmul.f32	s15, s14, s17
 1381 08a4 17EE900A 		vmov	r0, s15
 1382 08a8 FFF7FEFF 		bl	__aeabi_f2d
 1383              	.LVL185:
 1384 08ac 0246     		mov	r2, r0
 1385 08ae 0B46     		mov	r3, r1
 1386 08b0 4A48     		ldr	r0, .L186+104
 1387 08b2 FFF7FEFF 		bl	commands_printf
 1388              	.LVL186:
 1389              		.loc 1 230 0
 1390 08b6 A068     		ldr	r0, [r4, #8]	@ float
 1391 08b8 FFF7FEFF 		bl	__aeabi_f2d
 1392              	.LVL187:
 1393 08bc 0246     		mov	r2, r0
 1394 08be 0B46     		mov	r3, r1
 1395 08c0 4748     		ldr	r0, .L186+108
 1396 08c2 FFF7FEFF 		bl	commands_printf
 1397              	.LVL188:
 1398              		.loc 1 231 0
 1399 08c6 E068     		ldr	r0, [r4, #12]	@ float
 1400 08c8 FFF7FEFF 		bl	__aeabi_f2d
 1401              	.LVL189:
 1402 08cc 0246     		mov	r2, r0
 1403 08ce 0B46     		mov	r3, r1
 1404 08d0 4448     		ldr	r0, .L186+112
 1405 08d2 FFF7FEFF 		bl	commands_printf
 1406              	.LVL190:
 1407              		.loc 1 232 0
 1408 08d6 2069     		ldr	r0, [r4, #16]	@ float
 1409 08d8 FFF7FEFF 		bl	__aeabi_f2d
 1410              	.LVL191:
 1411 08dc 0246     		mov	r2, r0
 1412 08de 0B46     		mov	r3, r1
 1413 08e0 4148     		ldr	r0, .L186+116
 1414 08e2 FFF7FEFF 		bl	commands_printf
 1415              	.LVL192:
 1416 08e6 AFE7     		b	.L40
 1417              	.LVL193:
 1418              	.L51:
 1419              	.LBE100:
 1420              	.LBE101:
 1421              		.loc 1 284 0
 1422 08e8 4049     		ldr	r1, .L186+120
 1423 08ea 2846     		mov	r0, r5
 1424 08ec FFF7FEFF 		bl	strcmp
 1425              	.LVL194:
ARM GAS  C:\Users\CHRIST~1\AppData\Local\Temp\ccVm3NB4.s 			page 26


 1426 08f0 0028     		cmp	r0, #0
 1427 08f2 40F08580 		bne	.L56
 1428              		.loc 1 285 0
 1429 08f6 022C     		cmp	r4, #2
 1430 08f8 7FF497AD 		bne	.L44
 1431              	.LBB102:
 1432              		.loc 1 286 0
 1433 08fc 234B     		ldr	r3, .L186+24
 1434              		.loc 1 287 0
 1435 08fe 1998     		ldr	r0, [sp, #100]
 1436 0900 2349     		ldr	r1, .L186+28
 1437              		.loc 1 286 0
 1438 0902 1093     		str	r3, [sp, #64]	@ float
 1439              		.loc 1 287 0
 1440 0904 10AA     		add	r2, sp, #64
 1441 0906 FFF7FEFF 		bl	sscanf
 1442              	.LVL195:
 1443              		.loc 1 289 0
 1444 090a DDED107A 		vldr.32	s15, [sp, #64]
 1445 090e F5EEC07A 		vcmpe.f32	s15, #0
 1446 0912 F1EE10FA 		vmrs	APSR_nzcv, FPSCR
 1447 0916 7FF732AE 		ble	.L85
 1448              		.loc 1 289 0 is_stmt 0 discriminator 1
 1449 091a 9FED357A 		vldr.32	s14, .L186+124
 1450 091e F4EEC77A 		vcmpe.f32	s15, s14
 1451 0922 F1EE10FA 		vmrs	APSR_nzcv, FPSCR
 1452 0926 7FF52AAE 		bpl	.L85
 1453              	.LBB103:
 1454              		.loc 1 290 0 is_stmt 1
 1455 092a 1A4B     		ldr	r3, .L186+32
 1456              		.loc 1 291 0
 1457 092c 314A     		ldr	r2, .L186+128
 1458 092e C3F8A820 		str	r2, [r3, #168]	@ float
 1459              		.loc 1 292 0
 1460 0932 1846     		mov	r0, r3
 1461              		.loc 1 290 0
 1462 0934 0221     		movs	r1, #2
 1463 0936 9970     		strb	r1, [r3, #2]
 1464              		.loc 1 292 0
 1465 0938 FFF7FEFF 		bl	mc_interface_set_configuration
 1466              	.LVL196:
 1467              		.loc 1 295 0
 1468 093c 11A9     		add	r1, sp, #68
 1469 093e C820     		movs	r0, #200
 1470 0940 9DED100A 		vldr.32	s0, [sp, #64]
 1471 0944 FFF7FEFF 		bl	mcpwm_foc_measure_inductance
 1472              	.LVL197:
 1473              		.loc 1 296 0
 1474 0948 10EE100A 		vmov	r0, s0
 1475 094c FFF7FEFF 		bl	__aeabi_f2d
 1476              	.LVL198:
 1477 0950 0446     		mov	r4, r0
 1478              	.LVL199:
 1479 0952 1198     		ldr	r0, [sp, #68]	@ float
 1480 0954 0D46     		mov	r5, r1
 1481 0956 FFF7FEFF 		bl	__aeabi_f2d
 1482              	.LVL200:
ARM GAS  C:\Users\CHRIST~1\AppData\Local\Temp\ccVm3NB4.s 			page 27


 1483 095a 2246     		mov	r2, r4
 1484 095c CDE90001 		strd	r0, [sp]
 1485 0960 2B46     		mov	r3, r5
 1486 0962 2548     		ldr	r0, .L186+132
 1487 0964 FFF7FEFF 		bl	commands_printf
 1488              	.LVL201:
 1489              		.loc 1 298 0
 1490 0968 2448     		ldr	r0, .L186+136
 1491 096a FFF7FEFF 		bl	mc_interface_set_configuration
 1492              	.LVL202:
 1493              	.LBE103:
 1494              		.loc 1 289 0
 1495 096e FFF7D2BB 		b	.L1
 1496              	.L187:
 1497 0972 00BF     		.align	2
 1498              	.L186:
 1499 0974 68060000 		.word	.LC75
 1500 0978 80060000 		.word	.LC76
 1501 097c A0060000 		.word	.LC77
 1502 0980 F4040000 		.word	.LC64
 1503 0984 14050000 		.word	.LC65
 1504 0988 B8050000 		.word	.LC70
 1505 098c 000080BF 		.word	-1082130432
 1506 0990 F0040000 		.word	.LC63
 1507 0994 00000000 		.word	.LANCHOR0
 1508 0998 AC070000 		.word	.LC87
 1509 099c BC070000 		.word	.LC88
 1510 09a0 00000000 		.word	.LC0
 1511 09a4 08000000 		.word	.LC1
 1512 09a8 CC070000 		.word	.LC89
 1513 09ac 88050000 		.word	.LC69
 1514 09b0 68050000 		.word	.LC68
 1515 09b4 48050000 		.word	.LC67
 1516 09b8 DC070000 		.word	.LC90
 1517 09bc 2C050000 		.word	.LC66
 1518 09c0 E8050000 		.word	.LC71
 1519 09c4 C8060000 		.word	.LC79
 1520 09c8 00000000 		.word	ch
 1521 09cc 00401C46 		.word	1176256512
 1522 09d0 00007A44 		.word	1148846080
 1523 09d4 F8060000 		.word	.LC80
 1524 09d8 10070000 		.word	.LC81
 1525 09dc 28070000 		.word	.LC82
 1526 09e0 44070000 		.word	.LC83
 1527 09e4 60070000 		.word	.LC84
 1528 09e8 7C070000 		.word	.LC85
 1529 09ec 40080000 		.word	.LC94
 1530 09f0 6666663F 		.word	1063675494
 1531 09f4 00803B45 		.word	1161527296
 1532 09f8 4C080000 		.word	.LC95
 1533 09fc 00000000 		.word	.LANCHOR1
 1534              	.LVL203:
 1535              	.L56:
 1536              	.LBE102:
 1537              		.loc 1 305 0
 1538 0a00 CB49     		ldr	r1, .L188
 1539 0a02 2846     		mov	r0, r5
ARM GAS  C:\Users\CHRIST~1\AppData\Local\Temp\ccVm3NB4.s 			page 28


 1540 0a04 FFF7FEFF 		bl	strcmp
 1541              	.LVL204:
 1542 0a08 0028     		cmp	r0, #0
 1543 0a0a 53D1     		bne	.L61
 1544              		.loc 1 306 0
 1545 0a0c 052C     		cmp	r4, #5
 1546 0a0e 7FF40CAD 		bne	.L44
 1547              	.LBB104:
 1548              		.loc 1 307 0
 1549 0a12 C84B     		ldr	r3, .L188+4
 1550              		.loc 1 311 0
 1551 0a14 C849     		ldr	r1, .L188+8
 1552 0a16 1998     		ldr	r0, [sp, #100]
 1553              		.loc 1 307 0
 1554 0a18 0D93     		str	r3, [sp, #52]	@ float
 1555              		.loc 1 311 0
 1556 0a1a 0DAA     		add	r2, sp, #52
 1557              		.loc 1 308 0
 1558 0a1c 0E93     		str	r3, [sp, #56]	@ float
 1559              		.loc 1 309 0
 1560 0a1e 0F93     		str	r3, [sp, #60]	@ float
 1561              		.loc 1 310 0
 1562 0a20 1093     		str	r3, [sp, #64]	@ float
 1563              		.loc 1 311 0
 1564 0a22 FFF7FEFF 		bl	sscanf
 1565              	.LVL205:
 1566              		.loc 1 312 0
 1567 0a26 0EAA     		add	r2, sp, #56
 1568 0a28 C349     		ldr	r1, .L188+8
 1569 0a2a 1A98     		ldr	r0, [sp, #104]
 1570 0a2c FFF7FEFF 		bl	sscanf
 1571              	.LVL206:
 1572              		.loc 1 313 0
 1573 0a30 0FAA     		add	r2, sp, #60
 1574 0a32 C149     		ldr	r1, .L188+8
 1575 0a34 1B98     		ldr	r0, [sp, #108]
 1576 0a36 FFF7FEFF 		bl	sscanf
 1577              	.LVL207:
 1578              		.loc 1 314 0
 1579 0a3a 10AA     		add	r2, sp, #64
 1580 0a3c 1C98     		ldr	r0, [sp, #112]
 1581 0a3e BE49     		ldr	r1, .L188+8
 1582 0a40 FFF7FEFF 		bl	sscanf
 1583              	.LVL208:
 1584              		.loc 1 316 0
 1585 0a44 9DED0D0A 		vldr.32	s0, [sp, #52]
 1586 0a48 B5EEC00A 		vcmpe.f32	s0, #0
 1587 0a4c F1EE10FA 		vmrs	APSR_nzcv, FPSCR
 1588 0a50 7FF795AD 		ble	.L85
 1589              		.loc 1 316 0 is_stmt 0 discriminator 1
 1590 0a54 B94B     		ldr	r3, .L188+12
 1591 0a56 D3ED017A 		vldr.32	s15, [r3, #4]
 1592 0a5a B4EEE70A 		vcmpe.f32	s0, s15
 1593 0a5e F1EE10FA 		vmrs	APSR_nzcv, FPSCR
 1594 0a62 3FF68CAD 		bhi	.L85
 1595              		.loc 1 316 0 discriminator 2
 1596 0a66 9DED0F1A 		vldr.32	s2, [sp, #60]
ARM GAS  C:\Users\CHRIST~1\AppData\Local\Temp\ccVm3NB4.s 			page 29


 1597 0a6a B5EEC01A 		vcmpe.f32	s2, #0
 1598 0a6e F1EE10FA 		vmrs	APSR_nzcv, FPSCR
 1599 0a72 7FF784AD 		ble	.L85
 1600              		.loc 1 316 0 discriminator 3
 1601 0a76 DDED0E0A 		vldr.32	s1, [sp, #56]
 1602 0a7a DFEDB17A 		vldr.32	s15, .L188+16
 1603 0a7e F4EEE70A 		vcmpe.f32	s1, s15
 1604 0a82 F1EE10FA 		vmrs	APSR_nzcv, FPSCR
 1605 0a86 7FF77AAD 		ble	.L85
 1606              		.loc 1 316 0 discriminator 4
 1607 0a8a DDED101A 		vldr.32	s3, [sp, #64]
 1608 0a8e F5EEC01A 		vcmpe.f32	s3, #0
 1609 0a92 F1EE10FA 		vmrs	APSR_nzcv, FPSCR
 1610 0a96 FFF672AD 		blt	.L85
 1611              	.LBB105:
 1612              		.loc 1 318 0 is_stmt 1
 1613 0a9a 11A8     		add	r0, sp, #68
 1614 0a9c FFF7FEFF 		bl	conf_general_measure_flux_linkage
 1615              	.LVL209:
 1616              		.loc 1 319 0
 1617 0aa0 1198     		ldr	r0, [sp, #68]	@ float
 1618              	.LVL210:
 1619              	.L153:
 1620              	.LBE105:
 1621              	.LBE104:
 1622              	.LBB106:
 1623              	.LBB107:
 1624              		.loc 1 382 0
 1625 0aa2 FFF7FEFF 		bl	__aeabi_f2d
 1626              	.LVL211:
 1627 0aa6 0246     		mov	r2, r0
 1628 0aa8 0B46     		mov	r3, r1
 1629 0aaa A648     		ldr	r0, .L188+20
 1630 0aac FFF7FEFF 		bl	commands_printf
 1631              	.LVL212:
 1632              	.LBE107:
 1633 0ab0 FFF731BB 		b	.L1
 1634              	.LVL213:
 1635              	.L61:
 1636              	.LBE106:
 1637              		.loc 1 326 0
 1638 0ab4 A449     		ldr	r1, .L188+24
 1639 0ab6 2846     		mov	r0, r5
 1640 0ab8 FFF7FEFF 		bl	strcmp
 1641              	.LVL214:
 1642 0abc 0028     		cmp	r0, #0
 1643 0abe 00F08380 		beq	.L177
 1644              		.loc 1 337 0
 1645 0ac2 A249     		ldr	r1, .L188+28
 1646 0ac4 2846     		mov	r0, r5
 1647 0ac6 FFF7FEFF 		bl	strcmp
 1648              	.LVL215:
 1649 0aca 0646     		mov	r6, r0
 1650 0acc 0028     		cmp	r0, #0
 1651 0ace 40F09D80 		bne	.L70
 1652              		.loc 1 338 0
 1653 0ad2 022C     		cmp	r4, #2
ARM GAS  C:\Users\CHRIST~1\AppData\Local\Temp\ccVm3NB4.s 			page 30


 1654 0ad4 7FF4A9AC 		bne	.L44
 1655              	.LBB112:
 1656              		.loc 1 339 0
 1657 0ad8 11AD     		add	r5, sp, #68
 1658 0ada 964B     		ldr	r3, .L188+4
 1659              		.loc 1 340 0
 1660 0adc 1998     		ldr	r0, [sp, #100]
 1661 0ade 9649     		ldr	r1, .L188+8
 1662              		.loc 1 339 0
 1663 0ae0 2B60     		str	r3, [r5]	@ float
 1664              		.loc 1 340 0
 1665 0ae2 2A46     		mov	r2, r5
 1666 0ae4 FFF7FEFF 		bl	sscanf
 1667              	.LVL216:
 1668              		.loc 1 342 0
 1669 0ae8 D5ED007A 		vldr.32	s15, [r5]
 1670 0aec F5EEC07A 		vcmpe.f32	s15, #0
 1671 0af0 F1EE10FA 		vmrs	APSR_nzcv, FPSCR
 1672 0af4 7FF743AD 		ble	.L85
 1673              	.LBB111:
 1674              		.loc 1 343 0
 1675 0af8 904F     		ldr	r7, .L188+12
 1676              	.LBB108:
 1677              		.loc 1 354 0
 1678 0afa 9FED958A 		vldr.32	s16, .L188+32
 1679              	.LBE108:
 1680              		.loc 1 343 0
 1681 0afe BC70     		strb	r4, [r7, #2]
 1682              		.loc 1 344 0
 1683 0b00 3846     		mov	r0, r7
 1684 0b02 FFF7FEFF 		bl	mc_interface_set_configuration
 1685              	.LVL217:
 1686              		.loc 1 345 0
 1687 0b06 97ED309A 		vldr.32	s18, [r7, #192]
 1688 0b0a F7EE087A 		vmov.f32	s15, #1.5e+0
 1689 0b0e 29EE279A 		vmul.f32	s18, s18, s15
 1690              	.LVL218:
 1691              		.loc 1 348 0
 1692 0b12 FFF7FEFF 		bl	timeout_get_timeout_msec
 1693              	.LVL219:
 1694 0b16 0746     		mov	r7, r0
 1695              	.LVL220:
 1696              		.loc 1 349 0
 1697 0b18 FFF7FEFF 		bl	timeout_get_brake_current
 1698              	.LVL221:
 1699 0b1c F0EE40AA 		vmov.f32	s21, s0
 1700              	.LVL222:
 1701              		.loc 1 350 0
 1702 0b20 FFF7FEFF 		bl	timeout_reset
 1703              	.LVL223:
 1704              		.loc 1 351 0
 1705 0b24 9FED8B0A 		vldr.32	s0, .L188+36
 1706 0b28 4EF66020 		movw	r0, #60000
 1707 0b2c FFF7FEFF 		bl	timeout_configure
 1708              	.LVL224:
 1709              	.L73:
 1710              	.LBB109:
ARM GAS  C:\Users\CHRIST~1\AppData\Local\Temp\ccVm3NB4.s 			page 31


 1711              		.loc 1 354 0 discriminator 3
 1712 0b30 07EE906A 		vmov	s15, r6	@ int
 1713 0b34 B8EEE77A 		vcvt.f32.s32	s14, s15
 1714 0b38 D5ED007A 		vldr.32	s15, [r5]
 1715 0b3c 87EE080A 		vdiv.f32	s0, s14, s16
 1716              		.loc 1 353 0 discriminator 3
 1717 0b40 0136     		adds	r6, r6, #1
 1718              	.LVL225:
 1719              		.loc 1 354 0 discriminator 3
 1720 0b42 20EE270A 		vmul.f32	s0, s0, s15
 1721 0b46 FFF7FEFF 		bl	mc_interface_set_duty
 1722              	.LVL226:
 1723              		.loc 1 355 0 discriminator 3
 1724 0b4a C820     		movs	r0, #200
 1725 0b4c FFF7FEFF 		bl	chThdSleep
 1726              	.LVL227:
 1727              		.loc 1 353 0 discriminator 3
 1728 0b50 642E     		cmp	r6, #100
 1729 0b52 EDD1     		bne	.L73
 1730 0b54 9FED7F8A 		vldr.32	s16, .L188+36
 1731 0b58 4FF47A74 		mov	r4, #1000
 1732              	.LVL228:
 1733 0b5c F0EE488A 		vmov.f32	s17, s16
 1734 0b60 F0EE489A 		vmov.f32	s19, s16
 1735 0b64 B0EE48AA 		vmov.f32	s20, s16
 1736              	.LBE109:
 1737              	.LBB110:
 1738              		.loc 1 366 0 discriminator 3
 1739 0b68 B7EE00BA 		vmov.f32	s22, #1.0e+0
 1740              	.L74:
 1741              	.LVL229:
 1742              		.loc 1 363 0 discriminator 3
 1743 0b6c FFF7FEFF 		bl	mcpwm_foc_get_vq
 1744              	.LVL230:
 1745 0b70 3AEE00AA 		vadd.f32	s20, s20, s0
 1746              	.LVL231:
 1747              		.loc 1 364 0 discriminator 3
 1748 0b74 FFF7FEFF 		bl	mc_interface_get_rpm
 1749              	.LVL232:
 1750 0b78 79EE809A 		vadd.f32	s19, s19, s0
 1751              	.LVL233:
 1752              		.loc 1 365 0 discriminator 3
 1753 0b7c FFF7FEFF 		bl	mc_interface_get_tot_current_directional
 1754              	.LVL234:
 1755              		.loc 1 367 0 discriminator 3
 1756 0b80 0A20     		movs	r0, #10
 1757              		.loc 1 365 0 discriminator 3
 1758 0b82 38EE008A 		vadd.f32	s16, s16, s0
 1759              	.LVL235:
 1760              		.loc 1 367 0 discriminator 3
 1761 0b86 FFF7FEFF 		bl	chThdSleep
 1762              	.LVL236:
 1763              		.loc 1 362 0 discriminator 3
 1764 0b8a 013C     		subs	r4, r4, #1
 1765              	.LVL237:
 1766              		.loc 1 366 0 discriminator 3
 1767 0b8c 78EE8B8A 		vadd.f32	s17, s17, s22
ARM GAS  C:\Users\CHRIST~1\AppData\Local\Temp\ccVm3NB4.s 			page 32


 1768              	.LVL238:
 1769              		.loc 1 362 0 discriminator 3
 1770 0b90 ECD1     		bne	.L74
 1771              	.LBE110:
 1772              		.loc 1 370 0
 1773 0b92 FFF7FEFF 		bl	mc_interface_release_motor
 1774              	.LVL239:
 1775              		.loc 1 371 0
 1776 0b96 7048     		ldr	r0, .L188+40
 1777 0b98 FFF7FEFF 		bl	mc_interface_set_configuration
 1778              	.LVL240:
 1779              		.loc 1 374 0
 1780 0b9c 3846     		mov	r0, r7
 1781 0b9e B0EE6A0A 		vmov.f32	s0, s21
 1782 0ba2 FFF7FEFF 		bl	timeout_configure
 1783              	.LVL241:
 1784              		.loc 1 378 0
 1785 0ba6 C8EE286A 		vdiv.f32	s13, s16, s17
 1786              	.LVL242:
 1787              		.loc 1 376 0
 1788 0baa 8AEE287A 		vdiv.f32	s14, s20, s17
 1789              	.LVL243:
 1790              		.loc 1 377 0
 1791 0bae C9EEA87A 		vdiv.f32	s15, s19, s17
 1792              	.LVL244:
 1793              		.loc 1 380 0
 1794 0bb2 A9EE667A 		vfms.f32	s14, s18, s13
 1795              	.LVL245:
 1796 0bb6 DFED696A 		vldr.32	s13, .L188+44
 1797              	.LVL246:
 1798 0bba 67EEA67A 		vmul.f32	s15, s15, s13
 1799              	.LVL247:
 1800              		.loc 1 382 0
 1801 0bbe C7EE276A 		vdiv.f32	s13, s14, s15
 1802 0bc2 16EE900A 		vmov	r0, s13
 1803 0bc6 6CE7     		b	.L153
 1804              	.LVL248:
 1805              	.L177:
 1806              	.LBE111:
 1807              	.LBE112:
 1808              	.LBB113:
 1809              		.loc 1 327 0 discriminator 21
 1810 0bc8 5C4B     		ldr	r3, .L188+12
 1811 0bca 0222     		movs	r2, #2
 1812              		.loc 1 328 0 discriminator 21
 1813 0bcc 1846     		mov	r0, r3
 1814              		.loc 1 327 0 discriminator 21
 1815 0bce 9A70     		strb	r2, [r3, #2]
 1816              		.loc 1 328 0 discriminator 21
 1817 0bd0 FFF7FEFF 		bl	mc_interface_set_configuration
 1818              	.LVL249:
 1819              		.loc 1 330 0 discriminator 21
 1820 0bd4 0023     		movs	r3, #0
 1821              		.loc 1 332 0 discriminator 21
 1822 0bd6 11A9     		add	r1, sp, #68
 1823 0bd8 10A8     		add	r0, sp, #64
 1824              		.loc 1 330 0 discriminator 21
ARM GAS  C:\Users\CHRIST~1\AppData\Local\Temp\ccVm3NB4.s 			page 33


 1825 0bda 1093     		str	r3, [sp, #64]	@ float
 1826              		.loc 1 331 0 discriminator 21
 1827 0bdc 1193     		str	r3, [sp, #68]	@ float
 1828              		.loc 1 332 0 discriminator 21
 1829 0bde FFF7FEFF 		bl	mcpwm_foc_measure_res_ind
 1830              	.LVL250:
 1831              		.loc 1 333 0 discriminator 21
 1832 0be2 1098     		ldr	r0, [sp, #64]	@ float
 1833 0be4 FFF7FEFF 		bl	__aeabi_f2d
 1834              	.LVL251:
 1835 0be8 0246     		mov	r2, r0
 1836 0bea 0B46     		mov	r3, r1
 1837 0bec 5C48     		ldr	r0, .L188+48
 1838 0bee FFF7FEFF 		bl	commands_printf
 1839              	.LVL252:
 1840              		.loc 1 334 0 discriminator 21
 1841 0bf2 1198     		ldr	r0, [sp, #68]	@ float
 1842 0bf4 FFF7FEFF 		bl	__aeabi_f2d
 1843              	.LVL253:
 1844 0bf8 0246     		mov	r2, r0
 1845 0bfa 0B46     		mov	r3, r1
 1846 0bfc 5948     		ldr	r0, .L188+52
 1847 0bfe FFF7FEFF 		bl	commands_printf
 1848              	.LVL254:
 1849              		.loc 1 336 0 discriminator 21
 1850 0c02 5548     		ldr	r0, .L188+40
 1851 0c04 FFF7FEFF 		bl	mc_interface_set_configuration
 1852              	.LVL255:
 1853              	.LBE113:
 1854 0c08 FFF785BA 		b	.L1
 1855              	.L70:
 1856              		.loc 1 389 0
 1857 0c0c 5649     		ldr	r1, .L188+56
 1858 0c0e 2846     		mov	r0, r5
 1859 0c10 FFF7FEFF 		bl	strcmp
 1860              	.LVL256:
 1861 0c14 0028     		cmp	r0, #0
 1862 0c16 00F00481 		beq	.L178
 1863              		.loc 1 392 0
 1864 0c1a 5449     		ldr	r1, .L188+60
 1865 0c1c 2846     		mov	r0, r5
 1866 0c1e FFF7FEFF 		bl	strcmp
 1867              	.LVL257:
 1868 0c22 0028     		cmp	r0, #0
 1869 0c24 00F0C080 		beq	.L179
 1870              		.loc 1 403 0
 1871 0c28 5149     		ldr	r1, .L188+64
 1872 0c2a 2846     		mov	r0, r5
 1873 0c2c FFF7FEFF 		bl	strcmp
 1874              	.LVL258:
 1875 0c30 0028     		cmp	r0, #0
 1876 0c32 00F0FD80 		beq	.L80
 1877              		.loc 1 427 0
 1878 0c36 4F49     		ldr	r1, .L188+68
 1879 0c38 2846     		mov	r0, r5
 1880 0c3a FFF7FEFF 		bl	strcmp
 1881              	.LVL259:
ARM GAS  C:\Users\CHRIST~1\AppData\Local\Temp\ccVm3NB4.s 			page 34


 1882 0c3e 0028     		cmp	r0, #0
 1883 0c40 00F0F680 		beq	.L80
 1884              		.loc 1 454 0
 1885 0c44 4C49     		ldr	r1, .L188+72
 1886 0c46 2846     		mov	r0, r5
 1887 0c48 FFF7FEFF 		bl	strcmp
 1888              	.LVL260:
 1889 0c4c 0028     		cmp	r0, #0
 1890 0c4e 00F0EF80 		beq	.L80
 1891              		.loc 1 479 0
 1892 0c52 4A49     		ldr	r1, .L188+76
 1893 0c54 2846     		mov	r0, r5
 1894 0c56 FFF7FEFF 		bl	strcmp
 1895              	.LVL261:
 1896 0c5a 0028     		cmp	r0, #0
 1897 0c5c 00F0E880 		beq	.L80
 1898              		.loc 1 485 0
 1899 0c60 4749     		ldr	r1, .L188+80
 1900 0c62 2846     		mov	r0, r5
 1901 0c64 FFF7FEFF 		bl	strcmp
 1902              	.LVL262:
 1903 0c68 0028     		cmp	r0, #0
 1904 0c6a 00F0E180 		beq	.L80
 1905              		.loc 1 491 0
 1906 0c6e 4549     		ldr	r1, .L188+84
 1907 0c70 2846     		mov	r0, r5
 1908 0c72 FFF7FEFF 		bl	strcmp
 1909              	.LVL263:
 1910 0c76 0028     		cmp	r0, #0
 1911 0c78 55D0     		beq	.L82
 1912              		.loc 1 515 0
 1913 0c7a 4349     		ldr	r1, .L188+88
 1914 0c7c 2846     		mov	r0, r5
 1915 0c7e FFF7FEFF 		bl	strcmp
 1916              	.LVL264:
 1917 0c82 0028     		cmp	r0, #0
 1918 0c84 4FD0     		beq	.L82
 1919              		.loc 1 542 0
 1920 0c86 4149     		ldr	r1, .L188+92
 1921 0c88 2846     		mov	r0, r5
 1922 0c8a FFF7FEFF 		bl	strcmp
 1923              	.LVL265:
 1924 0c8e 38BB     		cbnz	r0, .L83
 1925              		.loc 1 543 0
 1926 0c90 032C     		cmp	r4, #3
 1927 0c92 04D0     		beq	.L180
 1928              		.loc 1 555 0
 1929 0c94 3E48     		ldr	r0, .L188+96
 1930 0c96 FFF7FEFF 		bl	commands_printf
 1931              	.LVL266:
 1932 0c9a FFF73CBA 		b	.L1
 1933              	.L180:
 1934              	.LBB114:
 1935              		.loc 1 544 0
 1936 0c9e 254B     		ldr	r3, .L188+4
 1937              		.loc 1 546 0
 1938 0ca0 2549     		ldr	r1, .L188+8
ARM GAS  C:\Users\CHRIST~1\AppData\Local\Temp\ccVm3NB4.s 			page 35


 1939 0ca2 1998     		ldr	r0, [sp, #100]
 1940              		.loc 1 544 0
 1941 0ca4 1093     		str	r3, [sp, #64]	@ float
 1942              		.loc 1 546 0
 1943 0ca6 10AA     		add	r2, sp, #64
 1944              		.loc 1 545 0
 1945 0ca8 1193     		str	r3, [sp, #68]	@ float
 1946              		.loc 1 546 0
 1947 0caa FFF7FEFF 		bl	sscanf
 1948              	.LVL267:
 1949              		.loc 1 547 0
 1950 0cae 11AA     		add	r2, sp, #68
 1951 0cb0 1A98     		ldr	r0, [sp, #104]
 1952 0cb2 2149     		ldr	r1, .L188+8
 1953 0cb4 FFF7FEFF 		bl	sscanf
 1954              	.LVL268:
 1955              		.loc 1 549 0
 1956 0cb8 9DED100A 		vldr.32	s0, [sp, #64]
 1957 0cbc B5EEC00A 		vcmpe.f32	s0, #0
 1958 0cc0 F1EE10FA 		vmrs	APSR_nzcv, FPSCR
 1959 0cc4 FFF65BAC 		blt	.L85
 1960              		.loc 1 549 0 is_stmt 0 discriminator 1
 1961 0cc8 DDED110A 		vldr.32	s1, [sp, #68]
 1962 0ccc F5EEC00A 		vcmpe.f32	s1, #0
 1963 0cd0 F1EE10FA 		vmrs	APSR_nzcv, FPSCR
 1964 0cd4 FFF653AC 		blt	.L85
 1965              		.loc 1 550 0 is_stmt 1
 1966 0cd8 FFF7FEFF 		bl	mcpwm_foc_set_openloop
 1967              	.LVL269:
 1968 0cdc FFF71BBA 		b	.L1
 1969              	.L83:
 1970              	.LBE114:
 1971              		.loc 1 560 0
 1972 0ce0 2C49     		ldr	r1, .L188+100
 1973 0ce2 2846     		mov	r0, r5
 1974 0ce4 FFF7FEFF 		bl	strcmp
 1975              	.LVL270:
 1976 0ce8 0646     		mov	r6, r0
 1977 0cea 0028     		cmp	r0, #0
 1978 0cec 00F0AC80 		beq	.L89
 1979              	.LVL271:
 1980              	.LBB115:
 1981              	.LBB116:
 1982              		.loc 1 683 0 discriminator 1
 1983 0cf0 294B     		ldr	r3, .L188+104
 1984 0cf2 D3F80090 		ldr	r9, [r3]
 1985 0cf6 B9F1000F 		cmp	r9, #0
 1986 0cfa 0EDD     		ble	.L91
 1987 0cfc 274E     		ldr	r6, .L188+108
 1988              		.loc 1 683 0 is_stmt 0
 1989 0cfe 0027     		movs	r7, #0
 1990              	.LVL272:
 1991              	.L100:
 1992              		.loc 1 684 0 is_stmt 1
 1993 0d00 4FEA0718 		lsl	r8, r7, #4
 1994 0d04 2846     		mov	r0, r5
 1995 0d06 56F80810 		ldr	r1, [r6, r8]
ARM GAS  C:\Users\CHRIST~1\AppData\Local\Temp\ccVm3NB4.s 			page 36


 1996 0d0a FFF7FEFF 		bl	strcmp
 1997              	.LVL273:
 1998              		.loc 1 683 0
 1999 0d0e 0137     		adds	r7, r7, #1
 2000              	.LVL274:
 2001              		.loc 1 684 0
 2002 0d10 0028     		cmp	r0, #0
 2003 0d12 00F09280 		beq	.L181
 2004              		.loc 1 683 0 discriminator 2
 2005 0d16 B945     		cmp	r9, r7
 2006 0d18 F2D1     		bne	.L100
 2007              	.LVL275:
 2008              	.L91:
 2009              	.LBE116:
 2010              		.loc 1 692 0
 2011 0d1a 2946     		mov	r1, r5
 2012 0d1c 2048     		ldr	r0, .L188+112
 2013 0d1e FFF7FEFF 		bl	commands_printf
 2014              	.LVL276:
 2015 0d22 FFF7F8B9 		b	.L1
 2016              	.LVL277:
 2017              	.L82:
 2018              	.LBE115:
 2019              		.loc 1 513 0
 2020 0d26 1F48     		ldr	r0, .L188+116
 2021 0d28 FFF7FEFF 		bl	commands_printf
 2022              	.LVL278:
 2023 0d2c FFF7F3B9 		b	.L1
 2024              	.L189:
 2025              		.align	2
 2026              	.L188:
 2027 0d30 74080000 		.word	.LC96
 2028 0d34 000080BF 		.word	-1082130432
 2029 0d38 F0040000 		.word	.LC63
 2030 0d3c 00000000 		.word	.LANCHOR0
 2031 0d40 0AD7A33C 		.word	1017370378
 2032 0d44 84080000 		.word	.LC97
 2033 0d48 98080000 		.word	.LC98
 2034 0d4c E0080000 		.word	.LC101
 2035 0d50 0000C842 		.word	1120403456
 2036 0d54 00000000 		.word	0
 2037 0d58 00000000 		.word	.LANCHOR1
 2038 0d5c 5077D63D 		.word	1037465424
 2039 0d60 A8080000 		.word	.LC99
 2040 0d64 C0080000 		.word	.LC100
 2041 0d68 F4080000 		.word	.LC102
 2042 0d6c 00090000 		.word	.LC103
 2043 0d70 8C090000 		.word	.LC109
 2044 0d74 C8090000 		.word	.LC111
 2045 0d78 DC090000 		.word	.LC112
 2046 0d7c F0090000 		.word	.LC113
 2047 0d80 080A0000 		.word	.LC114
 2048 0d84 200A0000 		.word	.LC115
 2049 0d88 5C0A0000 		.word	.LC117
 2050 0d8c 700A0000 		.word	.LC118
 2051 0d90 800A0000 		.word	.LC119
 2052 0d94 A80A0000 		.word	.LC120
ARM GAS  C:\Users\CHRIST~1\AppData\Local\Temp\ccVm3NB4.s 			page 37


 2053 0d98 00000000 		.word	.LANCHOR5
 2054 0d9c 00000000 		.word	.LANCHOR6
 2055 0da0 30110000 		.word	.LC161
 2056 0da4 340A0000 		.word	.LC116
 2057              	.L179:
 2058              		.loc 1 393 0
 2059 0da8 1D22     		movs	r2, #29
 2060 0daa 0321     		movs	r1, #3
 2061 0dac 8E48     		ldr	r0, .L190
 2062 0dae FFF7FEFF 		bl	commands_printf
 2063              	.LVL279:
 2064              		.loc 1 395 0
 2065 0db2 8E49     		ldr	r1, .L190+4
 2066 0db4 8E48     		ldr	r0, .L190+8
 2067 0db6 FFF7FEFF 		bl	commands_printf
 2068              	.LVL280:
 2069              		.loc 1 400 0
 2070 0dba 8E48     		ldr	r0, .L190+12
 2071              		.loc 1 398 0
 2072 0dbc 8E4B     		ldr	r3, .L190+16
 2073 0dbe 8F4A     		ldr	r2, .L190+20
 2074 0dc0 8F49     		ldr	r1, .L190+24
 2075              		.loc 1 397 0
 2076 0dc2 0478     		ldrb	r4, [r0]	@ zero_extendqisi2
 2077              	.LVL281:
 2078 0dc4 1B78     		ldrb	r3, [r3]	@ zero_extendqisi2
 2079 0dc6 1278     		ldrb	r2, [r2]	@ zero_extendqisi2
 2080 0dc8 0978     		ldrb	r1, [r1]	@ zero_extendqisi2
 2081 0dca 0894     		str	r4, [sp, #32]
 2082 0dcc 10F8014C 		ldrb	r4, [r0, #-1]	@ zero_extendqisi2
 2083 0dd0 0794     		str	r4, [sp, #28]
 2084 0dd2 10F8024C 		ldrb	r4, [r0, #-2]	@ zero_extendqisi2
 2085 0dd6 0694     		str	r4, [sp, #24]
 2086 0dd8 10F8034C 		ldrb	r4, [r0, #-3]	@ zero_extendqisi2
 2087 0ddc 0594     		str	r4, [sp, #20]
 2088 0dde 10F8044C 		ldrb	r4, [r0, #-4]	@ zero_extendqisi2
 2089 0de2 0494     		str	r4, [sp, #16]
 2090 0de4 10F8054C 		ldrb	r4, [r0, #-5]	@ zero_extendqisi2
 2091 0de8 0394     		str	r4, [sp, #12]
 2092 0dea 10F8064C 		ldrb	r4, [r0, #-6]	@ zero_extendqisi2
 2093 0dee 0294     		str	r4, [sp, #8]
 2094 0df0 10F8074C 		ldrb	r4, [r0, #-7]	@ zero_extendqisi2
 2095 0df4 0194     		str	r4, [sp, #4]
 2096              		.loc 1 398 0
 2097 0df6 0838     		subs	r0, r0, #8
 2098              		.loc 1 397 0
 2099 0df8 0078     		ldrb	r0, [r0]	@ zero_extendqisi2
 2100 0dfa 0090     		str	r0, [sp]
 2101 0dfc 8148     		ldr	r0, .L190+28
 2102 0dfe FFF7FEFF 		bl	commands_printf
 2103              	.LVL282:
 2104              		.loc 1 401 0
 2105 0e02 814B     		ldr	r3, .L190+32
 2106 0e04 814A     		ldr	r2, .L190+36
 2107 0e06 1978     		ldrb	r1, [r3]	@ zero_extendqisi2
 2108 0e08 814B     		ldr	r3, .L190+40
 2109 0e0a 8248     		ldr	r0, .L190+44
ARM GAS  C:\Users\CHRIST~1\AppData\Local\Temp\ccVm3NB4.s 			page 38


 2110 0e0c 0029     		cmp	r1, #0
 2111 0e0e 14BF     		ite	ne
 2112 0e10 1146     		movne	r1, r2
 2113 0e12 1946     		moveq	r1, r3
 2114 0e14 FFF7FEFF 		bl	commands_printf
 2115              	.LVL283:
 2116              		.loc 1 402 0
 2117 0e18 7F48     		ldr	r0, .L190+48
 2118 0e1a FFF7FEFF 		bl	commands_printf
 2119              	.LVL284:
 2120 0e1e FFF77AB9 		b	.L1
 2121              	.LVL285:
 2122              	.L178:
 2123              		.loc 1 390 0
 2124 0e22 FFF7FEFF 		bl	mcpwm_foc_print_state
 2125              	.LVL286:
 2126              		.loc 1 391 0
 2127 0e26 7C48     		ldr	r0, .L190+48
 2128 0e28 FFF7FEFF 		bl	commands_printf
 2129              	.LVL287:
 2130 0e2c FFF773B9 		b	.L1
 2131              	.L80:
 2132              		.loc 1 425 0
 2133 0e30 7A48     		ldr	r0, .L190+52
 2134 0e32 FFF7FEFF 		bl	commands_printf
 2135              	.LVL288:
 2136 0e36 FFF76EB9 		b	.L1
 2137              	.LVL289:
 2138              	.L181:
 2139              	.LBB118:
 2140              	.LBB117:
 2141              		.loc 1 685 0
 2142 0e3a 4644     		add	r6, r6, r8
 2143 0e3c 18A9     		add	r1, sp, #96
 2144 0e3e F368     		ldr	r3, [r6, #12]
 2145 0e40 2046     		mov	r0, r4
 2146 0e42 9847     		blx	r3
 2147              	.LVL290:
 2148 0e44 FFF767B9 		b	.L1
 2149              	.LVL291:
 2150              	.L89:
 2151              	.LBE117:
 2152              	.LBE118:
 2153              		.loc 1 561 0
 2154 0e48 7548     		ldr	r0, .L190+56
 2155              	.LBB119:
 2156              		.loc 1 666 0
 2157 0e4a 764D     		ldr	r5, .L190+60
 2158              	.LBE119:
 2159              		.loc 1 561 0
 2160 0e4c FFF7FEFF 		bl	commands_printf
 2161              	.LVL292:
 2162              		.loc 1 562 0
 2163 0e50 7548     		ldr	r0, .L190+64
 2164 0e52 FFF7FEFF 		bl	commands_printf
 2165              	.LVL293:
 2166              		.loc 1 563 0
ARM GAS  C:\Users\CHRIST~1\AppData\Local\Temp\ccVm3NB4.s 			page 39


 2167 0e56 7548     		ldr	r0, .L190+68
 2168 0e58 FFF7FEFF 		bl	commands_printf
 2169              	.LVL294:
 2170              		.loc 1 565 0
 2171 0e5c 7448     		ldr	r0, .L190+72
 2172 0e5e FFF7FEFF 		bl	commands_printf
 2173              	.LVL295:
 2174              		.loc 1 566 0
 2175 0e62 7448     		ldr	r0, .L190+76
 2176 0e64 FFF7FEFF 		bl	commands_printf
 2177              	.LVL296:
 2178              		.loc 1 568 0
 2179 0e68 7348     		ldr	r0, .L190+80
 2180 0e6a FFF7FEFF 		bl	commands_printf
 2181              	.LVL297:
 2182              		.loc 1 569 0
 2183 0e6e 7348     		ldr	r0, .L190+84
 2184 0e70 FFF7FEFF 		bl	commands_printf
 2185              	.LVL298:
 2186              		.loc 1 571 0
 2187 0e74 7248     		ldr	r0, .L190+88
 2188 0e76 FFF7FEFF 		bl	commands_printf
 2189              	.LVL299:
 2190              		.loc 1 572 0
 2191 0e7a 7248     		ldr	r0, .L190+92
 2192 0e7c FFF7FEFF 		bl	commands_printf
 2193              	.LVL300:
 2194              		.loc 1 574 0
 2195 0e80 7148     		ldr	r0, .L190+96
 2196 0e82 FFF7FEFF 		bl	commands_printf
 2197              	.LVL301:
 2198              		.loc 1 575 0
 2199 0e86 7148     		ldr	r0, .L190+100
 2200 0e88 FFF7FEFF 		bl	commands_printf
 2201              	.LVL302:
 2202              		.loc 1 577 0
 2203 0e8c 7048     		ldr	r0, .L190+104
 2204 0e8e FFF7FEFF 		bl	commands_printf
 2205              	.LVL303:
 2206              		.loc 1 578 0
 2207 0e92 7048     		ldr	r0, .L190+108
 2208 0e94 FFF7FEFF 		bl	commands_printf
 2209              	.LVL304:
 2210              		.loc 1 580 0
 2211 0e98 6F48     		ldr	r0, .L190+112
 2212 0e9a FFF7FEFF 		bl	commands_printf
 2213              	.LVL305:
 2214              		.loc 1 581 0
 2215 0e9e 6F48     		ldr	r0, .L190+116
 2216 0ea0 FFF7FEFF 		bl	commands_printf
 2217              	.LVL306:
 2218              		.loc 1 583 0
 2219 0ea4 6E48     		ldr	r0, .L190+120
 2220 0ea6 FFF7FEFF 		bl	commands_printf
 2221              	.LVL307:
 2222              		.loc 1 584 0
 2223 0eaa 6E48     		ldr	r0, .L190+124
ARM GAS  C:\Users\CHRIST~1\AppData\Local\Temp\ccVm3NB4.s 			page 40


 2224 0eac FFF7FEFF 		bl	commands_printf
 2225              	.LVL308:
 2226              		.loc 1 586 0
 2227 0eb0 6D48     		ldr	r0, .L190+128
 2228 0eb2 FFF7FEFF 		bl	commands_printf
 2229              	.LVL309:
 2230              		.loc 1 587 0
 2231 0eb6 6D48     		ldr	r0, .L190+132
 2232 0eb8 FFF7FEFF 		bl	commands_printf
 2233              	.LVL310:
 2234              		.loc 1 589 0
 2235 0ebc 6C48     		ldr	r0, .L190+136
 2236 0ebe FFF7FEFF 		bl	commands_printf
 2237              	.LVL311:
 2238              		.loc 1 590 0
 2239 0ec2 6C48     		ldr	r0, .L190+140
 2240 0ec4 FFF7FEFF 		bl	commands_printf
 2241              	.LVL312:
 2242              		.loc 1 592 0
 2243 0ec8 6B48     		ldr	r0, .L190+144
 2244 0eca FFF7FEFF 		bl	commands_printf
 2245              	.LVL313:
 2246              		.loc 1 593 0
 2247 0ece 6B48     		ldr	r0, .L190+148
 2248 0ed0 FFF7FEFF 		bl	commands_printf
 2249              	.LVL314:
 2250              		.loc 1 595 0
 2251 0ed4 6A48     		ldr	r0, .L190+152
 2252 0ed6 FFF7FEFF 		bl	commands_printf
 2253              	.LVL315:
 2254              		.loc 1 596 0
 2255 0eda 6A48     		ldr	r0, .L190+156
 2256 0edc FFF7FEFF 		bl	commands_printf
 2257              	.LVL316:
 2258              		.loc 1 598 0
 2259 0ee0 6948     		ldr	r0, .L190+160
 2260 0ee2 FFF7FEFF 		bl	commands_printf
 2261              	.LVL317:
 2262              		.loc 1 599 0
 2263 0ee6 6948     		ldr	r0, .L190+164
 2264 0ee8 FFF7FEFF 		bl	commands_printf
 2265              	.LVL318:
 2266              		.loc 1 601 0
 2267 0eec 6848     		ldr	r0, .L190+168
 2268 0eee FFF7FEFF 		bl	commands_printf
 2269              	.LVL319:
 2270              		.loc 1 602 0
 2271 0ef2 6848     		ldr	r0, .L190+172
 2272 0ef4 FFF7FEFF 		bl	commands_printf
 2273              	.LVL320:
 2274              		.loc 1 603 0
 2275 0ef8 6748     		ldr	r0, .L190+176
 2276 0efa FFF7FEFF 		bl	commands_printf
 2277              	.LVL321:
 2278              		.loc 1 604 0
 2279 0efe 6748     		ldr	r0, .L190+180
 2280 0f00 FFF7FEFF 		bl	commands_printf
ARM GAS  C:\Users\CHRIST~1\AppData\Local\Temp\ccVm3NB4.s 			page 41


 2281              	.LVL322:
 2282              		.loc 1 606 0
 2283 0f04 6648     		ldr	r0, .L190+184
 2284 0f06 FFF7FEFF 		bl	commands_printf
 2285              	.LVL323:
 2286              		.loc 1 607 0
 2287 0f0a 6648     		ldr	r0, .L190+188
 2288 0f0c FFF7FEFF 		bl	commands_printf
 2289              	.LVL324:
 2290              		.loc 1 609 0
 2291 0f10 6548     		ldr	r0, .L190+192
 2292 0f12 FFF7FEFF 		bl	commands_printf
 2293              	.LVL325:
 2294              		.loc 1 610 0
 2295 0f16 6548     		ldr	r0, .L190+196
 2296 0f18 FFF7FEFF 		bl	commands_printf
 2297              	.LVL326:
 2298              		.loc 1 612 0
 2299 0f1c 6448     		ldr	r0, .L190+200
 2300 0f1e FFF7FEFF 		bl	commands_printf
 2301              	.LVL327:
 2302              		.loc 1 613 0
 2303 0f22 6448     		ldr	r0, .L190+204
 2304 0f24 FFF7FEFF 		bl	commands_printf
 2305              	.LVL328:
 2306              		.loc 1 615 0
 2307 0f28 6348     		ldr	r0, .L190+208
 2308 0f2a FFF7FEFF 		bl	commands_printf
 2309              	.LVL329:
 2310              		.loc 1 616 0
 2311 0f2e 6348     		ldr	r0, .L190+212
 2312 0f30 FFF7FEFF 		bl	commands_printf
 2313              	.LVL330:
 2314              		.loc 1 618 0
 2315 0f34 6248     		ldr	r0, .L190+216
 2316 0f36 FFF7FEFF 		bl	commands_printf
 2317              	.LVL331:
 2318              		.loc 1 619 0
 2319 0f3a 6248     		ldr	r0, .L190+220
 2320 0f3c FFF7FEFF 		bl	commands_printf
 2321              	.LVL332:
 2322              		.loc 1 621 0
 2323 0f40 6148     		ldr	r0, .L190+224
 2324 0f42 FFF7FEFF 		bl	commands_printf
 2325              	.LVL333:
 2326              		.loc 1 622 0
 2327 0f46 6148     		ldr	r0, .L190+228
 2328 0f48 FFF7FEFF 		bl	commands_printf
 2329              	.LVL334:
 2330              		.loc 1 623 0
 2331 0f4c 6048     		ldr	r0, .L190+232
 2332 0f4e FFF7FEFF 		bl	commands_printf
 2333              	.LVL335:
 2334              		.loc 1 624 0
 2335 0f52 6048     		ldr	r0, .L190+236
 2336 0f54 FFF7FEFF 		bl	commands_printf
 2337              	.LVL336:
ARM GAS  C:\Users\CHRIST~1\AppData\Local\Temp\ccVm3NB4.s 			page 42


 2338              		.loc 1 626 0
 2339 0f58 5F48     		ldr	r0, .L190+240
 2340 0f5a FFF7FEFF 		bl	commands_printf
 2341              	.LVL337:
 2342              		.loc 1 627 0
 2343 0f5e 5F48     		ldr	r0, .L190+244
 2344 0f60 FFF7FEFF 		bl	commands_printf
 2345              	.LVL338:
 2346              		.loc 1 629 0
 2347 0f64 5E48     		ldr	r0, .L190+248
 2348 0f66 FFF7FEFF 		bl	commands_printf
 2349              	.LVL339:
 2350              		.loc 1 630 0
 2351 0f6a 5E48     		ldr	r0, .L190+252
 2352 0f6c FFF7FEFF 		bl	commands_printf
 2353              	.LVL340:
 2354              		.loc 1 632 0
 2355 0f70 5D48     		ldr	r0, .L190+256
 2356 0f72 FFF7FEFF 		bl	commands_printf
 2357              	.LVL341:
 2358              		.loc 1 633 0
 2359 0f76 5D48     		ldr	r0, .L190+260
 2360 0f78 FFF7FEFF 		bl	commands_printf
 2361              	.LVL342:
 2362              		.loc 1 635 0
 2363 0f7c 5C48     		ldr	r0, .L190+264
 2364 0f7e FFF7FEFF 		bl	commands_printf
 2365              	.LVL343:
 2366              		.loc 1 636 0
 2367 0f82 5C48     		ldr	r0, .L190+268
 2368 0f84 FFF7FEFF 		bl	commands_printf
 2369              	.LVL344:
 2370              		.loc 1 663 0
 2371 0f88 5B48     		ldr	r0, .L190+272
 2372 0f8a FFF7FEFF 		bl	commands_printf
 2373              	.LVL345:
 2374              		.loc 1 664 0
 2375 0f8e 5B48     		ldr	r0, .L190+276
 2376 0f90 FFF7FEFF 		bl	commands_printf
 2377              	.LVL346:
 2378              	.LBB120:
 2379              		.loc 1 666 0
 2380 0f94 2B68     		ldr	r3, [r5]
 2381 0f96 002B     		cmp	r3, #0
 2382 0f98 18DD     		ble	.L98
 2383 0f9a 594C     		ldr	r4, .L190+280
 2384              	.LVL347:
 2385              		.loc 1 668 0
 2386 0f9c DFF86891 		ldr	r9, .L190+288
 2387              		.loc 1 676 0
 2388 0fa0 DFF86881 		ldr	r8, .L190+292
 2389              		.loc 1 674 0
 2390 0fa4 574F     		ldr	r7, .L190+284
 2391              	.LVL348:
 2392              	.L97:
 2393              		.loc 1 667 0
 2394 0fa6 A368     		ldr	r3, [r4, #8]
ARM GAS  C:\Users\CHRIST~1\AppData\Local\Temp\ccVm3NB4.s 			page 43


 2395              		.loc 1 668 0
 2396 0fa8 4846     		mov	r0, r9
 2397 0faa 1A46     		mov	r2, r3
 2398              		.loc 1 667 0
 2399 0fac BBB1     		cbz	r3, .L93
 2400              		.loc 1 668 0
 2401 0fae 2168     		ldr	r1, [r4]
 2402 0fb0 FFF7FEFF 		bl	commands_printf
 2403              	.LVL349:
 2404              	.L94:
 2405              		.loc 1 673 0
 2406 0fb4 6368     		ldr	r3, [r4, #4]
 2407              		.loc 1 674 0
 2408 0fb6 3846     		mov	r0, r7
 2409 0fb8 1946     		mov	r1, r3
 2410              		.loc 1 673 0
 2411 0fba 63B1     		cbz	r3, .L95
 2412              		.loc 1 674 0
 2413 0fbc FFF7FEFF 		bl	commands_printf
 2414              	.LVL350:
 2415              	.L96:
 2416              		.loc 1 666 0 discriminator 2
 2417 0fc0 2B68     		ldr	r3, [r5]
 2418 0fc2 0136     		adds	r6, r6, #1
 2419              	.LVL351:
 2420 0fc4 B342     		cmp	r3, r6
 2421 0fc6 04F11004 		add	r4, r4, #16
 2422 0fca ECDC     		bgt	.L97
 2423              	.LVL352:
 2424              	.L98:
 2425              	.LBE120:
 2426              		.loc 1 680 0
 2427 0fcc 1248     		ldr	r0, .L190+48
 2428 0fce FFF7FEFF 		bl	commands_printf
 2429              	.LVL353:
 2430 0fd2 FFF7A0B8 		b	.L1
 2431              	.LVL354:
 2432              	.L95:
 2433              	.LBB121:
 2434              		.loc 1 676 0
 2435 0fd6 4046     		mov	r0, r8
 2436 0fd8 FFF7FEFF 		bl	commands_printf
 2437              	.LVL355:
 2438 0fdc F0E7     		b	.L96
 2439              	.L93:
 2440              		.loc 1 670 0
 2441 0fde 2068     		ldr	r0, [r4]
 2442 0fe0 FFF7FEFF 		bl	commands_printf
 2443              	.LVL356:
 2444 0fe4 E6E7     		b	.L94
 2445              	.L191:
 2446 0fe6 00BF     		.align	2
 2447              	.L190:
 2448 0fe8 0C090000 		.word	.LC104
 2449 0fec 1C090000 		.word	.LC105
 2450 0ff0 20090000 		.word	.LC106
 2451 0ff4 1B7AFF1F 		.word	536836635
ARM GAS  C:\Users\CHRIST~1\AppData\Local\Temp\ccVm3NB4.s 			page 44


 2452 0ff8 127AFF1F 		.word	536836626
 2453 0ffc 117AFF1F 		.word	536836625
 2454 1000 107AFF1F 		.word	536836624
 2455 1004 30090000 		.word	.LC107
 2456 1008 00000000 		.word	conf_general_permanent_nrf_found
 2457 100c 10000000 		.word	.LC2
 2458 1010 14000000 		.word	.LC3
 2459 1014 74090000 		.word	.LC108
 2460 1018 18000000 		.word	.LC4
 2461 101c A0090000 		.word	.LC110
 2462 1020 B00A0000 		.word	.LC121
 2463 1024 00000000 		.word	.LANCHOR5
 2464 1028 A80A0000 		.word	.LC120
 2465 102c C40A0000 		.word	.LC122
 2466 1030 34000000 		.word	.LC6
 2467 1034 D80A0000 		.word	.LC123
 2468 1038 44000000 		.word	.LC8
 2469 103c 040B0000 		.word	.LC124
 2470 1040 5C000000 		.word	.LC10
 2471 1044 180B0000 		.word	.LC125
 2472 1048 E0000000 		.word	.LC14
 2473 104c 480B0000 		.word	.LC126
 2474 1050 04010000 		.word	.LC16
 2475 1054 6C0B0000 		.word	.LC127
 2476 1058 5C010000 		.word	.LC20
 2477 105c 800B0000 		.word	.LC128
 2478 1060 0C020000 		.word	.LC25
 2479 1064 940B0000 		.word	.LC129
 2480 1068 18020000 		.word	.LC27
 2481 106c B40B0000 		.word	.LC130
 2482 1070 C8030000 		.word	.LC44
 2483 1074 F80B0000 		.word	.LC131
 2484 1078 E8030000 		.word	.LC46
 2485 107c 1C0C0000 		.word	.LC132
 2486 1080 08040000 		.word	.LC48
 2487 1084 380C0000 		.word	.LC133
 2488 1088 C0040000 		.word	.LC60
 2489 108c 580C0000 		.word	.LC134
 2490 1090 740C0000 		.word	.LC135
 2491 1094 A00C0000 		.word	.LC136
 2492 1098 E40C0000 		.word	.LC137
 2493 109c 200D0000 		.word	.LC138
 2494 10a0 60060000 		.word	.LC74
 2495 10a4 480D0000 		.word	.LC139
 2496 10a8 BC060000 		.word	.LC78
 2497 10ac 680D0000 		.word	.LC140
 2498 10b0 A40D0000 		.word	.LC141
 2499 10b4 C40D0000 		.word	.LC142
 2500 10b8 080E0000 		.word	.LC143
 2501 10bc 200E0000 		.word	.LC144
 2502 10c0 600E0000 		.word	.LC145
 2503 10c4 740E0000 		.word	.LC146
 2504 10c8 C80E0000 		.word	.LC147
 2505 10cc 000F0000 		.word	.LC148
 2506 10d0 400F0000 		.word	.LC149
 2507 10d4 6C0F0000 		.word	.LC150
 2508 10d8 98080000 		.word	.LC98
ARM GAS  C:\Users\CHRIST~1\AppData\Local\Temp\ccVm3NB4.s 			page 45


 2509 10dc A40F0000 		.word	.LC151
 2510 10e0 FC0F0000 		.word	.LC152
 2511 10e4 18100000 		.word	.LC153
 2512 10e8 F4080000 		.word	.LC102
 2513 10ec 50100000 		.word	.LC154
 2514 10f0 00090000 		.word	.LC103
 2515 10f4 74100000 		.word	.LC155
 2516 10f8 A0100000 		.word	.LC156
 2517 10fc C0100000 		.word	.LC157
 2518 1100 00000000 		.word	.LANCHOR6
 2519 1104 F8100000 		.word	.LC159
 2520 1108 F0100000 		.word	.LC158
 2521 110c 00110000 		.word	.LC160
 2522              	.LBE121:
 2523              		.cfi_endproc
 2524              	.LFE257:
 2525              		.size	terminal_process_string, .-terminal_process_string
 2526              		.section	.text.terminal_add_fault_data,"ax",%progbits
 2527              		.align	1
 2528              		.p2align 4,,15
 2529              		.global	terminal_add_fault_data
 2530              		.syntax unified
 2531              		.thumb
 2532              		.thumb_func
 2533              		.fpu fpv4-sp-d16
 2534              		.type	terminal_add_fault_data, %function
 2535              	terminal_add_fault_data:
 2536              	.LFB258:
 2537              		.loc 1 698 0
 2538              		.cfi_startproc
 2539              		@ args = 0, pretend = 0, frame = 0
 2540              		@ frame_needed = 0, uses_anonymous_args = 0
 2541              	.LVL357:
 2542 0000 F0B5     		push	{r4, r5, r6, r7, lr}
 2543              		.cfi_def_cfa_offset 20
 2544              		.cfi_offset 4, -20
 2545              		.cfi_offset 5, -16
 2546              		.cfi_offset 6, -12
 2547              		.cfi_offset 7, -8
 2548              		.cfi_offset 14, -4
 2549              		.loc 1 699 0
 2550 0002 0E4F     		ldr	r7, .L195
 2551 0004 0E4C     		ldr	r4, .L195+4
 2552 0006 3E68     		ldr	r6, [r7]
 2553 0008 0546     		mov	r5, r0
 2554 000a 0FCD     		ldmia	r5!, {r0, r1, r2, r3}
 2555              	.LVL358:
 2556 000c 06F1010E 		add	lr, r6, #1
 2557 0010 C6EBC606 		rsb	r6, r6, r6, lsl #3
 2558 0014 04EBC604 		add	r4, r4, r6, lsl #3
 2559 0018 C7F800E0 		str	lr, [r7]
 2560 001c 0FC4     		stmia	r4!, {r0, r1, r2, r3}
 2561 001e 0FCD     		ldmia	r5!, {r0, r1, r2, r3}
 2562              	.LVL359:
 2563 0020 0FC4     		stmia	r4!, {r0, r1, r2, r3}
 2564 0022 0FCD     		ldmia	r5!, {r0, r1, r2, r3}
 2565              	.LVL360:
ARM GAS  C:\Users\CHRIST~1\AppData\Local\Temp\ccVm3NB4.s 			page 46


 2566 0024 0FC4     		stmia	r4!, {r0, r1, r2, r3}
 2567 0026 95E80300 		ldm	r5, {r0, r1}
 2568 002a 84E80300 		stm	r4, {r0, r1}
 2569              		.loc 1 700 0
 2570 002e 3B68     		ldr	r3, [r7]
 2571 0030 182B     		cmp	r3, #24
 2572              		.loc 1 701 0
 2573 0032 C4BF     		itt	gt
 2574 0034 0023     		movgt	r3, #0
 2575 0036 3B60     		strgt	r3, [r7]
 2576 0038 F0BD     		pop	{r4, r5, r6, r7, pc}
 2577              	.LVL361:
 2578              	.L196:
 2579 003a 00BF     		.align	2
 2580              	.L195:
 2581 003c 00000000 		.word	.LANCHOR3
 2582 0040 00000000 		.word	.LANCHOR4
 2583              		.cfi_endproc
 2584              	.LFE258:
 2585              		.size	terminal_add_fault_data, .-terminal_add_fault_data
 2586              		.section	.text.terminal_register_command_callback,"ax",%progbits
 2587              		.align	1
 2588              		.p2align 4,,15
 2589              		.global	terminal_register_command_callback
 2590              		.syntax unified
 2591              		.thumb
 2592              		.thumb_func
 2593              		.fpu fpv4-sp-d16
 2594              		.type	terminal_register_command_callback, %function
 2595              	terminal_register_command_callback:
 2596              	.LFB259:
 2597              		.loc 1 726 0
 2598              		.cfi_startproc
 2599              		@ args = 0, pretend = 0, frame = 0
 2600              		@ frame_needed = 0, uses_anonymous_args = 0
 2601              	.LVL362:
 2602 0000 2DE9F84F 		push	{r3, r4, r5, r6, r7, r8, r9, r10, fp, lr}
 2603              		.cfi_def_cfa_offset 40
 2604              		.cfi_offset 3, -40
 2605              		.cfi_offset 4, -36
 2606              		.cfi_offset 5, -32
 2607              		.cfi_offset 6, -28
 2608              		.cfi_offset 7, -24
 2609              		.cfi_offset 8, -20
 2610              		.cfi_offset 9, -16
 2611              		.cfi_offset 10, -12
 2612              		.cfi_offset 11, -8
 2613              		.cfi_offset 14, -4
 2614              		.loc 1 728 0
 2615 0004 DFF88080 		ldr	r8, .L213+4
 2616              	.LBB122:
 2617              		.loc 1 732 0
 2618 0008 1E4E     		ldr	r6, .L213
 2619              	.LBE122:
 2620              		.loc 1 728 0
 2621 000a D8F80070 		ldr	r7, [r8]
 2622              	.LVL363:
ARM GAS  C:\Users\CHRIST~1\AppData\Local\Temp\ccVm3NB4.s 			page 47


 2623              	.LBB123:
 2624              		.loc 1 730 0
 2625 000e 002F     		cmp	r7, #0
 2626              	.LBE123:
 2627              		.loc 1 726 0
 2628 0010 0546     		mov	r5, r0
 2629 0012 8B46     		mov	fp, r1
 2630 0014 9246     		mov	r10, r2
 2631 0016 9946     		mov	r9, r3
 2632              	.LBB124:
 2633              		.loc 1 730 0
 2634 0018 1CDD     		ble	.L198
 2635              		.loc 1 732 0
 2636 001a 3068     		ldr	r0, [r6]
 2637              	.LVL364:
 2638 001c 8542     		cmp	r5, r0
 2639 001e 2ED0     		beq	.L205
 2640 0020 0024     		movs	r4, #0
 2641 0022 07E0     		b	.L201
 2642              	.LVL365:
 2643              	.L210:
 2644              		.loc 1 730 0 discriminator 2
 2645 0024 0134     		adds	r4, r4, #1
 2646              	.LVL366:
 2647 0026 A742     		cmp	r7, r4
 2648              		.loc 1 732 0 discriminator 2
 2649 0028 4FEA0413 		lsl	r3, r4, #4
 2650              		.loc 1 730 0 discriminator 2
 2651 002c 12D0     		beq	.L198
 2652              		.loc 1 732 0
 2653 002e F058     		ldr	r0, [r6, r3]
 2654 0030 A842     		cmp	r0, r5
 2655 0032 05D0     		beq	.L199
 2656              	.LVL367:
 2657              	.L201:
 2658              		.loc 1 738 0
 2659 0034 2946     		mov	r1, r5
 2660 0036 FFF7FEFF 		bl	strcmp
 2661              	.LVL368:
 2662 003a 0028     		cmp	r0, #0
 2663 003c F2D1     		bne	.L210
 2664 003e 2301     		lsls	r3, r4, #4
 2665              	.LVL369:
 2666              	.L199:
 2667              	.LBE124:
 2668              		.loc 1 744 0
 2669 0040 F218     		adds	r2, r6, r3
 2670 0042 F550     		str	r5, [r6, r3]
 2671              		.loc 1 745 0
 2672 0044 C2F804B0 		str	fp, [r2, #4]
 2673              		.loc 1 746 0
 2674 0048 C2F808A0 		str	r10, [r2, #8]
 2675              		.loc 1 747 0
 2676 004c C2F80C90 		str	r9, [r2, #12]
 2677 0050 BDE8F88F 		pop	{r3, r4, r5, r6, r7, r8, r9, r10, fp, pc}
 2678              	.LVL370:
 2679              	.L198:
ARM GAS  C:\Users\CHRIST~1\AppData\Local\Temp\ccVm3NB4.s 			page 48


 2680              		.loc 1 744 0
 2681 0054 3A01     		lsls	r2, r7, #4
 2682 0056 B318     		adds	r3, r6, r2
 2683              		.loc 1 750 0
 2684 0058 0137     		adds	r7, r7, #1
 2685              	.LVL371:
 2686              		.loc 1 751 0
 2687 005a 182F     		cmp	r7, #24
 2688              		.loc 1 744 0
 2689 005c B550     		str	r5, [r6, r2]
 2690              		.loc 1 745 0
 2691 005e C3F804B0 		str	fp, [r3, #4]
 2692              		.loc 1 746 0
 2693 0062 C3F808A0 		str	r10, [r3, #8]
 2694              		.loc 1 747 0
 2695 0066 C3F80C90 		str	r9, [r3, #12]
 2696              		.loc 1 751 0
 2697 006a 04DD     		ble	.L212
 2698              		.loc 1 752 0
 2699 006c 0023     		movs	r3, #0
 2700 006e C8F80030 		str	r3, [r8]
 2701              		.loc 1 755 0
 2702 0072 BDE8F88F 		pop	{r3, r4, r5, r6, r7, r8, r9, r10, fp, pc}
 2703              	.LVL372:
 2704              	.L212:
 2705              		.loc 1 750 0
 2706 0076 C8F80070 		str	r7, [r8]
 2707 007a BDE8F88F 		pop	{r3, r4, r5, r6, r7, r8, r9, r10, fp, pc}
 2708              	.LVL373:
 2709              	.L205:
 2710 007e 0023     		movs	r3, #0
 2711              	.LVL374:
 2712 0080 DEE7     		b	.L199
 2713              	.L214:
 2714 0082 00BF     		.align	2
 2715              	.L213:
 2716 0084 00000000 		.word	.LANCHOR6
 2717 0088 00000000 		.word	.LANCHOR5
 2718              		.cfi_endproc
 2719              	.LFE259:
 2720              		.size	terminal_register_command_callback, .-terminal_register_command_callback
 2721              		.section	.bss.callback_write,"aw",%nobits
 2722              		.align	2
 2723              		.set	.LANCHOR5,. + 0
 2724              		.type	callback_write, %object
 2725              		.size	callback_write, 4
 2726              	callback_write:
 2727 0000 00000000 		.space	4
 2728              		.section	.bss.callbacks,"aw",%nobits
 2729              		.align	2
 2730              		.set	.LANCHOR6,. + 0
 2731              		.type	callbacks, %object
 2732              		.size	callbacks, 400
 2733              	callbacks:
 2734 0000 00000000 		.space	400
 2734      00000000 
 2734      00000000 
ARM GAS  C:\Users\CHRIST~1\AppData\Local\Temp\ccVm3NB4.s 			page 49


 2734      00000000 
 2734      00000000 
 2735              		.section	.bss.fault_vec,"aw",%nobits
 2736              		.align	2
 2737              		.set	.LANCHOR4,. + 0
 2738              		.type	fault_vec, %object
 2739              		.size	fault_vec, 1400
 2740              	fault_vec:
 2741 0000 00000000 		.space	1400
 2741      00000000 
 2741      00000000 
 2741      00000000 
 2741      00000000 
 2742              		.section	.bss.fault_vec_write,"aw",%nobits
 2743              		.align	2
 2744              		.set	.LANCHOR3,. + 0
 2745              		.type	fault_vec_write, %object
 2746              		.size	fault_vec_write, 4
 2747              	fault_vec_write:
 2748 0000 00000000 		.space	4
 2749              		.section	.bss.mcconf.12605,"aw",%nobits
 2750              		.align	2
 2751              		.set	.LANCHOR0,. + 0
 2752              		.type	mcconf.12605, %object
 2753              		.size	mcconf.12605, 368
 2754              	mcconf.12605:
 2755 0000 00000000 		.space	368
 2755      00000000 
 2755      00000000 
 2755      00000000 
 2755      00000000 
 2756              		.section	.bss.mcconf_old.12606,"aw",%nobits
 2757              		.align	2
 2758              		.set	.LANCHOR1,. + 0
 2759              		.type	mcconf_old.12606, %object
 2760              		.size	mcconf_old.12606, 368
 2761              	mcconf_old.12606:
 2762 0000 00000000 		.space	368
 2762      00000000 
 2762      00000000 
 2762      00000000 
 2762      00000000 
 2763              		.section	.rodata.states.12610,"a",%progbits
 2764              		.align	2
 2765              		.set	.LANCHOR2,. + 0
 2766              		.type	states.12610, %object
 2767              		.size	states.12610, 64
 2768              	states.12610:
 2769 0000 00000000 		.word	.LC162
 2770 0004 08000000 		.word	.LC163
 2771 0008 10000000 		.word	.LC164
 2772 000c 18000000 		.word	.LC165
 2773 0010 24000000 		.word	.LC166
 2774 0014 2C000000 		.word	.LC167
 2775 0018 34000000 		.word	.LC168
 2776 001c 3C000000 		.word	.LC169
 2777 0020 44000000 		.word	.LC170
ARM GAS  C:\Users\CHRIST~1\AppData\Local\Temp\ccVm3NB4.s 			page 50


 2778 0024 50000000 		.word	.LC171
 2779 0028 58000000 		.word	.LC172
 2780 002c 60000000 		.word	.LC173
 2781 0030 6C000000 		.word	.LC174
 2782 0034 74000000 		.word	.LC175
 2783 0038 7C000000 		.word	.LC176
 2784 003c 84000000 		.word	.LC177
 2785              		.section	.rodata.str1.4,"aMS",%progbits,1
 2786              		.align	2
 2787              	.LC162:
 2788 0000 52454144 		.ascii	"READY\000"
 2788      5900
 2789 0006 0000     		.space	2
 2790              	.LC163:
 2791 0008 43555252 		.ascii	"CURRENT\000"
 2791      454E5400 
 2792              	.LC164:
 2793 0010 57545354 		.ascii	"WTSTART\000"
 2793      41525400 
 2794              	.LC165:
 2795 0018 53555350 		.ascii	"SUSPENDED\000"
 2795      454E4445 
 2795      4400
 2796 0022 0000     		.space	2
 2797              	.LC166:
 2798 0024 51554555 		.ascii	"QUEUED\000"
 2798      454400
 2799 002b 00       		.space	1
 2800              	.LC167:
 2801 002c 57545345 		.ascii	"WTSEM\000"
 2801      4D00
 2802 0032 0000     		.space	2
 2803              	.LC168:
 2804 0034 57544D54 		.ascii	"WTMTX\000"
 2804      5800
 2805 003a 0000     		.space	2
 2806              	.LC169:
 2807 003c 5754434F 		.ascii	"WTCOND\000"
 2807      4E4400
 2808 0043 00       		.space	1
 2809              	.LC170:
 2810 0044 534C4545 		.ascii	"SLEEPING\000"
 2810      50494E47 
 2810      00
 2811 004d 000000   		.space	3
 2812              	.LC171:
 2813 0050 57544558 		.ascii	"WTEXIT\000"
 2813      495400
 2814 0057 00       		.space	1
 2815              	.LC172:
 2816 0058 57544F52 		.ascii	"WTOREVT\000"
 2816      45565400 
 2817              	.LC173:
 2818 0060 5754414E 		.ascii	"WTANDEVT\000"
 2818      44455654 
 2818      00
 2819 0069 000000   		.space	3
ARM GAS  C:\Users\CHRIST~1\AppData\Local\Temp\ccVm3NB4.s 			page 51


 2820              	.LC174:
 2821 006c 534E444D 		.ascii	"SNDMSGQ\000"
 2821      53475100 
 2822              	.LC175:
 2823 0074 534E444D 		.ascii	"SNDMSG\000"
 2823      534700
 2824 007b 00       		.space	1
 2825              	.LC176:
 2826 007c 57544D53 		.ascii	"WTMSG\000"
 2826      4700
 2827 0082 0000     		.space	2
 2828              	.LC177:
 2829 0084 46494E41 		.ascii	"FINAL\000"
 2829      4C00
 2830              		.section	.rodata.terminal_process_string.str1.4,"aMS",%progbits,1
 2831              		.align	2
 2832              	.LC0:
 2833 0000 74727565 		.ascii	"true\000"
 2833      00
 2834 0005 000000   		.space	3
 2835              	.LC1:
 2836 0008 66616C73 		.ascii	"false\000"
 2836      6500
 2837 000e 0000     		.space	2
 2838              	.LC2:
 2839 0010 59657300 		.ascii	"Yes\000"
 2840              	.LC3:
 2841 0014 4E6F00   		.ascii	"No\000"
 2842 0017 00       		.space	1
 2843              	.LC4:
 2844 0018 2000     		.ascii	" \000"
 2845 001a 0000     		.space	2
 2846              	.LC5:
 2847 001c 4E6F2063 		.ascii	"No command received\012\000"
 2847      6F6D6D61 
 2847      6E642072 
 2847      65636569 
 2847      7665640A 
 2848 0031 000000   		.space	3
 2849              	.LC6:
 2850 0034 70696E67 		.ascii	"ping\000"
 2850      00
 2851 0039 000000   		.space	3
 2852              	.LC7:
 2853 003c 706F6E67 		.ascii	"pong\012\000"
 2853      0A00
 2854 0042 0000     		.space	2
 2855              	.LC8:
 2856 0044 73746F70 		.ascii	"stop\000"
 2856      00
 2857 0049 000000   		.space	3
 2858              	.LC9:
 2859 004c 4D6F746F 		.ascii	"Motor stopped\012\000"
 2859      72207374 
 2859      6F707065 
 2859      640A00
 2860 005b 00       		.space	1
ARM GAS  C:\Users\CHRIST~1\AppData\Local\Temp\ccVm3NB4.s 			page 52


 2861              	.LC10:
 2862 005c 6C617374 		.ascii	"last_adc_duration\000"
 2862      5F616463 
 2862      5F647572 
 2862      6174696F 
 2862      6E00
 2863 006e 0000     		.space	2
 2864              	.LC11:
 2865 0070 4C617465 		.ascii	"Latest ADC duration: %.4f ms\000"
 2865      73742041 
 2865      44432064 
 2865      75726174 
 2865      696F6E3A 
 2866 008d 000000   		.space	3
 2867              	.LC12:
 2868 0090 4C617465 		.ascii	"Latest injected ADC duration: %.4f ms\000"
 2868      73742069 
 2868      6E6A6563 
 2868      74656420 
 2868      41444320 
 2869 00b6 0000     		.space	2
 2870              	.LC13:
 2871 00b8 4C617465 		.ascii	"Latest sample ADC duration: %.4f ms\012\000"
 2871      73742073 
 2871      616D706C 
 2871      65204144 
 2871      43206475 
 2872 00dd 000000   		.space	3
 2873              	.LC14:
 2874 00e0 6B7600   		.ascii	"kv\000"
 2875 00e3 00       		.space	1
 2876              	.LC15:
 2877 00e4 43616C63 		.ascii	"Calculated KV: %.2f rpm/volt\012\000"
 2877      756C6174 
 2877      6564204B 
 2877      563A2025 
 2877      2E326620 
 2878 0102 0000     		.space	2
 2879              	.LC16:
 2880 0104 6D656D00 		.ascii	"mem\000"
 2881              	.LC17:
 2882 0108 636F7265 		.ascii	"core free memory : %u bytes\000"
 2882      20667265 
 2882      65206D65 
 2882      6D6F7279 
 2882      203A2025 
 2883              	.LC18:
 2884 0124 68656170 		.ascii	"heap fragments   : %u\000"
 2884      20667261 
 2884      676D656E 
 2884      74732020 
 2884      203A2025 
 2885 013a 0000     		.space	2
 2886              	.LC19:
 2887 013c 68656170 		.ascii	"heap free total  : %u bytes\012\000"
 2887      20667265 
 2887      6520746F 
ARM GAS  C:\Users\CHRIST~1\AppData\Local\Temp\ccVm3NB4.s 			page 53


 2887      74616C20 
 2887      203A2025 
 2888 0159 000000   		.space	3
 2889              	.LC20:
 2890 015c 74687265 		.ascii	"threads\000"
 2890      61647300 
 2891              	.LC21:
 2892 0164 20202020 		.ascii	"    addr    stack prio refs     state           nam"
 2892      61646472 
 2892      20202020 
 2892      73746163 
 2892      6B207072 
 2893 0197 65207469 		.ascii	"e time    \000"
 2893      6D652020 
 2893      202000
 2894 01a2 0000     		.space	2
 2895              	.LC22:
 2896 01a4 2D2D2D2D 		.ascii	"---------------------------------------------------"
 2896      2D2D2D2D 
 2896      2D2D2D2D 
 2896      2D2D2D2D 
 2896      2D2D2D2D 
 2897 01d7 2D2D2D2D 		.ascii	"----------\000"
 2897      2D2D2D2D 
 2897      2D2D00
 2898 01e2 0000     		.space	2
 2899              	.LC23:
 2900 01e4 252E386C 		.ascii	"%.8lx %.8lx %4lu %4lu %9s %14s %lu\000"
 2900      7820252E 
 2900      386C7820 
 2900      25346C75 
 2900      2025346C 
 2901 0207 00       		.space	1
 2902              	.LC24:
 2903 0208 00       		.ascii	"\000"
 2904 0209 000000   		.space	3
 2905              	.LC25:
 2906 020c 6661756C 		.ascii	"fault\000"
 2906      7400
 2907 0212 0000     		.space	2
 2908              	.LC26:
 2909 0214 25730A00 		.ascii	"%s\012\000"
 2910              	.LC27:
 2911 0218 6661756C 		.ascii	"faults\000"
 2911      747300
 2912 021f 00       		.space	1
 2913              	.LC28:
 2914 0220 4E6F2066 		.ascii	"No faults registered since startup\012\000"
 2914      61756C74 
 2914      73207265 
 2914      67697374 
 2914      65726564 
 2915              	.LC29:
 2916 0244 54686520 		.ascii	"The following faults were registered since start:\012"
 2916      666F6C6C 
 2916      6F77696E 
 2916      67206661 
ARM GAS  C:\Users\CHRIST~1\AppData\Local\Temp\ccVm3NB4.s 			page 54


 2916      756C7473 
 2917 0276 00       		.ascii	"\000"
 2918 0277 00       		.space	1
 2919              	.LC30:
 2920 0278 4661756C 		.ascii	"Fault            : %s\000"
 2920      74202020 
 2920      20202020 
 2920      20202020 
 2920      203A2025 
 2921 028e 0000     		.space	2
 2922              	.LC31:
 2923 0290 43757272 		.ascii	"Current          : %.1f\000"
 2923      656E7420 
 2923      20202020 
 2923      20202020 
 2923      203A2025 
 2924              	.LC32:
 2925 02a8 43757272 		.ascii	"Current filtered : %.1f\000"
 2925      656E7420 
 2925      66696C74 
 2925      65726564 
 2925      203A2025 
 2926              	.LC33:
 2927 02c0 566F6C74 		.ascii	"Voltage          : %.2f\000"
 2927      61676520 
 2927      20202020 
 2927      20202020 
 2927      203A2025 
 2928              	.LC34:
 2929 02d8 44757479 		.ascii	"Duty             : %.3f\000"
 2929      20202020 
 2929      20202020 
 2929      20202020 
 2929      203A2025 
 2930              	.LC35:
 2931 02f0 52504D20 		.ascii	"RPM              : %.1f\000"
 2931      20202020 
 2931      20202020 
 2931      20202020 
 2931      203A2025 
 2932              	.LC36:
 2933 0308 54616368 		.ascii	"Tacho            : %d\000"
 2933      6F202020 
 2933      20202020 
 2933      20202020 
 2933      203A2025 
 2934 031e 0000     		.space	2
 2935              	.LC37:
 2936 0320 4379636C 		.ascii	"Cycles running   : %d\000"
 2936      65732072 
 2936      756E6E69 
 2936      6E672020 
 2936      203A2025 
 2937 0336 0000     		.space	2
 2938              	.LC38:
 2939 0338 54494D20 		.ascii	"TIM duty         : %d\000"
 2939      64757479 
ARM GAS  C:\Users\CHRIST~1\AppData\Local\Temp\ccVm3NB4.s 			page 55


 2939      20202020 
 2939      20202020 
 2939      203A2025 
 2940 034e 0000     		.space	2
 2941              	.LC39:
 2942 0350 54494D20 		.ascii	"TIM val samp     : %d\000"
 2942      76616C20 
 2942      73616D70 
 2942      20202020 
 2942      203A2025 
 2943 0366 0000     		.space	2
 2944              	.LC40:
 2945 0368 54494D20 		.ascii	"TIM current samp : %d\000"
 2945      63757272 
 2945      656E7420 
 2945      73616D70 
 2945      203A2025 
 2946 037e 0000     		.space	2
 2947              	.LC41:
 2948 0380 54494D20 		.ascii	"TIM top          : %d\000"
 2948      746F7020 
 2948      20202020 
 2948      20202020 
 2948      203A2025 
 2949 0396 0000     		.space	2
 2950              	.LC42:
 2951 0398 436F6D6D 		.ascii	"Comm step        : %d\000"
 2951      20737465 
 2951      70202020 
 2951      20202020 
 2951      203A2025 
 2952 03ae 0000     		.space	2
 2953              	.LC43:
 2954 03b0 54656D70 		.ascii	"Temperature      : %.2f\000"
 2954      65726174 
 2954      75726520 
 2954      20202020 
 2954      203A2025 
 2955              	.LC44:
 2956 03c8 72706D00 		.ascii	"rpm\000"
 2957              	.LC45:
 2958 03cc 456C6563 		.ascii	"Electrical RPM: %.2f rpm\012\000"
 2958      74726963 
 2958      616C2052 
 2958      504D3A20 
 2958      252E3266 
 2959 03e6 0000     		.space	2
 2960              	.LC46:
 2961 03e8 74616368 		.ascii	"tacho\000"
 2961      6F00
 2962 03ee 0000     		.space	2
 2963              	.LC47:
 2964 03f0 54616368 		.ascii	"Tachometer counts: %i\012\000"
 2964      6F6D6574 
 2964      65722063 
 2964      6F756E74 
 2964      733A2025 
ARM GAS  C:\Users\CHRIST~1\AppData\Local\Temp\ccVm3NB4.s 			page 56


 2965 0407 00       		.space	1
 2966              	.LC48:
 2967 0408 74696D00 		.ascii	"tim\000"
 2968              	.LC49:
 2969 040c 54696D31 		.ascii	"Tim1 CNT: %i\000"
 2969      20434E54 
 2969      3A202569 
 2969      00
 2970 0419 000000   		.space	3
 2971              	.LC50:
 2972 041c 54696D38 		.ascii	"Tim8 CNT: %u\000"
 2972      20434E54 
 2972      3A202575 
 2972      00
 2973 0429 000000   		.space	3
 2974              	.LC51:
 2975 042c 44757479 		.ascii	"Duty cycle1: %u\000"
 2975      20637963 
 2975      6C65313A 
 2975      20257500 
 2976              	.LC52:
 2977 043c 44757479 		.ascii	"Duty cycle2: %u\000"
 2977      20637963 
 2977      6C65323A 
 2977      20257500 
 2978              	.LC53:
 2979 044c 44757479 		.ascii	"Duty cycle3: %u\000"
 2979      20637963 
 2979      6C65333A 
 2979      20257500 
 2980              	.LC54:
 2981 045c 546F703A 		.ascii	"Top: %u\000"
 2981      20257500 
 2982              	.LC55:
 2983 0464 44697231 		.ascii	"Dir1: %u\000"
 2983      3A202575 
 2983      00
 2984 046d 000000   		.space	3
 2985              	.LC56:
 2986 0470 44697238 		.ascii	"Dir8: %u\000"
 2986      3A202575 
 2986      00
 2987 0479 000000   		.space	3
 2988              	.LC57:
 2989 047c 566F6C74 		.ascii	"Voltage sample: %u\000"
 2989      61676520 
 2989      73616D70 
 2989      6C653A20 
 2989      257500
 2990 048f 00       		.space	1
 2991              	.LC58:
 2992 0490 43757272 		.ascii	"Current 1 sample: %u\000"
 2992      656E7420 
 2992      31207361 
 2992      6D706C65 
 2992      3A202575 
 2993 04a5 000000   		.space	3
ARM GAS  C:\Users\CHRIST~1\AppData\Local\Temp\ccVm3NB4.s 			page 57


 2994              	.LC59:
 2995 04a8 43757272 		.ascii	"Current 2 sample: %u\012\000"
 2995      656E7420 
 2995      32207361 
 2995      6D706C65 
 2995      3A202575 
 2996 04be 0000     		.space	2
 2997              	.LC60:
 2998 04c0 766F6C74 		.ascii	"volt\000"
 2998      00
 2999 04c5 000000   		.space	3
 3000              	.LC61:
 3001 04c8 496E7075 		.ascii	"Input voltage: %.2f\012\000"
 3001      7420766F 
 3001      6C746167 
 3001      653A2025 
 3001      2E32660A 
 3002 04dd 000000   		.space	3
 3003              	.LC62:
 3004 04e0 70617261 		.ascii	"param_detect\000"
 3004      6D5F6465 
 3004      74656374 
 3004      00
 3005 04ed 000000   		.space	3
 3006              	.LC63:
 3007 04f0 256600   		.ascii	"%f\000"
 3008 04f3 00       		.space	1
 3009              	.LC64:
 3010 04f4 4379636C 		.ascii	"Cycle integrator limit: %.2f\000"
 3010      6520696E 
 3010      74656772 
 3010      61746F72 
 3010      206C696D 
 3011 0511 000000   		.space	3
 3012              	.LC65:
 3013 0514 436F7570 		.ascii	"Coupling factor: %.2f\000"
 3013      6C696E67 
 3013      20666163 
 3013      746F723A 
 3013      20252E32 
 3014 052a 0000     		.space	2
 3015              	.LC66:
 3016 052c 44657465 		.ascii	"Detected hall sensor table:\000"
 3016      63746564 
 3016      2068616C 
 3016      6C207365 
 3016      6E736F72 
 3017              	.LC67:
 3018 0548 25692C20 		.ascii	"%i, %i, %i, %i, %i, %i, %i, %i\012\000"
 3018      25692C20 
 3018      25692C20 
 3018      25692C20 
 3018      25692C20 
 3019              	.LC68:
 3020 0568 48616C6C 		.ascii	"Hall sensor detection failed:\000"
 3020      2073656E 
 3020      736F7220 
ARM GAS  C:\Users\CHRIST~1\AppData\Local\Temp\ccVm3NB4.s 			page 58


 3020      64657465 
 3020      6374696F 
 3021 0586 0000     		.space	2
 3022              	.LC69:
 3023 0588 57533238 		.ascii	"WS2811 enabled. Hall sensors cannot be used.\012\000"
 3023      31312065 
 3023      6E61626C 
 3023      65642E20 
 3023      48616C6C 
 3024 05b6 0000     		.space	2
 3025              	.LC70:
 3026 05b8 456E636F 		.ascii	"Encoder enabled. Hall sensors cannot be used.\012\000"
 3026      64657220 
 3026      656E6162 
 3026      6C65642E 
 3026      2048616C 
 3027 05e7 00       		.space	1
 3028              	.LC71:
 3029 05e8 44657465 		.ascii	"Detection failed. Try again with different paramete"
 3029      6374696F 
 3029      6E206661 
 3029      696C6564 
 3029      2E205472 
 3030 061b 72732E0A 		.ascii	"rs.\012\000"
 3030      00
 3031              	.LC72:
 3032 0620 496E7661 		.ascii	"Invalid argument(s).\012\000"
 3032      6C696420 
 3032      61726775 
 3032      6D656E74 
 3032      2873292E 
 3033 0636 0000     		.space	2
 3034              	.LC73:
 3035 0638 54686973 		.ascii	"This command requires three arguments.\012\000"
 3035      20636F6D 
 3035      6D616E64 
 3035      20726571 
 3035      75697265 
 3036              	.LC74:
 3037 0660 72706D5F 		.ascii	"rpm_dep\000"
 3037      64657000 
 3038              	.LC75:
 3039 0668 4379636C 		.ascii	"Cycle int limit: %.2f\000"
 3039      6520696E 
 3039      74206C69 
 3039      6D69743A 
 3039      20252E32 
 3040 067e 0000     		.space	2
 3041              	.LC76:
 3042 0680 4379636C 		.ascii	"Cycle int limit running: %.2f\000"
 3042      6520696E 
 3042      74206C69 
 3042      6D697420 
 3042      72756E6E 
 3043 069e 0000     		.space	2
 3044              	.LC77:
 3045 06a0 4379636C 		.ascii	"Cycle int limit max: %.2f\012\000"
ARM GAS  C:\Users\CHRIST~1\AppData\Local\Temp\ccVm3NB4.s 			page 59


 3045      6520696E 
 3045      74206C69 
 3045      6D697420 
 3045      6D61783A 
 3046 06bb 00       		.space	1
 3047              	.LC78:
 3048 06bc 63616E5F 		.ascii	"can_devs\000"
 3048      64657673 
 3048      00
 3049 06c5 000000   		.space	3
 3050              	.LC79:
 3051 06c8 43414E20 		.ascii	"CAN devices seen on the bus the past second:\012\000"
 3051      64657669 
 3051      63657320 
 3051      7365656E 
 3051      206F6E20 
 3052 06f6 0000     		.space	2
 3053              	.LC80:
 3054 06f8 49442020 		.ascii	"ID                 : %i\000"
 3054      20202020 
 3054      20202020 
 3054      20202020 
 3054      2020203A 
 3055              	.LC81:
 3056 0710 52582054 		.ascii	"RX Time            : %i\000"
 3056      696D6520 
 3056      20202020 
 3056      20202020 
 3056      2020203A 
 3057              	.LC82:
 3058 0728 41676520 		.ascii	"Age (milliseconds) : %.2f\000"
 3058      286D696C 
 3058      6C697365 
 3058      636F6E64 
 3058      7329203A 
 3059 0742 0000     		.space	2
 3060              	.LC83:
 3061 0744 52504D20 		.ascii	"RPM                : %.2f\000"
 3061      20202020 
 3061      20202020 
 3061      20202020 
 3061      2020203A 
 3062 075e 0000     		.space	2
 3063              	.LC84:
 3064 0760 43757272 		.ascii	"Current            : %.2f\000"
 3064      656E7420 
 3064      20202020 
 3064      20202020 
 3064      2020203A 
 3065 077a 0000     		.space	2
 3066              	.LC85:
 3067 077c 44757479 		.ascii	"Duty               : %.2f\012\000"
 3067      20202020 
 3067      20202020 
 3067      20202020 
 3067      2020203A 
 3068 0797 00       		.space	1
ARM GAS  C:\Users\CHRIST~1\AppData\Local\Temp\ccVm3NB4.s 			page 60


 3069              	.LC86:
 3070 0798 666F635F 		.ascii	"foc_encoder_detect\000"
 3070      656E636F 
 3070      6465725F 
 3070      64657465 
 3070      637400
 3071 07ab 00       		.space	1
 3072              	.LC87:
 3073 07ac 4F666673 		.ascii	"Offset   : %.2f\000"
 3073      65742020 
 3073      203A2025 
 3073      2E326600 
 3074              	.LC88:
 3075 07bc 52617469 		.ascii	"Ratio    : %.2f\000"
 3075      6F202020 
 3075      203A2025 
 3075      2E326600 
 3076              	.LC89:
 3077 07cc 496E7665 		.ascii	"Inverted : %s\012\000"
 3077      72746564 
 3077      203A2025 
 3077      730A00
 3078 07db 00       		.space	1
 3079              	.LC90:
 3080 07dc 456E636F 		.ascii	"Encoder not enabled.\012\000"
 3080      64657220 
 3080      6E6F7420 
 3080      656E6162 
 3080      6C65642E 
 3081 07f2 0000     		.space	2
 3082              	.LC91:
 3083 07f4 54686973 		.ascii	"This command requires one argument.\012\000"
 3083      20636F6D 
 3083      6D616E64 
 3083      20726571 
 3083      75697265 
 3084 0819 000000   		.space	3
 3085              	.LC92:
 3086 081c 6D656173 		.ascii	"measure_res\000"
 3086      7572655F 
 3086      72657300 
 3087              	.LC93:
 3088 0828 52657369 		.ascii	"Resistance: %.6f ohm\012\000"
 3088      7374616E 
 3088      63653A20 
 3088      252E3666 
 3088      206F686D 
 3089 083e 0000     		.space	2
 3090              	.LC94:
 3091 0840 6D656173 		.ascii	"measure_ind\000"
 3091      7572655F 
 3091      696E6400 
 3092              	.LC95:
 3093 084c 496E6475 		.ascii	"Inductance: %.2f microhenry (%.2f A)\012\000"
 3093      6374616E 
 3093      63653A20 
 3093      252E3266 
ARM GAS  C:\Users\CHRIST~1\AppData\Local\Temp\ccVm3NB4.s 			page 61


 3093      206D6963 
 3094 0872 0000     		.space	2
 3095              	.LC96:
 3096 0874 6D656173 		.ascii	"measure_linkage\000"
 3096      7572655F 
 3096      6C696E6B 
 3096      61676500 
 3097              	.LC97:
 3098 0884 466C7578 		.ascii	"Flux linkage: %.7f\012\000"
 3098      206C696E 
 3098      6B616765 
 3098      3A20252E 
 3098      37660A00 
 3099              	.LC98:
 3100 0898 6D656173 		.ascii	"measure_res_ind\000"
 3100      7572655F 
 3100      7265735F 
 3100      696E6400 
 3101              	.LC99:
 3102 08a8 52657369 		.ascii	"Resistance: %.6f ohm\000"
 3102      7374616E 
 3102      63653A20 
 3102      252E3666 
 3102      206F686D 
 3103 08bd 000000   		.space	3
 3104              	.LC100:
 3105 08c0 496E6475 		.ascii	"Inductance: %.2f microhenry\012\000"
 3105      6374616E 
 3105      63653A20 
 3105      252E3266 
 3105      206D6963 
 3106 08dd 000000   		.space	3
 3107              	.LC101:
 3108 08e0 6D656173 		.ascii	"measure_linkage_foc\000"
 3108      7572655F 
 3108      6C696E6B 
 3108      6167655F 
 3108      666F6300 
 3109              	.LC102:
 3110 08f4 666F635F 		.ascii	"foc_state\000"
 3110      73746174 
 3110      6500
 3111 08fe 0000     		.space	2
 3112              	.LC103:
 3113 0900 68775F73 		.ascii	"hw_status\000"
 3113      74617475 
 3113      7300
 3114 090a 0000     		.space	2
 3115              	.LC104:
 3116 090c 4669726D 		.ascii	"Firmware: %d.%d\000"
 3116      77617265 
 3116      3A202564 
 3116      2E256400 
 3117              	.LC105:
 3118 091c 34313000 		.ascii	"410\000"
 3119              	.LC106:
 3120 0920 48617264 		.ascii	"Hardware: %s\000"
ARM GAS  C:\Users\CHRIST~1\AppData\Local\Temp\ccVm3NB4.s 			page 62


 3120      77617265 
 3120      3A202573 
 3120      00
 3121 092d 000000   		.space	3
 3122              	.LC107:
 3123 0930 55554944 		.ascii	"UUID: %02X %02X %02X %02X %02X %02X %02X %02X %02X "
 3123      3A202530 
 3123      32582025 
 3123      30325820 
 3123      25303258 
 3124 0963 25303258 		.ascii	"%02X %02X %02X\000"
 3124      20253032 
 3124      58202530 
 3124      325800
 3125 0972 0000     		.space	2
 3126              	.LC108:
 3127 0974 5065726D 		.ascii	"Permanent NRF found: %s\000"
 3127      616E656E 
 3127      74204E52 
 3127      4620666F 
 3127      756E643A 
 3128              	.LC109:
 3129 098c 64727638 		.ascii	"drv8301_read_reg\000"
 3129      3330315F 
 3129      72656164 
 3129      5F726567 
 3129      00
 3130 099d 000000   		.space	3
 3131              	.LC110:
 3132 09a0 54686973 		.ascii	"This hardware does not have a DRV8301.\012\000"
 3132      20686172 
 3132      64776172 
 3132      6520646F 
 3132      6573206E 
 3133              	.LC111:
 3134 09c8 64727638 		.ascii	"drv8301_write_reg\000"
 3134      3330315F 
 3134      77726974 
 3134      655F7265 
 3134      6700
 3135 09da 0000     		.space	2
 3136              	.LC112:
 3137 09dc 64727638 		.ascii	"drv8301_set_oc_adj\000"
 3137      3330315F 
 3137      7365745F 
 3137      6F635F61 
 3137      646A00
 3138 09ef 00       		.space	1
 3139              	.LC113:
 3140 09f0 64727638 		.ascii	"drv8301_print_faults\000"
 3140      3330315F 
 3140      7072696E 
 3140      745F6661 
 3140      756C7473 
 3141 0a05 000000   		.space	3
 3142              	.LC114:
 3143 0a08 64727638 		.ascii	"drv8301_reset_faults\000"
ARM GAS  C:\Users\CHRIST~1\AppData\Local\Temp\ccVm3NB4.s 			page 63


 3143      3330315F 
 3143      72657365 
 3143      745F6661 
 3143      756C7473 
 3144 0a1d 000000   		.space	3
 3145              	.LC115:
 3146 0a20 64727638 		.ascii	"drv8305_read_reg\000"
 3146      3330355F 
 3146      72656164 
 3146      5F726567 
 3146      00
 3147 0a31 000000   		.space	3
 3148              	.LC116:
 3149 0a34 54686973 		.ascii	"This hardware does not have a DRV8305.\012\000"
 3149      20686172 
 3149      64776172 
 3149      6520646F 
 3149      6573206E 
 3150              	.LC117:
 3151 0a5c 64727638 		.ascii	"drv8305_write_reg\000"
 3151      3330355F 
 3151      77726974 
 3151      655F7265 
 3151      6700
 3152 0a6e 0000     		.space	2
 3153              	.LC118:
 3154 0a70 666F635F 		.ascii	"foc_openloop\000"
 3154      6F70656E 
 3154      6C6F6F70 
 3154      00
 3155 0a7d 000000   		.space	3
 3156              	.LC119:
 3157 0a80 54686973 		.ascii	"This command requires two arguments.\012\000"
 3157      20636F6D 
 3157      6D616E64 
 3157      20726571 
 3157      75697265 
 3158 0aa6 0000     		.space	2
 3159              	.LC120:
 3160 0aa8 68656C70 		.ascii	"help\000"
 3160      00
 3161 0aad 000000   		.space	3
 3162              	.LC121:
 3163 0ab0 56616C69 		.ascii	"Valid commands are:\000"
 3163      6420636F 
 3163      6D6D616E 
 3163      64732061 
 3163      72653A00 
 3164              	.LC122:
 3165 0ac4 20205368 		.ascii	"  Show this help\000"
 3165      6F772074 
 3165      68697320 
 3165      68656C70 
 3165      00
 3166 0ad5 000000   		.space	3
 3167              	.LC123:
 3168 0ad8 20205072 		.ascii	"  Print pong here to see if the reply works\000"
ARM GAS  C:\Users\CHRIST~1\AppData\Local\Temp\ccVm3NB4.s 			page 64


 3168      696E7420 
 3168      706F6E67 
 3168      20686572 
 3168      6520746F 
 3169              	.LC124:
 3170 0b04 20205374 		.ascii	"  Stop the motor\000"
 3170      6F702074 
 3170      6865206D 
 3170      6F746F72 
 3170      00
 3171 0b15 000000   		.space	3
 3172              	.LC125:
 3173 0b18 20205468 		.ascii	"  The time the latest ADC interrupt consumed\000"
 3173      65207469 
 3173      6D652074 
 3173      6865206C 
 3173      61746573 
 3174 0b45 000000   		.space	3
 3175              	.LC126:
 3176 0b48 20205468 		.ascii	"  The calculated kv of the motor\000"
 3176      65206361 
 3176      6C63756C 
 3176      61746564 
 3176      206B7620 
 3177 0b69 000000   		.space	3
 3178              	.LC127:
 3179 0b6c 20205368 		.ascii	"  Show memory usage\000"
 3179      6F77206D 
 3179      656D6F72 
 3179      79207573 
 3179      61676500 
 3180              	.LC128:
 3181 0b80 20204C69 		.ascii	"  List all threads\000"
 3181      73742061 
 3181      6C6C2074 
 3181      68726561 
 3181      647300
 3182 0b93 00       		.space	1
 3183              	.LC129:
 3184 0b94 20205072 		.ascii	"  Prints the current fault code\000"
 3184      696E7473 
 3184      20746865 
 3184      20637572 
 3184      72656E74 
 3185              	.LC130:
 3186 0bb4 20205072 		.ascii	"  Prints all stored fault codes and conditions when"
 3186      696E7473 
 3186      20616C6C 
 3186      2073746F 
 3186      72656420 
 3187 0be7 20746865 		.ascii	" they arrived\000"
 3187      79206172 
 3187      72697665 
 3187      6400
 3188 0bf5 000000   		.space	3
 3189              	.LC131:
 3190 0bf8 20205072 		.ascii	"  Prints the current electrical RPM\000"
ARM GAS  C:\Users\CHRIST~1\AppData\Local\Temp\ccVm3NB4.s 			page 65


 3190      696E7473 
 3190      20746865 
 3190      20637572 
 3190      72656E74 
 3191              	.LC132:
 3192 0c1c 20205072 		.ascii	"  Prints tachometer value\000"
 3192      696E7473 
 3192      20746163 
 3192      686F6D65 
 3192      74657220 
 3193 0c36 0000     		.space	2
 3194              	.LC133:
 3195 0c38 20205072 		.ascii	"  Prints tim1 and tim8 settings\000"
 3195      696E7473 
 3195      2074696D 
 3195      3120616E 
 3195      64207469 
 3196              	.LC134:
 3197 0c58 20205072 		.ascii	"  Prints different voltages\000"
 3197      696E7473 
 3197      20646966 
 3197      66657265 
 3197      6E742076 
 3198              	.LC135:
 3199 0c74 70617261 		.ascii	"param_detect [current] [min_rpm] [low_duty]\000"
 3199      6D5F6465 
 3199      74656374 
 3199      205B6375 
 3199      7272656E 
 3200              	.LC136:
 3201 0ca0 20205370 		.ascii	"  Spin up the motor in COMM_MODE_DELAY and compute "
 3201      696E2075 
 3201      70207468 
 3201      65206D6F 
 3201      746F7220 
 3202 0cd3 69747320 		.ascii	"its parameters.\000"
 3202      70617261 
 3202      6D657465 
 3202      72732E00 
 3203 0ce3 00       		.space	1
 3204              	.LC137:
 3205 0ce4 20205468 		.ascii	"  This test should be performed without load on the"
 3205      69732074 
 3205      65737420 
 3205      73686F75 
 3205      6C642062 
 3206 0d17 206D6F74 		.ascii	" motor.\000"
 3206      6F722E00 
 3207 0d1f 00       		.space	1
 3208              	.LC138:
 3209 0d20 20204578 		.ascii	"  Example: param_detect 5.0 600 0.06\000"
 3209      616D706C 
 3209      653A2070 
 3209      6172616D 
 3209      5F646574 
 3210 0d45 000000   		.space	3
 3211              	.LC139:
ARM GAS  C:\Users\CHRIST~1\AppData\Local\Temp\ccVm3NB4.s 			page 66


 3212 0d48 20205072 		.ascii	"  Prints some rpm-dep values\000"
 3212      696E7473 
 3212      20736F6D 
 3212      65207270 
 3212      6D2D6465 
 3213 0d65 000000   		.space	3
 3214              	.LC140:
 3215 0d68 20205072 		.ascii	"  Prints all CAN devices seen on the bus the past s"
 3215      696E7473 
 3215      20616C6C 
 3215      2043414E 
 3215      20646576 
 3216 0d9b 65636F6E 		.ascii	"econd\000"
 3216      6400
 3217 0da1 000000   		.space	3
 3218              	.LC141:
 3219 0da4 666F635F 		.ascii	"foc_encoder_detect [current]\000"
 3219      656E636F 
 3219      6465725F 
 3219      64657465 
 3219      6374205B 
 3220 0dc1 000000   		.space	3
 3221              	.LC142:
 3222 0dc4 20205275 		.ascii	"  Run the motor at 1Hz on open loop and compute enc"
 3222      6E207468 
 3222      65206D6F 
 3222      746F7220 
 3222      61742031 
 3223 0df7 6F646572 		.ascii	"oder settings\000"
 3223      20736574 
 3223      74696E67 
 3223      7300
 3224 0e05 000000   		.space	3
 3225              	.LC143:
 3226 0e08 6D656173 		.ascii	"measure_res [current]\000"
 3226      7572655F 
 3226      72657320 
 3226      5B637572 
 3226      72656E74 
 3227 0e1e 0000     		.space	2
 3228              	.LC144:
 3229 0e20 20204C6F 		.ascii	"  Lock the motor with a current and calculate its r"
 3229      636B2074 
 3229      6865206D 
 3229      6F746F72 
 3229      20776974 
 3230 0e53 65736973 		.ascii	"esistance\000"
 3230      74616E63 
 3230      6500
 3231 0e5d 000000   		.space	3
 3232              	.LC145:
 3233 0e60 6D656173 		.ascii	"measure_ind [duty]\000"
 3233      7572655F 
 3233      696E6420 
 3233      5B647574 
 3233      795D00
 3234 0e73 00       		.space	1
ARM GAS  C:\Users\CHRIST~1\AppData\Local\Temp\ccVm3NB4.s 			page 67


 3235              	.LC146:
 3236 0e74 20205365 		.ascii	"  Send short voltage pulses, measure the current an"
 3236      6E642073 
 3236      686F7274 
 3236      20766F6C 
 3236      74616765 
 3237 0ea7 64206361 		.ascii	"d calculate the motor inductance\000"
 3237      6C63756C 
 3237      61746520 
 3237      74686520 
 3237      6D6F746F 
 3238              	.LC147:
 3239 0ec8 6D656173 		.ascii	"measure_linkage [current] [duty] [min_rpm] [motor_r"
 3239      7572655F 
 3239      6C696E6B 
 3239      61676520 
 3239      5B637572 
 3240 0efb 65735D00 		.ascii	"es]\000"
 3241 0eff 00       		.space	1
 3242              	.LC148:
 3243 0f00 20205275 		.ascii	"  Run the motor in BLDC delay mode and measure the "
 3243      6E207468 
 3243      65206D6F 
 3243      746F7220 
 3243      696E2042 
 3244 0f33 666C7578 		.ascii	"flux linkage\000"
 3244      206C696E 
 3244      6B616765 
 3244      00
 3245              	.LC149:
 3246 0f40 20206578 		.ascii	"  example measure_linkage 5 0.5 700 0.076\000"
 3246      616D706C 
 3246      65206D65 
 3246      61737572 
 3246      655F6C69 
 3247 0f6a 0000     		.space	2
 3248              	.LC150:
 3249 0f6c 20207469 		.ascii	"  tip: measure the resistance with measure_res firs"
 3249      703A206D 
 3249      65617375 
 3249      72652074 
 3249      68652072 
 3250 0f9f 7400     		.ascii	"t\000"
 3251 0fa1 000000   		.space	3
 3252              	.LC151:
 3253 0fa4 20204D65 		.ascii	"  Measure the motor resistance and inductance with "
 3253      61737572 
 3253      65207468 
 3253      65206D6F 
 3253      746F7220 
 3254 0fd7 616E2069 		.ascii	"an incremental adaptive algorithm.\000"
 3254      6E637265 
 3254      6D656E74 
 3254      616C2061 
 3254      64617074 
 3255 0ffa 0000     		.space	2
 3256              	.LC152:
ARM GAS  C:\Users\CHRIST~1\AppData\Local\Temp\ccVm3NB4.s 			page 68


 3257 0ffc 6D656173 		.ascii	"measure_linkage_foc [duty]\000"
 3257      7572655F 
 3257      6C696E6B 
 3257      6167655F 
 3257      666F6320 
 3258 1017 00       		.space	1
 3259              	.LC153:
 3260 1018 20205275 		.ascii	"  Run the motor with FOC and measure the flux linka"
 3260      6E207468 
 3260      65206D6F 
 3260      746F7220 
 3260      77697468 
 3261 104b 67652E00 		.ascii	"ge.\000"
 3262 104f 00       		.space	1
 3263              	.LC154:
 3264 1050 20205072 		.ascii	"  Print some FOC state variables.\000"
 3264      696E7420 
 3264      736F6D65 
 3264      20464F43 
 3264      20737461 
 3265 1072 0000     		.space	2
 3266              	.LC155:
 3267 1074 20205072 		.ascii	"  Print some hardware status information.\000"
 3267      696E7420 
 3267      736F6D65 
 3267      20686172 
 3267      64776172 
 3268 109e 0000     		.space	2
 3269              	.LC156:
 3270 10a0 666F635F 		.ascii	"foc_openloop [current] [erpm]\000"
 3270      6F70656E 
 3270      6C6F6F70 
 3270      205B6375 
 3270      7272656E 
 3271 10be 0000     		.space	2
 3272              	.LC157:
 3273 10c0 20204372 		.ascii	"  Create an open loop rotating current vector.\000"
 3273      65617465 
 3273      20616E20 
 3273      6F70656E 
 3273      206C6F6F 
 3274 10ef 00       		.space	1
 3275              	.LC158:
 3276 10f0 25732025 		.ascii	"%s %s\000"
 3276      7300
 3277 10f6 0000     		.space	2
 3278              	.LC159:
 3279 10f8 20202573 		.ascii	"  %s\000"
 3279      00
 3280 10fd 000000   		.space	3
 3281              	.LC160:
 3282 1100 20205468 		.ascii	"  There is no help available for this command.\000"
 3282      65726520 
 3282      6973206E 
 3282      6F206865 
 3282      6C702061 
 3283 112f 00       		.space	1
ARM GAS  C:\Users\CHRIST~1\AppData\Local\Temp\ccVm3NB4.s 			page 69


 3284              	.LC161:
 3285 1130 496E7661 		.ascii	"Invalid command: %s\012type help to list all availa"
 3285      6C696420 
 3285      636F6D6D 
 3285      616E643A 
 3285      2025730A 
 3286 1160 626C6520 		.ascii	"ble commands\012\000"
 3286      636F6D6D 
 3286      616E6473 
 3286      0A00
 3287              		.text
 3288              	.Letext0:
 3289              		.file 4 "c:\\program files (x86)\\gnu tools arm embedded\\6 2017-q2-update\\lib\\gcc\\arm-none-eab
 3290              		.file 5 "c:\\program files (x86)\\gnu tools arm embedded\\6 2017-q2-update\\arm-none-eabi\\include
 3291              		.file 6 "c:\\program files (x86)\\gnu tools arm embedded\\6 2017-q2-update\\arm-none-eabi\\include
 3292              		.file 7 "ChibiOS_3.0.2/os/rt/ports/ARMCMx/compilers/GCC/chtypes.h"
 3293              		.file 8 "ChibiOS_3.0.2/os/rt/include/chsystypes.h"
 3294              		.file 9 "ChibiOS_3.0.2/os/rt/include/chschd.h"
 3295              		.file 10 "ChibiOS_3.0.2/os/ext/CMSIS/include/core_cm4.h"
 3296              		.file 11 "ChibiOS_3.0.2/os/ext/CMSIS/ST/system_stm32f4xx.h"
 3297              		.file 12 "ChibiOS_3.0.2/os/ext/CMSIS/ST/stm32f407xx.h"
 3298              		.file 13 "ChibiOS_3.0.2/os/rt/ports/ARMCMx/chcore.h"
 3299              		.file 14 "ChibiOS_3.0.2/os/rt/ports/ARMCMx/chcore_v7m.h"
 3300              		.file 15 "ChibiOS_3.0.2/os/rt/include/chtm.h"
 3301              		.file 16 "ChibiOS_3.0.2/os/rt/include/chsem.h"
 3302              		.file 17 "ChibiOS_3.0.2/os/rt/include/chmtx.h"
 3303              		.file 18 "ChibiOS_3.0.2/os/rt/include/chregistry.h"
 3304              		.file 19 "ChibiOS_3.0.2/os/rt/include/chevents.h"
 3305              		.file 20 "ChibiOS_3.0.2/os/rt/include/chqueues.h"
 3306              		.file 21 "./datatypes.h"
 3307              		.file 22 "./conf_general.h"
 3308              		.file 23 "ChibiOS_3.0.2/os/hal/ports/STM32/STM32F4xx/stm32_dma.h"
 3309              		.file 24 "ChibiOS_3.0.2/os/hal/ports/STM32/LLD/GPIOv2/pal_lld.h"
 3310              		.file 25 "ChibiOS_3.0.2/os/hal/include/can.h"
 3311              		.file 26 "ChibiOS_3.0.2/os/hal/ports/STM32/LLD/can_lld.h"
 3312              		.file 27 "ChibiOS_3.0.2/os/hal/include/i2c.h"
 3313              		.file 28 "ChibiOS_3.0.2/os/hal/ports/STM32/LLD/I2Cv1/i2c_lld.h"
 3314              		.file 29 "ChibiOS_3.0.2/os/hal/include/icu.h"
 3315              		.file 30 "ChibiOS_3.0.2/os/hal/ports/STM32/LLD/TIMv1/icu_lld.h"
 3316              		.file 31 "ChibiOS_3.0.2/os/hal/ports/STM32/LLD/TIMv1/stm32_tim.h"
 3317              		.file 32 "ChibiOS_3.0.2/os/hal/include/spi.h"
 3318              		.file 33 "ChibiOS_3.0.2/os/hal/ports/STM32/LLD/SPIv1/spi_lld.h"
 3319              		.file 34 "ChibiOS_3.0.2/os/hal/include/uart.h"
 3320              		.file 35 "ChibiOS_3.0.2/os/hal/ports/STM32/LLD/USARTv1/uart_lld.h"
 3321              		.file 36 "ChibiOS_3.0.2/os/hal/include/usb.h"
 3322              		.file 37 "ChibiOS_3.0.2/os/hal/ports/STM32/LLD/OTGv1/usb_lld.h"
 3323              		.file 38 "ChibiOS_3.0.2/os/hal/ports/STM32/LLD/OTGv1/stm32_otg.h"
 3324              		.file 39 "mcpwm.h"
 3325              		.file 40 "mc_interface.h"
 3326              		.file 41 "c:\\program files (x86)\\gnu tools arm embedded\\6 2017-q2-update\\arm-none-eabi\\includ
 3327              		.file 42 "c:\\program files (x86)\\gnu tools arm embedded\\6 2017-q2-update\\arm-none-eabi\\includ
 3328              		.file 43 "c:\\program files (x86)\\gnu tools arm embedded\\6 2017-q2-update\\arm-none-eabi\\includ
 3329              		.file 44 "c:\\program files (x86)\\gnu tools arm embedded\\6 2017-q2-update\\arm-none-eabi\\includ
 3330              		.file 45 "ChibiOS_3.0.2/os/rt/include/chsys.h"
 3331              		.file 46 "c:\\program files (x86)\\gnu tools arm embedded\\6 2017-q2-update\\arm-none-eabi\\includ
 3332              		.file 47 "ChibiOS_3.0.2/os/rt/include/chheap.h"
 3333              		.file 48 "ChibiOS_3.0.2/os/rt/include/chmemcore.h"
ARM GAS  C:\Users\CHRIST~1\AppData\Local\Temp\ccVm3NB4.s 			page 70


 3334              		.file 49 "commands.h"
 3335              		.file 50 "c:\\program files (x86)\\gnu tools arm embedded\\6 2017-q2-update\\arm-none-eabi\\includ
 3336              		.file 51 "comm_can.h"
 3337              		.file 52 "mcpwm_foc.h"
 3338              		.file 53 "encoder.h"
 3339              		.file 54 "ChibiOS_3.0.2/os/rt/include/chthreads.h"
 3340              		.file 55 "timeout.h"